ARM GAS  C:\Users\bryan.lee\AppData\Local\Temp\ccC85gGx.s 			page 1


   1              		.syntax unified
   2              		.cpu cortex-m3
   3              		.fpu softvfp
   4              		.eabi_attribute 20, 1
   5              		.eabi_attribute 21, 1
   6              		.eabi_attribute 23, 3
   7              		.eabi_attribute 24, 1
   8              		.eabi_attribute 25, 1
   9              		.eabi_attribute 26, 1
  10              		.eabi_attribute 30, 6
  11              		.eabi_attribute 34, 1
  12              		.eabi_attribute 18, 4
  13              		.thumb
  14              		.syntax unified
  15              		.file	"cyfitter_cfg.c"
  16              		.text
  17              	.Ltext0:
  18              		.cfi_sections	.debug_frame
  19              		.section	.text.CYMEMZERO,"ax",%progbits
  20              		.align	2
  21              		.thumb
  22              		.thumb_func
  23              		.type	CYMEMZERO, %function
  24              	CYMEMZERO:
  25              	.LFB0:
  26              		.file 1 "Generated_Source\\PSoC5\\cyfitter_cfg.c"
   1:Generated_Source\PSoC5/cyfitter_cfg.c **** 
   2:Generated_Source\PSoC5/cyfitter_cfg.c **** /*******************************************************************************
   3:Generated_Source\PSoC5/cyfitter_cfg.c **** * File Name: cyfitter_cfg.c
   4:Generated_Source\PSoC5/cyfitter_cfg.c **** * 
   5:Generated_Source\PSoC5/cyfitter_cfg.c **** * PSoC Creator  4.3
   6:Generated_Source\PSoC5/cyfitter_cfg.c **** *
   7:Generated_Source\PSoC5/cyfitter_cfg.c **** * Description:
   8:Generated_Source\PSoC5/cyfitter_cfg.c **** * This file contains device initialization code.
   9:Generated_Source\PSoC5/cyfitter_cfg.c **** * Except for the user defined sections in CyClockStartupError(), this file should not be modified.
  10:Generated_Source\PSoC5/cyfitter_cfg.c **** * This file is automatically generated by PSoC Creator.
  11:Generated_Source\PSoC5/cyfitter_cfg.c **** *
  12:Generated_Source\PSoC5/cyfitter_cfg.c **** ********************************************************************************
  13:Generated_Source\PSoC5/cyfitter_cfg.c **** * Copyright (c) 2007-2019 Cypress Semiconductor.  All rights reserved.
  14:Generated_Source\PSoC5/cyfitter_cfg.c **** * You may use this file only in accordance with the license, terms, conditions, 
  15:Generated_Source\PSoC5/cyfitter_cfg.c **** * disclaimers, and limitations in the end user license agreement accompanying 
  16:Generated_Source\PSoC5/cyfitter_cfg.c **** * the software package with which this file was provided.
  17:Generated_Source\PSoC5/cyfitter_cfg.c **** ********************************************************************************/
  18:Generated_Source\PSoC5/cyfitter_cfg.c **** 
  19:Generated_Source\PSoC5/cyfitter_cfg.c **** #include <string.h>
  20:Generated_Source\PSoC5/cyfitter_cfg.c **** #include "cytypes.h"
  21:Generated_Source\PSoC5/cyfitter_cfg.c **** #include "cydevice_trm.h"
  22:Generated_Source\PSoC5/cyfitter_cfg.c **** #include "cyfitter.h"
  23:Generated_Source\PSoC5/cyfitter_cfg.c **** #include "CyLib.h"
  24:Generated_Source\PSoC5/cyfitter_cfg.c **** #include "cyfitter_cfg.h"
  25:Generated_Source\PSoC5/cyfitter_cfg.c **** 
  26:Generated_Source\PSoC5/cyfitter_cfg.c **** #define CY_NEED_CYCLOCKSTARTUPERROR 1
  27:Generated_Source\PSoC5/cyfitter_cfg.c **** 
  28:Generated_Source\PSoC5/cyfitter_cfg.c **** 
  29:Generated_Source\PSoC5/cyfitter_cfg.c **** #if defined(__GNUC__) || defined(__ARMCC_VERSION)
  30:Generated_Source\PSoC5/cyfitter_cfg.c ****     #define CYPACKED 
  31:Generated_Source\PSoC5/cyfitter_cfg.c ****     #define CYPACKED_ATTR __attribute__ ((packed))
ARM GAS  C:\Users\bryan.lee\AppData\Local\Temp\ccC85gGx.s 			page 2


  32:Generated_Source\PSoC5/cyfitter_cfg.c ****     #define CYALIGNED __attribute__ ((aligned))
  33:Generated_Source\PSoC5/cyfitter_cfg.c ****     #define CY_CFG_UNUSED __attribute__ ((unused))
  34:Generated_Source\PSoC5/cyfitter_cfg.c ****     #ifndef CY_CFG_SECTION
  35:Generated_Source\PSoC5/cyfitter_cfg.c ****         #define CY_CFG_SECTION __attribute__ ((section(".psocinit")))
  36:Generated_Source\PSoC5/cyfitter_cfg.c ****     #endif
  37:Generated_Source\PSoC5/cyfitter_cfg.c ****     
  38:Generated_Source\PSoC5/cyfitter_cfg.c ****     #if CYDEV_CONFIGURATION_DMA
  39:Generated_Source\PSoC5/cyfitter_cfg.c ****         #if (defined(__ARMCC_VERSION) || defined(__GNUC__))
  40:Generated_Source\PSoC5/cyfitter_cfg.c ****             #ifndef DMAINITSEC
  41:Generated_Source\PSoC5/cyfitter_cfg.c ****                 #define DMAINITSEC __attribute__ ((section(".dma_init")))
  42:Generated_Source\PSoC5/cyfitter_cfg.c ****             #endif
  43:Generated_Source\PSoC5/cyfitter_cfg.c ****         #elif defined(__ICCARM__)
  44:Generated_Source\PSoC5/cyfitter_cfg.c ****             #define DMAINITSEC _Pragma("location=\".dma_init\"")
  45:Generated_Source\PSoC5/cyfitter_cfg.c ****         #endif
  46:Generated_Source\PSoC5/cyfitter_cfg.c ****     #else
  47:Generated_Source\PSoC5/cyfitter_cfg.c ****         #define DMAINITSEC
  48:Generated_Source\PSoC5/cyfitter_cfg.c ****     #endif
  49:Generated_Source\PSoC5/cyfitter_cfg.c **** 
  50:Generated_Source\PSoC5/cyfitter_cfg.c ****     #if defined(__ARMCC_VERSION)
  51:Generated_Source\PSoC5/cyfitter_cfg.c ****         #define CY_CFG_MEMORY_BARRIER() __memory_changed()
  52:Generated_Source\PSoC5/cyfitter_cfg.c ****     #else
  53:Generated_Source\PSoC5/cyfitter_cfg.c ****         #define CY_CFG_MEMORY_BARRIER() __sync_synchronize()
  54:Generated_Source\PSoC5/cyfitter_cfg.c ****     #endif
  55:Generated_Source\PSoC5/cyfitter_cfg.c ****     
  56:Generated_Source\PSoC5/cyfitter_cfg.c **** #elif defined(__ICCARM__)
  57:Generated_Source\PSoC5/cyfitter_cfg.c ****     #include <intrinsics.h>
  58:Generated_Source\PSoC5/cyfitter_cfg.c **** 
  59:Generated_Source\PSoC5/cyfitter_cfg.c ****     #define CYPACKED __packed
  60:Generated_Source\PSoC5/cyfitter_cfg.c ****     #define CYPACKED_ATTR 
  61:Generated_Source\PSoC5/cyfitter_cfg.c ****     #define CYALIGNED _Pragma("data_alignment=4")
  62:Generated_Source\PSoC5/cyfitter_cfg.c ****     #define CY_CFG_UNUSED _Pragma("diag_suppress=Pe177")
  63:Generated_Source\PSoC5/cyfitter_cfg.c ****     #define CY_CFG_SECTION _Pragma("location=\".psocinit\"")
  64:Generated_Source\PSoC5/cyfitter_cfg.c ****     
  65:Generated_Source\PSoC5/cyfitter_cfg.c ****     #if CYDEV_CONFIGURATION_DMA
  66:Generated_Source\PSoC5/cyfitter_cfg.c ****         #if (defined(__ARMCC_VERSION) || defined(__GNUC__))
  67:Generated_Source\PSoC5/cyfitter_cfg.c ****             #ifndef DMAINITSEC
  68:Generated_Source\PSoC5/cyfitter_cfg.c ****                 #define DMAINITSEC __attribute__ ((section(".dma_init")))
  69:Generated_Source\PSoC5/cyfitter_cfg.c ****             #endif
  70:Generated_Source\PSoC5/cyfitter_cfg.c ****         #elif defined(__ICCARM__)
  71:Generated_Source\PSoC5/cyfitter_cfg.c ****             #define DMAINITSEC _Pragma("location=\".dma_init\"")
  72:Generated_Source\PSoC5/cyfitter_cfg.c ****         #endif
  73:Generated_Source\PSoC5/cyfitter_cfg.c ****     #else
  74:Generated_Source\PSoC5/cyfitter_cfg.c ****         #define DMAINITSEC
  75:Generated_Source\PSoC5/cyfitter_cfg.c ****     #endif
  76:Generated_Source\PSoC5/cyfitter_cfg.c **** 
  77:Generated_Source\PSoC5/cyfitter_cfg.c ****     #define CY_CFG_MEMORY_BARRIER() __DMB()
  78:Generated_Source\PSoC5/cyfitter_cfg.c ****     
  79:Generated_Source\PSoC5/cyfitter_cfg.c **** #else
  80:Generated_Source\PSoC5/cyfitter_cfg.c ****     #error Unsupported toolchain
  81:Generated_Source\PSoC5/cyfitter_cfg.c **** #endif
  82:Generated_Source\PSoC5/cyfitter_cfg.c **** 
  83:Generated_Source\PSoC5/cyfitter_cfg.c **** #ifndef CYCODE
  84:Generated_Source\PSoC5/cyfitter_cfg.c ****     #define CYCODE
  85:Generated_Source\PSoC5/cyfitter_cfg.c **** #endif
  86:Generated_Source\PSoC5/cyfitter_cfg.c **** #ifndef CYDATA
  87:Generated_Source\PSoC5/cyfitter_cfg.c ****     #define CYDATA
  88:Generated_Source\PSoC5/cyfitter_cfg.c **** #endif
ARM GAS  C:\Users\bryan.lee\AppData\Local\Temp\ccC85gGx.s 			page 3


  89:Generated_Source\PSoC5/cyfitter_cfg.c **** #ifndef CYFAR
  90:Generated_Source\PSoC5/cyfitter_cfg.c ****     #define CYFAR
  91:Generated_Source\PSoC5/cyfitter_cfg.c **** #endif
  92:Generated_Source\PSoC5/cyfitter_cfg.c **** #ifndef CYXDATA
  93:Generated_Source\PSoC5/cyfitter_cfg.c ****     #define CYXDATA
  94:Generated_Source\PSoC5/cyfitter_cfg.c **** #endif
  95:Generated_Source\PSoC5/cyfitter_cfg.c **** 
  96:Generated_Source\PSoC5/cyfitter_cfg.c **** 
  97:Generated_Source\PSoC5/cyfitter_cfg.c **** CY_CFG_UNUSED
  98:Generated_Source\PSoC5/cyfitter_cfg.c **** static void CYMEMZERO(void *s, size_t n);
  99:Generated_Source\PSoC5/cyfitter_cfg.c **** CY_CFG_UNUSED
 100:Generated_Source\PSoC5/cyfitter_cfg.c **** static void CYMEMZERO(void *s, size_t n)
 101:Generated_Source\PSoC5/cyfitter_cfg.c **** {
  27              		.loc 1 101 0
  28              		.cfi_startproc
  29              		@ args = 0, pretend = 0, frame = 8
  30              		@ frame_needed = 1, uses_anonymous_args = 0
  31 0000 80B5     		push	{r7, lr}
  32              		.cfi_def_cfa_offset 8
  33              		.cfi_offset 7, -8
  34              		.cfi_offset 14, -4
  35 0002 82B0     		sub	sp, sp, #8
  36              		.cfi_def_cfa_offset 16
  37 0004 00AF     		add	r7, sp, #0
  38              		.cfi_def_cfa_register 7
  39 0006 7860     		str	r0, [r7, #4]
  40 0008 3960     		str	r1, [r7]
 102:Generated_Source\PSoC5/cyfitter_cfg.c **** 	(void)memset(s, 0, n);
  41              		.loc 1 102 0
  42 000a 3A68     		ldr	r2, [r7]
  43 000c 0021     		movs	r1, #0
  44 000e 7868     		ldr	r0, [r7, #4]
  45 0010 FFF7FEFF 		bl	memset
 103:Generated_Source\PSoC5/cyfitter_cfg.c **** }
  46              		.loc 1 103 0
  47 0014 00BF     		nop
  48 0016 0837     		adds	r7, r7, #8
  49              		.cfi_def_cfa_offset 8
  50 0018 BD46     		mov	sp, r7
  51              		.cfi_def_cfa_register 13
  52              		@ sp needed
  53 001a 80BD     		pop	{r7, pc}
  54              		.cfi_endproc
  55              	.LFE0:
  56              		.size	CYMEMZERO, .-CYMEMZERO
  57              		.section	.text.CYCONFIGCPY,"ax",%progbits
  58              		.align	2
  59              		.thumb
  60              		.thumb_func
  61              		.type	CYCONFIGCPY, %function
  62              	CYCONFIGCPY:
  63              	.LFB1:
 104:Generated_Source\PSoC5/cyfitter_cfg.c **** CY_CFG_UNUSED
 105:Generated_Source\PSoC5/cyfitter_cfg.c **** static void CYCONFIGCPY(void *dest, const void *src, size_t n);
 106:Generated_Source\PSoC5/cyfitter_cfg.c **** CY_CFG_UNUSED
 107:Generated_Source\PSoC5/cyfitter_cfg.c **** static void CYCONFIGCPY(void *dest, const void *src, size_t n)
 108:Generated_Source\PSoC5/cyfitter_cfg.c **** {
ARM GAS  C:\Users\bryan.lee\AppData\Local\Temp\ccC85gGx.s 			page 4


  64              		.loc 1 108 0
  65              		.cfi_startproc
  66              		@ args = 0, pretend = 0, frame = 16
  67              		@ frame_needed = 1, uses_anonymous_args = 0
  68 0000 80B5     		push	{r7, lr}
  69              		.cfi_def_cfa_offset 8
  70              		.cfi_offset 7, -8
  71              		.cfi_offset 14, -4
  72 0002 84B0     		sub	sp, sp, #16
  73              		.cfi_def_cfa_offset 24
  74 0004 00AF     		add	r7, sp, #0
  75              		.cfi_def_cfa_register 7
  76 0006 F860     		str	r0, [r7, #12]
  77 0008 B960     		str	r1, [r7, #8]
  78 000a 7A60     		str	r2, [r7, #4]
 109:Generated_Source\PSoC5/cyfitter_cfg.c **** 	(void)memcpy(dest, src, n);
  79              		.loc 1 109 0
  80 000c 7A68     		ldr	r2, [r7, #4]
  81 000e B968     		ldr	r1, [r7, #8]
  82 0010 F868     		ldr	r0, [r7, #12]
  83 0012 FFF7FEFF 		bl	memcpy
 110:Generated_Source\PSoC5/cyfitter_cfg.c **** }
  84              		.loc 1 110 0
  85 0016 00BF     		nop
  86 0018 1037     		adds	r7, r7, #16
  87              		.cfi_def_cfa_offset 8
  88 001a BD46     		mov	sp, r7
  89              		.cfi_def_cfa_register 13
  90              		@ sp needed
  91 001c 80BD     		pop	{r7, pc}
  92              		.cfi_endproc
  93              	.LFE1:
  94              		.size	CYCONFIGCPY, .-CYCONFIGCPY
  95 001e 00BF     		.section	.text.CYCONFIGCPYCODE,"ax",%progbits
  96              		.align	2
  97              		.thumb
  98              		.thumb_func
  99              		.type	CYCONFIGCPYCODE, %function
 100              	CYCONFIGCPYCODE:
 101              	.LFB2:
 111:Generated_Source\PSoC5/cyfitter_cfg.c **** CY_CFG_UNUSED
 112:Generated_Source\PSoC5/cyfitter_cfg.c **** static void CYCONFIGCPYCODE(void *dest, const void *src, size_t n);
 113:Generated_Source\PSoC5/cyfitter_cfg.c **** CY_CFG_UNUSED
 114:Generated_Source\PSoC5/cyfitter_cfg.c **** static void CYCONFIGCPYCODE(void *dest, const void *src, size_t n)
 115:Generated_Source\PSoC5/cyfitter_cfg.c **** {
 102              		.loc 1 115 0
 103              		.cfi_startproc
 104              		@ args = 0, pretend = 0, frame = 16
 105              		@ frame_needed = 1, uses_anonymous_args = 0
 106 0000 80B5     		push	{r7, lr}
 107              		.cfi_def_cfa_offset 8
 108              		.cfi_offset 7, -8
 109              		.cfi_offset 14, -4
 110 0002 84B0     		sub	sp, sp, #16
 111              		.cfi_def_cfa_offset 24
 112 0004 00AF     		add	r7, sp, #0
 113              		.cfi_def_cfa_register 7
ARM GAS  C:\Users\bryan.lee\AppData\Local\Temp\ccC85gGx.s 			page 5


 114 0006 F860     		str	r0, [r7, #12]
 115 0008 B960     		str	r1, [r7, #8]
 116 000a 7A60     		str	r2, [r7, #4]
 116:Generated_Source\PSoC5/cyfitter_cfg.c **** 	(void)memcpy(dest, src, n);
 117              		.loc 1 116 0
 118 000c 7A68     		ldr	r2, [r7, #4]
 119 000e B968     		ldr	r1, [r7, #8]
 120 0010 F868     		ldr	r0, [r7, #12]
 121 0012 FFF7FEFF 		bl	memcpy
 117:Generated_Source\PSoC5/cyfitter_cfg.c **** }
 122              		.loc 1 117 0
 123 0016 00BF     		nop
 124 0018 1037     		adds	r7, r7, #16
 125              		.cfi_def_cfa_offset 8
 126 001a BD46     		mov	sp, r7
 127              		.cfi_def_cfa_register 13
 128              		@ sp needed
 129 001c 80BD     		pop	{r7, pc}
 130              		.cfi_endproc
 131              	.LFE2:
 132              		.size	CYCONFIGCPYCODE, .-CYCONFIGCPYCODE
 133 001e 00BF     		.section	.text.CyClockStartupError,"ax",%progbits
 134              		.align	2
 135              		.thumb
 136              		.thumb_func
 137              		.type	CyClockStartupError, %function
 138              	CyClockStartupError:
 139              	.LFB3:
 118:Generated_Source\PSoC5/cyfitter_cfg.c **** 
 119:Generated_Source\PSoC5/cyfitter_cfg.c **** 
 120:Generated_Source\PSoC5/cyfitter_cfg.c **** 
 121:Generated_Source\PSoC5/cyfitter_cfg.c **** 
 122:Generated_Source\PSoC5/cyfitter_cfg.c **** /* Clock startup error codes                                                   */
 123:Generated_Source\PSoC5/cyfitter_cfg.c **** #define CYCLOCKSTART_NO_ERROR    0u
 124:Generated_Source\PSoC5/cyfitter_cfg.c **** #define CYCLOCKSTART_XTAL_ERROR  1u
 125:Generated_Source\PSoC5/cyfitter_cfg.c **** #define CYCLOCKSTART_32KHZ_ERROR 2u
 126:Generated_Source\PSoC5/cyfitter_cfg.c **** #define CYCLOCKSTART_PLL_ERROR   3u
 127:Generated_Source\PSoC5/cyfitter_cfg.c **** #define CYCLOCKSTART_FLL_ERROR   4u
 128:Generated_Source\PSoC5/cyfitter_cfg.c **** #define CYCLOCKSTART_WCO_ERROR   5u
 129:Generated_Source\PSoC5/cyfitter_cfg.c **** 
 130:Generated_Source\PSoC5/cyfitter_cfg.c **** 
 131:Generated_Source\PSoC5/cyfitter_cfg.c **** #ifdef CY_NEED_CYCLOCKSTARTUPERROR
 132:Generated_Source\PSoC5/cyfitter_cfg.c **** /*******************************************************************************
 133:Generated_Source\PSoC5/cyfitter_cfg.c **** * Function Name: CyClockStartupError
 134:Generated_Source\PSoC5/cyfitter_cfg.c **** ********************************************************************************
 135:Generated_Source\PSoC5/cyfitter_cfg.c **** * Summary:
 136:Generated_Source\PSoC5/cyfitter_cfg.c **** *  If an error is encountered during clock configuration (crystal startup error,
 137:Generated_Source\PSoC5/cyfitter_cfg.c **** *  PLL lock error, etc.), the system will end up here.  Unless reimplemented by
 138:Generated_Source\PSoC5/cyfitter_cfg.c **** *  the customer, this function will stop in an infinite loop.
 139:Generated_Source\PSoC5/cyfitter_cfg.c **** *
 140:Generated_Source\PSoC5/cyfitter_cfg.c **** * Parameters:
 141:Generated_Source\PSoC5/cyfitter_cfg.c **** *   void
 142:Generated_Source\PSoC5/cyfitter_cfg.c **** *
 143:Generated_Source\PSoC5/cyfitter_cfg.c **** * Return:
 144:Generated_Source\PSoC5/cyfitter_cfg.c **** *   void
 145:Generated_Source\PSoC5/cyfitter_cfg.c **** *
 146:Generated_Source\PSoC5/cyfitter_cfg.c **** *******************************************************************************/
ARM GAS  C:\Users\bryan.lee\AppData\Local\Temp\ccC85gGx.s 			page 6


 147:Generated_Source\PSoC5/cyfitter_cfg.c **** CY_CFG_UNUSED
 148:Generated_Source\PSoC5/cyfitter_cfg.c **** static void CyClockStartupError(uint8 errorCode);
 149:Generated_Source\PSoC5/cyfitter_cfg.c **** CY_CFG_UNUSED
 150:Generated_Source\PSoC5/cyfitter_cfg.c **** static void CyClockStartupError(uint8 errorCode)
 151:Generated_Source\PSoC5/cyfitter_cfg.c **** {
 140              		.loc 1 151 0
 141              		.cfi_startproc
 142              		@ args = 0, pretend = 0, frame = 8
 143              		@ frame_needed = 1, uses_anonymous_args = 0
 144              		@ link register save eliminated.
 145 0000 80B4     		push	{r7}
 146              		.cfi_def_cfa_offset 4
 147              		.cfi_offset 7, -4
 148 0002 83B0     		sub	sp, sp, #12
 149              		.cfi_def_cfa_offset 16
 150 0004 00AF     		add	r7, sp, #0
 151              		.cfi_def_cfa_register 7
 152 0006 0346     		mov	r3, r0
 153 0008 FB71     		strb	r3, [r7, #7]
 154              	.L5:
 152:Generated_Source\PSoC5/cyfitter_cfg.c ****     /* To remove the compiler warning if errorCode not used.                */
 153:Generated_Source\PSoC5/cyfitter_cfg.c ****     errorCode = errorCode;
 154:Generated_Source\PSoC5/cyfitter_cfg.c **** 
 155:Generated_Source\PSoC5/cyfitter_cfg.c ****     /* If we have a clock startup error (bad MHz crystal, PLL lock, etc.),  */
 156:Generated_Source\PSoC5/cyfitter_cfg.c ****     /* we will end up here to allow the customer to implement something to  */
 157:Generated_Source\PSoC5/cyfitter_cfg.c ****     /* deal with the clock condition.                                       */
 158:Generated_Source\PSoC5/cyfitter_cfg.c **** 
 159:Generated_Source\PSoC5/cyfitter_cfg.c **** #ifdef CY_CFG_CLOCK_STARTUP_ERROR_CALLBACK
 160:Generated_Source\PSoC5/cyfitter_cfg.c ****     CY_CFG_Clock_Startup_ErrorCallback();
 161:Generated_Source\PSoC5/cyfitter_cfg.c **** #else
 162:Generated_Source\PSoC5/cyfitter_cfg.c ****     /*  If not using CY_CFG_CLOCK_STARTUP_ERROR_CALLBACK, place your clock startup code here. */
 163:Generated_Source\PSoC5/cyfitter_cfg.c ****     /* `#START CyClockStartupError` */
 164:Generated_Source\PSoC5/cyfitter_cfg.c **** 
 165:Generated_Source\PSoC5/cyfitter_cfg.c **** 
 166:Generated_Source\PSoC5/cyfitter_cfg.c **** 
 167:Generated_Source\PSoC5/cyfitter_cfg.c ****     /* `#END` */
 168:Generated_Source\PSoC5/cyfitter_cfg.c **** 
 169:Generated_Source\PSoC5/cyfitter_cfg.c ****     while(1) {}
 155              		.loc 1 169 0 discriminator 1
 156 000a FEE7     		b	.L5
 157              		.cfi_endproc
 158              	.LFE3:
 159              		.size	CyClockStartupError, .-CyClockStartupError
 160              		.section	.dma_init,"a",%progbits
 161              		.align	2
 162              		.type	CH1_ADDR_DATA0.5000, %object
 163              		.size	CH1_ADDR_DATA0.5000, 8
 164              	CH1_ADDR_DATA0.5000:
 165 0000 01       		.byte	1
 166 0001 00       		.byte	0
 167 0002 00       		.byte	0
 168 0003 00       		.byte	0
 169 0004 00       		.byte	0
 170 0005 20       		.byte	32
 171 0006 00       		.byte	0
 172 0007 40       		.byte	64
 173              		.align	2
ARM GAS  C:\Users\bryan.lee\AppData\Local\Temp\ccC85gGx.s 			page 7


 174              		.type	CH2_ADDR_DATA0.5001, %object
 175              		.size	CH2_ADDR_DATA0.5001, 8
 176              	CH2_ADDR_DATA0.5001:
 177 0008 01       		.byte	1
 178 0009 00       		.byte	0
 179 000a 00       		.byte	0
 180 000b 00       		.byte	0
 181 000c 00       		.byte	0
 182 000d 20       		.byte	32
 183 000e 01       		.byte	1
 184 000f 40       		.byte	64
 185              		.align	2
 186              		.type	CH5_ADDR_DATA0.5002, %object
 187              		.size	CH5_ADDR_DATA0.5002, 8
 188              	CH5_ADDR_DATA0.5002:
 189 0010 01       		.byte	1
 190 0011 00       		.byte	0
 191 0012 00       		.byte	0
 192 0013 00       		.byte	0
 193 0014 00       		.byte	0
 194 0015 48       		.byte	72
 195 0016 00       		.byte	0
 196 0017 40       		.byte	64
 197              		.align	2
 198              		.type	CH6_ADDR_DATA0.5003, %object
 199              		.size	CH6_ADDR_DATA0.5003, 8
 200              	CH6_ADDR_DATA0.5003:
 201 0018 01       		.byte	1
 202 0019 00       		.byte	0
 203 001a 00       		.byte	0
 204 001b 00       		.byte	0
 205 001c 00       		.byte	0
 206 001d 48       		.byte	72
 207 001e 01       		.byte	1
 208 001f 40       		.byte	64
 209              		.align	2
 210              		.type	DMA_TD_START_CMD.5004, %object
 211              		.size	DMA_TD_START_CMD.5004, 5
 212              	DMA_TD_START_CMD.5004:
 213 0020 01       		.byte	1
 214 0021 00       		.byte	0
 215 0022 00       		.byte	0
 216 0023 00       		.byte	0
 217 0024 01       		.byte	1
 218 0025 000000   		.align	2
 219              		.type	CFG_TD_LIST0.5006, %object
 220              		.size	CFG_TD_LIST0.5006, 496
 221              	CFG_TD_LIST0.5006:
 222 0028 0800     		.short	8
 223 002a 02       		.byte	2
 224 002b 23       		.byte	35
 225 002c 0000     		.short	0
 226 002e 0876     		.short	30216
 227 0030 0800     		.short	8
 228 0032 03       		.byte	3
 229 0033 23       		.byte	35
 230 0034 0000     		.short	0
ARM GAS  C:\Users\bryan.lee\AppData\Local\Temp\ccC85gGx.s 			page 8


 231 0036 1076     		.short	30224
 232 0038 0800     		.short	8
 233 003a 04       		.byte	4
 234 003b 23       		.byte	35
 235 003c 0000     		.short	0
 236 003e 2876     		.short	30248
 237 0040 0800     		.short	8
 238 0042 05       		.byte	5
 239 0043 23       		.byte	35
 240 0044 0000     		.short	0
 241 0046 3076     		.short	30256
 242 0048 0500     		.short	5
 243 004a 06       		.byte	6
 244 004b 23       		.byte	35
 245 004c 0000     		.short	0
 246 004e 2070     		.short	28704
 247 0050 0500     		.short	5
 248 0052 07       		.byte	7
 249 0053 23       		.byte	35
 250 0054 0000     		.short	0
 251 0056 3070     		.short	28720
 252 0058 0500     		.short	5
 253 005a 08       		.byte	8
 254 005b 23       		.byte	35
 255 005c 0000     		.short	0
 256 005e 6070     		.short	28768
 257 0060 0500     		.short	5
 258 0062 FE       		.byte	-2
 259 0063 23       		.byte	35
 260 0064 0000     		.short	0
 261 0066 7070     		.short	28784
 262 0068 1000     		.short	16
 263 006a 0A       		.byte	10
 264 006b 22       		.byte	34
 265 006c 0000     		.short	0
 266 006e 4051     		.short	20800
 267 0070 1000     		.short	16
 268 0072 0B       		.byte	11
 269 0073 22       		.byte	34
 270 0074 0000     		.short	0
 271 0076 6051     		.short	20832
 272 0078 1000     		.short	16
 273 007a FE       		.byte	-2
 274 007b 22       		.byte	34
 275 007c 0000     		.short	0
 276 007e C051     		.short	20928
 277 0080 8003     		.short	896
 278 0082 0D       		.byte	13
 279 0083 22       		.byte	34
 280 0084 0000     		.short	0
 281 0086 0000     		.short	0
 282 0088 8003     		.short	896
 283 008a 0E       		.byte	14
 284 008b 22       		.byte	34
 285 008c 0000     		.short	0
 286 008e 0004     		.short	1024
 287 0090 8001     		.short	384
ARM GAS  C:\Users\bryan.lee\AppData\Local\Temp\ccC85gGx.s 			page 9


 288 0092 0F       		.byte	15
 289 0093 22       		.byte	34
 290 0094 0000     		.short	0
 291 0096 0008     		.short	2048
 292 0098 8003     		.short	896
 293 009a 10       		.byte	16
 294 009b 22       		.byte	34
 295 009c 0000     		.short	0
 296 009e 000A     		.short	2560
 297 00a0 0002     		.short	512
 298 00a2 11       		.byte	17
 299 00a3 22       		.byte	34
 300 00a4 0000     		.short	0
 301 00a6 000E     		.short	3584
 302 00a8 8001     		.short	384
 303 00aa 12       		.byte	18
 304 00ab 22       		.byte	34
 305 00ac 0000     		.short	0
 306 00ae 0014     		.short	5120
 307 00b0 8001     		.short	384
 308 00b2 13       		.byte	19
 309 00b3 22       		.byte	34
 310 00b4 0000     		.short	0
 311 00b6 0016     		.short	5632
 312 00b8 8000     		.short	128
 313 00ba 14       		.byte	20
 314 00bb 22       		.byte	34
 315 00bc 0000     		.short	0
 316 00be 0041     		.short	16640
 317 00c0 8000     		.short	128
 318 00c2 15       		.byte	21
 319 00c3 22       		.byte	34
 320 00c4 0000     		.short	0
 321 00c6 0042     		.short	16896
 322 00c8 8000     		.short	128
 323 00ca 16       		.byte	22
 324 00cb 22       		.byte	34
 325 00cc 0000     		.short	0
 326 00ce 0043     		.short	17152
 327 00d0 8001     		.short	384
 328 00d2 17       		.byte	23
 329 00d3 22       		.byte	34
 330 00d4 0000     		.short	0
 331 00d6 0044     		.short	17408
 332 00d8 8000     		.short	128
 333 00da 18       		.byte	24
 334 00db 22       		.byte	34
 335 00dc 0000     		.short	0
 336 00de 0048     		.short	18432
 337 00e0 8000     		.short	128
 338 00e2 19       		.byte	25
 339 00e3 22       		.byte	34
 340 00e4 0000     		.short	0
 341 00e6 0049     		.short	18688
 342 00e8 1000     		.short	16
 343 00ea FE       		.byte	-2
 344 00eb 22       		.byte	34
ARM GAS  C:\Users\bryan.lee\AppData\Local\Temp\ccC85gGx.s 			page 10


 345 00ec 0000     		.short	0
 346 00ee 0050     		.short	20480
 347 00f0 0700     		.short	7
 348 00f2 1B       		.byte	27
 349 00f3 23       		.byte	35
 350 00f4 0000     		.short	0
 351 00f6 2852     		.short	21032
 352 00f8 0700     		.short	7
 353 00fa 1C       		.byte	28
 354 00fb 23       		.byte	35
 355 00fc 0000     		.short	0
 356 00fe 7852     		.short	21112
 357 0100 0800     		.short	8
 358 0102 1D       		.byte	29
 359 0103 23       		.byte	35
 360 0104 0000     		.short	0
 361 0106 7845     		.short	17784
 362 0108 0800     		.short	8
 363 010a 1E       		.byte	30
 364 010b 23       		.byte	35
 365 010c 0000     		.short	0
 366 010e 205B     		.short	23328
 367 0110 2000     		.short	32
 368 0112 FE       		.byte	-2
 369 0113 23       		.byte	35
 370 0114 0000     		.short	0
 371 0116 7065     		.short	25968
 372 0118 0800     		.short	8
 373 011a 20       		.byte	32
 374 011b 23       		.byte	35
 375 011c 0000     		.short	0
 376 011e 0051     		.short	20736
 377 0120 8000     		.short	128
 378 0122 21       		.byte	33
 379 0123 23       		.byte	35
 380 0124 0000     		.short	0
 381 0126 0018     		.short	6144
 382 0128 8000     		.short	128
 383 012a 22       		.byte	34
 384 012b 23       		.byte	35
 385 012c 0000     		.short	0
 386 012e 8018     		.short	6272
 387 0130 8000     		.short	128
 388 0132 23       		.byte	35
 389 0133 23       		.byte	35
 390 0134 0000     		.short	0
 391 0136 001A     		.short	6656
 392 0138 8000     		.short	128
 393 013a 24       		.byte	36
 394 013b 23       		.byte	35
 395 013c 0000     		.short	0
 396 013e 801A     		.short	6784
 397 0140 1000     		.short	16
 398 0142 25       		.byte	37
 399 0143 23       		.byte	35
 400 0144 0000     		.short	0
 401 0146 1050     		.short	20496
ARM GAS  C:\Users\bryan.lee\AppData\Local\Temp\ccC85gGx.s 			page 11


 402 0148 8000     		.short	128
 403 014a 26       		.byte	38
 404 014b 23       		.byte	35
 405 014c 0000     		.short	0
 406 014e 004D     		.short	19712
 407 0150 8000     		.short	128
 408 0152 27       		.byte	39
 409 0153 23       		.byte	35
 410 0154 0000     		.short	0
 411 0156 804D     		.short	19840
 412 0158 8000     		.short	128
 413 015a 28       		.byte	40
 414 015b 23       		.byte	35
 415 015c 0000     		.short	0
 416 015e 004C     		.short	19456
 417 0160 8000     		.short	128
 418 0162 29       		.byte	41
 419 0163 23       		.byte	35
 420 0164 0000     		.short	0
 421 0166 804C     		.short	19584
 422 0168 8000     		.short	128
 423 016a 2A       		.byte	42
 424 016b 23       		.byte	35
 425 016c 0000     		.short	0
 426 016e 0047     		.short	18176
 427 0170 8000     		.short	128
 428 0172 2B       		.byte	43
 429 0173 23       		.byte	35
 430 0174 0000     		.short	0
 431 0176 8047     		.short	18304
 432 0178 8000     		.short	128
 433 017a 2C       		.byte	44
 434 017b 23       		.byte	35
 435 017c 0000     		.short	0
 436 017e 0046     		.short	17920
 437 0180 8000     		.short	128
 438 0182 2D       		.byte	45
 439 0183 23       		.byte	35
 440 0184 0000     		.short	0
 441 0186 8046     		.short	18048
 442 0188 8000     		.short	128
 443 018a 2E       		.byte	46
 444 018b 23       		.byte	35
 445 018c 0000     		.short	0
 446 018e 8045     		.short	17792
 447 0190 8000     		.short	128
 448 0192 2F       		.byte	47
 449 0193 23       		.byte	35
 450 0194 0000     		.short	0
 451 0196 001B     		.short	6912
 452 0198 8000     		.short	128
 453 019a 30       		.byte	48
 454 019b 23       		.byte	35
 455 019c 0000     		.short	0
 456 019e 801B     		.short	7040
 457 01a0 8000     		.short	128
 458 01a2 31       		.byte	49
ARM GAS  C:\Users\bryan.lee\AppData\Local\Temp\ccC85gGx.s 			page 12


 459 01a3 23       		.byte	35
 460 01a4 0000     		.short	0
 461 01a6 8015     		.short	5504
 462 01a8 8000     		.short	128
 463 01aa 32       		.byte	50
 464 01ab 23       		.byte	35
 465 01ac 0000     		.short	0
 466 01ae 0019     		.short	6400
 467 01b0 8000     		.short	128
 468 01b2 33       		.byte	51
 469 01b3 23       		.byte	35
 470 01b4 0000     		.short	0
 471 01b6 8019     		.short	6528
 472 01b8 8000     		.short	128
 473 01ba 34       		.byte	52
 474 01bb 23       		.byte	35
 475 01bc 0000     		.short	0
 476 01be 8017     		.short	6016
 477 01c0 8000     		.short	128
 478 01c2 35       		.byte	53
 479 01c3 23       		.byte	35
 480 01c4 0000     		.short	0
 481 01c6 8009     		.short	2432
 482 01c8 8000     		.short	128
 483 01ca 36       		.byte	54
 484 01cb 23       		.byte	35
 485 01cc 0000     		.short	0
 486 01ce 8007     		.short	1920
 487 01d0 8000     		.short	128
 488 01d2 37       		.byte	55
 489 01d3 23       		.byte	35
 490 01d4 0000     		.short	0
 491 01d6 800D     		.short	3456
 492 01d8 8000     		.short	128
 493 01da 38       		.byte	56
 494 01db 23       		.byte	35
 495 01dc 0000     		.short	0
 496 01de 8003     		.short	896
 497 01e0 8000     		.short	128
 498 01e2 39       		.byte	57
 499 01e3 23       		.byte	35
 500 01e4 0000     		.short	0
 501 01e6 8049     		.short	18816
 502 01e8 8000     		.short	128
 503 01ea 3A       		.byte	58
 504 01eb 23       		.byte	35
 505 01ec 0000     		.short	0
 506 01ee 8048     		.short	18560
 507 01f0 8000     		.short	128
 508 01f2 3B       		.byte	59
 509 01f3 23       		.byte	35
 510 01f4 0000     		.short	0
 511 01f6 8043     		.short	17280
 512 01f8 8000     		.short	128
 513 01fa 3C       		.byte	60
 514 01fb 23       		.byte	35
 515 01fc 0000     		.short	0
ARM GAS  C:\Users\bryan.lee\AppData\Local\Temp\ccC85gGx.s 			page 13


 516 01fe 8042     		.short	17024
 517 0200 8000     		.short	128
 518 0202 3D       		.byte	61
 519 0203 23       		.byte	35
 520 0204 0000     		.short	0
 521 0206 8041     		.short	16768
 522 0208 8000     		.short	128
 523 020a 3E       		.byte	62
 524 020b 23       		.byte	35
 525 020c 0000     		.short	0
 526 020e 0040     		.short	16384
 527 0210 8000     		.short	128
 528 0212 FE       		.byte	-2
 529 0213 23       		.byte	35
 530 0214 0000     		.short	0
 531 0216 8040     		.short	16512
 532              		.section	.text.cfg_dma_init,"ax",%progbits
 533              		.align	2
 534              		.thumb
 535              		.thumb_func
 536              		.type	cfg_dma_init, %function
 537              	cfg_dma_init:
 538              	.LFB4:
 170:Generated_Source\PSoC5/cyfitter_cfg.c **** #endif /* CY_CFG_CLOCK_STARTUP_ERROR_CALLBACK */
 171:Generated_Source\PSoC5/cyfitter_cfg.c **** }
 172:Generated_Source\PSoC5/cyfitter_cfg.c **** #endif
 173:Generated_Source\PSoC5/cyfitter_cfg.c **** 
 174:Generated_Source\PSoC5/cyfitter_cfg.c **** /* IOPORT_5 Address: CYDEV_PRTDSI_PRT5_BASE Size (bytes): 7 */
 175:Generated_Source\PSoC5/cyfitter_cfg.c **** #define BS_IOPORT_5_VAL ((const uint8 CYFAR *)0x48000000u)
 176:Generated_Source\PSoC5/cyfitter_cfg.c **** 
 177:Generated_Source\PSoC5/cyfitter_cfg.c **** /* IOPORT_8 Address: CYDEV_PRTDSI_PRT15_BASE Size (bytes): 7 */
 178:Generated_Source\PSoC5/cyfitter_cfg.c **** #define BS_IOPORT_8_VAL ((const uint8 CYFAR *)0x48000008u)
 179:Generated_Source\PSoC5/cyfitter_cfg.c **** 
 180:Generated_Source\PSoC5/cyfitter_cfg.c **** /* PICU_8 Address: CYDEV_PICU_INTTYPE_PICU15_BASE Size (bytes): 8 */
 181:Generated_Source\PSoC5/cyfitter_cfg.c **** #define BS_PICU_8_VAL ((const uint8 CYFAR *)0x48000010u)
 182:Generated_Source\PSoC5/cyfitter_cfg.c **** 
 183:Generated_Source\PSoC5/cyfitter_cfg.c **** /* IDMUX_IRQ Address: CYREG_IDMUX_IRQ_CTL0 Size (bytes): 8 */
 184:Generated_Source\PSoC5/cyfitter_cfg.c **** #define BS_IDMUX_IRQ_VAL ((const uint8 CYFAR *)0x48000018u)
 185:Generated_Source\PSoC5/cyfitter_cfg.c **** 
 186:Generated_Source\PSoC5/cyfitter_cfg.c **** /* SAR0 Address: CYREG_SAR0_SW0 Size (bytes): 8 */
 187:Generated_Source\PSoC5/cyfitter_cfg.c **** #define BS_SAR0_VAL ((const uint8 CYFAR *)0x48000020u)
 188:Generated_Source\PSoC5/cyfitter_cfg.c **** 
 189:Generated_Source\PSoC5/cyfitter_cfg.c **** /* UDB_0_1_1_CONFIG Address: CYDEV_UCFG_B1_P4_U0_BASE Size (bytes): 128 */
 190:Generated_Source\PSoC5/cyfitter_cfg.c **** #define BS_UDB_0_1_1_CONFIG_VAL ((const uint8 CYFAR *)0x48000028u)
 191:Generated_Source\PSoC5/cyfitter_cfg.c **** 
 192:Generated_Source\PSoC5/cyfitter_cfg.c **** /* UDB_0_1_0_CONFIG Address: CYDEV_UCFG_B1_P4_U1_BASE Size (bytes): 128 */
 193:Generated_Source\PSoC5/cyfitter_cfg.c **** #define BS_UDB_0_1_0_CONFIG_VAL ((const uint8 CYFAR *)0x480000A8u)
 194:Generated_Source\PSoC5/cyfitter_cfg.c **** 
 195:Generated_Source\PSoC5/cyfitter_cfg.c **** /* UDB_0_0_0_CONFIG Address: CYDEV_UCFG_B1_P5_U0_BASE Size (bytes): 128 */
 196:Generated_Source\PSoC5/cyfitter_cfg.c **** #define BS_UDB_0_0_0_CONFIG_VAL ((const uint8 CYFAR *)0x48000128u)
 197:Generated_Source\PSoC5/cyfitter_cfg.c **** 
 198:Generated_Source\PSoC5/cyfitter_cfg.c **** /* UDB_0_0_1_CONFIG Address: CYDEV_UCFG_B1_P5_U1_BASE Size (bytes): 128 */
 199:Generated_Source\PSoC5/cyfitter_cfg.c **** #define BS_UDB_0_0_1_CONFIG_VAL ((const uint8 CYFAR *)0x480001A8u)
 200:Generated_Source\PSoC5/cyfitter_cfg.c **** 
 201:Generated_Source\PSoC5/cyfitter_cfg.c **** /* UWRK_B1_WRK_STATCTL_BITS Address: CYDEV_UWRK_UWRK8_B1_BASE + 0x00000070u Size (bytes): 32 */
 202:Generated_Source\PSoC5/cyfitter_cfg.c **** #define BS_UWRK_B1_WRK_STATCTL_BITS_VAL ((const uint8 CYFAR *)0x48000228u)
 203:Generated_Source\PSoC5/cyfitter_cfg.c **** 
ARM GAS  C:\Users\bryan.lee\AppData\Local\Temp\ccC85gGx.s 			page 14


 204:Generated_Source\PSoC5/cyfitter_cfg.c **** /* UCFG_BCTL1 Address: CYREG_BCTL1_MDCLK_EN Size (bytes): 16 */
 205:Generated_Source\PSoC5/cyfitter_cfg.c **** #define BS_UCFG_BCTL1_VAL ((const uint8 CYFAR *)0x48000248u)
 206:Generated_Source\PSoC5/cyfitter_cfg.c **** 
 207:Generated_Source\PSoC5/cyfitter_cfg.c **** /* DSISWITCH_0_0 Address: CYDEV_UCFG_DSI13_BASE Size (bytes): 128 */
 208:Generated_Source\PSoC5/cyfitter_cfg.c **** #define BS_DSISWITCH_0_0_VAL ((const uint8 CYFAR *)0x48000258u)
 209:Generated_Source\PSoC5/cyfitter_cfg.c **** 
 210:Generated_Source\PSoC5/cyfitter_cfg.c **** /* DSI0_0_HV_ROUTING Address: CYDEV_UCFG_DSI13_BASE + 0x00000080u Size (bytes): 128 */
 211:Generated_Source\PSoC5/cyfitter_cfg.c **** #define BS_DSI0_0_HV_ROUTING_VAL ((const uint8 CYFAR *)0x480002D8u)
 212:Generated_Source\PSoC5/cyfitter_cfg.c **** 
 213:Generated_Source\PSoC5/cyfitter_cfg.c **** /* DSISWITCH_0_1 Address: CYDEV_UCFG_DSI12_BASE Size (bytes): 128 */
 214:Generated_Source\PSoC5/cyfitter_cfg.c **** #define BS_DSISWITCH_0_1_VAL ((const uint8 CYFAR *)0x48000358u)
 215:Generated_Source\PSoC5/cyfitter_cfg.c **** 
 216:Generated_Source\PSoC5/cyfitter_cfg.c **** /* DSI0_1_HV_ROUTING Address: CYDEV_UCFG_DSI12_BASE + 0x00000080u Size (bytes): 128 */
 217:Generated_Source\PSoC5/cyfitter_cfg.c **** #define BS_DSI0_1_HV_ROUTING_VAL ((const uint8 CYFAR *)0x480003D8u)
 218:Generated_Source\PSoC5/cyfitter_cfg.c **** 
 219:Generated_Source\PSoC5/cyfitter_cfg.c **** /* DSISWITCH_0_2 Address: CYDEV_UCFG_DSI7_BASE Size (bytes): 128 */
 220:Generated_Source\PSoC5/cyfitter_cfg.c **** #define BS_DSISWITCH_0_2_VAL ((const uint8 CYFAR *)0x48000458u)
 221:Generated_Source\PSoC5/cyfitter_cfg.c **** 
 222:Generated_Source\PSoC5/cyfitter_cfg.c **** /* DSI0_2_HV_ROUTING Address: CYDEV_UCFG_DSI7_BASE + 0x00000080u Size (bytes): 128 */
 223:Generated_Source\PSoC5/cyfitter_cfg.c **** #define BS_DSI0_2_HV_ROUTING_VAL ((const uint8 CYFAR *)0x480004D8u)
 224:Generated_Source\PSoC5/cyfitter_cfg.c **** 
 225:Generated_Source\PSoC5/cyfitter_cfg.c **** /* DSISWITCH_0_3 Address: CYDEV_UCFG_DSI6_BASE Size (bytes): 128 */
 226:Generated_Source\PSoC5/cyfitter_cfg.c **** #define BS_DSISWITCH_0_3_VAL ((const uint8 CYFAR *)0x48000558u)
 227:Generated_Source\PSoC5/cyfitter_cfg.c **** 
 228:Generated_Source\PSoC5/cyfitter_cfg.c **** /* DSI0_3_HV_ROUTING Address: CYDEV_UCFG_DSI6_BASE + 0x00000080u Size (bytes): 128 */
 229:Generated_Source\PSoC5/cyfitter_cfg.c **** #define BS_DSI0_3_HV_ROUTING_VAL ((const uint8 CYFAR *)0x480005D8u)
 230:Generated_Source\PSoC5/cyfitter_cfg.c **** 
 231:Generated_Source\PSoC5/cyfitter_cfg.c **** /* DSI0_4_HV_ROUTING Address: CYDEV_UCFG_DSI5_BASE + 0x00000080u Size (bytes): 128 */
 232:Generated_Source\PSoC5/cyfitter_cfg.c **** #define BS_DSI0_4_HV_ROUTING_VAL ((const uint8 CYFAR *)0x48000658u)
 233:Generated_Source\PSoC5/cyfitter_cfg.c **** 
 234:Generated_Source\PSoC5/cyfitter_cfg.c **** /* UDBSWITCH_0_0 Address: CYDEV_UCFG_B1_P5_ROUTE_BASE Size (bytes): 128 */
 235:Generated_Source\PSoC5/cyfitter_cfg.c **** #define BS_UDBSWITCH_0_0_VAL ((const uint8 CYFAR *)0x480006D8u)
 236:Generated_Source\PSoC5/cyfitter_cfg.c **** 
 237:Generated_Source\PSoC5/cyfitter_cfg.c **** /* UDB_1_0_HV_ROUTING Address: CYDEV_UCFG_B1_P5_ROUTE_BASE + 0x00000080u Size (bytes): 128 */
 238:Generated_Source\PSoC5/cyfitter_cfg.c **** #define BS_UDB_1_0_HV_ROUTING_VAL ((const uint8 CYFAR *)0x48000758u)
 239:Generated_Source\PSoC5/cyfitter_cfg.c **** 
 240:Generated_Source\PSoC5/cyfitter_cfg.c **** /* UDB_2_0_HV_ROUTING Address: CYDEV_UCFG_B1_P2_ROUTE_BASE + 0x00000080u Size (bytes): 128 */
 241:Generated_Source\PSoC5/cyfitter_cfg.c **** #define BS_UDB_2_0_HV_ROUTING_VAL ((const uint8 CYFAR *)0x480007D8u)
 242:Generated_Source\PSoC5/cyfitter_cfg.c **** 
 243:Generated_Source\PSoC5/cyfitter_cfg.c **** /* UDBSWITCH_0_1 Address: CYDEV_UCFG_B1_P4_ROUTE_BASE Size (bytes): 128 */
 244:Generated_Source\PSoC5/cyfitter_cfg.c **** #define BS_UDBSWITCH_0_1_VAL ((const uint8 CYFAR *)0x48000858u)
 245:Generated_Source\PSoC5/cyfitter_cfg.c **** 
 246:Generated_Source\PSoC5/cyfitter_cfg.c **** /* UDB_1_1_HV_ROUTING Address: CYDEV_UCFG_B1_P4_ROUTE_BASE + 0x00000080u Size (bytes): 128 */
 247:Generated_Source\PSoC5/cyfitter_cfg.c **** #define BS_UDB_1_1_HV_ROUTING_VAL ((const uint8 CYFAR *)0x480008D8u)
 248:Generated_Source\PSoC5/cyfitter_cfg.c **** 
 249:Generated_Source\PSoC5/cyfitter_cfg.c **** /* UDB_2_1_HV_ROUTING Address: CYDEV_UCFG_B1_P3_ROUTE_BASE + 0x00000080u Size (bytes): 128 */
 250:Generated_Source\PSoC5/cyfitter_cfg.c **** #define BS_UDB_2_1_HV_ROUTING_VAL ((const uint8 CYFAR *)0x48000958u)
 251:Generated_Source\PSoC5/cyfitter_cfg.c **** 
 252:Generated_Source\PSoC5/cyfitter_cfg.c **** /* UDB_1_2_HV_ROUTING Address: CYDEV_UCFG_B0_P4_ROUTE_BASE + 0x00000080u Size (bytes): 128 */
 253:Generated_Source\PSoC5/cyfitter_cfg.c **** #define BS_UDB_1_2_HV_ROUTING_VAL ((const uint8 CYFAR *)0x480009D8u)
 254:Generated_Source\PSoC5/cyfitter_cfg.c **** 
 255:Generated_Source\PSoC5/cyfitter_cfg.c **** /* UDB_2_2_HV_ROUTING Address: CYDEV_UCFG_B0_P3_ROUTE_BASE + 0x00000080u Size (bytes): 128 */
 256:Generated_Source\PSoC5/cyfitter_cfg.c **** #define BS_UDB_2_2_HV_ROUTING_VAL ((const uint8 CYFAR *)0x48000A58u)
 257:Generated_Source\PSoC5/cyfitter_cfg.c **** 
 258:Generated_Source\PSoC5/cyfitter_cfg.c **** /* UDB_1_4_HV_ROUTING Address: CYDEV_UCFG_B0_P6_ROUTE_BASE + 0x00000080u Size (bytes): 128 */
 259:Generated_Source\PSoC5/cyfitter_cfg.c **** #define BS_UDB_1_4_HV_ROUTING_VAL ((const uint8 CYFAR *)0x48000AD8u)
 260:Generated_Source\PSoC5/cyfitter_cfg.c **** 
ARM GAS  C:\Users\bryan.lee\AppData\Local\Temp\ccC85gGx.s 			page 15


 261:Generated_Source\PSoC5/cyfitter_cfg.c **** /* UDB_2_4_HV_ROUTING Address: CYDEV_UCFG_B0_P1_ROUTE_BASE + 0x00000080u Size (bytes): 128 */
 262:Generated_Source\PSoC5/cyfitter_cfg.c **** #define BS_UDB_2_4_HV_ROUTING_VAL ((const uint8 CYFAR *)0x48000B58u)
 263:Generated_Source\PSoC5/cyfitter_cfg.c **** 
 264:Generated_Source\PSoC5/cyfitter_cfg.c **** /* DSI3_0_HV_ROUTING Address: CYDEV_UCFG_DSI9_BASE + 0x00000080u Size (bytes): 128 */
 265:Generated_Source\PSoC5/cyfitter_cfg.c **** #define BS_DSI3_0_HV_ROUTING_VAL ((const uint8 CYFAR *)0x48000BD8u)
 266:Generated_Source\PSoC5/cyfitter_cfg.c **** 
 267:Generated_Source\PSoC5/cyfitter_cfg.c **** /* DSI3_1_HV_ROUTING Address: CYDEV_UCFG_DSI8_BASE + 0x00000080u Size (bytes): 128 */
 268:Generated_Source\PSoC5/cyfitter_cfg.c **** #define BS_DSI3_1_HV_ROUTING_VAL ((const uint8 CYFAR *)0x48000C58u)
 269:Generated_Source\PSoC5/cyfitter_cfg.c **** 
 270:Generated_Source\PSoC5/cyfitter_cfg.c **** /* DSI3_2_HV_ROUTING Address: CYDEV_UCFG_DSI3_BASE + 0x00000080u Size (bytes): 128 */
 271:Generated_Source\PSoC5/cyfitter_cfg.c **** #define BS_DSI3_2_HV_ROUTING_VAL ((const uint8 CYFAR *)0x48000CD8u)
 272:Generated_Source\PSoC5/cyfitter_cfg.c **** 
 273:Generated_Source\PSoC5/cyfitter_cfg.c **** /* DSI3_3_HV_ROUTING Address: CYDEV_UCFG_DSI2_BASE + 0x00000080u Size (bytes): 128 */
 274:Generated_Source\PSoC5/cyfitter_cfg.c **** #define BS_DSI3_3_HV_ROUTING_VAL ((const uint8 CYFAR *)0x48000D58u)
 275:Generated_Source\PSoC5/cyfitter_cfg.c **** 
 276:Generated_Source\PSoC5/cyfitter_cfg.c **** /* DSI3_4_HV_ROUTING Address: CYDEV_UCFG_DSI1_BASE + 0x00000080u Size (bytes): 128 */
 277:Generated_Source\PSoC5/cyfitter_cfg.c **** #define BS_DSI3_4_HV_ROUTING_VAL ((const uint8 CYFAR *)0x48000DD8u)
 278:Generated_Source\PSoC5/cyfitter_cfg.c **** 
 279:Generated_Source\PSoC5/cyfitter_cfg.c **** /* DSISWITCH_1_5 Address: CYDEV_UCFG_DSI0_BASE Size (bytes): 128 */
 280:Generated_Source\PSoC5/cyfitter_cfg.c **** #define BS_DSISWITCH_1_5_VAL ((const uint8 CYFAR *)0x48000E58u)
 281:Generated_Source\PSoC5/cyfitter_cfg.c **** 
 282:Generated_Source\PSoC5/cyfitter_cfg.c **** /* DSI3_5_HV_ROUTING Address: CYDEV_UCFG_DSI0_BASE + 0x00000080u Size (bytes): 128 */
 283:Generated_Source\PSoC5/cyfitter_cfg.c **** #define BS_DSI3_5_HV_ROUTING_VAL ((const uint8 CYFAR *)0x48000ED8u)
 284:Generated_Source\PSoC5/cyfitter_cfg.c **** 
 285:Generated_Source\PSoC5/cyfitter_cfg.c **** /* IOPINS0_0 Address: CYREG_PRT0_DM0 Size (bytes): 8 */
 286:Generated_Source\PSoC5/cyfitter_cfg.c **** #define BS_IOPINS0_0_VAL ((const uint8 CYFAR *)0x48000F58u)
 287:Generated_Source\PSoC5/cyfitter_cfg.c **** 
 288:Generated_Source\PSoC5/cyfitter_cfg.c **** /* IOPINS0_8 Address: CYREG_PRT15_DR Size (bytes): 10 */
 289:Generated_Source\PSoC5/cyfitter_cfg.c **** #define BS_IOPINS0_8_VAL ((const uint8 CYFAR *)0x48000F60u)
 290:Generated_Source\PSoC5/cyfitter_cfg.c **** 
 291:Generated_Source\PSoC5/cyfitter_cfg.c **** /* IOPINS0_1 Address: CYREG_PRT1_DM0 Size (bytes): 8 */
 292:Generated_Source\PSoC5/cyfitter_cfg.c **** #define BS_IOPINS0_1_VAL ((const uint8 CYFAR *)0x48000F6Cu)
 293:Generated_Source\PSoC5/cyfitter_cfg.c **** 
 294:Generated_Source\PSoC5/cyfitter_cfg.c **** /* IOPINS0_2 Address: CYREG_PRT2_DM0 Size (bytes): 8 */
 295:Generated_Source\PSoC5/cyfitter_cfg.c **** #define BS_IOPINS0_2_VAL ((const uint8 CYFAR *)0x48000F74u)
 296:Generated_Source\PSoC5/cyfitter_cfg.c **** 
 297:Generated_Source\PSoC5/cyfitter_cfg.c **** /* IOPINS0_3 Address: CYREG_PRT3_DM0 Size (bytes): 8 */
 298:Generated_Source\PSoC5/cyfitter_cfg.c **** #define BS_IOPINS0_3_VAL ((const uint8 CYFAR *)0x48000F7Cu)
 299:Generated_Source\PSoC5/cyfitter_cfg.c **** 
 300:Generated_Source\PSoC5/cyfitter_cfg.c **** /* IOPINS0_5 Address: CYREG_PRT5_DM0 Size (bytes): 8 */
 301:Generated_Source\PSoC5/cyfitter_cfg.c **** #define BS_IOPINS0_5_VAL ((const uint8 CYFAR *)0x48000F84u)
 302:Generated_Source\PSoC5/cyfitter_cfg.c **** 
 303:Generated_Source\PSoC5/cyfitter_cfg.c **** /* CYDEV_CLKDIST_ACFG0_CFG0 Address: CYREG_CLKDIST_ACFG0_CFG0 Size (bytes): 8 */
 304:Generated_Source\PSoC5/cyfitter_cfg.c **** #define BS_CYDEV_CLKDIST_ACFG0_CFG0_VAL ((const uint8 CYFAR *)0x48000F8Cu)
 305:Generated_Source\PSoC5/cyfitter_cfg.c **** 
 306:Generated_Source\PSoC5/cyfitter_cfg.c **** 
 307:Generated_Source\PSoC5/cyfitter_cfg.c **** /*******************************************************************************
 308:Generated_Source\PSoC5/cyfitter_cfg.c **** * Function Name: cfg_dma_init
 309:Generated_Source\PSoC5/cyfitter_cfg.c **** ********************************************************************************
 310:Generated_Source\PSoC5/cyfitter_cfg.c **** * Summary:
 311:Generated_Source\PSoC5/cyfitter_cfg.c **** *  This function is used to copy device configuration data from constant values
 312:Generated_Source\PSoC5/cyfitter_cfg.c **** *  stored in memory into the proper chip configuration registers using DMA.  It
 313:Generated_Source\PSoC5/cyfitter_cfg.c **** *  pulls data out of the CFG_TD_LISTs to know exactly how/what to configure.
 314:Generated_Source\PSoC5/cyfitter_cfg.c **** *
 315:Generated_Source\PSoC5/cyfitter_cfg.c **** * Parameters:  
 316:Generated_Source\PSoC5/cyfitter_cfg.c **** *   void
 317:Generated_Source\PSoC5/cyfitter_cfg.c **** *
ARM GAS  C:\Users\bryan.lee\AppData\Local\Temp\ccC85gGx.s 			page 16


 318:Generated_Source\PSoC5/cyfitter_cfg.c **** * Return:
 319:Generated_Source\PSoC5/cyfitter_cfg.c **** *   void
 320:Generated_Source\PSoC5/cyfitter_cfg.c **** *
 321:Generated_Source\PSoC5/cyfitter_cfg.c **** *******************************************************************************/
 322:Generated_Source\PSoC5/cyfitter_cfg.c **** static void cfg_dma_init(void);
 323:Generated_Source\PSoC5/cyfitter_cfg.c **** static void cfg_dma_init(void)
 324:Generated_Source\PSoC5/cyfitter_cfg.c **** {
 539              		.loc 1 324 0
 540              		.cfi_startproc
 541              		@ args = 0, pretend = 0, frame = 8
 542              		@ frame_needed = 1, uses_anonymous_args = 0
 543              		@ link register save eliminated.
 544 0000 80B4     		push	{r7}
 545              		.cfi_def_cfa_offset 4
 546              		.cfi_offset 7, -4
 547 0002 83B0     		sub	sp, sp, #12
 548              		.cfi_def_cfa_offset 16
 549 0004 00AF     		add	r7, sp, #0
 550              		.cfi_def_cfa_register 7
 325:Generated_Source\PSoC5/cyfitter_cfg.c **** 	/* TD structure for little-endian systems. Does not require endian swap */
 326:Generated_Source\PSoC5/cyfitter_cfg.c **** 	CYPACKED struct td_t {
 327:Generated_Source\PSoC5/cyfitter_cfg.c **** 		uint16 size;
 328:Generated_Source\PSoC5/cyfitter_cfg.c **** 		uint8 next_td_ptr;
 329:Generated_Source\PSoC5/cyfitter_cfg.c **** 		uint8 flags;
 330:Generated_Source\PSoC5/cyfitter_cfg.c **** 		uint16 src;
 331:Generated_Source\PSoC5/cyfitter_cfg.c **** 		uint16 dest;
 332:Generated_Source\PSoC5/cyfitter_cfg.c **** 	} CYPACKED_ATTR;
 333:Generated_Source\PSoC5/cyfitter_cfg.c **** 
 334:Generated_Source\PSoC5/cyfitter_cfg.c **** 	/* PHUB_CH1_CFGMEM_CFG0/1 initialization data */
 335:Generated_Source\PSoC5/cyfitter_cfg.c **** 	DMAINITSEC static const uint8 CYCODE CH1_ADDR_DATA0[] = { 0x01u, 0x00u, 0x00u, 0x00u, 0x00u, 0x20u
 336:Generated_Source\PSoC5/cyfitter_cfg.c **** 
 337:Generated_Source\PSoC5/cyfitter_cfg.c **** 	/* PHUB_CH2_CFGMEM_CFG0/1 initialization data */
 338:Generated_Source\PSoC5/cyfitter_cfg.c **** 	DMAINITSEC static const uint8 CYCODE CH2_ADDR_DATA0[] = { 0x01u, 0x00u, 0x00u, 0x00u, 0x00u, 0x20u
 339:Generated_Source\PSoC5/cyfitter_cfg.c **** 
 340:Generated_Source\PSoC5/cyfitter_cfg.c **** 	/* PHUB_CH5_CFGMEM_CFG0/1 initialization data */
 341:Generated_Source\PSoC5/cyfitter_cfg.c **** 	DMAINITSEC static const uint8 CYCODE CH5_ADDR_DATA0[] = { 0x01u, 0x00u, 0x00u, 0x00u, 0x00u, 0x48u
 342:Generated_Source\PSoC5/cyfitter_cfg.c **** 
 343:Generated_Source\PSoC5/cyfitter_cfg.c **** 	/* PHUB_CH6_CFGMEM_CFG0/1 initialization data */
 344:Generated_Source\PSoC5/cyfitter_cfg.c **** 	DMAINITSEC static const uint8 CYCODE CH6_ADDR_DATA0[] = { 0x01u, 0x00u, 0x00u, 0x00u, 0x00u, 0x48u
 345:Generated_Source\PSoC5/cyfitter_cfg.c **** 
 346:Generated_Source\PSoC5/cyfitter_cfg.c **** 	/* Initialization data for each DMA channel's TD registers */
 347:Generated_Source\PSoC5/cyfitter_cfg.c **** 	DMAINITSEC static const uint8 CYCODE DMA_TD_START_CMD[] = { 0x01u, 0x00u, 0x00u, 0x00u, 0x01u };
 348:Generated_Source\PSoC5/cyfitter_cfg.c **** 
 349:Generated_Source\PSoC5/cyfitter_cfg.c **** 	CYALIGNED static uint32 CYXDATA DMA_ZERO_VAL;
 350:Generated_Source\PSoC5/cyfitter_cfg.c **** 
 351:Generated_Source\PSoC5/cyfitter_cfg.c **** 	/* This table holds all of the initialization data necessary for the DMA
 352:Generated_Source\PSoC5/cyfitter_cfg.c **** 	   process to transfer data from the source location to the destination. */
 353:Generated_Source\PSoC5/cyfitter_cfg.c **** 	/* Source addresses can be relocated, but only when in 32bit addresses.
 354:Generated_Source\PSoC5/cyfitter_cfg.c **** 	   Because the standard TD table only has 16bit addresses, we generate a
 355:Generated_Source\PSoC5/cyfitter_cfg.c **** 	   separate CFG_TD_ADDR table for the source addresses that supports 32bit
 356:Generated_Source\PSoC5/cyfitter_cfg.c **** 	   addresses. */
 357:Generated_Source\PSoC5/cyfitter_cfg.c **** 	DMAINITSEC static const struct td_t CYCODE CFG_TD_LIST0[] = {
 358:Generated_Source\PSoC5/cyfitter_cfg.c **** 		/* Size, Next, Flags, Source, Destination */
 359:Generated_Source\PSoC5/cyfitter_cfg.c **** 		{ 8u, 0x02u, 0x23u, (uint16)(uint32)(0u), (uint16)(CYREG_PHUB_CFGMEM1_CFG0) },	/* TD 1 */
 360:Generated_Source\PSoC5/cyfitter_cfg.c **** 		{ 8u, 0x03u, 0x23u, (uint16)(uint32)(0u), (uint16)(CYREG_PHUB_CFGMEM2_CFG0) },	/* TD 2 */
 361:Generated_Source\PSoC5/cyfitter_cfg.c **** 		{ 8u, 0x04u, 0x23u, (uint16)(uint32)(0u), (uint16)(CYREG_PHUB_CFGMEM5_CFG0) },	/* TD 3 */
 362:Generated_Source\PSoC5/cyfitter_cfg.c **** 		{ 8u, 0x05u, 0x23u, (uint16)(uint32)(0u), (uint16)(CYREG_PHUB_CFGMEM6_CFG0) },	/* TD 4 */
ARM GAS  C:\Users\bryan.lee\AppData\Local\Temp\ccC85gGx.s 			page 17


 363:Generated_Source\PSoC5/cyfitter_cfg.c **** 		{ 5u, 0x06u, 0x23u, (uint16)(uint32)(0u), (uint16)(CYREG_PHUB_CH1_BASIC_CFG) },	/* TD 5 */
 364:Generated_Source\PSoC5/cyfitter_cfg.c **** 		{ 5u, 0x07u, 0x23u, (uint16)(uint32)(0u), (uint16)(CYREG_PHUB_CH2_BASIC_CFG) },	/* TD 6 */
 365:Generated_Source\PSoC5/cyfitter_cfg.c **** 		{ 5u, 0x08u, 0x23u, (uint16)(uint32)(0u), (uint16)(CYREG_PHUB_CH5_BASIC_CFG) },	/* TD 7 */
 366:Generated_Source\PSoC5/cyfitter_cfg.c **** 		{ 5u, 0xFEu, 0x23u, (uint16)(uint32)(0u), (uint16)(CYREG_PHUB_CH6_BASIC_CFG) },	/* TD 8 */
 367:Generated_Source\PSoC5/cyfitter_cfg.c **** 		{ 16u, 0x0Au, 0x22u, (uint16)(uint32)(0u), (uint16)(CYREG_PRT4_DR) },	/* TD 9 */
 368:Generated_Source\PSoC5/cyfitter_cfg.c **** 		{ 16u, 0x0Bu, 0x22u, (uint16)(uint32)(0u), (uint16)(CYREG_PRT6_DR) },	/* TD 10 */
 369:Generated_Source\PSoC5/cyfitter_cfg.c **** 		{ 16u, 0xFEu, 0x22u, (uint16)(uint32)(0u), (uint16)(CYREG_PRT12_DR) },	/* TD 11 */
 370:Generated_Source\PSoC5/cyfitter_cfg.c **** 		{ 896u, 0x0Du, 0x22u, (uint16)(uint32)(0u), (uint16)(CYDEV_UCFG_B0_P0_U0_BASE) },	/* TD 12 */
 371:Generated_Source\PSoC5/cyfitter_cfg.c **** 		{ 896u, 0x0Eu, 0x22u, (uint16)(uint32)(0u), (uint16)(CYDEV_UCFG_B0_P2_U0_BASE) },	/* TD 13 */
 372:Generated_Source\PSoC5/cyfitter_cfg.c **** 		{ 384u, 0x0Fu, 0x22u, (uint16)(uint32)(0u), (uint16)(CYDEV_UCFG_B0_P4_U0_BASE) },	/* TD 14 */
 373:Generated_Source\PSoC5/cyfitter_cfg.c **** 		{ 896u, 0x10u, 0x22u, (uint16)(uint32)(0u), (uint16)(CYDEV_UCFG_B0_P5_U0_BASE) },	/* TD 15 */
 374:Generated_Source\PSoC5/cyfitter_cfg.c **** 		{ 512u, 0x11u, 0x22u, (uint16)(uint32)(0u), (uint16)(CYDEV_UCFG_B0_P7_U0_BASE) },	/* TD 16 */
 375:Generated_Source\PSoC5/cyfitter_cfg.c **** 		{ 384u, 0x12u, 0x22u, (uint16)(uint32)(0u), (uint16)(CYDEV_UCFG_B1_P2_U0_BASE) },	/* TD 17 */
 376:Generated_Source\PSoC5/cyfitter_cfg.c **** 		{ 384u, 0x13u, 0x22u, (uint16)(uint32)(0u), (uint16)(CYDEV_UCFG_B1_P3_U0_BASE) },	/* TD 18 */
 377:Generated_Source\PSoC5/cyfitter_cfg.c **** 		{ 128u, 0x14u, 0x22u, (uint16)(uint32)(0u), (uint16)(CYDEV_UCFG_DSI1_BASE) },	/* TD 19 */
 378:Generated_Source\PSoC5/cyfitter_cfg.c **** 		{ 128u, 0x15u, 0x22u, (uint16)(uint32)(0u), (uint16)(CYDEV_UCFG_DSI2_BASE) },	/* TD 20 */
 379:Generated_Source\PSoC5/cyfitter_cfg.c **** 		{ 128u, 0x16u, 0x22u, (uint16)(uint32)(0u), (uint16)(CYDEV_UCFG_DSI3_BASE) },	/* TD 21 */
 380:Generated_Source\PSoC5/cyfitter_cfg.c **** 		{ 384u, 0x17u, 0x22u, (uint16)(uint32)(0u), (uint16)(CYDEV_UCFG_DSI4_BASE) },	/* TD 22 */
 381:Generated_Source\PSoC5/cyfitter_cfg.c **** 		{ 128u, 0x18u, 0x22u, (uint16)(uint32)(0u), (uint16)(CYDEV_UCFG_DSI8_BASE) },	/* TD 23 */
 382:Generated_Source\PSoC5/cyfitter_cfg.c **** 		{ 128u, 0x19u, 0x22u, (uint16)(uint32)(0u), (uint16)(CYDEV_UCFG_DSI9_BASE) },	/* TD 24 */
 383:Generated_Source\PSoC5/cyfitter_cfg.c **** 		{ 16u, 0xFEu, 0x22u, (uint16)(uint32)(0u), (uint16)(CYREG_BCTL0_MDCLK_EN) },	/* TD 25 */
 384:Generated_Source\PSoC5/cyfitter_cfg.c **** 		{ 7u, 0x1Bu, 0x23u, (uint16)(uint32)(0u), (uint16)(CYDEV_PRTDSI_PRT5_BASE) },	/* TD 26 */
 385:Generated_Source\PSoC5/cyfitter_cfg.c **** 		{ 7u, 0x1Cu, 0x23u, (uint16)(uint32)(0u), (uint16)(CYDEV_PRTDSI_PRT15_BASE) },	/* TD 27 */
 386:Generated_Source\PSoC5/cyfitter_cfg.c **** 		{ 8u, 0x1Du, 0x23u, (uint16)(uint32)(0u), (uint16)(CYDEV_PICU_INTTYPE_PICU15_BASE) },	/* TD 28 */
 387:Generated_Source\PSoC5/cyfitter_cfg.c **** 		{ 8u, 0x1Eu, 0x23u, (uint16)(uint32)(0u), (uint16)(CYREG_SAR0_SW0) },	/* TD 29 */
 388:Generated_Source\PSoC5/cyfitter_cfg.c **** 		{ 32u, 0xFEu, 0x23u, (uint16)(uint32)(0u), (uint16)(CYDEV_UWRK_UWRK8_B1_BASE + 0x00000070u) },	/*
 389:Generated_Source\PSoC5/cyfitter_cfg.c **** 		{ 8u, 0x20u, 0x23u, (uint16)(uint32)(0u), (uint16)(CYREG_IDMUX_IRQ_CTL0) },	/* TD 31 */
 390:Generated_Source\PSoC5/cyfitter_cfg.c **** 		{ 128u, 0x21u, 0x23u, (uint16)(uint32)(0u), (uint16)(CYDEV_UCFG_B1_P4_U0_BASE) },	/* TD 32 */
 391:Generated_Source\PSoC5/cyfitter_cfg.c **** 		{ 128u, 0x22u, 0x23u, (uint16)(uint32)(0u), (uint16)(CYDEV_UCFG_B1_P4_U1_BASE) },	/* TD 33 */
 392:Generated_Source\PSoC5/cyfitter_cfg.c **** 		{ 128u, 0x23u, 0x23u, (uint16)(uint32)(0u), (uint16)(CYDEV_UCFG_B1_P5_U0_BASE) },	/* TD 34 */
 393:Generated_Source\PSoC5/cyfitter_cfg.c **** 		{ 128u, 0x24u, 0x23u, (uint16)(uint32)(0u), (uint16)(CYDEV_UCFG_B1_P5_U1_BASE) },	/* TD 35 */
 394:Generated_Source\PSoC5/cyfitter_cfg.c **** 		{ 16u, 0x25u, 0x23u, (uint16)(uint32)(0u), (uint16)(CYREG_BCTL1_MDCLK_EN) },	/* TD 36 */
 395:Generated_Source\PSoC5/cyfitter_cfg.c **** 		{ 128u, 0x26u, 0x23u, (uint16)(uint32)(0u), (uint16)(CYDEV_UCFG_DSI13_BASE) },	/* TD 37 */
 396:Generated_Source\PSoC5/cyfitter_cfg.c **** 		{ 128u, 0x27u, 0x23u, (uint16)(uint32)(0u), (uint16)(CYDEV_UCFG_DSI13_BASE + 0x00000080u) },	/* T
 397:Generated_Source\PSoC5/cyfitter_cfg.c **** 		{ 128u, 0x28u, 0x23u, (uint16)(uint32)(0u), (uint16)(CYDEV_UCFG_DSI12_BASE) },	/* TD 39 */
 398:Generated_Source\PSoC5/cyfitter_cfg.c **** 		{ 128u, 0x29u, 0x23u, (uint16)(uint32)(0u), (uint16)(CYDEV_UCFG_DSI12_BASE + 0x00000080u) },	/* T
 399:Generated_Source\PSoC5/cyfitter_cfg.c **** 		{ 128u, 0x2Au, 0x23u, (uint16)(uint32)(0u), (uint16)(CYDEV_UCFG_DSI7_BASE) },	/* TD 41 */
 400:Generated_Source\PSoC5/cyfitter_cfg.c **** 		{ 128u, 0x2Bu, 0x23u, (uint16)(uint32)(0u), (uint16)(CYDEV_UCFG_DSI7_BASE + 0x00000080u) },	/* TD
 401:Generated_Source\PSoC5/cyfitter_cfg.c **** 		{ 128u, 0x2Cu, 0x23u, (uint16)(uint32)(0u), (uint16)(CYDEV_UCFG_DSI6_BASE) },	/* TD 43 */
 402:Generated_Source\PSoC5/cyfitter_cfg.c **** 		{ 128u, 0x2Du, 0x23u, (uint16)(uint32)(0u), (uint16)(CYDEV_UCFG_DSI6_BASE + 0x00000080u) },	/* TD
 403:Generated_Source\PSoC5/cyfitter_cfg.c **** 		{ 128u, 0x2Eu, 0x23u, (uint16)(uint32)(0u), (uint16)(CYDEV_UCFG_DSI5_BASE + 0x00000080u) },	/* TD
 404:Generated_Source\PSoC5/cyfitter_cfg.c **** 		{ 128u, 0x2Fu, 0x23u, (uint16)(uint32)(0u), (uint16)(CYDEV_UCFG_B1_P5_ROUTE_BASE) },	/* TD 46 */
 405:Generated_Source\PSoC5/cyfitter_cfg.c **** 		{ 128u, 0x30u, 0x23u, (uint16)(uint32)(0u), (uint16)(CYDEV_UCFG_B1_P5_ROUTE_BASE + 0x00000080u) }
 406:Generated_Source\PSoC5/cyfitter_cfg.c **** 		{ 128u, 0x31u, 0x23u, (uint16)(uint32)(0u), (uint16)(CYDEV_UCFG_B1_P2_ROUTE_BASE + 0x00000080u) }
 407:Generated_Source\PSoC5/cyfitter_cfg.c **** 		{ 128u, 0x32u, 0x23u, (uint16)(uint32)(0u), (uint16)(CYDEV_UCFG_B1_P4_ROUTE_BASE) },	/* TD 49 */
 408:Generated_Source\PSoC5/cyfitter_cfg.c **** 		{ 128u, 0x33u, 0x23u, (uint16)(uint32)(0u), (uint16)(CYDEV_UCFG_B1_P4_ROUTE_BASE + 0x00000080u) }
 409:Generated_Source\PSoC5/cyfitter_cfg.c **** 		{ 128u, 0x34u, 0x23u, (uint16)(uint32)(0u), (uint16)(CYDEV_UCFG_B1_P3_ROUTE_BASE + 0x00000080u) }
 410:Generated_Source\PSoC5/cyfitter_cfg.c **** 		{ 128u, 0x35u, 0x23u, (uint16)(uint32)(0u), (uint16)(CYDEV_UCFG_B0_P4_ROUTE_BASE + 0x00000080u) }
 411:Generated_Source\PSoC5/cyfitter_cfg.c **** 		{ 128u, 0x36u, 0x23u, (uint16)(uint32)(0u), (uint16)(CYDEV_UCFG_B0_P3_ROUTE_BASE + 0x00000080u) }
 412:Generated_Source\PSoC5/cyfitter_cfg.c **** 		{ 128u, 0x37u, 0x23u, (uint16)(uint32)(0u), (uint16)(CYDEV_UCFG_B0_P6_ROUTE_BASE + 0x00000080u) }
 413:Generated_Source\PSoC5/cyfitter_cfg.c **** 		{ 128u, 0x38u, 0x23u, (uint16)(uint32)(0u), (uint16)(CYDEV_UCFG_B0_P1_ROUTE_BASE + 0x00000080u) }
 414:Generated_Source\PSoC5/cyfitter_cfg.c **** 		{ 128u, 0x39u, 0x23u, (uint16)(uint32)(0u), (uint16)(CYDEV_UCFG_DSI9_BASE + 0x00000080u) },	/* TD
 415:Generated_Source\PSoC5/cyfitter_cfg.c **** 		{ 128u, 0x3Au, 0x23u, (uint16)(uint32)(0u), (uint16)(CYDEV_UCFG_DSI8_BASE + 0x00000080u) },	/* TD
 416:Generated_Source\PSoC5/cyfitter_cfg.c **** 		{ 128u, 0x3Bu, 0x23u, (uint16)(uint32)(0u), (uint16)(CYDEV_UCFG_DSI3_BASE + 0x00000080u) },	/* TD
 417:Generated_Source\PSoC5/cyfitter_cfg.c **** 		{ 128u, 0x3Cu, 0x23u, (uint16)(uint32)(0u), (uint16)(CYDEV_UCFG_DSI2_BASE + 0x00000080u) },	/* TD
 418:Generated_Source\PSoC5/cyfitter_cfg.c **** 		{ 128u, 0x3Du, 0x23u, (uint16)(uint32)(0u), (uint16)(CYDEV_UCFG_DSI1_BASE + 0x00000080u) },	/* TD
 419:Generated_Source\PSoC5/cyfitter_cfg.c **** 		{ 128u, 0x3Eu, 0x23u, (uint16)(uint32)(0u), (uint16)(CYDEV_UCFG_DSI0_BASE) },	/* TD 61 */
ARM GAS  C:\Users\bryan.lee\AppData\Local\Temp\ccC85gGx.s 			page 18


 420:Generated_Source\PSoC5/cyfitter_cfg.c **** 		{ 128u, 0xFEu, 0x23u, (uint16)(uint32)(0u), (uint16)(CYDEV_UCFG_DSI0_BASE + 0x00000080u) },	/* TD
 421:Generated_Source\PSoC5/cyfitter_cfg.c **** 	};
 422:Generated_Source\PSoC5/cyfitter_cfg.c **** 
 423:Generated_Source\PSoC5/cyfitter_cfg.c **** 	/* Source addresses can be relocated, but only when in 32bit addresses.
 424:Generated_Source\PSoC5/cyfitter_cfg.c **** 	   Because the standard TD table only has 16bit addresses, we generate a
 425:Generated_Source\PSoC5/cyfitter_cfg.c **** 	   separate table for the source addresses that does use 32bit addresses. This
 426:Generated_Source\PSoC5/cyfitter_cfg.c **** 	   table will be re-merged with the corresponding CFG_TD_LIST table during
 427:Generated_Source\PSoC5/cyfitter_cfg.c **** 	   initialization. */
 428:Generated_Source\PSoC5/cyfitter_cfg.c **** 	static const void * const CFG_TD_ADDR0[] = {
 429:Generated_Source\PSoC5/cyfitter_cfg.c **** 		(const void *)(CH1_ADDR_DATA0),	/* TD 1 */
 430:Generated_Source\PSoC5/cyfitter_cfg.c **** 		(const void *)(CH2_ADDR_DATA0),	/* TD 2 */
 431:Generated_Source\PSoC5/cyfitter_cfg.c **** 		(const void *)(CH5_ADDR_DATA0),	/* TD 3 */
 432:Generated_Source\PSoC5/cyfitter_cfg.c **** 		(const void *)(CH6_ADDR_DATA0),	/* TD 4 */
 433:Generated_Source\PSoC5/cyfitter_cfg.c **** 		(const void *)(DMA_TD_START_CMD),	/* TD 5 */
 434:Generated_Source\PSoC5/cyfitter_cfg.c **** 		(const void *)(DMA_TD_START_CMD),	/* TD 6 */
 435:Generated_Source\PSoC5/cyfitter_cfg.c **** 		(const void *)(DMA_TD_START_CMD),	/* TD 7 */
 436:Generated_Source\PSoC5/cyfitter_cfg.c **** 		(const void *)(DMA_TD_START_CMD),	/* TD 8 */
 437:Generated_Source\PSoC5/cyfitter_cfg.c **** 		(const void *)(&DMA_ZERO_VAL),	/* TD 9 */
 438:Generated_Source\PSoC5/cyfitter_cfg.c **** 		(const void *)(&DMA_ZERO_VAL),	/* TD 10 */
 439:Generated_Source\PSoC5/cyfitter_cfg.c **** 		(const void *)(&DMA_ZERO_VAL),	/* TD 11 */
 440:Generated_Source\PSoC5/cyfitter_cfg.c **** 		(const void *)(&DMA_ZERO_VAL),	/* TD 12 */
 441:Generated_Source\PSoC5/cyfitter_cfg.c **** 		(const void *)(&DMA_ZERO_VAL),	/* TD 13 */
 442:Generated_Source\PSoC5/cyfitter_cfg.c **** 		(const void *)(&DMA_ZERO_VAL),	/* TD 14 */
 443:Generated_Source\PSoC5/cyfitter_cfg.c **** 		(const void *)(&DMA_ZERO_VAL),	/* TD 15 */
 444:Generated_Source\PSoC5/cyfitter_cfg.c **** 		(const void *)(&DMA_ZERO_VAL),	/* TD 16 */
 445:Generated_Source\PSoC5/cyfitter_cfg.c **** 		(const void *)(&DMA_ZERO_VAL),	/* TD 17 */
 446:Generated_Source\PSoC5/cyfitter_cfg.c **** 		(const void *)(&DMA_ZERO_VAL),	/* TD 18 */
 447:Generated_Source\PSoC5/cyfitter_cfg.c **** 		(const void *)(&DMA_ZERO_VAL),	/* TD 19 */
 448:Generated_Source\PSoC5/cyfitter_cfg.c **** 		(const void *)(&DMA_ZERO_VAL),	/* TD 20 */
 449:Generated_Source\PSoC5/cyfitter_cfg.c **** 		(const void *)(&DMA_ZERO_VAL),	/* TD 21 */
 450:Generated_Source\PSoC5/cyfitter_cfg.c **** 		(const void *)(&DMA_ZERO_VAL),	/* TD 22 */
 451:Generated_Source\PSoC5/cyfitter_cfg.c **** 		(const void *)(&DMA_ZERO_VAL),	/* TD 23 */
 452:Generated_Source\PSoC5/cyfitter_cfg.c **** 		(const void *)(&DMA_ZERO_VAL),	/* TD 24 */
 453:Generated_Source\PSoC5/cyfitter_cfg.c **** 		(const void *)(&DMA_ZERO_VAL),	/* TD 25 */
 454:Generated_Source\PSoC5/cyfitter_cfg.c **** 		(const void *)(BS_IOPORT_5_VAL),	/* TD 26 */
 455:Generated_Source\PSoC5/cyfitter_cfg.c **** 		(const void *)(BS_IOPORT_8_VAL),	/* TD 27 */
 456:Generated_Source\PSoC5/cyfitter_cfg.c **** 		(const void *)(BS_PICU_8_VAL),	/* TD 28 */
 457:Generated_Source\PSoC5/cyfitter_cfg.c **** 		(const void *)(BS_SAR0_VAL),	/* TD 29 */
 458:Generated_Source\PSoC5/cyfitter_cfg.c **** 		(const void *)(BS_UWRK_B1_WRK_STATCTL_BITS_VAL),	/* TD 30 */
 459:Generated_Source\PSoC5/cyfitter_cfg.c **** 		(const void *)(BS_IDMUX_IRQ_VAL),	/* TD 31 */
 460:Generated_Source\PSoC5/cyfitter_cfg.c **** 		(const void *)(BS_UDB_0_1_1_CONFIG_VAL),	/* TD 32 */
 461:Generated_Source\PSoC5/cyfitter_cfg.c **** 		(const void *)(BS_UDB_0_1_0_CONFIG_VAL),	/* TD 33 */
 462:Generated_Source\PSoC5/cyfitter_cfg.c **** 		(const void *)(BS_UDB_0_0_0_CONFIG_VAL),	/* TD 34 */
 463:Generated_Source\PSoC5/cyfitter_cfg.c **** 		(const void *)(BS_UDB_0_0_1_CONFIG_VAL),	/* TD 35 */
 464:Generated_Source\PSoC5/cyfitter_cfg.c **** 		(const void *)(BS_UCFG_BCTL1_VAL),	/* TD 36 */
 465:Generated_Source\PSoC5/cyfitter_cfg.c **** 		(const void *)(BS_DSISWITCH_0_0_VAL),	/* TD 37 */
 466:Generated_Source\PSoC5/cyfitter_cfg.c **** 		(const void *)(BS_DSI0_0_HV_ROUTING_VAL),	/* TD 38 */
 467:Generated_Source\PSoC5/cyfitter_cfg.c **** 		(const void *)(BS_DSISWITCH_0_1_VAL),	/* TD 39 */
 468:Generated_Source\PSoC5/cyfitter_cfg.c **** 		(const void *)(BS_DSI0_1_HV_ROUTING_VAL),	/* TD 40 */
 469:Generated_Source\PSoC5/cyfitter_cfg.c **** 		(const void *)(BS_DSISWITCH_0_2_VAL),	/* TD 41 */
 470:Generated_Source\PSoC5/cyfitter_cfg.c **** 		(const void *)(BS_DSI0_2_HV_ROUTING_VAL),	/* TD 42 */
 471:Generated_Source\PSoC5/cyfitter_cfg.c **** 		(const void *)(BS_DSISWITCH_0_3_VAL),	/* TD 43 */
 472:Generated_Source\PSoC5/cyfitter_cfg.c **** 		(const void *)(BS_DSI0_3_HV_ROUTING_VAL),	/* TD 44 */
 473:Generated_Source\PSoC5/cyfitter_cfg.c **** 		(const void *)(BS_DSI0_4_HV_ROUTING_VAL),	/* TD 45 */
 474:Generated_Source\PSoC5/cyfitter_cfg.c **** 		(const void *)(BS_UDBSWITCH_0_0_VAL),	/* TD 46 */
 475:Generated_Source\PSoC5/cyfitter_cfg.c **** 		(const void *)(BS_UDB_1_0_HV_ROUTING_VAL),	/* TD 47 */
 476:Generated_Source\PSoC5/cyfitter_cfg.c **** 		(const void *)(BS_UDB_2_0_HV_ROUTING_VAL),	/* TD 48 */
ARM GAS  C:\Users\bryan.lee\AppData\Local\Temp\ccC85gGx.s 			page 19


 477:Generated_Source\PSoC5/cyfitter_cfg.c **** 		(const void *)(BS_UDBSWITCH_0_1_VAL),	/* TD 49 */
 478:Generated_Source\PSoC5/cyfitter_cfg.c **** 		(const void *)(BS_UDB_1_1_HV_ROUTING_VAL),	/* TD 50 */
 479:Generated_Source\PSoC5/cyfitter_cfg.c **** 		(const void *)(BS_UDB_2_1_HV_ROUTING_VAL),	/* TD 51 */
 480:Generated_Source\PSoC5/cyfitter_cfg.c **** 		(const void *)(BS_UDB_1_2_HV_ROUTING_VAL),	/* TD 52 */
 481:Generated_Source\PSoC5/cyfitter_cfg.c **** 		(const void *)(BS_UDB_2_2_HV_ROUTING_VAL),	/* TD 53 */
 482:Generated_Source\PSoC5/cyfitter_cfg.c **** 		(const void *)(BS_UDB_1_4_HV_ROUTING_VAL),	/* TD 54 */
 483:Generated_Source\PSoC5/cyfitter_cfg.c **** 		(const void *)(BS_UDB_2_4_HV_ROUTING_VAL),	/* TD 55 */
 484:Generated_Source\PSoC5/cyfitter_cfg.c **** 		(const void *)(BS_DSI3_0_HV_ROUTING_VAL),	/* TD 56 */
 485:Generated_Source\PSoC5/cyfitter_cfg.c **** 		(const void *)(BS_DSI3_1_HV_ROUTING_VAL),	/* TD 57 */
 486:Generated_Source\PSoC5/cyfitter_cfg.c **** 		(const void *)(BS_DSI3_2_HV_ROUTING_VAL),	/* TD 58 */
 487:Generated_Source\PSoC5/cyfitter_cfg.c **** 		(const void *)(BS_DSI3_3_HV_ROUTING_VAL),	/* TD 59 */
 488:Generated_Source\PSoC5/cyfitter_cfg.c **** 		(const void *)(BS_DSI3_4_HV_ROUTING_VAL),	/* TD 60 */
 489:Generated_Source\PSoC5/cyfitter_cfg.c **** 		(const void *)(BS_DSISWITCH_1_5_VAL),	/* TD 61 */
 490:Generated_Source\PSoC5/cyfitter_cfg.c **** 		(const void *)(BS_DSI3_5_HV_ROUTING_VAL),	/* TD 62 */
 491:Generated_Source\PSoC5/cyfitter_cfg.c **** 	};
 492:Generated_Source\PSoC5/cyfitter_cfg.c **** 
 493:Generated_Source\PSoC5/cyfitter_cfg.c **** 
 494:Generated_Source\PSoC5/cyfitter_cfg.c **** 	uint32 i;
 495:Generated_Source\PSoC5/cyfitter_cfg.c **** 
 496:Generated_Source\PSoC5/cyfitter_cfg.c **** 	DMA_ZERO_VAL = 0u;
 551              		.loc 1 496 0
 552 0006 434B     		ldr	r3, .L15
 553 0008 0022     		movs	r2, #0
 554 000a 1A60     		str	r2, [r3]
 497:Generated_Source\PSoC5/cyfitter_cfg.c **** 	CY_SET_REG8((void CYXDATA *)CYREG_PHUB_CFGMEM0_CFG0, 0x10u);	/* set burstcnt */
 555              		.loc 1 497 0
 556 000c 424B     		ldr	r3, .L15+4
 557 000e 1022     		movs	r2, #16
 558 0010 1A70     		strb	r2, [r3]
 498:Generated_Source\PSoC5/cyfitter_cfg.c **** 	CY_SET_REG8((void CYXDATA *)CYREG_PHUB_CH0_BASIC_CFG, 0x01u);	/* enable ch0 */
 559              		.loc 1 498 0
 560 0012 424B     		ldr	r3, .L15+8
 561 0014 0122     		movs	r2, #1
 562 0016 1A70     		strb	r2, [r3]
 499:Generated_Source\PSoC5/cyfitter_cfg.c **** 	CY_SET_REG8((void CYXDATA *)(CYREG_PHUB_CH0_BASIC_STATUS+1u), 0x00u);	/* set first TD to 0 */
 563              		.loc 1 499 0
 564 0018 414B     		ldr	r3, .L15+12
 565 001a 0022     		movs	r2, #0
 566 001c 1A70     		strb	r2, [r3]
 500:Generated_Source\PSoC5/cyfitter_cfg.c **** 	CY_SET_REG16((void CYXDATA *)CYREG_PHUB_TDMEM0_ORIG_TD0, 62u*8u);	/* transfer size */
 567              		.loc 1 500 0
 568 001e 414B     		ldr	r3, .L15+16
 569 0020 4FF4F872 		mov	r2, #496
 570 0024 1A80     		strh	r2, [r3]	@ movhi
 501:Generated_Source\PSoC5/cyfitter_cfg.c **** 	CY_SET_REG8((void CYXDATA *)(CYREG_PHUB_TDMEM0_ORIG_TD0+2u), 0x01u);	/* set next TD to 1 */
 571              		.loc 1 501 0
 572 0026 404B     		ldr	r3, .L15+20
 573 0028 0122     		movs	r2, #1
 574 002a 1A70     		strb	r2, [r3]
 502:Generated_Source\PSoC5/cyfitter_cfg.c **** 	CY_SET_REG8((void CYXDATA *)(CYREG_PHUB_TDMEM0_ORIG_TD0+3u), 0x03u);	/* set TD flags */
 575              		.loc 1 502 0
 576 002c 3F4B     		ldr	r3, .L15+24
 577 002e 0322     		movs	r2, #3
 578 0030 1A70     		strb	r2, [r3]
 503:Generated_Source\PSoC5/cyfitter_cfg.c **** 	CY_SET_REG16((void CYXDATA *)CYREG_PHUB_TDMEM0_ORIG_TD1, (uint16)((uint32)CFG_TD_LIST0 & 0x0000FFF
 579              		.loc 1 503 0
 580 0032 3F4B     		ldr	r3, .L15+28
ARM GAS  C:\Users\bryan.lee\AppData\Local\Temp\ccC85gGx.s 			page 20


 581 0034 3F4A     		ldr	r2, .L15+32
 582 0036 92B2     		uxth	r2, r2
 583 0038 1A80     		strh	r2, [r3]	@ movhi
 504:Generated_Source\PSoC5/cyfitter_cfg.c **** 	CY_SET_REG16((void CYXDATA *)(CYREG_PHUB_TDMEM0_ORIG_TD1+2u), CYDEV_PHUB_TDMEM1_BASE);	/* set td0'
 584              		.loc 1 504 0
 585 003a 3F4B     		ldr	r3, .L15+36
 586 003c 47F60802 		movw	r2, #30728
 587 0040 1A80     		strh	r2, [r3]	@ movhi
 505:Generated_Source\PSoC5/cyfitter_cfg.c **** 	CY_SET_REG16((void CYXDATA *)CYREG_PHUB_CFGMEM0_CFG1, (uint16)(CYDEV_FLASH_BASE >> 16));	/* set ch
 588              		.loc 1 505 0
 589 0042 3E4B     		ldr	r3, .L15+40
 590 0044 0022     		movs	r2, #0
 591 0046 1A80     		strh	r2, [r3]	@ movhi
 506:Generated_Source\PSoC5/cyfitter_cfg.c **** 	CY_SET_REG16((void CYXDATA *)(CYREG_PHUB_CFGMEM0_CFG1+2u), (uint16)(CYDEV_PHUB_TDMEM1_BASE >> 16))
 592              		.loc 1 506 0
 593 0048 3D4B     		ldr	r3, .L15+44
 594 004a 4FF48042 		mov	r2, #16384
 595 004e 1A80     		strh	r2, [r3]	@ movhi
 507:Generated_Source\PSoC5/cyfitter_cfg.c **** 	CY_SET_REG8((void CYXDATA *)(CYREG_PHUB_CH1_BASIC_STATUS+1u), 0x09u);	/* ch1 first TD: 9 */
 596              		.loc 1 507 0
 597 0050 3C4B     		ldr	r3, .L15+48
 598 0052 0922     		movs	r2, #9
 599 0054 1A70     		strb	r2, [r3]
 508:Generated_Source\PSoC5/cyfitter_cfg.c **** 	CY_SET_REG8((void CYXDATA *)(CYREG_PHUB_CH2_BASIC_STATUS+1u), 0x0Cu);	/* ch2 first TD: 12 */
 600              		.loc 1 508 0
 601 0056 3C4B     		ldr	r3, .L15+52
 602 0058 0C22     		movs	r2, #12
 603 005a 1A70     		strb	r2, [r3]
 509:Generated_Source\PSoC5/cyfitter_cfg.c **** 	CY_SET_REG8((void CYXDATA *)(CYREG_PHUB_CH5_BASIC_STATUS+1u), 0x1Au);	/* ch5 first TD: 26 */
 604              		.loc 1 509 0
 605 005c 3B4B     		ldr	r3, .L15+56
 606 005e 1A22     		movs	r2, #26
 607 0060 1A70     		strb	r2, [r3]
 510:Generated_Source\PSoC5/cyfitter_cfg.c **** 	CY_SET_REG8((void CYXDATA *)(CYREG_PHUB_CH6_BASIC_STATUS+1u), 0x1Fu);	/* ch6 first TD: 31 */
 608              		.loc 1 510 0
 609 0062 3B4B     		ldr	r3, .L15+60
 610 0064 1F22     		movs	r2, #31
 611 0066 1A70     		strb	r2, [r3]
 511:Generated_Source\PSoC5/cyfitter_cfg.c **** 
 512:Generated_Source\PSoC5/cyfitter_cfg.c **** 	CY_CFG_MEMORY_BARRIER();
 612              		.loc 1 512 0
 613 0068 BFF35F8F 		dmb	sy
 513:Generated_Source\PSoC5/cyfitter_cfg.c **** 	CY_SET_REG8((void CYXDATA *)CYREG_PHUB_CH0_ACTION, 0x01u); /* cpu_req */
 614              		.loc 1 513 0
 615 006c 394B     		ldr	r3, .L15+64
 616 006e 0122     		movs	r2, #1
 617 0070 1A70     		strb	r2, [r3]
 514:Generated_Source\PSoC5/cyfitter_cfg.c **** 	CY_CFG_MEMORY_BARRIER();
 618              		.loc 1 514 0
 619 0072 BFF35F8F 		dmb	sy
 515:Generated_Source\PSoC5/cyfitter_cfg.c **** 
 516:Generated_Source\PSoC5/cyfitter_cfg.c **** 	/* Wait for TDs to be copied into TDMEM */
 517:Generated_Source\PSoC5/cyfitter_cfg.c **** 	while (CY_GET_REG16((void CYXDATA *)CYREG_PHUB_TDMEM0_ORIG_TD0) != 0u) { }
 620              		.loc 1 517 0
 621 0076 00BF     		nop
 622              	.L7:
 623              		.loc 1 517 0 is_stmt 0 discriminator 1
ARM GAS  C:\Users\bryan.lee\AppData\Local\Temp\ccC85gGx.s 			page 21


 624 0078 2A4B     		ldr	r3, .L15+16
 625 007a 1B88     		ldrh	r3, [r3]	@ movhi
 626 007c 9BB2     		uxth	r3, r3
 627 007e 002B     		cmp	r3, #0
 628 0080 FAD1     		bne	.L7
 518:Generated_Source\PSoC5/cyfitter_cfg.c **** 
 519:Generated_Source\PSoC5/cyfitter_cfg.c **** 	/* Recombine TD source table (CFG_TD_ADDR0) with full TD table (CFG_TD_LIST0) */
 520:Generated_Source\PSoC5/cyfitter_cfg.c **** 	for (i = 0u; i < 62u; i++)
 629              		.loc 1 520 0 is_stmt 1
 630 0082 0023     		movs	r3, #0
 631 0084 7B60     		str	r3, [r7, #4]
 632 0086 0DE0     		b	.L8
 633              	.L9:
 521:Generated_Source\PSoC5/cyfitter_cfg.c **** 	{
 522:Generated_Source\PSoC5/cyfitter_cfg.c **** 		CY_SET_REG16((void CYXDATA *)(CYREG_PHUB_TDMEM1_ORIG_TD1 + (sizeof(struct td_t)*i)), (uint16)(uin
 634              		.loc 1 522 0 discriminator 3
 635 0088 7B68     		ldr	r3, [r7, #4]
 636 008a DA00     		lsls	r2, r3, #3
 637 008c 324B     		ldr	r3, .L15+68
 638 008e 1344     		add	r3, r3, r2
 639 0090 1946     		mov	r1, r3
 640 0092 324A     		ldr	r2, .L15+72
 641 0094 7B68     		ldr	r3, [r7, #4]
 642 0096 52F82330 		ldr	r3, [r2, r3, lsl #2]
 643 009a 9BB2     		uxth	r3, r3
 644 009c 0B80     		strh	r3, [r1]	@ movhi
 520:Generated_Source\PSoC5/cyfitter_cfg.c **** 	{
 645              		.loc 1 520 0 discriminator 3
 646 009e 7B68     		ldr	r3, [r7, #4]
 647 00a0 0133     		adds	r3, r3, #1
 648 00a2 7B60     		str	r3, [r7, #4]
 649              	.L8:
 520:Generated_Source\PSoC5/cyfitter_cfg.c **** 	{
 650              		.loc 1 520 0 is_stmt 0 discriminator 1
 651 00a4 7B68     		ldr	r3, [r7, #4]
 652 00a6 3D2B     		cmp	r3, #61
 653 00a8 EED9     		bls	.L9
 523:Generated_Source\PSoC5/cyfitter_cfg.c **** 	}
 524:Generated_Source\PSoC5/cyfitter_cfg.c **** 
 525:Generated_Source\PSoC5/cyfitter_cfg.c **** 	CY_CFG_MEMORY_BARRIER();
 654              		.loc 1 525 0 is_stmt 1
 655 00aa BFF35F8F 		dmb	sy
 526:Generated_Source\PSoC5/cyfitter_cfg.c **** 	CY_SET_REG8((void CYXDATA *)CYREG_PHUB_CH0_ACTION, 0x01u); /* cpu_req */
 656              		.loc 1 526 0
 657 00ae 294B     		ldr	r3, .L15+64
 658 00b0 0122     		movs	r2, #1
 659 00b2 1A70     		strb	r2, [r3]
 527:Generated_Source\PSoC5/cyfitter_cfg.c **** 	CY_CFG_MEMORY_BARRIER();
 660              		.loc 1 527 0
 661 00b4 BFF35F8F 		dmb	sy
 528:Generated_Source\PSoC5/cyfitter_cfg.c **** 
 529:Generated_Source\PSoC5/cyfitter_cfg.c **** 	/* Wait for all DMA transfers to complete */
 530:Generated_Source\PSoC5/cyfitter_cfg.c **** 	while(0u != (CY_GET_REG8((void CYXDATA *)CYREG_PHUB_CH0_BASIC_STATUS) & 0x01u)){}
 662              		.loc 1 530 0
 663 00b8 00BF     		nop
 664              	.L10:
 665              		.loc 1 530 0 is_stmt 0 discriminator 1
ARM GAS  C:\Users\bryan.lee\AppData\Local\Temp\ccC85gGx.s 			page 22


 666 00ba 294B     		ldr	r3, .L15+76
 667 00bc 1B78     		ldrb	r3, [r3]
 668 00be DBB2     		uxtb	r3, r3
 669 00c0 03F00103 		and	r3, r3, #1
 670 00c4 002B     		cmp	r3, #0
 671 00c6 F8D1     		bne	.L10
 531:Generated_Source\PSoC5/cyfitter_cfg.c **** 	while(0u != (CY_GET_REG8((void CYXDATA *)CYREG_PHUB_CH1_BASIC_STATUS) & 0x01u)){}
 672              		.loc 1 531 0 is_stmt 1
 673 00c8 00BF     		nop
 674              	.L11:
 675              		.loc 1 531 0 is_stmt 0 discriminator 1
 676 00ca 264B     		ldr	r3, .L15+80
 677 00cc 1B78     		ldrb	r3, [r3]
 678 00ce DBB2     		uxtb	r3, r3
 679 00d0 03F00103 		and	r3, r3, #1
 680 00d4 002B     		cmp	r3, #0
 681 00d6 F8D1     		bne	.L11
 532:Generated_Source\PSoC5/cyfitter_cfg.c **** 	while(0u != (CY_GET_REG8((void CYXDATA *)CYREG_PHUB_CH2_BASIC_STATUS) & 0x01u)){}
 682              		.loc 1 532 0 is_stmt 1
 683 00d8 00BF     		nop
 684              	.L12:
 685              		.loc 1 532 0 is_stmt 0 discriminator 1
 686 00da 234B     		ldr	r3, .L15+84
 687 00dc 1B78     		ldrb	r3, [r3]
 688 00de DBB2     		uxtb	r3, r3
 689 00e0 03F00103 		and	r3, r3, #1
 690 00e4 002B     		cmp	r3, #0
 691 00e6 F8D1     		bne	.L12
 533:Generated_Source\PSoC5/cyfitter_cfg.c **** 	while(0u != (CY_GET_REG8((void CYXDATA *)CYREG_PHUB_CH5_BASIC_STATUS) & 0x01u)){}
 692              		.loc 1 533 0 is_stmt 1
 693 00e8 00BF     		nop
 694              	.L13:
 695              		.loc 1 533 0 is_stmt 0 discriminator 1
 696 00ea 204B     		ldr	r3, .L15+88
 697 00ec 1B78     		ldrb	r3, [r3]
 698 00ee DBB2     		uxtb	r3, r3
 699 00f0 03F00103 		and	r3, r3, #1
 700 00f4 002B     		cmp	r3, #0
 701 00f6 F8D1     		bne	.L13
 534:Generated_Source\PSoC5/cyfitter_cfg.c **** 	while(0u != (CY_GET_REG8((void CYXDATA *)CYREG_PHUB_CH6_BASIC_STATUS) & 0x01u)){}
 702              		.loc 1 534 0 is_stmt 1
 703 00f8 00BF     		nop
 704              	.L14:
 705              		.loc 1 534 0 is_stmt 0 discriminator 1
 706 00fa 1D4B     		ldr	r3, .L15+92
 707 00fc 1B78     		ldrb	r3, [r3]
 708 00fe DBB2     		uxtb	r3, r3
 709 0100 03F00103 		and	r3, r3, #1
 710 0104 002B     		cmp	r3, #0
 711 0106 F8D1     		bne	.L14
 535:Generated_Source\PSoC5/cyfitter_cfg.c **** 
 536:Generated_Source\PSoC5/cyfitter_cfg.c **** 
 537:Generated_Source\PSoC5/cyfitter_cfg.c **** }
 712              		.loc 1 537 0 is_stmt 1
 713 0108 00BF     		nop
 714 010a 0C37     		adds	r7, r7, #12
 715              		.cfi_def_cfa_offset 4
ARM GAS  C:\Users\bryan.lee\AppData\Local\Temp\ccC85gGx.s 			page 23


 716 010c BD46     		mov	sp, r7
 717              		.cfi_def_cfa_register 13
 718              		@ sp needed
 719 010e 80BC     		pop	{r7}
 720              		.cfi_restore 7
 721              		.cfi_def_cfa_offset 0
 722 0110 7047     		bx	lr
 723              	.L16:
 724 0112 00BF     		.align	2
 725              	.L15:
 726 0114 00000000 		.word	DMA_ZERO_VAL.5005
 727 0118 00760040 		.word	1073772032
 728 011c 10700040 		.word	1073770512
 729 0120 19700040 		.word	1073770521
 730 0124 00780040 		.word	1073772544
 731 0128 02780040 		.word	1073772546
 732 012c 03780040 		.word	1073772547
 733 0130 04780040 		.word	1073772548
 734 0134 28000000 		.word	CFG_TD_LIST0.5006
 735 0138 06780040 		.word	1073772550
 736 013c 04760040 		.word	1073772036
 737 0140 06760040 		.word	1073772038
 738 0144 29700040 		.word	1073770537
 739 0148 39700040 		.word	1073770553
 740 014c 69700040 		.word	1073770601
 741 0150 79700040 		.word	1073770617
 742 0154 14700040 		.word	1073770516
 743 0158 0C780040 		.word	1073772556
 744 015c A0000000 		.word	CFG_TD_ADDR0.5007
 745 0160 18700040 		.word	1073770520
 746 0164 28700040 		.word	1073770536
 747 0168 38700040 		.word	1073770552
 748 016c 68700040 		.word	1073770600
 749 0170 78700040 		.word	1073770616
 750              		.cfi_endproc
 751              	.LFE4:
 752              		.size	cfg_dma_init, .-cfg_dma_init
 753              		.section	.text.ClockSetup,"ax",%progbits
 754              		.align	2
 755              		.thumb
 756              		.thumb_func
 757              		.type	ClockSetup, %function
 758              	ClockSetup:
 759              	.LFB5:
 538:Generated_Source\PSoC5/cyfitter_cfg.c **** /*******************************************************************************
 539:Generated_Source\PSoC5/cyfitter_cfg.c **** * Function Name: ClockSetup
 540:Generated_Source\PSoC5/cyfitter_cfg.c **** ********************************************************************************
 541:Generated_Source\PSoC5/cyfitter_cfg.c **** *
 542:Generated_Source\PSoC5/cyfitter_cfg.c **** * Summary:
 543:Generated_Source\PSoC5/cyfitter_cfg.c **** *  Performs the initialization of all of the clocks in the device based on the
 544:Generated_Source\PSoC5/cyfitter_cfg.c **** *  settings in the Clock tab of the DWR.  This includes enabling the requested
 545:Generated_Source\PSoC5/cyfitter_cfg.c **** *  clocks and setting the necessary dividers to produce the desired frequency. 
 546:Generated_Source\PSoC5/cyfitter_cfg.c **** *
 547:Generated_Source\PSoC5/cyfitter_cfg.c **** * Parameters:
 548:Generated_Source\PSoC5/cyfitter_cfg.c **** *  void
 549:Generated_Source\PSoC5/cyfitter_cfg.c **** *
 550:Generated_Source\PSoC5/cyfitter_cfg.c **** * Return:
ARM GAS  C:\Users\bryan.lee\AppData\Local\Temp\ccC85gGx.s 			page 24


 551:Generated_Source\PSoC5/cyfitter_cfg.c **** *  void
 552:Generated_Source\PSoC5/cyfitter_cfg.c **** *
 553:Generated_Source\PSoC5/cyfitter_cfg.c **** *******************************************************************************/
 554:Generated_Source\PSoC5/cyfitter_cfg.c **** static void ClockSetup(void);
 555:Generated_Source\PSoC5/cyfitter_cfg.c **** static void ClockSetup(void)
 556:Generated_Source\PSoC5/cyfitter_cfg.c **** {
 760              		.loc 1 556 0
 761              		.cfi_startproc
 762              		@ args = 0, pretend = 0, frame = 8
 763              		@ frame_needed = 1, uses_anonymous_args = 0
 764 0000 80B5     		push	{r7, lr}
 765              		.cfi_def_cfa_offset 8
 766              		.cfi_offset 7, -8
 767              		.cfi_offset 14, -4
 768 0002 82B0     		sub	sp, sp, #8
 769              		.cfi_def_cfa_offset 16
 770 0004 00AF     		add	r7, sp, #0
 771              		.cfi_def_cfa_register 7
 557:Generated_Source\PSoC5/cyfitter_cfg.c **** 	uint32 timeout;
 558:Generated_Source\PSoC5/cyfitter_cfg.c **** 	uint8 pllLock;
 559:Generated_Source\PSoC5/cyfitter_cfg.c **** 
 560:Generated_Source\PSoC5/cyfitter_cfg.c **** 
 561:Generated_Source\PSoC5/cyfitter_cfg.c **** 	/* Configure Digital Clocks based on settings from Clock DWR */
 562:Generated_Source\PSoC5/cyfitter_cfg.c **** 	CY_SET_XTND_REG16((void CYFAR *)(CYREG_CLKDIST_DCFG0_CFG0), 0x0020u);
 772              		.loc 1 562 0
 773 0006 4D4B     		ldr	r3, .L26
 774 0008 2022     		movs	r2, #32
 775 000a 1A80     		strh	r2, [r3]	@ movhi
 563:Generated_Source\PSoC5/cyfitter_cfg.c **** 	CY_SET_XTND_REG8((void CYFAR *)(CYREG_CLKDIST_DCFG0_CFG0 + 0x2u), 0x18u);
 776              		.loc 1 563 0
 777 000c 4C4B     		ldr	r3, .L26+4
 778 000e 1822     		movs	r2, #24
 779 0010 1A70     		strb	r2, [r3]
 564:Generated_Source\PSoC5/cyfitter_cfg.c **** 
 565:Generated_Source\PSoC5/cyfitter_cfg.c **** 	/* Configure Analog Clocks based on settings from Clock DWR */
 566:Generated_Source\PSoC5/cyfitter_cfg.c **** 	CYCONFIGCPY((void CYFAR *)(CYREG_CLKDIST_ACFG0_CFG0), (const void CYFAR *)(BS_CYDEV_CLKDIST_ACFG0_
 780              		.loc 1 566 0
 781 0012 0822     		movs	r2, #8
 782 0014 4B49     		ldr	r1, .L26+8
 783 0016 4C48     		ldr	r0, .L26+12
 784 0018 FFF7FEFF 		bl	CYCONFIGCPY
 567:Generated_Source\PSoC5/cyfitter_cfg.c **** 
 568:Generated_Source\PSoC5/cyfitter_cfg.c **** 	/* Configure ILO based on settings from Clock DWR */
 569:Generated_Source\PSoC5/cyfitter_cfg.c **** 	CY_SET_XTND_REG8((void CYFAR *)(CYREG_SLOWCLK_ILO_CR0), 0x06u);
 785              		.loc 1 569 0
 786 001c 4B4B     		ldr	r3, .L26+16
 787 001e 0622     		movs	r2, #6
 788 0020 1A70     		strb	r2, [r3]
 570:Generated_Source\PSoC5/cyfitter_cfg.c **** 
 571:Generated_Source\PSoC5/cyfitter_cfg.c **** 	/* Configure XTAL based on settings from Clock DWR */
 572:Generated_Source\PSoC5/cyfitter_cfg.c **** 	CY_SET_XTND_REG16((void CYFAR *)(CYREG_FASTCLK_XMHZ_CFG0), 0x3313u);
 789              		.loc 1 572 0
 790 0022 4B4B     		ldr	r3, .L26+20
 791 0024 43F21332 		movw	r2, #13075
 792 0028 1A80     		strh	r2, [r3]	@ movhi
 573:Generated_Source\PSoC5/cyfitter_cfg.c **** 	CY_SET_XTND_REG8((void CYFAR *)(CYREG_FASTCLK_XMHZ_CSR), 0x05u);
 793              		.loc 1 573 0
ARM GAS  C:\Users\bryan.lee\AppData\Local\Temp\ccC85gGx.s 			page 25


 794 002a 4A4B     		ldr	r3, .L26+24
 795 002c 0522     		movs	r2, #5
 796 002e 1A70     		strb	r2, [r3]
 574:Generated_Source\PSoC5/cyfitter_cfg.c **** 	/* Wait up to 130000us for the XTAL to lock */
 575:Generated_Source\PSoC5/cyfitter_cfg.c **** 	CY_GET_XTND_REG8((void CYFAR *)CYREG_FASTCLK_XMHZ_CSR);
 797              		.loc 1 575 0
 798 0030 484B     		ldr	r3, .L26+24
 799 0032 1B78     		ldrb	r3, [r3]
 576:Generated_Source\PSoC5/cyfitter_cfg.c **** 	for (timeout = 130000u / 10u; (timeout > 0u) && ((CY_GET_XTND_REG8((void CYFAR *)CYREG_FASTCLK_XMH
 800              		.loc 1 576 0
 801 0034 43F2C823 		movw	r3, #13000
 802 0038 7B60     		str	r3, [r7, #4]
 803 003a 06E0     		b	.L18
 804              	.L20:
 577:Generated_Source\PSoC5/cyfitter_cfg.c **** 	{ 
 578:Generated_Source\PSoC5/cyfitter_cfg.c **** 		
 579:Generated_Source\PSoC5/cyfitter_cfg.c **** 		CyDelayCycles(10u * 48u); /* Delay 10us based on 48MHz clock */
 805              		.loc 1 579 0 discriminator 4
 806 003c 4FF4F070 		mov	r0, #480
 807 0040 FFF7FEFF 		bl	CyDelayCycles
 576:Generated_Source\PSoC5/cyfitter_cfg.c **** 	for (timeout = 130000u / 10u; (timeout > 0u) && ((CY_GET_XTND_REG8((void CYFAR *)CYREG_FASTCLK_XMH
 808              		.loc 1 576 0 discriminator 4
 809 0044 7B68     		ldr	r3, [r7, #4]
 810 0046 013B     		subs	r3, r3, #1
 811 0048 7B60     		str	r3, [r7, #4]
 812              	.L18:
 576:Generated_Source\PSoC5/cyfitter_cfg.c **** 	for (timeout = 130000u / 10u; (timeout > 0u) && ((CY_GET_XTND_REG8((void CYFAR *)CYREG_FASTCLK_XMH
 813              		.loc 1 576 0 is_stmt 0 discriminator 1
 814 004a 7B68     		ldr	r3, [r7, #4]
 815 004c 002B     		cmp	r3, #0
 816 004e 05D0     		beq	.L19
 576:Generated_Source\PSoC5/cyfitter_cfg.c **** 	for (timeout = 130000u / 10u; (timeout > 0u) && ((CY_GET_XTND_REG8((void CYFAR *)CYREG_FASTCLK_XMH
 817              		.loc 1 576 0 discriminator 3
 818 0050 404B     		ldr	r3, .L26+24
 819 0052 1B78     		ldrb	r3, [r3]
 820 0054 DBB2     		uxtb	r3, r3
 821 0056 5BB2     		sxtb	r3, r3
 822 0058 002B     		cmp	r3, #0
 823 005a EFDB     		blt	.L20
 824              	.L19:
 580:Generated_Source\PSoC5/cyfitter_cfg.c **** 	}
 581:Generated_Source\PSoC5/cyfitter_cfg.c **** 	if (timeout == 0u)
 825              		.loc 1 581 0 is_stmt 1
 826 005c 7B68     		ldr	r3, [r7, #4]
 827 005e 002B     		cmp	r3, #0
 828 0060 02D1     		bne	.L21
 582:Generated_Source\PSoC5/cyfitter_cfg.c **** 	{
 583:Generated_Source\PSoC5/cyfitter_cfg.c **** 		CyClockStartupError(CYCLOCKSTART_XTAL_ERROR);
 829              		.loc 1 583 0
 830 0062 0120     		movs	r0, #1
 831 0064 FFF7FEFF 		bl	CyClockStartupError
 832              	.L21:
 584:Generated_Source\PSoC5/cyfitter_cfg.c **** 	}
 585:Generated_Source\PSoC5/cyfitter_cfg.c **** 	CY_SET_XTND_REG8((void CYFAR *)(CYREG_CLKDIST_CR), 0x40u);
 833              		.loc 1 585 0
 834 0068 4FF04023 		mov	r3, #1073758208
 835 006c 4022     		movs	r2, #64
ARM GAS  C:\Users\bryan.lee\AppData\Local\Temp\ccC85gGx.s 			page 26


 836 006e 1A70     		strb	r2, [r3]
 586:Generated_Source\PSoC5/cyfitter_cfg.c **** 
 587:Generated_Source\PSoC5/cyfitter_cfg.c **** 	/* Configure IMO based on settings from Clock DWR */
 588:Generated_Source\PSoC5/cyfitter_cfg.c **** 	CY_SET_XTND_REG8((void CYFAR *)(CYREG_FASTCLK_IMO_CR), 0x70u);
 837              		.loc 1 588 0
 838 0070 394B     		ldr	r3, .L26+28
 839 0072 7022     		movs	r2, #112
 840 0074 1A70     		strb	r2, [r3]
 589:Generated_Source\PSoC5/cyfitter_cfg.c **** 
 590:Generated_Source\PSoC5/cyfitter_cfg.c **** 	/* Configure PLL based on settings from Clock DWR */
 591:Generated_Source\PSoC5/cyfitter_cfg.c **** 	CY_SET_XTND_REG16((void CYFAR *)(CYREG_FASTCLK_PLL_P), 0x070Bu);
 841              		.loc 1 591 0
 842 0076 394B     		ldr	r3, .L26+32
 843 0078 40F20B72 		movw	r2, #1803
 844 007c 1A80     		strh	r2, [r3]	@ movhi
 592:Generated_Source\PSoC5/cyfitter_cfg.c **** 	CY_SET_XTND_REG16((void CYFAR *)(CYREG_FASTCLK_PLL_CFG0), 0x1251u);
 845              		.loc 1 592 0
 846 007e 384B     		ldr	r3, .L26+36
 847 0080 41F25122 		movw	r2, #4689
 848 0084 1A80     		strh	r2, [r3]	@ movhi
 593:Generated_Source\PSoC5/cyfitter_cfg.c **** 	/* Wait up to 250us for the PLL to lock */
 594:Generated_Source\PSoC5/cyfitter_cfg.c **** 	pllLock = 0u;
 849              		.loc 1 594 0
 850 0086 0023     		movs	r3, #0
 851 0088 FB70     		strb	r3, [r7, #3]
 595:Generated_Source\PSoC5/cyfitter_cfg.c **** 	for (timeout = 250u / 10u; (timeout > 0u) && (pllLock != 0x03u); timeout--)
 852              		.loc 1 595 0
 853 008a 1923     		movs	r3, #25
 854 008c 7B60     		str	r3, [r7, #4]
 855 008e 14E0     		b	.L22
 856              	.L24:
 596:Generated_Source\PSoC5/cyfitter_cfg.c **** 	{ 
 597:Generated_Source\PSoC5/cyfitter_cfg.c **** 		pllLock = 0x03u & ((uint8)((uint8)pllLock << 1) | ((CY_GET_XTND_REG8((void CYFAR *)CYREG_FASTCLK_
 857              		.loc 1 597 0 discriminator 4
 858 0090 FB78     		ldrb	r3, [r7, #3]
 859 0092 5B00     		lsls	r3, r3, #1
 860 0094 DAB2     		uxtb	r2, r3
 861 0096 334B     		ldr	r3, .L26+40
 862 0098 1B78     		ldrb	r3, [r3]
 863 009a DBB2     		uxtb	r3, r3
 864 009c 03F00103 		and	r3, r3, #1
 865 00a0 DBB2     		uxtb	r3, r3
 866 00a2 1343     		orrs	r3, r3, r2
 867 00a4 DBB2     		uxtb	r3, r3
 868 00a6 03F00303 		and	r3, r3, #3
 869 00aa FB70     		strb	r3, [r7, #3]
 598:Generated_Source\PSoC5/cyfitter_cfg.c **** 		CyDelayCycles(10u * 48u); /* Delay 10us based on 48MHz clock */
 870              		.loc 1 598 0 discriminator 4
 871 00ac 4FF4F070 		mov	r0, #480
 872 00b0 FFF7FEFF 		bl	CyDelayCycles
 595:Generated_Source\PSoC5/cyfitter_cfg.c **** 	for (timeout = 250u / 10u; (timeout > 0u) && (pllLock != 0x03u); timeout--)
 873              		.loc 1 595 0 discriminator 4
 874 00b4 7B68     		ldr	r3, [r7, #4]
 875 00b6 013B     		subs	r3, r3, #1
 876 00b8 7B60     		str	r3, [r7, #4]
 877              	.L22:
 595:Generated_Source\PSoC5/cyfitter_cfg.c **** 	for (timeout = 250u / 10u; (timeout > 0u) && (pllLock != 0x03u); timeout--)
ARM GAS  C:\Users\bryan.lee\AppData\Local\Temp\ccC85gGx.s 			page 27


 878              		.loc 1 595 0 is_stmt 0 discriminator 1
 879 00ba 7B68     		ldr	r3, [r7, #4]
 880 00bc 002B     		cmp	r3, #0
 881 00be 02D0     		beq	.L23
 595:Generated_Source\PSoC5/cyfitter_cfg.c **** 	for (timeout = 250u / 10u; (timeout > 0u) && (pllLock != 0x03u); timeout--)
 882              		.loc 1 595 0 discriminator 3
 883 00c0 FB78     		ldrb	r3, [r7, #3]	@ zero_extendqisi2
 884 00c2 032B     		cmp	r3, #3
 885 00c4 E4D1     		bne	.L24
 886              	.L23:
 599:Generated_Source\PSoC5/cyfitter_cfg.c **** 	}
 600:Generated_Source\PSoC5/cyfitter_cfg.c **** 	/* If we ran out of time the PLL didn't lock so go to the error function */
 601:Generated_Source\PSoC5/cyfitter_cfg.c **** 	if (timeout == 0u)
 887              		.loc 1 601 0 is_stmt 1
 888 00c6 7B68     		ldr	r3, [r7, #4]
 889 00c8 002B     		cmp	r3, #0
 890 00ca 02D1     		bne	.L25
 602:Generated_Source\PSoC5/cyfitter_cfg.c **** 	{
 603:Generated_Source\PSoC5/cyfitter_cfg.c **** 		CyClockStartupError(CYCLOCKSTART_PLL_ERROR);
 891              		.loc 1 603 0
 892 00cc 0320     		movs	r0, #3
 893 00ce FFF7FEFF 		bl	CyClockStartupError
 894              	.L25:
 604:Generated_Source\PSoC5/cyfitter_cfg.c **** 	}
 605:Generated_Source\PSoC5/cyfitter_cfg.c **** 
 606:Generated_Source\PSoC5/cyfitter_cfg.c **** 	/* Configure Bus/Master Clock based on settings from Clock DWR */
 607:Generated_Source\PSoC5/cyfitter_cfg.c **** 	CY_SET_XTND_REG16((void CYFAR *)(CYREG_CLKDIST_MSTR0), 0x0100u);
 895              		.loc 1 607 0
 896 00d2 254B     		ldr	r3, .L26+44
 897 00d4 4FF48072 		mov	r2, #256
 898 00d8 1A80     		strh	r2, [r3]	@ movhi
 608:Generated_Source\PSoC5/cyfitter_cfg.c **** 	CY_SET_XTND_REG8((void CYFAR *)(CYREG_CLKDIST_MSTR0), 0x07u);
 899              		.loc 1 608 0
 900 00da 234B     		ldr	r3, .L26+44
 901 00dc 0722     		movs	r2, #7
 902 00de 1A70     		strb	r2, [r3]
 609:Generated_Source\PSoC5/cyfitter_cfg.c **** 	CY_SET_XTND_REG8((void CYFAR *)(CYREG_CLKDIST_BCFG0), 0x00u);
 903              		.loc 1 609 0
 904 00e0 224B     		ldr	r3, .L26+48
 905 00e2 0022     		movs	r2, #0
 906 00e4 1A70     		strb	r2, [r3]
 610:Generated_Source\PSoC5/cyfitter_cfg.c **** 	CY_SET_XTND_REG8((void CYFAR *)(CYREG_CLKDIST_BCFG2), 0x48u);
 907              		.loc 1 610 0
 908 00e6 224B     		ldr	r3, .L26+52
 909 00e8 4822     		movs	r2, #72
 910 00ea 1A70     		strb	r2, [r3]
 611:Generated_Source\PSoC5/cyfitter_cfg.c **** 	CY_SET_XTND_REG8((void CYFAR *)(CYREG_CLKDIST_MSTR0), 0x00u);
 911              		.loc 1 611 0
 912 00ec 1E4B     		ldr	r3, .L26+44
 913 00ee 0022     		movs	r2, #0
 914 00f0 1A70     		strb	r2, [r3]
 612:Generated_Source\PSoC5/cyfitter_cfg.c **** 
 613:Generated_Source\PSoC5/cyfitter_cfg.c **** 	/* Configure USB Clock based on settings from Clock DWR */
 614:Generated_Source\PSoC5/cyfitter_cfg.c **** 	CY_SET_XTND_REG8((void CYFAR *)(CYREG_CLKDIST_UCFG), 0x00u);
 915              		.loc 1 614 0
 916 00f2 204B     		ldr	r3, .L26+56
 917 00f4 0022     		movs	r2, #0
ARM GAS  C:\Users\bryan.lee\AppData\Local\Temp\ccC85gGx.s 			page 28


 918 00f6 1A70     		strb	r2, [r3]
 615:Generated_Source\PSoC5/cyfitter_cfg.c **** 	CY_SET_XTND_REG8((void CYFAR *)(CYREG_CLKDIST_LD), 0x02u);
 919              		.loc 1 615 0
 920 00f8 1F4B     		ldr	r3, .L26+60
 921 00fa 0222     		movs	r2, #2
 922 00fc 1A70     		strb	r2, [r3]
 616:Generated_Source\PSoC5/cyfitter_cfg.c **** 	CY_SET_XTND_REG8((void CYFAR *)(CYREG_CLKDIST_DLY1), 0x04u);
 923              		.loc 1 616 0
 924 00fe 1F4B     		ldr	r3, .L26+64
 925 0100 0422     		movs	r2, #4
 926 0102 1A70     		strb	r2, [r3]
 617:Generated_Source\PSoC5/cyfitter_cfg.c **** 
 618:Generated_Source\PSoC5/cyfitter_cfg.c **** 	CY_SET_XTND_REG8((void CYFAR *)(CYREG_PM_ACT_CFG2), ((CY_GET_XTND_REG8((void CYFAR *)CYREG_PM_ACT_
 927              		.loc 1 618 0
 928 0104 1E4A     		ldr	r2, .L26+68
 929 0106 1E4B     		ldr	r3, .L26+68
 930 0108 1B78     		ldrb	r3, [r3]
 931 010a DBB2     		uxtb	r3, r3
 932 010c 43F00103 		orr	r3, r3, #1
 933 0110 DBB2     		uxtb	r3, r3
 934 0112 1370     		strb	r3, [r2]
 619:Generated_Source\PSoC5/cyfitter_cfg.c **** 	CY_SET_XTND_REG8((void CYFAR *)(CYREG_PM_ACT_CFG1), ((CY_GET_XTND_REG8((void CYFAR *)CYREG_PM_ACT_
 935              		.loc 1 619 0
 936 0114 1B4A     		ldr	r2, .L26+72
 937 0116 1B4B     		ldr	r3, .L26+72
 938 0118 1B78     		ldrb	r3, [r3]
 939 011a DBB2     		uxtb	r3, r3
 940 011c 43F00303 		orr	r3, r3, #3
 941 0120 DBB2     		uxtb	r3, r3
 942 0122 1370     		strb	r3, [r2]
 620:Generated_Source\PSoC5/cyfitter_cfg.c **** 	CY_SET_XTND_REG8((void CYFAR *)(CYREG_PM_ACT_CFG0), ((CY_GET_XTND_REG8((void CYFAR *)CYREG_PM_ACT_
 943              		.loc 1 620 0
 944 0124 184A     		ldr	r2, .L26+76
 945 0126 184B     		ldr	r3, .L26+76
 946 0128 1B78     		ldrb	r3, [r3]
 947 012a DBB2     		uxtb	r3, r3
 948 012c 63F07F03 		orn	r3, r3, #127
 949 0130 DBB2     		uxtb	r3, r3
 950 0132 1370     		strb	r3, [r2]
 621:Generated_Source\PSoC5/cyfitter_cfg.c **** }
 951              		.loc 1 621 0
 952 0134 00BF     		nop
 953 0136 0837     		adds	r7, r7, #8
 954              		.cfi_def_cfa_offset 8
 955 0138 BD46     		mov	sp, r7
 956              		.cfi_def_cfa_register 13
 957              		@ sp needed
 958 013a 80BD     		pop	{r7, pc}
 959              	.L27:
 960              		.align	2
 961              	.L26:
 962 013c 80400040 		.word	1073758336
 963 0140 82400040 		.word	1073758338
 964 0144 8C0F0048 		.word	1207963532
 965 0148 00410040 		.word	1073758464
 966 014c 00430040 		.word	1073758976
 967 0150 12420040 		.word	1073758738
ARM GAS  C:\Users\bryan.lee\AppData\Local\Temp\ccC85gGx.s 			page 29


 968 0154 10420040 		.word	1073758736
 969 0158 00420040 		.word	1073758720
 970 015c 22420040 		.word	1073758754
 971 0160 20420040 		.word	1073758752
 972 0164 25420040 		.word	1073758757
 973 0168 04400040 		.word	1073758212
 974 016c 06400040 		.word	1073758214
 975 0170 08400040 		.word	1073758216
 976 0174 09400040 		.word	1073758217
 977 0178 01400040 		.word	1073758209
 978 017c 0B400040 		.word	1073758219
 979 0180 A2430040 		.word	1073759138
 980 0184 A1430040 		.word	1073759137
 981 0188 A0430040 		.word	1073759136
 982              		.cfi_endproc
 983              	.LFE5:
 984              		.size	ClockSetup, .-ClockSetup
 985              		.section	.text.AnalogSetDefault,"ax",%progbits
 986              		.align	2
 987              		.thumb
 988              		.thumb_func
 989              		.type	AnalogSetDefault, %function
 990              	AnalogSetDefault:
 991              	.LFB6:
 622:Generated_Source\PSoC5/cyfitter_cfg.c **** 
 623:Generated_Source\PSoC5/cyfitter_cfg.c **** 
 624:Generated_Source\PSoC5/cyfitter_cfg.c **** /* Analog API Functions */
 625:Generated_Source\PSoC5/cyfitter_cfg.c **** 
 626:Generated_Source\PSoC5/cyfitter_cfg.c **** 
 627:Generated_Source\PSoC5/cyfitter_cfg.c **** /*******************************************************************************
 628:Generated_Source\PSoC5/cyfitter_cfg.c **** * Function Name: AnalogSetDefault
 629:Generated_Source\PSoC5/cyfitter_cfg.c **** ********************************************************************************
 630:Generated_Source\PSoC5/cyfitter_cfg.c **** *
 631:Generated_Source\PSoC5/cyfitter_cfg.c **** * Summary:
 632:Generated_Source\PSoC5/cyfitter_cfg.c **** *  Sets up the analog portions of the chip to default values based on chip
 633:Generated_Source\PSoC5/cyfitter_cfg.c **** *  configuration options from the project.
 634:Generated_Source\PSoC5/cyfitter_cfg.c **** *
 635:Generated_Source\PSoC5/cyfitter_cfg.c **** * Parameters:
 636:Generated_Source\PSoC5/cyfitter_cfg.c **** *  void
 637:Generated_Source\PSoC5/cyfitter_cfg.c **** *
 638:Generated_Source\PSoC5/cyfitter_cfg.c **** * Return:
 639:Generated_Source\PSoC5/cyfitter_cfg.c **** *  void
 640:Generated_Source\PSoC5/cyfitter_cfg.c **** *
 641:Generated_Source\PSoC5/cyfitter_cfg.c **** *******************************************************************************/
 642:Generated_Source\PSoC5/cyfitter_cfg.c **** static void AnalogSetDefault(void);
 643:Generated_Source\PSoC5/cyfitter_cfg.c **** static void AnalogSetDefault(void)
 644:Generated_Source\PSoC5/cyfitter_cfg.c **** {
 992              		.loc 1 644 0
 993              		.cfi_startproc
 994              		@ args = 0, pretend = 0, frame = 8
 995              		@ frame_needed = 1, uses_anonymous_args = 0
 996 0000 80B5     		push	{r7, lr}
 997              		.cfi_def_cfa_offset 8
 998              		.cfi_offset 7, -8
 999              		.cfi_offset 14, -4
 1000 0002 82B0     		sub	sp, sp, #8
 1001              		.cfi_def_cfa_offset 16
ARM GAS  C:\Users\bryan.lee\AppData\Local\Temp\ccC85gGx.s 			page 30


 1002 0004 00AF     		add	r7, sp, #0
 1003              		.cfi_def_cfa_register 7
 645:Generated_Source\PSoC5/cyfitter_cfg.c **** 	uint8 bg_xover_inl_trim = CY_GET_XTND_REG8((void CYFAR *)(CYREG_FLSHID_MFG_CFG_BG_XOVER_INL_TRIM +
 1004              		.loc 1 645 0
 1005 0006 2B4B     		ldr	r3, .L29
 1006 0008 1B78     		ldrb	r3, [r3]
 1007 000a FB71     		strb	r3, [r7, #7]
 646:Generated_Source\PSoC5/cyfitter_cfg.c **** 	uint8 cr4 = CY_GET_XTND_REG8((void CYFAR *)(CYREG_RESET_CR4));
 1008              		.loc 1 646 0
 1009 000c 2A4B     		ldr	r3, .L29+4
 1010 000e 1B78     		ldrb	r3, [r3]
 1011 0010 BB71     		strb	r3, [r7, #6]
 647:Generated_Source\PSoC5/cyfitter_cfg.c **** 	uint8 cr5 = CY_GET_XTND_REG8((void CYFAR *)(CYREG_RESET_CR5));
 1012              		.loc 1 647 0
 1013 0012 2A4B     		ldr	r3, .L29+8
 1014 0014 1B78     		ldrb	r3, [r3]
 1015 0016 7B71     		strb	r3, [r7, #5]
 648:Generated_Source\PSoC5/cyfitter_cfg.c **** 	CY_SET_XTND_REG8((void CYFAR *)(CYREG_BG_DFT0), (bg_xover_inl_trim & 0x07u));
 1016              		.loc 1 648 0
 1017 0018 294A     		ldr	r2, .L29+12
 1018 001a FB79     		ldrb	r3, [r7, #7]
 1019 001c 03F00703 		and	r3, r3, #7
 1020 0020 DBB2     		uxtb	r3, r3
 1021 0022 1370     		strb	r3, [r2]
 649:Generated_Source\PSoC5/cyfitter_cfg.c **** 	CY_SET_XTND_REG8((void CYFAR *)(CYREG_BG_DFT1), ((bg_xover_inl_trim >> 4) & 0x0Fu));
 1022              		.loc 1 649 0
 1023 0024 274A     		ldr	r2, .L29+16
 1024 0026 FB79     		ldrb	r3, [r7, #7]	@ zero_extendqisi2
 1025 0028 1B09     		lsrs	r3, r3, #4
 1026 002a DBB2     		uxtb	r3, r3
 1027 002c 1370     		strb	r3, [r2]
 650:Generated_Source\PSoC5/cyfitter_cfg.c **** 	/* Disable PRES while setting up SAR voltage reference */
 651:Generated_Source\PSoC5/cyfitter_cfg.c **** 	CY_SET_XTND_REG8((void CYFAR *)(CYREG_RESET_CR4), (cr4 | 0x03u));
 1028              		.loc 1 651 0
 1029 002e 224A     		ldr	r2, .L29+4
 1030 0030 BB79     		ldrb	r3, [r7, #6]
 1031 0032 43F00303 		orr	r3, r3, #3
 1032 0036 DBB2     		uxtb	r3, r3
 1033 0038 1370     		strb	r3, [r2]
 652:Generated_Source\PSoC5/cyfitter_cfg.c **** 	CY_SET_XTND_REG8((void CYFAR *)(CYREG_RESET_CR5), (cr5 | 0x03u));
 1034              		.loc 1 652 0
 1035 003a 204A     		ldr	r2, .L29+8
 1036 003c 7B79     		ldrb	r3, [r7, #5]
 1037 003e 43F00303 		orr	r3, r3, #3
 1038 0042 DBB2     		uxtb	r3, r3
 1039 0044 1370     		strb	r3, [r2]
 653:Generated_Source\PSoC5/cyfitter_cfg.c **** 	CY_SET_XTND_REG8((void CYFAR *)CYREG_PRT1_AG, 0x40u);
 1040              		.loc 1 653 0
 1041 0046 204B     		ldr	r3, .L29+20
 1042 0048 4022     		movs	r2, #64
 1043 004a 1A70     		strb	r2, [r3]
 654:Generated_Source\PSoC5/cyfitter_cfg.c **** 	CY_SET_XTND_REG8((void CYFAR *)CYREG_SAR0_CSR1, 0x40u);
 1044              		.loc 1 654 0
 1045 004c 1F4B     		ldr	r3, .L29+24
 1046 004e 4022     		movs	r2, #64
 1047 0050 1A70     		strb	r2, [r3]
 655:Generated_Source\PSoC5/cyfitter_cfg.c **** 	CY_SET_XTND_REG8((void CYFAR *)CYREG_SAR0_CSR3, 0x00u);
ARM GAS  C:\Users\bryan.lee\AppData\Local\Temp\ccC85gGx.s 			page 31


 1048              		.loc 1 655 0
 1049 0052 1F4B     		ldr	r3, .L29+28
 1050 0054 0022     		movs	r2, #0
 1051 0056 1A70     		strb	r2, [r3]
 656:Generated_Source\PSoC5/cyfitter_cfg.c **** 	CY_SET_XTND_REG8((void CYFAR *)CYREG_SAR1_CSR1, 0x40u);
 1052              		.loc 1 656 0
 1053 0058 1E4B     		ldr	r3, .L29+32
 1054 005a 4022     		movs	r2, #64
 1055 005c 1A70     		strb	r2, [r3]
 657:Generated_Source\PSoC5/cyfitter_cfg.c **** 	CY_SET_XTND_REG8((void CYFAR *)CYREG_SAR1_CSR3, 0x00u);
 1056              		.loc 1 657 0
 1057 005e 1E4B     		ldr	r3, .L29+36
 1058 0060 0022     		movs	r2, #0
 1059 0062 1A70     		strb	r2, [r3]
 658:Generated_Source\PSoC5/cyfitter_cfg.c **** 	CY_SET_XTND_REG8((void CYFAR *)CYREG_DAC1_SW4, 0x02u);
 1060              		.loc 1 658 0
 1061 0064 1D4B     		ldr	r3, .L29+40
 1062 0066 0222     		movs	r2, #2
 1063 0068 1A70     		strb	r2, [r3]
 659:Generated_Source\PSoC5/cyfitter_cfg.c **** 	CY_SET_XTND_REG8((void CYFAR *)CYREG_DAC3_SW4, 0x10u);
 1064              		.loc 1 659 0
 1065 006a 1D4B     		ldr	r3, .L29+44
 1066 006c 1022     		movs	r2, #16
 1067 006e 1A70     		strb	r2, [r3]
 660:Generated_Source\PSoC5/cyfitter_cfg.c **** 	CY_SET_XTND_REG8((void CYFAR *)CYREG_CMP1_SW0, 0x14u);
 1068              		.loc 1 660 0
 1069 0070 1C4B     		ldr	r3, .L29+48
 1070 0072 1422     		movs	r2, #20
 1071 0074 1A70     		strb	r2, [r3]
 661:Generated_Source\PSoC5/cyfitter_cfg.c **** 	CY_SET_XTND_REG8((void CYFAR *)CYREG_DSM0_SW0, 0x0Cu);
 1072              		.loc 1 661 0
 1073 0076 1C4B     		ldr	r3, .L29+52
 1074 0078 0C22     		movs	r2, #12
 1075 007a 1A70     		strb	r2, [r3]
 662:Generated_Source\PSoC5/cyfitter_cfg.c **** 	CY_SET_XTND_REG8((void CYFAR *)CYREG_SAR1_SW0, 0x80u);
 1076              		.loc 1 662 0
 1077 007c 1B4B     		ldr	r3, .L29+56
 1078 007e 8022     		movs	r2, #128
 1079 0080 1A70     		strb	r2, [r3]
 663:Generated_Source\PSoC5/cyfitter_cfg.c **** 	CY_SET_XTND_REG8((void CYFAR *)CYREG_OPAMP1_MX, 0x27u);
 1080              		.loc 1 663 0
 1081 0082 1B4B     		ldr	r3, .L29+60
 1082 0084 2722     		movs	r2, #39
 1083 0086 1A70     		strb	r2, [r3]
 664:Generated_Source\PSoC5/cyfitter_cfg.c **** 	CY_SET_XTND_REG8((void CYFAR *)CYREG_BUS_SW0, 0x48u);
 1084              		.loc 1 664 0
 1085 0088 1A4B     		ldr	r3, .L29+64
 1086 008a 4822     		movs	r2, #72
 1087 008c 1A70     		strb	r2, [r3]
 665:Generated_Source\PSoC5/cyfitter_cfg.c **** 	CY_SET_XTND_REG8((void CYFAR *)CYREG_BUS_SW2, 0x04u);
 1088              		.loc 1 665 0
 1089 008e 1A4B     		ldr	r3, .L29+68
 1090 0090 0422     		movs	r2, #4
 1091 0092 1A70     		strb	r2, [r3]
 666:Generated_Source\PSoC5/cyfitter_cfg.c **** 	CyDelayUs(10u); /* Allow vref to settle before re-enabling PRES */
 1092              		.loc 1 666 0
 1093 0094 0A20     		movs	r0, #10
ARM GAS  C:\Users\bryan.lee\AppData\Local\Temp\ccC85gGx.s 			page 32


 1094 0096 FFF7FEFF 		bl	CyDelayUs
 667:Generated_Source\PSoC5/cyfitter_cfg.c **** 	CY_SET_XTND_REG8((void CYFAR *)(CYREG_RESET_CR5), (cr5));
 1095              		.loc 1 667 0
 1096 009a 084A     		ldr	r2, .L29+8
 1097 009c 7B79     		ldrb	r3, [r7, #5]
 1098 009e 1370     		strb	r3, [r2]
 668:Generated_Source\PSoC5/cyfitter_cfg.c **** 	CY_SET_XTND_REG8((void CYFAR *)(CYREG_RESET_CR4), (cr4));
 1099              		.loc 1 668 0
 1100 00a0 054A     		ldr	r2, .L29+4
 1101 00a2 BB79     		ldrb	r3, [r7, #6]
 1102 00a4 1370     		strb	r3, [r2]
 669:Generated_Source\PSoC5/cyfitter_cfg.c **** 	CY_SET_XTND_REG8((void CYFAR *)CYREG_PUMP_CR0, 0x44u);
 1103              		.loc 1 669 0
 1104 00a6 154B     		ldr	r3, .L29+72
 1105 00a8 4422     		movs	r2, #68
 1106 00aa 1A70     		strb	r2, [r3]
 670:Generated_Source\PSoC5/cyfitter_cfg.c **** }
 1107              		.loc 1 670 0
 1108 00ac 00BF     		nop
 1109 00ae 0837     		adds	r7, r7, #8
 1110              		.cfi_def_cfa_offset 8
 1111 00b0 BD46     		mov	sp, r7
 1112              		.cfi_def_cfa_register 13
 1113              		@ sp needed
 1114 00b2 80BD     		pop	{r7, pc}
 1115              	.L30:
 1116              		.align	2
 1117              	.L29:
 1118 00b4 CF010049 		.word	1224737231
 1119 00b8 F8460040 		.word	1073759992
 1120 00bc F9460040 		.word	1073759993
 1121 00c0 6E580040 		.word	1073764462
 1122 00c4 6F580040 		.word	1073764463
 1123 00c8 1D510040 		.word	1073762589
 1124 00cc 01590040 		.word	1073764609
 1125 00d0 03590040 		.word	1073764611
 1126 00d4 09590040 		.word	1073764617
 1127 00d8 0B590040 		.word	1073764619
 1128 00dc 8C5A0040 		.word	1073765004
 1129 00e0 9C5A0040 		.word	1073765020
 1130 00e4 C85A0040 		.word	1073765064
 1131 00e8 005B0040 		.word	1073765120
 1132 00ec 285B0040 		.word	1073765160
 1133 00f0 425B0040 		.word	1073765186
 1134 00f4 585B0040 		.word	1073765208
 1135 00f8 5A5B0040 		.word	1073765210
 1136 00fc 76580040 		.word	1073764470
 1137              		.cfi_endproc
 1138              	.LFE6:
 1139              		.size	AnalogSetDefault, .-AnalogSetDefault
 1140              		.section	.text.SetAnalogRoutingPumps,"ax",%progbits
 1141              		.align	2
 1142              		.global	SetAnalogRoutingPumps
 1143              		.thumb
 1144              		.thumb_func
 1145              		.type	SetAnalogRoutingPumps, %function
 1146              	SetAnalogRoutingPumps:
ARM GAS  C:\Users\bryan.lee\AppData\Local\Temp\ccC85gGx.s 			page 33


 1147              	.LFB7:
 671:Generated_Source\PSoC5/cyfitter_cfg.c **** 
 672:Generated_Source\PSoC5/cyfitter_cfg.c **** 
 673:Generated_Source\PSoC5/cyfitter_cfg.c **** /*******************************************************************************
 674:Generated_Source\PSoC5/cyfitter_cfg.c **** * Function Name: SetAnalogRoutingPumps
 675:Generated_Source\PSoC5/cyfitter_cfg.c **** ********************************************************************************
 676:Generated_Source\PSoC5/cyfitter_cfg.c **** *
 677:Generated_Source\PSoC5/cyfitter_cfg.c **** * Summary:
 678:Generated_Source\PSoC5/cyfitter_cfg.c **** * Enables or disables the analog pumps feeding analog routing switches.
 679:Generated_Source\PSoC5/cyfitter_cfg.c **** * Intended to be called at startup, based on the Vdda system configuration;
 680:Generated_Source\PSoC5/cyfitter_cfg.c **** * may be called during operation when the user informs us that the Vdda voltage
 681:Generated_Source\PSoC5/cyfitter_cfg.c **** * crossed the pump threshold.
 682:Generated_Source\PSoC5/cyfitter_cfg.c **** *
 683:Generated_Source\PSoC5/cyfitter_cfg.c **** * Parameters:
 684:Generated_Source\PSoC5/cyfitter_cfg.c **** *  enabled - 1 to enable the pumps, 0 to disable the pumps
 685:Generated_Source\PSoC5/cyfitter_cfg.c **** *
 686:Generated_Source\PSoC5/cyfitter_cfg.c **** * Return:
 687:Generated_Source\PSoC5/cyfitter_cfg.c **** *  void
 688:Generated_Source\PSoC5/cyfitter_cfg.c **** *
 689:Generated_Source\PSoC5/cyfitter_cfg.c **** *******************************************************************************/
 690:Generated_Source\PSoC5/cyfitter_cfg.c **** void SetAnalogRoutingPumps(uint8 enabled)
 691:Generated_Source\PSoC5/cyfitter_cfg.c **** {
 1148              		.loc 1 691 0
 1149              		.cfi_startproc
 1150              		@ args = 0, pretend = 0, frame = 16
 1151              		@ frame_needed = 1, uses_anonymous_args = 0
 1152              		@ link register save eliminated.
 1153 0000 80B4     		push	{r7}
 1154              		.cfi_def_cfa_offset 4
 1155              		.cfi_offset 7, -4
 1156 0002 85B0     		sub	sp, sp, #20
 1157              		.cfi_def_cfa_offset 24
 1158 0004 00AF     		add	r7, sp, #0
 1159              		.cfi_def_cfa_register 7
 1160 0006 0346     		mov	r3, r0
 1161 0008 FB71     		strb	r3, [r7, #7]
 692:Generated_Source\PSoC5/cyfitter_cfg.c **** 	uint8 regValue = CY_GET_XTND_REG8((void CYFAR *)CYREG_PUMP_CR0);
 1162              		.loc 1 692 0
 1163 000a 0B4B     		ldr	r3, .L34
 1164 000c 1B78     		ldrb	r3, [r3]
 1165 000e FB73     		strb	r3, [r7, #15]
 693:Generated_Source\PSoC5/cyfitter_cfg.c **** 	if (enabled != 0u)
 1166              		.loc 1 693 0
 1167 0010 FB79     		ldrb	r3, [r7, #7]	@ zero_extendqisi2
 1168 0012 002B     		cmp	r3, #0
 1169 0014 04D0     		beq	.L32
 694:Generated_Source\PSoC5/cyfitter_cfg.c **** 	{
 695:Generated_Source\PSoC5/cyfitter_cfg.c **** 		regValue |= 0x22u;
 1170              		.loc 1 695 0
 1171 0016 FB7B     		ldrb	r3, [r7, #15]
 1172 0018 43F02203 		orr	r3, r3, #34
 1173 001c FB73     		strb	r3, [r7, #15]
 1174 001e 03E0     		b	.L33
 1175              	.L32:
 696:Generated_Source\PSoC5/cyfitter_cfg.c **** 	}
 697:Generated_Source\PSoC5/cyfitter_cfg.c **** 	else
 698:Generated_Source\PSoC5/cyfitter_cfg.c **** 	{
ARM GAS  C:\Users\bryan.lee\AppData\Local\Temp\ccC85gGx.s 			page 34


 699:Generated_Source\PSoC5/cyfitter_cfg.c **** 		regValue &= (uint8)~0x22u;
 1176              		.loc 1 699 0
 1177 0020 FB7B     		ldrb	r3, [r7, #15]
 1178 0022 23F02203 		bic	r3, r3, #34
 1179 0026 FB73     		strb	r3, [r7, #15]
 1180              	.L33:
 700:Generated_Source\PSoC5/cyfitter_cfg.c **** 	}
 701:Generated_Source\PSoC5/cyfitter_cfg.c **** 	CY_SET_XTND_REG8((void CYFAR *)CYREG_PUMP_CR0, regValue);
 1181              		.loc 1 701 0
 1182 0028 034A     		ldr	r2, .L34
 1183 002a FB7B     		ldrb	r3, [r7, #15]
 1184 002c 1370     		strb	r3, [r2]
 702:Generated_Source\PSoC5/cyfitter_cfg.c **** }
 1185              		.loc 1 702 0
 1186 002e 00BF     		nop
 1187 0030 1437     		adds	r7, r7, #20
 1188              		.cfi_def_cfa_offset 4
 1189 0032 BD46     		mov	sp, r7
 1190              		.cfi_def_cfa_register 13
 1191              		@ sp needed
 1192 0034 80BC     		pop	{r7}
 1193              		.cfi_restore 7
 1194              		.cfi_def_cfa_offset 0
 1195 0036 7047     		bx	lr
 1196              	.L35:
 1197              		.align	2
 1198              	.L34:
 1199 0038 76580040 		.word	1073764470
 1200              		.cfi_endproc
 1201              	.LFE7:
 1202              		.size	SetAnalogRoutingPumps, .-SetAnalogRoutingPumps
 1203              		.global	AMux_0_CYAMUXSIDE_A__addrTable
 1204              		.section	.rodata
 1205              		.align	2
 1206              		.type	AMux_0_CYAMUXSIDE_A__addrTable, %object
 1207              		.size	AMux_0_CYAMUXSIDE_A__addrTable, 32
 1208              	AMux_0_CYAMUXSIDE_A__addrTable:
 1209 0000 8B5A0040 		.word	1073765003
 1210 0004 285B0040 		.word	1073765160
 1211 0008 3D510040 		.word	1073762621
 1212 000c 285B0040 		.word	1073765160
 1213 0010 475B0040 		.word	1073765191
 1214 0014 465B0040 		.word	1073765190
 1215 0018 3D510040 		.word	1073762621
 1216 001c 24430040 		.word	1073759012
 1217              		.global	AMux_0_CYAMUXSIDE_A__maskTable
 1218              		.align	2
 1219              		.type	AMux_0_CYAMUXSIDE_A__maskTable, %object
 1220              		.size	AMux_0_CYAMUXSIDE_A__maskTable, 8
 1221              	AMux_0_CYAMUXSIDE_A__maskTable:
 1222 0020 80       		.byte	-128
 1223 0021 02       		.byte	2
 1224 0022 02       		.byte	2
 1225 0023 20       		.byte	32
 1226 0024 02       		.byte	2
 1227 0025 20       		.byte	32
 1228 0026 08       		.byte	8
ARM GAS  C:\Users\bryan.lee\AppData\Local\Temp\ccC85gGx.s 			page 35


 1229 0027 00       		.byte	0
 1230              		.section	.text.AMux_0_CYAMUXSIDE_A_Set,"ax",%progbits
 1231              		.align	2
 1232              		.global	AMux_0_CYAMUXSIDE_A_Set
 1233              		.thumb
 1234              		.thumb_func
 1235              		.type	AMux_0_CYAMUXSIDE_A_Set, %function
 1236              	AMux_0_CYAMUXSIDE_A_Set:
 1237              	.LFB8:
 703:Generated_Source\PSoC5/cyfitter_cfg.c **** 
 704:Generated_Source\PSoC5/cyfitter_cfg.c **** 
 705:Generated_Source\PSoC5/cyfitter_cfg.c **** #define CY_AMUX_UNUSED CYREG_BOOST_SR
 706:Generated_Source\PSoC5/cyfitter_cfg.c **** /* This is an implementation detail of the AMux. Code that depends on it may be
 707:Generated_Source\PSoC5/cyfitter_cfg.c ****    incompatible with other versions of PSoC Creator. */
 708:Generated_Source\PSoC5/cyfitter_cfg.c **** uint8 CYXDATA * const CYCODE AMux_0_CYAMUXSIDE_A__addrTable[8] = {
 709:Generated_Source\PSoC5/cyfitter_cfg.c **** 	(uint8 CYXDATA *)CYREG_DAC1_SW3, (uint8 CYXDATA *)CYREG_SAR1_SW0, 
 710:Generated_Source\PSoC5/cyfitter_cfg.c **** 	(uint8 CYXDATA *)CYREG_PRT3_AG, (uint8 CYXDATA *)CYREG_SAR1_SW0, 
 711:Generated_Source\PSoC5/cyfitter_cfg.c **** 	(uint8 CYXDATA *)CYREG_OPAMP3_SW, (uint8 CYXDATA *)CYREG_OPAMP3_MX, 
 712:Generated_Source\PSoC5/cyfitter_cfg.c **** 	(uint8 CYXDATA *)CYREG_PRT3_AG, (uint8 CYXDATA *)CY_AMUX_UNUSED, 
 713:Generated_Source\PSoC5/cyfitter_cfg.c **** };
 714:Generated_Source\PSoC5/cyfitter_cfg.c **** 
 715:Generated_Source\PSoC5/cyfitter_cfg.c **** /* This is an implementation detail of the AMux. Code that depends on it may be
 716:Generated_Source\PSoC5/cyfitter_cfg.c ****    incompatible with other versions of PSoC Creator. */
 717:Generated_Source\PSoC5/cyfitter_cfg.c **** const uint8 CYCODE AMux_0_CYAMUXSIDE_A__maskTable[8] = {
 718:Generated_Source\PSoC5/cyfitter_cfg.c **** 	0x80u, 0x02u, 
 719:Generated_Source\PSoC5/cyfitter_cfg.c **** 	0x02u, 0x20u, 
 720:Generated_Source\PSoC5/cyfitter_cfg.c **** 	0x02u, 0x20u, 
 721:Generated_Source\PSoC5/cyfitter_cfg.c **** 	0x08u, 0x00u, 
 722:Generated_Source\PSoC5/cyfitter_cfg.c **** };
 723:Generated_Source\PSoC5/cyfitter_cfg.c **** 
 724:Generated_Source\PSoC5/cyfitter_cfg.c **** /*******************************************************************************
 725:Generated_Source\PSoC5/cyfitter_cfg.c **** * Function Name: AMux_0_CYAMUXSIDE_A_Set
 726:Generated_Source\PSoC5/cyfitter_cfg.c **** ********************************************************************************
 727:Generated_Source\PSoC5/cyfitter_cfg.c **** * Summary:
 728:Generated_Source\PSoC5/cyfitter_cfg.c **** *  This function is used to set a particular channel as active on the AMux.
 729:Generated_Source\PSoC5/cyfitter_cfg.c **** *
 730:Generated_Source\PSoC5/cyfitter_cfg.c **** * Parameters:  
 731:Generated_Source\PSoC5/cyfitter_cfg.c **** *   channel - The mux channel input to set as active
 732:Generated_Source\PSoC5/cyfitter_cfg.c **** *
 733:Generated_Source\PSoC5/cyfitter_cfg.c **** * Return:
 734:Generated_Source\PSoC5/cyfitter_cfg.c **** *   void
 735:Generated_Source\PSoC5/cyfitter_cfg.c **** *
 736:Generated_Source\PSoC5/cyfitter_cfg.c **** *******************************************************************************/
 737:Generated_Source\PSoC5/cyfitter_cfg.c **** void AMux_0_CYAMUXSIDE_A_Set(uint8 channel)
 738:Generated_Source\PSoC5/cyfitter_cfg.c **** {
 1238              		.loc 1 738 0
 1239              		.cfi_startproc
 1240              		@ args = 0, pretend = 0, frame = 8
 1241              		@ frame_needed = 1, uses_anonymous_args = 0
 1242              		@ link register save eliminated.
 1243 0000 80B4     		push	{r7}
 1244              		.cfi_def_cfa_offset 4
 1245              		.cfi_offset 7, -4
 1246 0002 83B0     		sub	sp, sp, #12
 1247              		.cfi_def_cfa_offset 16
 1248 0004 00AF     		add	r7, sp, #0
 1249              		.cfi_def_cfa_register 7
ARM GAS  C:\Users\bryan.lee\AppData\Local\Temp\ccC85gGx.s 			page 36


 1250 0006 0346     		mov	r3, r0
 1251 0008 FB71     		strb	r3, [r7, #7]
 739:Generated_Source\PSoC5/cyfitter_cfg.c **** 	if (channel < 4)
 1252              		.loc 1 739 0
 1253 000a FB79     		ldrb	r3, [r7, #7]	@ zero_extendqisi2
 1254 000c 032B     		cmp	r3, #3
 1255 000e 24D8     		bhi	.L38
 740:Generated_Source\PSoC5/cyfitter_cfg.c **** 	{
 741:Generated_Source\PSoC5/cyfitter_cfg.c **** 		channel += channel;
 1256              		.loc 1 741 0
 1257 0010 FA79     		ldrb	r2, [r7, #7]
 1258 0012 FB79     		ldrb	r3, [r7, #7]
 1259 0014 1344     		add	r3, r3, r2
 1260 0016 FB71     		strb	r3, [r7, #7]
 742:Generated_Source\PSoC5/cyfitter_cfg.c **** 		*AMux_0_CYAMUXSIDE_A__addrTable[channel] |= AMux_0_CYAMUXSIDE_A__maskTable[channel];
 1261              		.loc 1 742 0
 1262 0018 FB79     		ldrb	r3, [r7, #7]	@ zero_extendqisi2
 1263 001a 124A     		ldr	r2, .L39
 1264 001c 52F82330 		ldr	r3, [r2, r3, lsl #2]
 1265 0020 FA79     		ldrb	r2, [r7, #7]	@ zero_extendqisi2
 1266 0022 1049     		ldr	r1, .L39
 1267 0024 51F82220 		ldr	r2, [r1, r2, lsl #2]
 1268 0028 1178     		ldrb	r1, [r2]	@ zero_extendqisi2
 1269 002a FA79     		ldrb	r2, [r7, #7]	@ zero_extendqisi2
 1270 002c 0E48     		ldr	r0, .L39+4
 1271 002e 825C     		ldrb	r2, [r0, r2]	@ zero_extendqisi2
 1272 0030 0A43     		orrs	r2, r2, r1
 1273 0032 D2B2     		uxtb	r2, r2
 1274 0034 1A70     		strb	r2, [r3]
 743:Generated_Source\PSoC5/cyfitter_cfg.c **** 		channel++;
 1275              		.loc 1 743 0
 1276 0036 FB79     		ldrb	r3, [r7, #7]	@ zero_extendqisi2
 1277 0038 0133     		adds	r3, r3, #1
 1278 003a FB71     		strb	r3, [r7, #7]
 744:Generated_Source\PSoC5/cyfitter_cfg.c **** 		*AMux_0_CYAMUXSIDE_A__addrTable[channel] |= AMux_0_CYAMUXSIDE_A__maskTable[channel];
 1279              		.loc 1 744 0
 1280 003c FB79     		ldrb	r3, [r7, #7]	@ zero_extendqisi2
 1281 003e 094A     		ldr	r2, .L39
 1282 0040 52F82330 		ldr	r3, [r2, r3, lsl #2]
 1283 0044 FA79     		ldrb	r2, [r7, #7]	@ zero_extendqisi2
 1284 0046 0749     		ldr	r1, .L39
 1285 0048 51F82220 		ldr	r2, [r1, r2, lsl #2]
 1286 004c 1178     		ldrb	r1, [r2]	@ zero_extendqisi2
 1287 004e FA79     		ldrb	r2, [r7, #7]	@ zero_extendqisi2
 1288 0050 0548     		ldr	r0, .L39+4
 1289 0052 825C     		ldrb	r2, [r0, r2]	@ zero_extendqisi2
 1290 0054 0A43     		orrs	r2, r2, r1
 1291 0056 D2B2     		uxtb	r2, r2
 1292 0058 1A70     		strb	r2, [r3]
 1293              	.L38:
 745:Generated_Source\PSoC5/cyfitter_cfg.c **** 	}
 746:Generated_Source\PSoC5/cyfitter_cfg.c **** }
 1294              		.loc 1 746 0
 1295 005a 00BF     		nop
 1296 005c 0C37     		adds	r7, r7, #12
 1297              		.cfi_def_cfa_offset 4
 1298 005e BD46     		mov	sp, r7
ARM GAS  C:\Users\bryan.lee\AppData\Local\Temp\ccC85gGx.s 			page 37


 1299              		.cfi_def_cfa_register 13
 1300              		@ sp needed
 1301 0060 80BC     		pop	{r7}
 1302              		.cfi_restore 7
 1303              		.cfi_def_cfa_offset 0
 1304 0062 7047     		bx	lr
 1305              	.L40:
 1306              		.align	2
 1307              	.L39:
 1308 0064 00000000 		.word	AMux_0_CYAMUXSIDE_A__addrTable
 1309 0068 00000000 		.word	AMux_0_CYAMUXSIDE_A__maskTable
 1310              		.cfi_endproc
 1311              	.LFE8:
 1312              		.size	AMux_0_CYAMUXSIDE_A_Set, .-AMux_0_CYAMUXSIDE_A_Set
 1313              		.section	.text.AMux_0_CYAMUXSIDE_A_Unset,"ax",%progbits
 1314              		.align	2
 1315              		.global	AMux_0_CYAMUXSIDE_A_Unset
 1316              		.thumb
 1317              		.thumb_func
 1318              		.type	AMux_0_CYAMUXSIDE_A_Unset, %function
 1319              	AMux_0_CYAMUXSIDE_A_Unset:
 1320              	.LFB9:
 747:Generated_Source\PSoC5/cyfitter_cfg.c **** 
 748:Generated_Source\PSoC5/cyfitter_cfg.c **** /*******************************************************************************
 749:Generated_Source\PSoC5/cyfitter_cfg.c **** * Function Name: AMux_0_CYAMUXSIDE_A_Unset
 750:Generated_Source\PSoC5/cyfitter_cfg.c **** ********************************************************************************
 751:Generated_Source\PSoC5/cyfitter_cfg.c **** * Summary:
 752:Generated_Source\PSoC5/cyfitter_cfg.c **** *  This function is used to clear a particular channel from being active on the
 753:Generated_Source\PSoC5/cyfitter_cfg.c **** *  AMux.
 754:Generated_Source\PSoC5/cyfitter_cfg.c **** *
 755:Generated_Source\PSoC5/cyfitter_cfg.c **** * Parameters:  
 756:Generated_Source\PSoC5/cyfitter_cfg.c **** *   channel - The mux channel input to mark inactive
 757:Generated_Source\PSoC5/cyfitter_cfg.c **** *
 758:Generated_Source\PSoC5/cyfitter_cfg.c **** * Return:
 759:Generated_Source\PSoC5/cyfitter_cfg.c **** *   void
 760:Generated_Source\PSoC5/cyfitter_cfg.c **** *
 761:Generated_Source\PSoC5/cyfitter_cfg.c **** *******************************************************************************/
 762:Generated_Source\PSoC5/cyfitter_cfg.c **** void AMux_0_CYAMUXSIDE_A_Unset(uint8 channel)
 763:Generated_Source\PSoC5/cyfitter_cfg.c **** {
 1321              		.loc 1 763 0
 1322              		.cfi_startproc
 1323              		@ args = 0, pretend = 0, frame = 8
 1324              		@ frame_needed = 1, uses_anonymous_args = 0
 1325              		@ link register save eliminated.
 1326 0000 80B4     		push	{r7}
 1327              		.cfi_def_cfa_offset 4
 1328              		.cfi_offset 7, -4
 1329 0002 83B0     		sub	sp, sp, #12
 1330              		.cfi_def_cfa_offset 16
 1331 0004 00AF     		add	r7, sp, #0
 1332              		.cfi_def_cfa_register 7
 1333 0006 0346     		mov	r3, r0
 1334 0008 FB71     		strb	r3, [r7, #7]
 764:Generated_Source\PSoC5/cyfitter_cfg.c **** 	if (channel < 4)
 1335              		.loc 1 764 0
 1336 000a FB79     		ldrb	r3, [r7, #7]	@ zero_extendqisi2
 1337 000c 032B     		cmp	r3, #3
ARM GAS  C:\Users\bryan.lee\AppData\Local\Temp\ccC85gGx.s 			page 38


 1338 000e 28D8     		bhi	.L43
 765:Generated_Source\PSoC5/cyfitter_cfg.c **** 	{
 766:Generated_Source\PSoC5/cyfitter_cfg.c **** 		channel += channel;
 1339              		.loc 1 766 0
 1340 0010 FA79     		ldrb	r2, [r7, #7]
 1341 0012 FB79     		ldrb	r3, [r7, #7]
 1342 0014 1344     		add	r3, r3, r2
 1343 0016 FB71     		strb	r3, [r7, #7]
 767:Generated_Source\PSoC5/cyfitter_cfg.c **** 		*AMux_0_CYAMUXSIDE_A__addrTable[channel] &= (uint8)~AMux_0_CYAMUXSIDE_A__maskTable[channel];
 1344              		.loc 1 767 0
 1345 0018 FB79     		ldrb	r3, [r7, #7]	@ zero_extendqisi2
 1346 001a 144A     		ldr	r2, .L44
 1347 001c 52F82330 		ldr	r3, [r2, r3, lsl #2]
 1348 0020 FA79     		ldrb	r2, [r7, #7]	@ zero_extendqisi2
 1349 0022 1249     		ldr	r1, .L44
 1350 0024 51F82220 		ldr	r2, [r1, r2, lsl #2]
 1351 0028 1178     		ldrb	r1, [r2]	@ zero_extendqisi2
 1352 002a FA79     		ldrb	r2, [r7, #7]	@ zero_extendqisi2
 1353 002c 1048     		ldr	r0, .L44+4
 1354 002e 825C     		ldrb	r2, [r0, r2]	@ zero_extendqisi2
 1355 0030 D243     		mvns	r2, r2
 1356 0032 D2B2     		uxtb	r2, r2
 1357 0034 0A40     		ands	r2, r2, r1
 1358 0036 D2B2     		uxtb	r2, r2
 1359 0038 1A70     		strb	r2, [r3]
 768:Generated_Source\PSoC5/cyfitter_cfg.c **** 		channel++;
 1360              		.loc 1 768 0
 1361 003a FB79     		ldrb	r3, [r7, #7]	@ zero_extendqisi2
 1362 003c 0133     		adds	r3, r3, #1
 1363 003e FB71     		strb	r3, [r7, #7]
 769:Generated_Source\PSoC5/cyfitter_cfg.c **** 		*AMux_0_CYAMUXSIDE_A__addrTable[channel] &= (uint8)~AMux_0_CYAMUXSIDE_A__maskTable[channel];
 1364              		.loc 1 769 0
 1365 0040 FB79     		ldrb	r3, [r7, #7]	@ zero_extendqisi2
 1366 0042 0A4A     		ldr	r2, .L44
 1367 0044 52F82330 		ldr	r3, [r2, r3, lsl #2]
 1368 0048 FA79     		ldrb	r2, [r7, #7]	@ zero_extendqisi2
 1369 004a 0849     		ldr	r1, .L44
 1370 004c 51F82220 		ldr	r2, [r1, r2, lsl #2]
 1371 0050 1178     		ldrb	r1, [r2]	@ zero_extendqisi2
 1372 0052 FA79     		ldrb	r2, [r7, #7]	@ zero_extendqisi2
 1373 0054 0648     		ldr	r0, .L44+4
 1374 0056 825C     		ldrb	r2, [r0, r2]	@ zero_extendqisi2
 1375 0058 D243     		mvns	r2, r2
 1376 005a D2B2     		uxtb	r2, r2
 1377 005c 0A40     		ands	r2, r2, r1
 1378 005e D2B2     		uxtb	r2, r2
 1379 0060 1A70     		strb	r2, [r3]
 1380              	.L43:
 770:Generated_Source\PSoC5/cyfitter_cfg.c **** 	}
 771:Generated_Source\PSoC5/cyfitter_cfg.c **** }
 1381              		.loc 1 771 0
 1382 0062 00BF     		nop
 1383 0064 0C37     		adds	r7, r7, #12
 1384              		.cfi_def_cfa_offset 4
 1385 0066 BD46     		mov	sp, r7
 1386              		.cfi_def_cfa_register 13
 1387              		@ sp needed
ARM GAS  C:\Users\bryan.lee\AppData\Local\Temp\ccC85gGx.s 			page 39


 1388 0068 80BC     		pop	{r7}
 1389              		.cfi_restore 7
 1390              		.cfi_def_cfa_offset 0
 1391 006a 7047     		bx	lr
 1392              	.L45:
 1393              		.align	2
 1394              	.L44:
 1395 006c 00000000 		.word	AMux_0_CYAMUXSIDE_A__addrTable
 1396 0070 00000000 		.word	AMux_0_CYAMUXSIDE_A__maskTable
 1397              		.cfi_endproc
 1398              	.LFE9:
 1399              		.size	AMux_0_CYAMUXSIDE_A_Unset, .-AMux_0_CYAMUXSIDE_A_Unset
 1400              		.global	AMux_0_CYAMUXSIDE_B__addrTable
 1401              		.section	.rodata
 1402              		.align	2
 1403              		.type	AMux_0_CYAMUXSIDE_B__addrTable, %object
 1404              		.size	AMux_0_CYAMUXSIDE_B__addrTable, 32
 1405              	AMux_0_CYAMUXSIDE_B__addrTable:
 1406 0028 1C510040 		.word	1073762588
 1407 002c 2B5B0040 		.word	1073765163
 1408 0030 1C510040 		.word	1073762588
 1409 0034 2B5B0040 		.word	1073765163
 1410 0038 1C510040 		.word	1073762588
 1411 003c 2B5B0040 		.word	1073765163
 1412 0040 1C510040 		.word	1073762588
 1413 0044 2B5B0040 		.word	1073765163
 1414              		.global	AMux_0_CYAMUXSIDE_B__maskTable
 1415              		.align	2
 1416              		.type	AMux_0_CYAMUXSIDE_B__maskTable, %object
 1417              		.size	AMux_0_CYAMUXSIDE_B__maskTable, 8
 1418              	AMux_0_CYAMUXSIDE_B__maskTable:
 1419 0048 80       		.byte	-128
 1420 0049 10       		.byte	16
 1421 004a 80       		.byte	-128
 1422 004b 10       		.byte	16
 1423 004c 80       		.byte	-128
 1424 004d 10       		.byte	16
 1425 004e 80       		.byte	-128
 1426 004f 10       		.byte	16
 1427              		.section	.text.AMux_0_CYAMUXSIDE_B_Set,"ax",%progbits
 1428              		.align	2
 1429              		.global	AMux_0_CYAMUXSIDE_B_Set
 1430              		.thumb
 1431              		.thumb_func
 1432              		.type	AMux_0_CYAMUXSIDE_B_Set, %function
 1433              	AMux_0_CYAMUXSIDE_B_Set:
 1434              	.LFB10:
 772:Generated_Source\PSoC5/cyfitter_cfg.c **** 
 773:Generated_Source\PSoC5/cyfitter_cfg.c **** /* This is an implementation detail of the AMux. Code that depends on it may be
 774:Generated_Source\PSoC5/cyfitter_cfg.c ****    incompatible with other versions of PSoC Creator. */
 775:Generated_Source\PSoC5/cyfitter_cfg.c **** uint8 CYXDATA * const CYCODE AMux_0_CYAMUXSIDE_B__addrTable[8] = {
 776:Generated_Source\PSoC5/cyfitter_cfg.c **** 	(uint8 CYXDATA *)CYREG_PRT1_AMUX, (uint8 CYXDATA *)CYREG_SAR1_SW3, 
 777:Generated_Source\PSoC5/cyfitter_cfg.c **** 	(uint8 CYXDATA *)CYREG_PRT1_AMUX, (uint8 CYXDATA *)CYREG_SAR1_SW3, 
 778:Generated_Source\PSoC5/cyfitter_cfg.c **** 	(uint8 CYXDATA *)CYREG_PRT1_AMUX, (uint8 CYXDATA *)CYREG_SAR1_SW3, 
 779:Generated_Source\PSoC5/cyfitter_cfg.c **** 	(uint8 CYXDATA *)CYREG_PRT1_AMUX, (uint8 CYXDATA *)CYREG_SAR1_SW3, 
 780:Generated_Source\PSoC5/cyfitter_cfg.c **** };
 781:Generated_Source\PSoC5/cyfitter_cfg.c **** 
ARM GAS  C:\Users\bryan.lee\AppData\Local\Temp\ccC85gGx.s 			page 40


 782:Generated_Source\PSoC5/cyfitter_cfg.c **** /* This is an implementation detail of the AMux. Code that depends on it may be
 783:Generated_Source\PSoC5/cyfitter_cfg.c ****    incompatible with other versions of PSoC Creator. */
 784:Generated_Source\PSoC5/cyfitter_cfg.c **** const uint8 CYCODE AMux_0_CYAMUXSIDE_B__maskTable[8] = {
 785:Generated_Source\PSoC5/cyfitter_cfg.c **** 	0x80u, 0x10u, 
 786:Generated_Source\PSoC5/cyfitter_cfg.c **** 	0x80u, 0x10u, 
 787:Generated_Source\PSoC5/cyfitter_cfg.c **** 	0x80u, 0x10u, 
 788:Generated_Source\PSoC5/cyfitter_cfg.c **** 	0x80u, 0x10u, 
 789:Generated_Source\PSoC5/cyfitter_cfg.c **** };
 790:Generated_Source\PSoC5/cyfitter_cfg.c **** 
 791:Generated_Source\PSoC5/cyfitter_cfg.c **** /*******************************************************************************
 792:Generated_Source\PSoC5/cyfitter_cfg.c **** * Function Name: AMux_0_CYAMUXSIDE_B_Set
 793:Generated_Source\PSoC5/cyfitter_cfg.c **** ********************************************************************************
 794:Generated_Source\PSoC5/cyfitter_cfg.c **** * Summary:
 795:Generated_Source\PSoC5/cyfitter_cfg.c **** *  This function is used to set a particular channel as active on the AMux.
 796:Generated_Source\PSoC5/cyfitter_cfg.c **** *
 797:Generated_Source\PSoC5/cyfitter_cfg.c **** * Parameters:  
 798:Generated_Source\PSoC5/cyfitter_cfg.c **** *   channel - The mux channel input to set as active
 799:Generated_Source\PSoC5/cyfitter_cfg.c **** *
 800:Generated_Source\PSoC5/cyfitter_cfg.c **** * Return:
 801:Generated_Source\PSoC5/cyfitter_cfg.c **** *   void
 802:Generated_Source\PSoC5/cyfitter_cfg.c **** *
 803:Generated_Source\PSoC5/cyfitter_cfg.c **** *******************************************************************************/
 804:Generated_Source\PSoC5/cyfitter_cfg.c **** void AMux_0_CYAMUXSIDE_B_Set(uint8 channel)
 805:Generated_Source\PSoC5/cyfitter_cfg.c **** {
 1435              		.loc 1 805 0
 1436              		.cfi_startproc
 1437              		@ args = 0, pretend = 0, frame = 8
 1438              		@ frame_needed = 1, uses_anonymous_args = 0
 1439              		@ link register save eliminated.
 1440 0000 80B4     		push	{r7}
 1441              		.cfi_def_cfa_offset 4
 1442              		.cfi_offset 7, -4
 1443 0002 83B0     		sub	sp, sp, #12
 1444              		.cfi_def_cfa_offset 16
 1445 0004 00AF     		add	r7, sp, #0
 1446              		.cfi_def_cfa_register 7
 1447 0006 0346     		mov	r3, r0
 1448 0008 FB71     		strb	r3, [r7, #7]
 806:Generated_Source\PSoC5/cyfitter_cfg.c **** 	if (channel < 4)
 1449              		.loc 1 806 0
 1450 000a FB79     		ldrb	r3, [r7, #7]	@ zero_extendqisi2
 1451 000c 032B     		cmp	r3, #3
 1452 000e 24D8     		bhi	.L48
 807:Generated_Source\PSoC5/cyfitter_cfg.c **** 	{
 808:Generated_Source\PSoC5/cyfitter_cfg.c **** 		channel += channel;
 1453              		.loc 1 808 0
 1454 0010 FA79     		ldrb	r2, [r7, #7]
 1455 0012 FB79     		ldrb	r3, [r7, #7]
 1456 0014 1344     		add	r3, r3, r2
 1457 0016 FB71     		strb	r3, [r7, #7]
 809:Generated_Source\PSoC5/cyfitter_cfg.c **** 		*AMux_0_CYAMUXSIDE_B__addrTable[channel] |= AMux_0_CYAMUXSIDE_B__maskTable[channel];
 1458              		.loc 1 809 0
 1459 0018 FB79     		ldrb	r3, [r7, #7]	@ zero_extendqisi2
 1460 001a 124A     		ldr	r2, .L49
 1461 001c 52F82330 		ldr	r3, [r2, r3, lsl #2]
 1462 0020 FA79     		ldrb	r2, [r7, #7]	@ zero_extendqisi2
 1463 0022 1049     		ldr	r1, .L49
ARM GAS  C:\Users\bryan.lee\AppData\Local\Temp\ccC85gGx.s 			page 41


 1464 0024 51F82220 		ldr	r2, [r1, r2, lsl #2]
 1465 0028 1178     		ldrb	r1, [r2]	@ zero_extendqisi2
 1466 002a FA79     		ldrb	r2, [r7, #7]	@ zero_extendqisi2
 1467 002c 0E48     		ldr	r0, .L49+4
 1468 002e 825C     		ldrb	r2, [r0, r2]	@ zero_extendqisi2
 1469 0030 0A43     		orrs	r2, r2, r1
 1470 0032 D2B2     		uxtb	r2, r2
 1471 0034 1A70     		strb	r2, [r3]
 810:Generated_Source\PSoC5/cyfitter_cfg.c **** 		channel++;
 1472              		.loc 1 810 0
 1473 0036 FB79     		ldrb	r3, [r7, #7]	@ zero_extendqisi2
 1474 0038 0133     		adds	r3, r3, #1
 1475 003a FB71     		strb	r3, [r7, #7]
 811:Generated_Source\PSoC5/cyfitter_cfg.c **** 		*AMux_0_CYAMUXSIDE_B__addrTable[channel] |= AMux_0_CYAMUXSIDE_B__maskTable[channel];
 1476              		.loc 1 811 0
 1477 003c FB79     		ldrb	r3, [r7, #7]	@ zero_extendqisi2
 1478 003e 094A     		ldr	r2, .L49
 1479 0040 52F82330 		ldr	r3, [r2, r3, lsl #2]
 1480 0044 FA79     		ldrb	r2, [r7, #7]	@ zero_extendqisi2
 1481 0046 0749     		ldr	r1, .L49
 1482 0048 51F82220 		ldr	r2, [r1, r2, lsl #2]
 1483 004c 1178     		ldrb	r1, [r2]	@ zero_extendqisi2
 1484 004e FA79     		ldrb	r2, [r7, #7]	@ zero_extendqisi2
 1485 0050 0548     		ldr	r0, .L49+4
 1486 0052 825C     		ldrb	r2, [r0, r2]	@ zero_extendqisi2
 1487 0054 0A43     		orrs	r2, r2, r1
 1488 0056 D2B2     		uxtb	r2, r2
 1489 0058 1A70     		strb	r2, [r3]
 1490              	.L48:
 812:Generated_Source\PSoC5/cyfitter_cfg.c **** 	}
 813:Generated_Source\PSoC5/cyfitter_cfg.c **** }
 1491              		.loc 1 813 0
 1492 005a 00BF     		nop
 1493 005c 0C37     		adds	r7, r7, #12
 1494              		.cfi_def_cfa_offset 4
 1495 005e BD46     		mov	sp, r7
 1496              		.cfi_def_cfa_register 13
 1497              		@ sp needed
 1498 0060 80BC     		pop	{r7}
 1499              		.cfi_restore 7
 1500              		.cfi_def_cfa_offset 0
 1501 0062 7047     		bx	lr
 1502              	.L50:
 1503              		.align	2
 1504              	.L49:
 1505 0064 00000000 		.word	AMux_0_CYAMUXSIDE_B__addrTable
 1506 0068 00000000 		.word	AMux_0_CYAMUXSIDE_B__maskTable
 1507              		.cfi_endproc
 1508              	.LFE10:
 1509              		.size	AMux_0_CYAMUXSIDE_B_Set, .-AMux_0_CYAMUXSIDE_B_Set
 1510              		.section	.text.AMux_0_CYAMUXSIDE_B_Unset,"ax",%progbits
 1511              		.align	2
 1512              		.global	AMux_0_CYAMUXSIDE_B_Unset
 1513              		.thumb
 1514              		.thumb_func
 1515              		.type	AMux_0_CYAMUXSIDE_B_Unset, %function
 1516              	AMux_0_CYAMUXSIDE_B_Unset:
ARM GAS  C:\Users\bryan.lee\AppData\Local\Temp\ccC85gGx.s 			page 42


 1517              	.LFB11:
 814:Generated_Source\PSoC5/cyfitter_cfg.c **** 
 815:Generated_Source\PSoC5/cyfitter_cfg.c **** /*******************************************************************************
 816:Generated_Source\PSoC5/cyfitter_cfg.c **** * Function Name: AMux_0_CYAMUXSIDE_B_Unset
 817:Generated_Source\PSoC5/cyfitter_cfg.c **** ********************************************************************************
 818:Generated_Source\PSoC5/cyfitter_cfg.c **** * Summary:
 819:Generated_Source\PSoC5/cyfitter_cfg.c **** *  This function is used to clear a particular channel from being active on the
 820:Generated_Source\PSoC5/cyfitter_cfg.c **** *  AMux.
 821:Generated_Source\PSoC5/cyfitter_cfg.c **** *
 822:Generated_Source\PSoC5/cyfitter_cfg.c **** * Parameters:  
 823:Generated_Source\PSoC5/cyfitter_cfg.c **** *   channel - The mux channel input to mark inactive
 824:Generated_Source\PSoC5/cyfitter_cfg.c **** *
 825:Generated_Source\PSoC5/cyfitter_cfg.c **** * Return:
 826:Generated_Source\PSoC5/cyfitter_cfg.c **** *   void
 827:Generated_Source\PSoC5/cyfitter_cfg.c **** *
 828:Generated_Source\PSoC5/cyfitter_cfg.c **** *******************************************************************************/
 829:Generated_Source\PSoC5/cyfitter_cfg.c **** void AMux_0_CYAMUXSIDE_B_Unset(uint8 channel)
 830:Generated_Source\PSoC5/cyfitter_cfg.c **** {
 1518              		.loc 1 830 0
 1519              		.cfi_startproc
 1520              		@ args = 0, pretend = 0, frame = 8
 1521              		@ frame_needed = 1, uses_anonymous_args = 0
 1522              		@ link register save eliminated.
 1523 0000 80B4     		push	{r7}
 1524              		.cfi_def_cfa_offset 4
 1525              		.cfi_offset 7, -4
 1526 0002 83B0     		sub	sp, sp, #12
 1527              		.cfi_def_cfa_offset 16
 1528 0004 00AF     		add	r7, sp, #0
 1529              		.cfi_def_cfa_register 7
 1530 0006 0346     		mov	r3, r0
 1531 0008 FB71     		strb	r3, [r7, #7]
 831:Generated_Source\PSoC5/cyfitter_cfg.c **** 	if (channel < 4)
 1532              		.loc 1 831 0
 1533 000a FB79     		ldrb	r3, [r7, #7]	@ zero_extendqisi2
 1534 000c 032B     		cmp	r3, #3
 1535 000e 28D8     		bhi	.L53
 832:Generated_Source\PSoC5/cyfitter_cfg.c **** 	{
 833:Generated_Source\PSoC5/cyfitter_cfg.c **** 		channel += channel;
 1536              		.loc 1 833 0
 1537 0010 FA79     		ldrb	r2, [r7, #7]
 1538 0012 FB79     		ldrb	r3, [r7, #7]
 1539 0014 1344     		add	r3, r3, r2
 1540 0016 FB71     		strb	r3, [r7, #7]
 834:Generated_Source\PSoC5/cyfitter_cfg.c **** 		*AMux_0_CYAMUXSIDE_B__addrTable[channel] &= (uint8)~AMux_0_CYAMUXSIDE_B__maskTable[channel];
 1541              		.loc 1 834 0
 1542 0018 FB79     		ldrb	r3, [r7, #7]	@ zero_extendqisi2
 1543 001a 144A     		ldr	r2, .L54
 1544 001c 52F82330 		ldr	r3, [r2, r3, lsl #2]
 1545 0020 FA79     		ldrb	r2, [r7, #7]	@ zero_extendqisi2
 1546 0022 1249     		ldr	r1, .L54
 1547 0024 51F82220 		ldr	r2, [r1, r2, lsl #2]
 1548 0028 1178     		ldrb	r1, [r2]	@ zero_extendqisi2
 1549 002a FA79     		ldrb	r2, [r7, #7]	@ zero_extendqisi2
 1550 002c 1048     		ldr	r0, .L54+4
 1551 002e 825C     		ldrb	r2, [r0, r2]	@ zero_extendqisi2
 1552 0030 D243     		mvns	r2, r2
ARM GAS  C:\Users\bryan.lee\AppData\Local\Temp\ccC85gGx.s 			page 43


 1553 0032 D2B2     		uxtb	r2, r2
 1554 0034 0A40     		ands	r2, r2, r1
 1555 0036 D2B2     		uxtb	r2, r2
 1556 0038 1A70     		strb	r2, [r3]
 835:Generated_Source\PSoC5/cyfitter_cfg.c **** 		channel++;
 1557              		.loc 1 835 0
 1558 003a FB79     		ldrb	r3, [r7, #7]	@ zero_extendqisi2
 1559 003c 0133     		adds	r3, r3, #1
 1560 003e FB71     		strb	r3, [r7, #7]
 836:Generated_Source\PSoC5/cyfitter_cfg.c **** 		*AMux_0_CYAMUXSIDE_B__addrTable[channel] &= (uint8)~AMux_0_CYAMUXSIDE_B__maskTable[channel];
 1561              		.loc 1 836 0
 1562 0040 FB79     		ldrb	r3, [r7, #7]	@ zero_extendqisi2
 1563 0042 0A4A     		ldr	r2, .L54
 1564 0044 52F82330 		ldr	r3, [r2, r3, lsl #2]
 1565 0048 FA79     		ldrb	r2, [r7, #7]	@ zero_extendqisi2
 1566 004a 0849     		ldr	r1, .L54
 1567 004c 51F82220 		ldr	r2, [r1, r2, lsl #2]
 1568 0050 1178     		ldrb	r1, [r2]	@ zero_extendqisi2
 1569 0052 FA79     		ldrb	r2, [r7, #7]	@ zero_extendqisi2
 1570 0054 0648     		ldr	r0, .L54+4
 1571 0056 825C     		ldrb	r2, [r0, r2]	@ zero_extendqisi2
 1572 0058 D243     		mvns	r2, r2
 1573 005a D2B2     		uxtb	r2, r2
 1574 005c 0A40     		ands	r2, r2, r1
 1575 005e D2B2     		uxtb	r2, r2
 1576 0060 1A70     		strb	r2, [r3]
 1577              	.L53:
 837:Generated_Source\PSoC5/cyfitter_cfg.c **** 	}
 838:Generated_Source\PSoC5/cyfitter_cfg.c **** }
 1578              		.loc 1 838 0
 1579 0062 00BF     		nop
 1580 0064 0C37     		adds	r7, r7, #12
 1581              		.cfi_def_cfa_offset 4
 1582 0066 BD46     		mov	sp, r7
 1583              		.cfi_def_cfa_register 13
 1584              		@ sp needed
 1585 0068 80BC     		pop	{r7}
 1586              		.cfi_restore 7
 1587              		.cfi_def_cfa_offset 0
 1588 006a 7047     		bx	lr
 1589              	.L55:
 1590              		.align	2
 1591              	.L54:
 1592 006c 00000000 		.word	AMux_0_CYAMUXSIDE_B__addrTable
 1593 0070 00000000 		.word	AMux_0_CYAMUXSIDE_B__maskTable
 1594              		.cfi_endproc
 1595              	.LFE11:
 1596              		.size	AMux_0_CYAMUXSIDE_B_Unset, .-AMux_0_CYAMUXSIDE_B_Unset
 1597              		.global	AMux_1_CYAMUXSIDE_A__addrTable
 1598              		.section	.rodata
 1599              		.align	2
 1600              		.type	AMux_1_CYAMUXSIDE_A__addrTable, %object
 1601              		.size	AMux_1_CYAMUXSIDE_A__addrTable, 32
 1602              	AMux_1_CYAMUXSIDE_A__addrTable:
 1603 0050 435B0040 		.word	1073765187
 1604 0054 205B0040 		.word	1073765152
 1605 0058 435B0040 		.word	1073765187
ARM GAS  C:\Users\bryan.lee\AppData\Local\Temp\ccC85gGx.s 			page 44


 1606 005c 225B0040 		.word	1073765154
 1607 0060 0D510040 		.word	1073762573
 1608 0064 205B0040 		.word	1073765152
 1609 0068 0D510040 		.word	1073762573
 1610 006c 205B0040 		.word	1073765152
 1611              		.global	AMux_1_CYAMUXSIDE_A__maskTable
 1612              		.align	2
 1613              		.type	AMux_1_CYAMUXSIDE_A__maskTable, %object
 1614              		.size	AMux_1_CYAMUXSIDE_A__maskTable, 8
 1615              	AMux_1_CYAMUXSIDE_A__maskTable:
 1616 0070 02       		.byte	2
 1617 0071 40       		.byte	64
 1618 0072 04       		.byte	4
 1619 0073 04       		.byte	4
 1620 0074 10       		.byte	16
 1621 0075 10       		.byte	16
 1622 0076 20       		.byte	32
 1623 0077 20       		.byte	32
 1624              		.section	.text.AMux_1_CYAMUXSIDE_A_Set,"ax",%progbits
 1625              		.align	2
 1626              		.global	AMux_1_CYAMUXSIDE_A_Set
 1627              		.thumb
 1628              		.thumb_func
 1629              		.type	AMux_1_CYAMUXSIDE_A_Set, %function
 1630              	AMux_1_CYAMUXSIDE_A_Set:
 1631              	.LFB12:
 839:Generated_Source\PSoC5/cyfitter_cfg.c **** 
 840:Generated_Source\PSoC5/cyfitter_cfg.c **** /* This is an implementation detail of the AMux. Code that depends on it may be
 841:Generated_Source\PSoC5/cyfitter_cfg.c ****    incompatible with other versions of PSoC Creator. */
 842:Generated_Source\PSoC5/cyfitter_cfg.c **** uint8 CYXDATA * const CYCODE AMux_1_CYAMUXSIDE_A__addrTable[8] = {
 843:Generated_Source\PSoC5/cyfitter_cfg.c **** 	(uint8 CYXDATA *)CYREG_OPAMP1_SW, (uint8 CYXDATA *)CYREG_SAR0_SW0, 
 844:Generated_Source\PSoC5/cyfitter_cfg.c **** 	(uint8 CYXDATA *)CYREG_OPAMP1_SW, (uint8 CYXDATA *)CYREG_SAR0_SW2, 
 845:Generated_Source\PSoC5/cyfitter_cfg.c **** 	(uint8 CYXDATA *)CYREG_PRT0_AG, (uint8 CYXDATA *)CYREG_SAR0_SW0, 
 846:Generated_Source\PSoC5/cyfitter_cfg.c **** 	(uint8 CYXDATA *)CYREG_PRT0_AG, (uint8 CYXDATA *)CYREG_SAR0_SW0, 
 847:Generated_Source\PSoC5/cyfitter_cfg.c **** };
 848:Generated_Source\PSoC5/cyfitter_cfg.c **** 
 849:Generated_Source\PSoC5/cyfitter_cfg.c **** /* This is an implementation detail of the AMux. Code that depends on it may be
 850:Generated_Source\PSoC5/cyfitter_cfg.c ****    incompatible with other versions of PSoC Creator. */
 851:Generated_Source\PSoC5/cyfitter_cfg.c **** const uint8 CYCODE AMux_1_CYAMUXSIDE_A__maskTable[8] = {
 852:Generated_Source\PSoC5/cyfitter_cfg.c **** 	0x02u, 0x40u, 
 853:Generated_Source\PSoC5/cyfitter_cfg.c **** 	0x04u, 0x04u, 
 854:Generated_Source\PSoC5/cyfitter_cfg.c **** 	0x10u, 0x10u, 
 855:Generated_Source\PSoC5/cyfitter_cfg.c **** 	0x20u, 0x20u, 
 856:Generated_Source\PSoC5/cyfitter_cfg.c **** };
 857:Generated_Source\PSoC5/cyfitter_cfg.c **** 
 858:Generated_Source\PSoC5/cyfitter_cfg.c **** /*******************************************************************************
 859:Generated_Source\PSoC5/cyfitter_cfg.c **** * Function Name: AMux_1_CYAMUXSIDE_A_Set
 860:Generated_Source\PSoC5/cyfitter_cfg.c **** ********************************************************************************
 861:Generated_Source\PSoC5/cyfitter_cfg.c **** * Summary:
 862:Generated_Source\PSoC5/cyfitter_cfg.c **** *  This function is used to set a particular channel as active on the AMux.
 863:Generated_Source\PSoC5/cyfitter_cfg.c **** *
 864:Generated_Source\PSoC5/cyfitter_cfg.c **** * Parameters:  
 865:Generated_Source\PSoC5/cyfitter_cfg.c **** *   channel - The mux channel input to set as active
 866:Generated_Source\PSoC5/cyfitter_cfg.c **** *
 867:Generated_Source\PSoC5/cyfitter_cfg.c **** * Return:
 868:Generated_Source\PSoC5/cyfitter_cfg.c **** *   void
 869:Generated_Source\PSoC5/cyfitter_cfg.c **** *
ARM GAS  C:\Users\bryan.lee\AppData\Local\Temp\ccC85gGx.s 			page 45


 870:Generated_Source\PSoC5/cyfitter_cfg.c **** *******************************************************************************/
 871:Generated_Source\PSoC5/cyfitter_cfg.c **** void AMux_1_CYAMUXSIDE_A_Set(uint8 channel)
 872:Generated_Source\PSoC5/cyfitter_cfg.c **** {
 1632              		.loc 1 872 0
 1633              		.cfi_startproc
 1634              		@ args = 0, pretend = 0, frame = 8
 1635              		@ frame_needed = 1, uses_anonymous_args = 0
 1636              		@ link register save eliminated.
 1637 0000 80B4     		push	{r7}
 1638              		.cfi_def_cfa_offset 4
 1639              		.cfi_offset 7, -4
 1640 0002 83B0     		sub	sp, sp, #12
 1641              		.cfi_def_cfa_offset 16
 1642 0004 00AF     		add	r7, sp, #0
 1643              		.cfi_def_cfa_register 7
 1644 0006 0346     		mov	r3, r0
 1645 0008 FB71     		strb	r3, [r7, #7]
 873:Generated_Source\PSoC5/cyfitter_cfg.c **** 	if (channel < 4)
 1646              		.loc 1 873 0
 1647 000a FB79     		ldrb	r3, [r7, #7]	@ zero_extendqisi2
 1648 000c 032B     		cmp	r3, #3
 1649 000e 24D8     		bhi	.L58
 874:Generated_Source\PSoC5/cyfitter_cfg.c **** 	{
 875:Generated_Source\PSoC5/cyfitter_cfg.c **** 		channel += channel;
 1650              		.loc 1 875 0
 1651 0010 FA79     		ldrb	r2, [r7, #7]
 1652 0012 FB79     		ldrb	r3, [r7, #7]
 1653 0014 1344     		add	r3, r3, r2
 1654 0016 FB71     		strb	r3, [r7, #7]
 876:Generated_Source\PSoC5/cyfitter_cfg.c **** 		*AMux_1_CYAMUXSIDE_A__addrTable[channel] |= AMux_1_CYAMUXSIDE_A__maskTable[channel];
 1655              		.loc 1 876 0
 1656 0018 FB79     		ldrb	r3, [r7, #7]	@ zero_extendqisi2
 1657 001a 124A     		ldr	r2, .L59
 1658 001c 52F82330 		ldr	r3, [r2, r3, lsl #2]
 1659 0020 FA79     		ldrb	r2, [r7, #7]	@ zero_extendqisi2
 1660 0022 1049     		ldr	r1, .L59
 1661 0024 51F82220 		ldr	r2, [r1, r2, lsl #2]
 1662 0028 1178     		ldrb	r1, [r2]	@ zero_extendqisi2
 1663 002a FA79     		ldrb	r2, [r7, #7]	@ zero_extendqisi2
 1664 002c 0E48     		ldr	r0, .L59+4
 1665 002e 825C     		ldrb	r2, [r0, r2]	@ zero_extendqisi2
 1666 0030 0A43     		orrs	r2, r2, r1
 1667 0032 D2B2     		uxtb	r2, r2
 1668 0034 1A70     		strb	r2, [r3]
 877:Generated_Source\PSoC5/cyfitter_cfg.c **** 		channel++;
 1669              		.loc 1 877 0
 1670 0036 FB79     		ldrb	r3, [r7, #7]	@ zero_extendqisi2
 1671 0038 0133     		adds	r3, r3, #1
 1672 003a FB71     		strb	r3, [r7, #7]
 878:Generated_Source\PSoC5/cyfitter_cfg.c **** 		*AMux_1_CYAMUXSIDE_A__addrTable[channel] |= AMux_1_CYAMUXSIDE_A__maskTable[channel];
 1673              		.loc 1 878 0
 1674 003c FB79     		ldrb	r3, [r7, #7]	@ zero_extendqisi2
 1675 003e 094A     		ldr	r2, .L59
 1676 0040 52F82330 		ldr	r3, [r2, r3, lsl #2]
 1677 0044 FA79     		ldrb	r2, [r7, #7]	@ zero_extendqisi2
 1678 0046 0749     		ldr	r1, .L59
 1679 0048 51F82220 		ldr	r2, [r1, r2, lsl #2]
ARM GAS  C:\Users\bryan.lee\AppData\Local\Temp\ccC85gGx.s 			page 46


 1680 004c 1178     		ldrb	r1, [r2]	@ zero_extendqisi2
 1681 004e FA79     		ldrb	r2, [r7, #7]	@ zero_extendqisi2
 1682 0050 0548     		ldr	r0, .L59+4
 1683 0052 825C     		ldrb	r2, [r0, r2]	@ zero_extendqisi2
 1684 0054 0A43     		orrs	r2, r2, r1
 1685 0056 D2B2     		uxtb	r2, r2
 1686 0058 1A70     		strb	r2, [r3]
 1687              	.L58:
 879:Generated_Source\PSoC5/cyfitter_cfg.c **** 	}
 880:Generated_Source\PSoC5/cyfitter_cfg.c **** }
 1688              		.loc 1 880 0
 1689 005a 00BF     		nop
 1690 005c 0C37     		adds	r7, r7, #12
 1691              		.cfi_def_cfa_offset 4
 1692 005e BD46     		mov	sp, r7
 1693              		.cfi_def_cfa_register 13
 1694              		@ sp needed
 1695 0060 80BC     		pop	{r7}
 1696              		.cfi_restore 7
 1697              		.cfi_def_cfa_offset 0
 1698 0062 7047     		bx	lr
 1699              	.L60:
 1700              		.align	2
 1701              	.L59:
 1702 0064 00000000 		.word	AMux_1_CYAMUXSIDE_A__addrTable
 1703 0068 00000000 		.word	AMux_1_CYAMUXSIDE_A__maskTable
 1704              		.cfi_endproc
 1705              	.LFE12:
 1706              		.size	AMux_1_CYAMUXSIDE_A_Set, .-AMux_1_CYAMUXSIDE_A_Set
 1707              		.section	.text.AMux_1_CYAMUXSIDE_A_Unset,"ax",%progbits
 1708              		.align	2
 1709              		.global	AMux_1_CYAMUXSIDE_A_Unset
 1710              		.thumb
 1711              		.thumb_func
 1712              		.type	AMux_1_CYAMUXSIDE_A_Unset, %function
 1713              	AMux_1_CYAMUXSIDE_A_Unset:
 1714              	.LFB13:
 881:Generated_Source\PSoC5/cyfitter_cfg.c **** 
 882:Generated_Source\PSoC5/cyfitter_cfg.c **** /*******************************************************************************
 883:Generated_Source\PSoC5/cyfitter_cfg.c **** * Function Name: AMux_1_CYAMUXSIDE_A_Unset
 884:Generated_Source\PSoC5/cyfitter_cfg.c **** ********************************************************************************
 885:Generated_Source\PSoC5/cyfitter_cfg.c **** * Summary:
 886:Generated_Source\PSoC5/cyfitter_cfg.c **** *  This function is used to clear a particular channel from being active on the
 887:Generated_Source\PSoC5/cyfitter_cfg.c **** *  AMux.
 888:Generated_Source\PSoC5/cyfitter_cfg.c **** *
 889:Generated_Source\PSoC5/cyfitter_cfg.c **** * Parameters:  
 890:Generated_Source\PSoC5/cyfitter_cfg.c **** *   channel - The mux channel input to mark inactive
 891:Generated_Source\PSoC5/cyfitter_cfg.c **** *
 892:Generated_Source\PSoC5/cyfitter_cfg.c **** * Return:
 893:Generated_Source\PSoC5/cyfitter_cfg.c **** *   void
 894:Generated_Source\PSoC5/cyfitter_cfg.c **** *
 895:Generated_Source\PSoC5/cyfitter_cfg.c **** *******************************************************************************/
 896:Generated_Source\PSoC5/cyfitter_cfg.c **** void AMux_1_CYAMUXSIDE_A_Unset(uint8 channel)
 897:Generated_Source\PSoC5/cyfitter_cfg.c **** {
 1715              		.loc 1 897 0
 1716              		.cfi_startproc
 1717              		@ args = 0, pretend = 0, frame = 8
ARM GAS  C:\Users\bryan.lee\AppData\Local\Temp\ccC85gGx.s 			page 47


 1718              		@ frame_needed = 1, uses_anonymous_args = 0
 1719              		@ link register save eliminated.
 1720 0000 80B4     		push	{r7}
 1721              		.cfi_def_cfa_offset 4
 1722              		.cfi_offset 7, -4
 1723 0002 83B0     		sub	sp, sp, #12
 1724              		.cfi_def_cfa_offset 16
 1725 0004 00AF     		add	r7, sp, #0
 1726              		.cfi_def_cfa_register 7
 1727 0006 0346     		mov	r3, r0
 1728 0008 FB71     		strb	r3, [r7, #7]
 898:Generated_Source\PSoC5/cyfitter_cfg.c **** 	if (channel < 4)
 1729              		.loc 1 898 0
 1730 000a FB79     		ldrb	r3, [r7, #7]	@ zero_extendqisi2
 1731 000c 032B     		cmp	r3, #3
 1732 000e 28D8     		bhi	.L63
 899:Generated_Source\PSoC5/cyfitter_cfg.c **** 	{
 900:Generated_Source\PSoC5/cyfitter_cfg.c **** 		channel += channel;
 1733              		.loc 1 900 0
 1734 0010 FA79     		ldrb	r2, [r7, #7]
 1735 0012 FB79     		ldrb	r3, [r7, #7]
 1736 0014 1344     		add	r3, r3, r2
 1737 0016 FB71     		strb	r3, [r7, #7]
 901:Generated_Source\PSoC5/cyfitter_cfg.c **** 		*AMux_1_CYAMUXSIDE_A__addrTable[channel] &= (uint8)~AMux_1_CYAMUXSIDE_A__maskTable[channel];
 1738              		.loc 1 901 0
 1739 0018 FB79     		ldrb	r3, [r7, #7]	@ zero_extendqisi2
 1740 001a 144A     		ldr	r2, .L64
 1741 001c 52F82330 		ldr	r3, [r2, r3, lsl #2]
 1742 0020 FA79     		ldrb	r2, [r7, #7]	@ zero_extendqisi2
 1743 0022 1249     		ldr	r1, .L64
 1744 0024 51F82220 		ldr	r2, [r1, r2, lsl #2]
 1745 0028 1178     		ldrb	r1, [r2]	@ zero_extendqisi2
 1746 002a FA79     		ldrb	r2, [r7, #7]	@ zero_extendqisi2
 1747 002c 1048     		ldr	r0, .L64+4
 1748 002e 825C     		ldrb	r2, [r0, r2]	@ zero_extendqisi2
 1749 0030 D243     		mvns	r2, r2
 1750 0032 D2B2     		uxtb	r2, r2
 1751 0034 0A40     		ands	r2, r2, r1
 1752 0036 D2B2     		uxtb	r2, r2
 1753 0038 1A70     		strb	r2, [r3]
 902:Generated_Source\PSoC5/cyfitter_cfg.c **** 		channel++;
 1754              		.loc 1 902 0
 1755 003a FB79     		ldrb	r3, [r7, #7]	@ zero_extendqisi2
 1756 003c 0133     		adds	r3, r3, #1
 1757 003e FB71     		strb	r3, [r7, #7]
 903:Generated_Source\PSoC5/cyfitter_cfg.c **** 		*AMux_1_CYAMUXSIDE_A__addrTable[channel] &= (uint8)~AMux_1_CYAMUXSIDE_A__maskTable[channel];
 1758              		.loc 1 903 0
 1759 0040 FB79     		ldrb	r3, [r7, #7]	@ zero_extendqisi2
 1760 0042 0A4A     		ldr	r2, .L64
 1761 0044 52F82330 		ldr	r3, [r2, r3, lsl #2]
 1762 0048 FA79     		ldrb	r2, [r7, #7]	@ zero_extendqisi2
 1763 004a 0849     		ldr	r1, .L64
 1764 004c 51F82220 		ldr	r2, [r1, r2, lsl #2]
 1765 0050 1178     		ldrb	r1, [r2]	@ zero_extendqisi2
 1766 0052 FA79     		ldrb	r2, [r7, #7]	@ zero_extendqisi2
 1767 0054 0648     		ldr	r0, .L64+4
 1768 0056 825C     		ldrb	r2, [r0, r2]	@ zero_extendqisi2
ARM GAS  C:\Users\bryan.lee\AppData\Local\Temp\ccC85gGx.s 			page 48


 1769 0058 D243     		mvns	r2, r2
 1770 005a D2B2     		uxtb	r2, r2
 1771 005c 0A40     		ands	r2, r2, r1
 1772 005e D2B2     		uxtb	r2, r2
 1773 0060 1A70     		strb	r2, [r3]
 1774              	.L63:
 904:Generated_Source\PSoC5/cyfitter_cfg.c **** 	}
 905:Generated_Source\PSoC5/cyfitter_cfg.c **** }
 1775              		.loc 1 905 0
 1776 0062 00BF     		nop
 1777 0064 0C37     		adds	r7, r7, #12
 1778              		.cfi_def_cfa_offset 4
 1779 0066 BD46     		mov	sp, r7
 1780              		.cfi_def_cfa_register 13
 1781              		@ sp needed
 1782 0068 80BC     		pop	{r7}
 1783              		.cfi_restore 7
 1784              		.cfi_def_cfa_offset 0
 1785 006a 7047     		bx	lr
 1786              	.L65:
 1787              		.align	2
 1788              	.L64:
 1789 006c 00000000 		.word	AMux_1_CYAMUXSIDE_A__addrTable
 1790 0070 00000000 		.word	AMux_1_CYAMUXSIDE_A__maskTable
 1791              		.cfi_endproc
 1792              	.LFE13:
 1793              		.size	AMux_1_CYAMUXSIDE_A_Unset, .-AMux_1_CYAMUXSIDE_A_Unset
 1794              		.global	AMux_1_CYAMUXSIDE_B__addrTable
 1795              		.section	.rodata
 1796              		.align	2
 1797              		.type	AMux_1_CYAMUXSIDE_B__addrTable, %object
 1798              		.size	AMux_1_CYAMUXSIDE_B__addrTable, 32
 1799              	AMux_1_CYAMUXSIDE_B__addrTable:
 1800 0078 1D510040 		.word	1073762589
 1801 007c 245B0040 		.word	1073765156
 1802 0080 1D510040 		.word	1073762589
 1803 0084 245B0040 		.word	1073765156
 1804 0088 1D510040 		.word	1073762589
 1805 008c 245B0040 		.word	1073765156
 1806 0090 1D510040 		.word	1073762589
 1807 0094 245B0040 		.word	1073765156
 1808              		.global	AMux_1_CYAMUXSIDE_B__maskTable
 1809              		.align	2
 1810              		.type	AMux_1_CYAMUXSIDE_B__maskTable, %object
 1811              		.size	AMux_1_CYAMUXSIDE_B__maskTable, 8
 1812              	AMux_1_CYAMUXSIDE_B__maskTable:
 1813 0098 80       		.byte	-128
 1814 0099 04       		.byte	4
 1815 009a 80       		.byte	-128
 1816 009b 04       		.byte	4
 1817 009c 80       		.byte	-128
 1818 009d 04       		.byte	4
 1819 009e 80       		.byte	-128
 1820 009f 04       		.byte	4
 1821              		.section	.text.AMux_1_CYAMUXSIDE_B_Set,"ax",%progbits
 1822              		.align	2
 1823              		.global	AMux_1_CYAMUXSIDE_B_Set
ARM GAS  C:\Users\bryan.lee\AppData\Local\Temp\ccC85gGx.s 			page 49


 1824              		.thumb
 1825              		.thumb_func
 1826              		.type	AMux_1_CYAMUXSIDE_B_Set, %function
 1827              	AMux_1_CYAMUXSIDE_B_Set:
 1828              	.LFB14:
 906:Generated_Source\PSoC5/cyfitter_cfg.c **** 
 907:Generated_Source\PSoC5/cyfitter_cfg.c **** /* This is an implementation detail of the AMux. Code that depends on it may be
 908:Generated_Source\PSoC5/cyfitter_cfg.c ****    incompatible with other versions of PSoC Creator. */
 909:Generated_Source\PSoC5/cyfitter_cfg.c **** uint8 CYXDATA * const CYCODE AMux_1_CYAMUXSIDE_B__addrTable[8] = {
 910:Generated_Source\PSoC5/cyfitter_cfg.c **** 	(uint8 CYXDATA *)CYREG_PRT1_AG, (uint8 CYXDATA *)CYREG_SAR0_SW4, 
 911:Generated_Source\PSoC5/cyfitter_cfg.c **** 	(uint8 CYXDATA *)CYREG_PRT1_AG, (uint8 CYXDATA *)CYREG_SAR0_SW4, 
 912:Generated_Source\PSoC5/cyfitter_cfg.c **** 	(uint8 CYXDATA *)CYREG_PRT1_AG, (uint8 CYXDATA *)CYREG_SAR0_SW4, 
 913:Generated_Source\PSoC5/cyfitter_cfg.c **** 	(uint8 CYXDATA *)CYREG_PRT1_AG, (uint8 CYXDATA *)CYREG_SAR0_SW4, 
 914:Generated_Source\PSoC5/cyfitter_cfg.c **** };
 915:Generated_Source\PSoC5/cyfitter_cfg.c **** 
 916:Generated_Source\PSoC5/cyfitter_cfg.c **** /* This is an implementation detail of the AMux. Code that depends on it may be
 917:Generated_Source\PSoC5/cyfitter_cfg.c ****    incompatible with other versions of PSoC Creator. */
 918:Generated_Source\PSoC5/cyfitter_cfg.c **** const uint8 CYCODE AMux_1_CYAMUXSIDE_B__maskTable[8] = {
 919:Generated_Source\PSoC5/cyfitter_cfg.c **** 	0x80u, 0x04u, 
 920:Generated_Source\PSoC5/cyfitter_cfg.c **** 	0x80u, 0x04u, 
 921:Generated_Source\PSoC5/cyfitter_cfg.c **** 	0x80u, 0x04u, 
 922:Generated_Source\PSoC5/cyfitter_cfg.c **** 	0x80u, 0x04u, 
 923:Generated_Source\PSoC5/cyfitter_cfg.c **** };
 924:Generated_Source\PSoC5/cyfitter_cfg.c **** 
 925:Generated_Source\PSoC5/cyfitter_cfg.c **** /*******************************************************************************
 926:Generated_Source\PSoC5/cyfitter_cfg.c **** * Function Name: AMux_1_CYAMUXSIDE_B_Set
 927:Generated_Source\PSoC5/cyfitter_cfg.c **** ********************************************************************************
 928:Generated_Source\PSoC5/cyfitter_cfg.c **** * Summary:
 929:Generated_Source\PSoC5/cyfitter_cfg.c **** *  This function is used to set a particular channel as active on the AMux.
 930:Generated_Source\PSoC5/cyfitter_cfg.c **** *
 931:Generated_Source\PSoC5/cyfitter_cfg.c **** * Parameters:  
 932:Generated_Source\PSoC5/cyfitter_cfg.c **** *   channel - The mux channel input to set as active
 933:Generated_Source\PSoC5/cyfitter_cfg.c **** *
 934:Generated_Source\PSoC5/cyfitter_cfg.c **** * Return:
 935:Generated_Source\PSoC5/cyfitter_cfg.c **** *   void
 936:Generated_Source\PSoC5/cyfitter_cfg.c **** *
 937:Generated_Source\PSoC5/cyfitter_cfg.c **** *******************************************************************************/
 938:Generated_Source\PSoC5/cyfitter_cfg.c **** void AMux_1_CYAMUXSIDE_B_Set(uint8 channel)
 939:Generated_Source\PSoC5/cyfitter_cfg.c **** {
 1829              		.loc 1 939 0
 1830              		.cfi_startproc
 1831              		@ args = 0, pretend = 0, frame = 8
 1832              		@ frame_needed = 1, uses_anonymous_args = 0
 1833              		@ link register save eliminated.
 1834 0000 80B4     		push	{r7}
 1835              		.cfi_def_cfa_offset 4
 1836              		.cfi_offset 7, -4
 1837 0002 83B0     		sub	sp, sp, #12
 1838              		.cfi_def_cfa_offset 16
 1839 0004 00AF     		add	r7, sp, #0
 1840              		.cfi_def_cfa_register 7
 1841 0006 0346     		mov	r3, r0
 1842 0008 FB71     		strb	r3, [r7, #7]
 940:Generated_Source\PSoC5/cyfitter_cfg.c **** 	if (channel < 4)
 1843              		.loc 1 940 0
 1844 000a FB79     		ldrb	r3, [r7, #7]	@ zero_extendqisi2
 1845 000c 032B     		cmp	r3, #3
ARM GAS  C:\Users\bryan.lee\AppData\Local\Temp\ccC85gGx.s 			page 50


 1846 000e 24D8     		bhi	.L68
 941:Generated_Source\PSoC5/cyfitter_cfg.c **** 	{
 942:Generated_Source\PSoC5/cyfitter_cfg.c **** 		channel += channel;
 1847              		.loc 1 942 0
 1848 0010 FA79     		ldrb	r2, [r7, #7]
 1849 0012 FB79     		ldrb	r3, [r7, #7]
 1850 0014 1344     		add	r3, r3, r2
 1851 0016 FB71     		strb	r3, [r7, #7]
 943:Generated_Source\PSoC5/cyfitter_cfg.c **** 		*AMux_1_CYAMUXSIDE_B__addrTable[channel] |= AMux_1_CYAMUXSIDE_B__maskTable[channel];
 1852              		.loc 1 943 0
 1853 0018 FB79     		ldrb	r3, [r7, #7]	@ zero_extendqisi2
 1854 001a 124A     		ldr	r2, .L69
 1855 001c 52F82330 		ldr	r3, [r2, r3, lsl #2]
 1856 0020 FA79     		ldrb	r2, [r7, #7]	@ zero_extendqisi2
 1857 0022 1049     		ldr	r1, .L69
 1858 0024 51F82220 		ldr	r2, [r1, r2, lsl #2]
 1859 0028 1178     		ldrb	r1, [r2]	@ zero_extendqisi2
 1860 002a FA79     		ldrb	r2, [r7, #7]	@ zero_extendqisi2
 1861 002c 0E48     		ldr	r0, .L69+4
 1862 002e 825C     		ldrb	r2, [r0, r2]	@ zero_extendqisi2
 1863 0030 0A43     		orrs	r2, r2, r1
 1864 0032 D2B2     		uxtb	r2, r2
 1865 0034 1A70     		strb	r2, [r3]
 944:Generated_Source\PSoC5/cyfitter_cfg.c **** 		channel++;
 1866              		.loc 1 944 0
 1867 0036 FB79     		ldrb	r3, [r7, #7]	@ zero_extendqisi2
 1868 0038 0133     		adds	r3, r3, #1
 1869 003a FB71     		strb	r3, [r7, #7]
 945:Generated_Source\PSoC5/cyfitter_cfg.c **** 		*AMux_1_CYAMUXSIDE_B__addrTable[channel] |= AMux_1_CYAMUXSIDE_B__maskTable[channel];
 1870              		.loc 1 945 0
 1871 003c FB79     		ldrb	r3, [r7, #7]	@ zero_extendqisi2
 1872 003e 094A     		ldr	r2, .L69
 1873 0040 52F82330 		ldr	r3, [r2, r3, lsl #2]
 1874 0044 FA79     		ldrb	r2, [r7, #7]	@ zero_extendqisi2
 1875 0046 0749     		ldr	r1, .L69
 1876 0048 51F82220 		ldr	r2, [r1, r2, lsl #2]
 1877 004c 1178     		ldrb	r1, [r2]	@ zero_extendqisi2
 1878 004e FA79     		ldrb	r2, [r7, #7]	@ zero_extendqisi2
 1879 0050 0548     		ldr	r0, .L69+4
 1880 0052 825C     		ldrb	r2, [r0, r2]	@ zero_extendqisi2
 1881 0054 0A43     		orrs	r2, r2, r1
 1882 0056 D2B2     		uxtb	r2, r2
 1883 0058 1A70     		strb	r2, [r3]
 1884              	.L68:
 946:Generated_Source\PSoC5/cyfitter_cfg.c **** 	}
 947:Generated_Source\PSoC5/cyfitter_cfg.c **** }
 1885              		.loc 1 947 0
 1886 005a 00BF     		nop
 1887 005c 0C37     		adds	r7, r7, #12
 1888              		.cfi_def_cfa_offset 4
 1889 005e BD46     		mov	sp, r7
 1890              		.cfi_def_cfa_register 13
 1891              		@ sp needed
 1892 0060 80BC     		pop	{r7}
 1893              		.cfi_restore 7
 1894              		.cfi_def_cfa_offset 0
 1895 0062 7047     		bx	lr
ARM GAS  C:\Users\bryan.lee\AppData\Local\Temp\ccC85gGx.s 			page 51


 1896              	.L70:
 1897              		.align	2
 1898              	.L69:
 1899 0064 00000000 		.word	AMux_1_CYAMUXSIDE_B__addrTable
 1900 0068 00000000 		.word	AMux_1_CYAMUXSIDE_B__maskTable
 1901              		.cfi_endproc
 1902              	.LFE14:
 1903              		.size	AMux_1_CYAMUXSIDE_B_Set, .-AMux_1_CYAMUXSIDE_B_Set
 1904              		.section	.text.AMux_1_CYAMUXSIDE_B_Unset,"ax",%progbits
 1905              		.align	2
 1906              		.global	AMux_1_CYAMUXSIDE_B_Unset
 1907              		.thumb
 1908              		.thumb_func
 1909              		.type	AMux_1_CYAMUXSIDE_B_Unset, %function
 1910              	AMux_1_CYAMUXSIDE_B_Unset:
 1911              	.LFB15:
 948:Generated_Source\PSoC5/cyfitter_cfg.c **** 
 949:Generated_Source\PSoC5/cyfitter_cfg.c **** /*******************************************************************************
 950:Generated_Source\PSoC5/cyfitter_cfg.c **** * Function Name: AMux_1_CYAMUXSIDE_B_Unset
 951:Generated_Source\PSoC5/cyfitter_cfg.c **** ********************************************************************************
 952:Generated_Source\PSoC5/cyfitter_cfg.c **** * Summary:
 953:Generated_Source\PSoC5/cyfitter_cfg.c **** *  This function is used to clear a particular channel from being active on the
 954:Generated_Source\PSoC5/cyfitter_cfg.c **** *  AMux.
 955:Generated_Source\PSoC5/cyfitter_cfg.c **** *
 956:Generated_Source\PSoC5/cyfitter_cfg.c **** * Parameters:  
 957:Generated_Source\PSoC5/cyfitter_cfg.c **** *   channel - The mux channel input to mark inactive
 958:Generated_Source\PSoC5/cyfitter_cfg.c **** *
 959:Generated_Source\PSoC5/cyfitter_cfg.c **** * Return:
 960:Generated_Source\PSoC5/cyfitter_cfg.c **** *   void
 961:Generated_Source\PSoC5/cyfitter_cfg.c **** *
 962:Generated_Source\PSoC5/cyfitter_cfg.c **** *******************************************************************************/
 963:Generated_Source\PSoC5/cyfitter_cfg.c **** void AMux_1_CYAMUXSIDE_B_Unset(uint8 channel)
 964:Generated_Source\PSoC5/cyfitter_cfg.c **** {
 1912              		.loc 1 964 0
 1913              		.cfi_startproc
 1914              		@ args = 0, pretend = 0, frame = 8
 1915              		@ frame_needed = 1, uses_anonymous_args = 0
 1916              		@ link register save eliminated.
 1917 0000 80B4     		push	{r7}
 1918              		.cfi_def_cfa_offset 4
 1919              		.cfi_offset 7, -4
 1920 0002 83B0     		sub	sp, sp, #12
 1921              		.cfi_def_cfa_offset 16
 1922 0004 00AF     		add	r7, sp, #0
 1923              		.cfi_def_cfa_register 7
 1924 0006 0346     		mov	r3, r0
 1925 0008 FB71     		strb	r3, [r7, #7]
 965:Generated_Source\PSoC5/cyfitter_cfg.c **** 	if (channel < 4)
 1926              		.loc 1 965 0
 1927 000a FB79     		ldrb	r3, [r7, #7]	@ zero_extendqisi2
 1928 000c 032B     		cmp	r3, #3
 1929 000e 28D8     		bhi	.L73
 966:Generated_Source\PSoC5/cyfitter_cfg.c **** 	{
 967:Generated_Source\PSoC5/cyfitter_cfg.c **** 		channel += channel;
 1930              		.loc 1 967 0
 1931 0010 FA79     		ldrb	r2, [r7, #7]
 1932 0012 FB79     		ldrb	r3, [r7, #7]
ARM GAS  C:\Users\bryan.lee\AppData\Local\Temp\ccC85gGx.s 			page 52


 1933 0014 1344     		add	r3, r3, r2
 1934 0016 FB71     		strb	r3, [r7, #7]
 968:Generated_Source\PSoC5/cyfitter_cfg.c **** 		*AMux_1_CYAMUXSIDE_B__addrTable[channel] &= (uint8)~AMux_1_CYAMUXSIDE_B__maskTable[channel];
 1935              		.loc 1 968 0
 1936 0018 FB79     		ldrb	r3, [r7, #7]	@ zero_extendqisi2
 1937 001a 144A     		ldr	r2, .L74
 1938 001c 52F82330 		ldr	r3, [r2, r3, lsl #2]
 1939 0020 FA79     		ldrb	r2, [r7, #7]	@ zero_extendqisi2
 1940 0022 1249     		ldr	r1, .L74
 1941 0024 51F82220 		ldr	r2, [r1, r2, lsl #2]
 1942 0028 1178     		ldrb	r1, [r2]	@ zero_extendqisi2
 1943 002a FA79     		ldrb	r2, [r7, #7]	@ zero_extendqisi2
 1944 002c 1048     		ldr	r0, .L74+4
 1945 002e 825C     		ldrb	r2, [r0, r2]	@ zero_extendqisi2
 1946 0030 D243     		mvns	r2, r2
 1947 0032 D2B2     		uxtb	r2, r2
 1948 0034 0A40     		ands	r2, r2, r1
 1949 0036 D2B2     		uxtb	r2, r2
 1950 0038 1A70     		strb	r2, [r3]
 969:Generated_Source\PSoC5/cyfitter_cfg.c **** 		channel++;
 1951              		.loc 1 969 0
 1952 003a FB79     		ldrb	r3, [r7, #7]	@ zero_extendqisi2
 1953 003c 0133     		adds	r3, r3, #1
 1954 003e FB71     		strb	r3, [r7, #7]
 970:Generated_Source\PSoC5/cyfitter_cfg.c **** 		*AMux_1_CYAMUXSIDE_B__addrTable[channel] &= (uint8)~AMux_1_CYAMUXSIDE_B__maskTable[channel];
 1955              		.loc 1 970 0
 1956 0040 FB79     		ldrb	r3, [r7, #7]	@ zero_extendqisi2
 1957 0042 0A4A     		ldr	r2, .L74
 1958 0044 52F82330 		ldr	r3, [r2, r3, lsl #2]
 1959 0048 FA79     		ldrb	r2, [r7, #7]	@ zero_extendqisi2
 1960 004a 0849     		ldr	r1, .L74
 1961 004c 51F82220 		ldr	r2, [r1, r2, lsl #2]
 1962 0050 1178     		ldrb	r1, [r2]	@ zero_extendqisi2
 1963 0052 FA79     		ldrb	r2, [r7, #7]	@ zero_extendqisi2
 1964 0054 0648     		ldr	r0, .L74+4
 1965 0056 825C     		ldrb	r2, [r0, r2]	@ zero_extendqisi2
 1966 0058 D243     		mvns	r2, r2
 1967 005a D2B2     		uxtb	r2, r2
 1968 005c 0A40     		ands	r2, r2, r1
 1969 005e D2B2     		uxtb	r2, r2
 1970 0060 1A70     		strb	r2, [r3]
 1971              	.L73:
 971:Generated_Source\PSoC5/cyfitter_cfg.c **** 	}
 972:Generated_Source\PSoC5/cyfitter_cfg.c **** }
 1972              		.loc 1 972 0
 1973 0062 00BF     		nop
 1974 0064 0C37     		adds	r7, r7, #12
 1975              		.cfi_def_cfa_offset 4
 1976 0066 BD46     		mov	sp, r7
 1977              		.cfi_def_cfa_register 13
 1978              		@ sp needed
 1979 0068 80BC     		pop	{r7}
 1980              		.cfi_restore 7
 1981              		.cfi_def_cfa_offset 0
 1982 006a 7047     		bx	lr
 1983              	.L75:
 1984              		.align	2
ARM GAS  C:\Users\bryan.lee\AppData\Local\Temp\ccC85gGx.s 			page 53


 1985              	.L74:
 1986 006c 00000000 		.word	AMux_1_CYAMUXSIDE_B__addrTable
 1987 0070 00000000 		.word	AMux_1_CYAMUXSIDE_B__maskTable
 1988              		.cfi_endproc
 1989              	.LFE15:
 1990              		.size	AMux_1_CYAMUXSIDE_B_Unset, .-AMux_1_CYAMUXSIDE_B_Unset
 1991              		.section	.text.cyfitter_cfg,"ax",%progbits
 1992              		.align	2
 1993              		.global	cyfitter_cfg
 1994              		.thumb
 1995              		.thumb_func
 1996              		.type	cyfitter_cfg, %function
 1997              	cyfitter_cfg:
 1998              	.LFB16:
 973:Generated_Source\PSoC5/cyfitter_cfg.c **** 
 974:Generated_Source\PSoC5/cyfitter_cfg.c **** 
 975:Generated_Source\PSoC5/cyfitter_cfg.c **** 
 976:Generated_Source\PSoC5/cyfitter_cfg.c **** /*******************************************************************************
 977:Generated_Source\PSoC5/cyfitter_cfg.c **** * Function Name: cyfitter_cfg
 978:Generated_Source\PSoC5/cyfitter_cfg.c **** ********************************************************************************
 979:Generated_Source\PSoC5/cyfitter_cfg.c **** * Summary:
 980:Generated_Source\PSoC5/cyfitter_cfg.c **** *  This function is called by the start-up code for the selected device. It
 981:Generated_Source\PSoC5/cyfitter_cfg.c **** *  performs all of the necessary device configuration based on the design
 982:Generated_Source\PSoC5/cyfitter_cfg.c **** *  settings.  This includes settings from the Design Wide Resources (DWR) such
 983:Generated_Source\PSoC5/cyfitter_cfg.c **** *  as Clocks and Pins as well as any component configuration that is necessary.
 984:Generated_Source\PSoC5/cyfitter_cfg.c **** *
 985:Generated_Source\PSoC5/cyfitter_cfg.c **** * Parameters:
 986:Generated_Source\PSoC5/cyfitter_cfg.c **** *   void
 987:Generated_Source\PSoC5/cyfitter_cfg.c **** *
 988:Generated_Source\PSoC5/cyfitter_cfg.c **** * Return:
 989:Generated_Source\PSoC5/cyfitter_cfg.c **** *   void
 990:Generated_Source\PSoC5/cyfitter_cfg.c **** *
 991:Generated_Source\PSoC5/cyfitter_cfg.c **** *******************************************************************************/
 992:Generated_Source\PSoC5/cyfitter_cfg.c **** 
 993:Generated_Source\PSoC5/cyfitter_cfg.c **** void cyfitter_cfg(void)
 994:Generated_Source\PSoC5/cyfitter_cfg.c **** {
 1999              		.loc 1 994 0
 2000              		.cfi_startproc
 2001              		@ args = 0, pretend = 0, frame = 0
 2002              		@ frame_needed = 1, uses_anonymous_args = 0
 2003 0000 80B5     		push	{r7, lr}
 2004              		.cfi_def_cfa_offset 8
 2005              		.cfi_offset 7, -8
 2006              		.cfi_offset 14, -4
 2007 0002 00AF     		add	r7, sp, #0
 2008              		.cfi_def_cfa_register 7
 995:Generated_Source\PSoC5/cyfitter_cfg.c **** #ifdef CYGlobalIntDisable
 996:Generated_Source\PSoC5/cyfitter_cfg.c **** 	/* Disable interrupts by default. Let user enable if/when they want. */
 997:Generated_Source\PSoC5/cyfitter_cfg.c **** 	CYGlobalIntDisable
 2009              		.loc 1 997 0
 2010              		.syntax unified
 2011              	@ 997 "Generated_Source\PSoC5\cyfitter_cfg.c" 1
 2012 0004 72B6     		CPSID   i
 2013              	@ 0 "" 2
 998:Generated_Source\PSoC5/cyfitter_cfg.c **** #endif
 999:Generated_Source\PSoC5/cyfitter_cfg.c **** 
1000:Generated_Source\PSoC5/cyfitter_cfg.c **** 	/* Enable/Disable Debug functionality based on settings from System DWR */
ARM GAS  C:\Users\bryan.lee\AppData\Local\Temp\ccC85gGx.s 			page 54


1001:Generated_Source\PSoC5/cyfitter_cfg.c **** 	CY_SET_XTND_REG8((void CYFAR *)CYREG_MLOGIC_DEBUG, (CY_GET_XTND_REG8((void CYFAR *)CYREG_MLOGIC_DE
 2014              		.loc 1 1001 0
 2015              		.thumb
 2016              		.syntax unified
 2017 0006 304A     		ldr	r2, .L77
 2018 0008 2F4B     		ldr	r3, .L77
 2019 000a 1B78     		ldrb	r3, [r3]
 2020 000c DBB2     		uxtb	r3, r3
 2021 000e 43F00403 		orr	r3, r3, #4
 2022 0012 DBB2     		uxtb	r3, r3
 2023 0014 1370     		strb	r3, [r2]
1002:Generated_Source\PSoC5/cyfitter_cfg.c **** 
1003:Generated_Source\PSoC5/cyfitter_cfg.c **** 	{
1004:Generated_Source\PSoC5/cyfitter_cfg.c **** 		cfg_dma_init();
 2024              		.loc 1 1004 0
 2025 0016 FFF7FEFF 		bl	cfg_dma_init
1005:Generated_Source\PSoC5/cyfitter_cfg.c **** 
1006:Generated_Source\PSoC5/cyfitter_cfg.c **** 		/* Enable digital routing */
1007:Generated_Source\PSoC5/cyfitter_cfg.c **** 		CY_SET_XTND_REG8((void CYFAR *)CYREG_BCTL0_BANK_CTL, CY_GET_XTND_REG8((void CYFAR *)CYREG_BCTL0_B
 2026              		.loc 1 1007 0
 2027 001a 2C4A     		ldr	r2, .L77+4
 2028 001c 2B4B     		ldr	r3, .L77+4
 2029 001e 1B78     		ldrb	r3, [r3]
 2030 0020 DBB2     		uxtb	r3, r3
 2031 0022 43F00203 		orr	r3, r3, #2
 2032 0026 DBB2     		uxtb	r3, r3
 2033 0028 1370     		strb	r3, [r2]
1008:Generated_Source\PSoC5/cyfitter_cfg.c **** 		CY_SET_XTND_REG8((void CYFAR *)CYREG_BCTL1_BANK_CTL, CY_GET_XTND_REG8((void CYFAR *)CYREG_BCTL1_B
 2034              		.loc 1 1008 0
 2035 002a 294A     		ldr	r2, .L77+8
 2036 002c 284B     		ldr	r3, .L77+8
 2037 002e 1B78     		ldrb	r3, [r3]
 2038 0030 DBB2     		uxtb	r3, r3
 2039 0032 43F00203 		orr	r3, r3, #2
 2040 0036 DBB2     		uxtb	r3, r3
 2041 0038 1370     		strb	r3, [r2]
1009:Generated_Source\PSoC5/cyfitter_cfg.c **** 
1010:Generated_Source\PSoC5/cyfitter_cfg.c **** 		/* Enable UDB array */
1011:Generated_Source\PSoC5/cyfitter_cfg.c **** 		CY_SET_XTND_REG8((void CYFAR *)CYREG_PM_ACT_CFG0, CY_GET_XTND_REG8((void CYFAR *)CYREG_PM_ACT_CFG
 2042              		.loc 1 1011 0
 2043 003a 264A     		ldr	r2, .L77+12
 2044 003c 254B     		ldr	r3, .L77+12
 2045 003e 1B78     		ldrb	r3, [r3]
 2046 0040 DBB2     		uxtb	r3, r3
 2047 0042 43F04003 		orr	r3, r3, #64
 2048 0046 DBB2     		uxtb	r3, r3
 2049 0048 1370     		strb	r3, [r2]
1012:Generated_Source\PSoC5/cyfitter_cfg.c **** 		CY_SET_XTND_REG8((void CYFAR *)CYREG_PM_AVAIL_CR2, CY_GET_XTND_REG8((void CYFAR *)CYREG_PM_AVAIL_
 2050              		.loc 1 1012 0
 2051 004a 234A     		ldr	r2, .L77+16
 2052 004c 224B     		ldr	r3, .L77+16
 2053 004e 1B78     		ldrb	r3, [r3]
 2054 0050 DBB2     		uxtb	r3, r3
 2055 0052 43F01003 		orr	r3, r3, #16
 2056 0056 DBB2     		uxtb	r3, r3
 2057 0058 1370     		strb	r3, [r2]
1013:Generated_Source\PSoC5/cyfitter_cfg.c **** 	}
ARM GAS  C:\Users\bryan.lee\AppData\Local\Temp\ccC85gGx.s 			page 55


1014:Generated_Source\PSoC5/cyfitter_cfg.c **** 
1015:Generated_Source\PSoC5/cyfitter_cfg.c **** 
1016:Generated_Source\PSoC5/cyfitter_cfg.c **** 	/* Perform second pass device configuration. These items must be configured in specific order afte
1017:Generated_Source\PSoC5/cyfitter_cfg.c **** 	CYCONFIGCPY((void CYFAR *)(CYREG_PRT0_DM0), (const void CYFAR *)(BS_IOPINS0_0_VAL), 8u);
 2058              		.loc 1 1017 0
 2059 005a 0822     		movs	r2, #8
 2060 005c 1F49     		ldr	r1, .L77+20
 2061 005e 2048     		ldr	r0, .L77+24
 2062 0060 FFF7FEFF 		bl	CYCONFIGCPY
1018:Generated_Source\PSoC5/cyfitter_cfg.c **** 	CYCONFIGCPY((void CYFAR *)(CYREG_PRT15_DR), (const void CYFAR *)(BS_IOPINS0_8_VAL), 10u);
 2063              		.loc 1 1018 0
 2064 0064 0A22     		movs	r2, #10
 2065 0066 1F49     		ldr	r1, .L77+28
 2066 0068 1F48     		ldr	r0, .L77+32
 2067 006a FFF7FEFF 		bl	CYCONFIGCPY
1019:Generated_Source\PSoC5/cyfitter_cfg.c **** 	CYCONFIGCPY((void CYFAR *)(CYREG_PRT1_DM0), (const void CYFAR *)(BS_IOPINS0_1_VAL), 8u);
 2068              		.loc 1 1019 0
 2069 006e 0822     		movs	r2, #8
 2070 0070 1E49     		ldr	r1, .L77+36
 2071 0072 1F48     		ldr	r0, .L77+40
 2072 0074 FFF7FEFF 		bl	CYCONFIGCPY
1020:Generated_Source\PSoC5/cyfitter_cfg.c **** 	CYCONFIGCPY((void CYFAR *)(CYREG_PRT2_DM0), (const void CYFAR *)(BS_IOPINS0_2_VAL), 8u);
 2073              		.loc 1 1020 0
 2074 0078 0822     		movs	r2, #8
 2075 007a 1E49     		ldr	r1, .L77+44
 2076 007c 1E48     		ldr	r0, .L77+48
 2077 007e FFF7FEFF 		bl	CYCONFIGCPY
1021:Generated_Source\PSoC5/cyfitter_cfg.c **** 	CYCONFIGCPY((void CYFAR *)(CYREG_PRT3_DM0), (const void CYFAR *)(BS_IOPINS0_3_VAL), 8u);
 2078              		.loc 1 1021 0
 2079 0082 0822     		movs	r2, #8
 2080 0084 1D49     		ldr	r1, .L77+52
 2081 0086 1E48     		ldr	r0, .L77+56
 2082 0088 FFF7FEFF 		bl	CYCONFIGCPY
1022:Generated_Source\PSoC5/cyfitter_cfg.c **** 	CYCONFIGCPY((void CYFAR *)(CYREG_PRT5_DM0), (const void CYFAR *)(BS_IOPINS0_5_VAL), 8u);
 2083              		.loc 1 1022 0
 2084 008c 0822     		movs	r2, #8
 2085 008e 1D49     		ldr	r1, .L77+60
 2086 0090 1D48     		ldr	r0, .L77+64
 2087 0092 FFF7FEFF 		bl	CYCONFIGCPY
1023:Generated_Source\PSoC5/cyfitter_cfg.c **** 	/* Switch Boost to the precision bandgap reference from its internal reference */
1024:Generated_Source\PSoC5/cyfitter_cfg.c **** 	CY_SET_REG8((void CYXDATA *)CYREG_BOOST_CR2, (CY_GET_REG8((void CYXDATA *)CYREG_BOOST_CR2) | 0x08u
 2088              		.loc 1 1024 0
 2089 0096 1D4A     		ldr	r2, .L77+68
 2090 0098 1C4B     		ldr	r3, .L77+68
 2091 009a 1B78     		ldrb	r3, [r3]
 2092 009c DBB2     		uxtb	r3, r3
 2093 009e 43F00803 		orr	r3, r3, #8
 2094 00a2 DBB2     		uxtb	r3, r3
 2095 00a4 1370     		strb	r3, [r2]
1025:Generated_Source\PSoC5/cyfitter_cfg.c **** 
1026:Generated_Source\PSoC5/cyfitter_cfg.c **** 	/* Set Flash Cycles based on max possible frequency in case a glitch occurs during ClockSetup(). *
1027:Generated_Source\PSoC5/cyfitter_cfg.c **** 	CY_SET_XTND_REG8((void CYFAR *)(CYREG_CACHE_CC_CTL), (((CYDEV_INSTRUCT_CACHE_ENABLED) != 0) ? 0x61
 2096              		.loc 1 1027 0
 2097 00a6 1A4B     		ldr	r3, .L77+72
 2098 00a8 6122     		movs	r2, #97
 2099 00aa 1A70     		strb	r2, [r3]
1028:Generated_Source\PSoC5/cyfitter_cfg.c **** 	/* Setup clocks based on selections from Clock DWR */
ARM GAS  C:\Users\bryan.lee\AppData\Local\Temp\ccC85gGx.s 			page 56


1029:Generated_Source\PSoC5/cyfitter_cfg.c **** 	ClockSetup();
 2100              		.loc 1 1029 0
 2101 00ac FFF7FEFF 		bl	ClockSetup
1030:Generated_Source\PSoC5/cyfitter_cfg.c **** 	/* Set Flash Cycles based on newly configured 33.00MHz Bus Clock. */
1031:Generated_Source\PSoC5/cyfitter_cfg.c **** 	CY_SET_XTND_REG8((void CYFAR *)(CYREG_CACHE_CC_CTL), (((CYDEV_INSTRUCT_CACHE_ENABLED) != 0) ? 0x81
 2102              		.loc 1 1031 0
 2103 00b0 174B     		ldr	r3, .L77+72
 2104 00b2 8122     		movs	r2, #129
 2105 00b4 1A70     		strb	r2, [r3]
1032:Generated_Source\PSoC5/cyfitter_cfg.c **** 
1033:Generated_Source\PSoC5/cyfitter_cfg.c **** 	/* Perform basic analog initialization to defaults */
1034:Generated_Source\PSoC5/cyfitter_cfg.c **** 	AnalogSetDefault();
 2106              		.loc 1 1034 0
 2107 00b6 FFF7FEFF 		bl	AnalogSetDefault
1035:Generated_Source\PSoC5/cyfitter_cfg.c **** 
1036:Generated_Source\PSoC5/cyfitter_cfg.c **** 	/* Configure alternate active mode */
1037:Generated_Source\PSoC5/cyfitter_cfg.c **** 	CYCONFIGCPY((void CYFAR *)CYDEV_PM_STBY_BASE, (const void CYFAR *)CYDEV_PM_ACT_BASE, 14u);
 2108              		.loc 1 1037 0
 2109 00ba 0E22     		movs	r2, #14
 2110 00bc 0549     		ldr	r1, .L77+12
 2111 00be 1548     		ldr	r0, .L77+76
 2112 00c0 FFF7FEFF 		bl	CYCONFIGCPY
1038:Generated_Source\PSoC5/cyfitter_cfg.c **** }
 2113              		.loc 1 1038 0
 2114 00c4 00BF     		nop
 2115 00c6 80BD     		pop	{r7, pc}
 2116              	.L78:
 2117              		.align	2
 2118              	.L77:
 2119 00c8 E8460040 		.word	1073759976
 2120 00cc 03500140 		.word	1073827843
 2121 00d0 13500140 		.word	1073827859
 2122 00d4 A0430040 		.word	1073759136
 2123 00d8 C2430040 		.word	1073759170
 2124 00dc 580F0048 		.word	1207963480
 2125 00e0 02510040 		.word	1073762562
 2126 00e4 600F0048 		.word	1207963488
 2127 00e8 F0510040 		.word	1073762800
 2128 00ec 6C0F0048 		.word	1207963500
 2129 00f0 12510040 		.word	1073762578
 2130 00f4 740F0048 		.word	1207963508
 2131 00f8 22510040 		.word	1073762594
 2132 00fc 7C0F0048 		.word	1207963516
 2133 0100 32510040 		.word	1073762610
 2134 0104 840F0048 		.word	1207963524
 2135 0108 52510040 		.word	1073762642
 2136 010c 22430040 		.word	1073759010
 2137 0110 00480040 		.word	1073760256
 2138 0114 B0430040 		.word	1073759152
 2139              		.cfi_endproc
 2140              	.LFE16:
 2141              		.size	cyfitter_cfg, .-cyfitter_cfg
 2142              		.bss
 2143              		.align	3
 2144              	DMA_ZERO_VAL.5005:
 2145 0000 00000000 		.space	4
 2146              		.section	.rodata
ARM GAS  C:\Users\bryan.lee\AppData\Local\Temp\ccC85gGx.s 			page 57


 2147              		.align	2
 2148              		.type	CFG_TD_ADDR0.5007, %object
 2149              		.size	CFG_TD_ADDR0.5007, 248
 2150              	CFG_TD_ADDR0.5007:
 2151 00a0 00000000 		.word	CH1_ADDR_DATA0.5000
 2152 00a4 08000000 		.word	CH2_ADDR_DATA0.5001
 2153 00a8 10000000 		.word	CH5_ADDR_DATA0.5002
 2154 00ac 18000000 		.word	CH6_ADDR_DATA0.5003
 2155 00b0 20000000 		.word	DMA_TD_START_CMD.5004
 2156 00b4 20000000 		.word	DMA_TD_START_CMD.5004
 2157 00b8 20000000 		.word	DMA_TD_START_CMD.5004
 2158 00bc 20000000 		.word	DMA_TD_START_CMD.5004
 2159 00c0 00000000 		.word	DMA_ZERO_VAL.5005
 2160 00c4 00000000 		.word	DMA_ZERO_VAL.5005
 2161 00c8 00000000 		.word	DMA_ZERO_VAL.5005
 2162 00cc 00000000 		.word	DMA_ZERO_VAL.5005
 2163 00d0 00000000 		.word	DMA_ZERO_VAL.5005
 2164 00d4 00000000 		.word	DMA_ZERO_VAL.5005
 2165 00d8 00000000 		.word	DMA_ZERO_VAL.5005
 2166 00dc 00000000 		.word	DMA_ZERO_VAL.5005
 2167 00e0 00000000 		.word	DMA_ZERO_VAL.5005
 2168 00e4 00000000 		.word	DMA_ZERO_VAL.5005
 2169 00e8 00000000 		.word	DMA_ZERO_VAL.5005
 2170 00ec 00000000 		.word	DMA_ZERO_VAL.5005
 2171 00f0 00000000 		.word	DMA_ZERO_VAL.5005
 2172 00f4 00000000 		.word	DMA_ZERO_VAL.5005
 2173 00f8 00000000 		.word	DMA_ZERO_VAL.5005
 2174 00fc 00000000 		.word	DMA_ZERO_VAL.5005
 2175 0100 00000000 		.word	DMA_ZERO_VAL.5005
 2176 0104 00000048 		.word	1207959552
 2177 0108 08000048 		.word	1207959560
 2178 010c 10000048 		.word	1207959568
 2179 0110 20000048 		.word	1207959584
 2180 0114 28020048 		.word	1207960104
 2181 0118 18000048 		.word	1207959576
 2182 011c 28000048 		.word	1207959592
 2183 0120 A8000048 		.word	1207959720
 2184 0124 28010048 		.word	1207959848
 2185 0128 A8010048 		.word	1207959976
 2186 012c 48020048 		.word	1207960136
 2187 0130 58020048 		.word	1207960152
 2188 0134 D8020048 		.word	1207960280
 2189 0138 58030048 		.word	1207960408
 2190 013c D8030048 		.word	1207960536
 2191 0140 58040048 		.word	1207960664
 2192 0144 D8040048 		.word	1207960792
 2193 0148 58050048 		.word	1207960920
 2194 014c D8050048 		.word	1207961048
 2195 0150 58060048 		.word	1207961176
 2196 0154 D8060048 		.word	1207961304
 2197 0158 58070048 		.word	1207961432
 2198 015c D8070048 		.word	1207961560
 2199 0160 58080048 		.word	1207961688
 2200 0164 D8080048 		.word	1207961816
 2201 0168 58090048 		.word	1207961944
 2202 016c D8090048 		.word	1207962072
 2203 0170 580A0048 		.word	1207962200
ARM GAS  C:\Users\bryan.lee\AppData\Local\Temp\ccC85gGx.s 			page 58


 2204 0174 D80A0048 		.word	1207962328
 2205 0178 580B0048 		.word	1207962456
 2206 017c D80B0048 		.word	1207962584
 2207 0180 580C0048 		.word	1207962712
 2208 0184 D80C0048 		.word	1207962840
 2209 0188 580D0048 		.word	1207962968
 2210 018c D80D0048 		.word	1207963096
 2211 0190 580E0048 		.word	1207963224
 2212 0194 D80E0048 		.word	1207963352
 2213              		.text
 2214              	.Letext0:
 2215              		.file 2 "c:\\program files (x86)\\cypress\\psoc creator\\4.3\\psoc creator\\import\\gnu\\arm\\5.4.
 2216              		.file 3 "Generated_Source\\PSoC5\\cytypes.h"
 2217              		.section	.debug_info,"",%progbits
 2218              	.Ldebug_info0:
 2219 0000 EB050000 		.4byte	0x5eb
 2220 0004 0400     		.2byte	0x4
 2221 0006 00000000 		.4byte	.Ldebug_abbrev0
 2222 000a 04       		.byte	0x4
 2223 000b 01       		.uleb128 0x1
 2224 000c 60000000 		.4byte	.LASF63
 2225 0010 0C       		.byte	0xc
 2226 0011 96040000 		.4byte	.LASF64
 2227 0015 CE020000 		.4byte	.LASF65
 2228 0019 00000000 		.4byte	.Ldebug_ranges0+0
 2229 001d 00000000 		.4byte	0
 2230 0021 00000000 		.4byte	.Ldebug_line0
 2231 0025 02       		.uleb128 0x2
 2232 0026 04       		.byte	0x4
 2233 0027 05       		.byte	0x5
 2234 0028 696E7400 		.ascii	"int\000"
 2235 002c 03       		.uleb128 0x3
 2236 002d 26000000 		.4byte	.LASF12
 2237 0031 02       		.byte	0x2
 2238 0032 D8       		.byte	0xd8
 2239 0033 37000000 		.4byte	0x37
 2240 0037 04       		.uleb128 0x4
 2241 0038 04       		.byte	0x4
 2242 0039 07       		.byte	0x7
 2243 003a 28020000 		.4byte	.LASF0
 2244 003e 04       		.uleb128 0x4
 2245 003f 08       		.byte	0x8
 2246 0040 05       		.byte	0x5
 2247 0041 3D010000 		.4byte	.LASF1
 2248 0045 04       		.uleb128 0x4
 2249 0046 08       		.byte	0x8
 2250 0047 04       		.byte	0x4
 2251 0048 36030000 		.4byte	.LASF2
 2252 004c 04       		.uleb128 0x4
 2253 004d 01       		.byte	0x1
 2254 004e 06       		.byte	0x6
 2255 004f 4B010000 		.4byte	.LASF3
 2256 0053 04       		.uleb128 0x4
 2257 0054 01       		.byte	0x1
 2258 0055 08       		.byte	0x8
 2259 0056 BC030000 		.4byte	.LASF4
 2260 005a 04       		.uleb128 0x4
ARM GAS  C:\Users\bryan.lee\AppData\Local\Temp\ccC85gGx.s 			page 59


 2261 005b 02       		.byte	0x2
 2262 005c 05       		.byte	0x5
 2263 005d CF030000 		.4byte	.LASF5
 2264 0061 04       		.uleb128 0x4
 2265 0062 02       		.byte	0x2
 2266 0063 07       		.byte	0x7
 2267 0064 9C020000 		.4byte	.LASF6
 2268 0068 04       		.uleb128 0x4
 2269 0069 04       		.byte	0x4
 2270 006a 05       		.byte	0x5
 2271 006b 9B010000 		.4byte	.LASF7
 2272 006f 04       		.uleb128 0x4
 2273 0070 04       		.byte	0x4
 2274 0071 07       		.byte	0x7
 2275 0072 6C020000 		.4byte	.LASF8
 2276 0076 04       		.uleb128 0x4
 2277 0077 08       		.byte	0x8
 2278 0078 07       		.byte	0x7
 2279 0079 EE000000 		.4byte	.LASF9
 2280 007d 04       		.uleb128 0x4
 2281 007e 04       		.byte	0x4
 2282 007f 07       		.byte	0x7
 2283 0080 2D030000 		.4byte	.LASF10
 2284 0084 05       		.uleb128 0x5
 2285 0085 04       		.byte	0x4
 2286 0086 04       		.uleb128 0x4
 2287 0087 01       		.byte	0x1
 2288 0088 08       		.byte	0x8
 2289 0089 26040000 		.4byte	.LASF11
 2290 008d 06       		.uleb128 0x6
 2291 008e B9010000 		.4byte	.LASF13
 2292 0092 03       		.byte	0x3
 2293 0093 E401     		.2byte	0x1e4
 2294 0095 53000000 		.4byte	0x53
 2295 0099 06       		.uleb128 0x6
 2296 009a 1F000000 		.4byte	.LASF14
 2297 009e 03       		.byte	0x3
 2298 009f E501     		.2byte	0x1e5
 2299 00a1 61000000 		.4byte	0x61
 2300 00a5 06       		.uleb128 0x6
 2301 00a6 DF010000 		.4byte	.LASF15
 2302 00aa 03       		.byte	0x3
 2303 00ab E601     		.2byte	0x1e6
 2304 00ad 6F000000 		.4byte	0x6f
 2305 00b1 04       		.uleb128 0x4
 2306 00b2 04       		.byte	0x4
 2307 00b3 04       		.byte	0x4
 2308 00b4 59030000 		.4byte	.LASF16
 2309 00b8 04       		.uleb128 0x4
 2310 00b9 08       		.byte	0x8
 2311 00ba 04       		.byte	0x4
 2312 00bb CB010000 		.4byte	.LASF17
 2313 00bf 06       		.uleb128 0x6
 2314 00c0 98030000 		.4byte	.LASF18
 2315 00c4 03       		.byte	0x3
 2316 00c5 8E02     		.2byte	0x28e
 2317 00c7 CB000000 		.4byte	0xcb
ARM GAS  C:\Users\bryan.lee\AppData\Local\Temp\ccC85gGx.s 			page 60


 2318 00cb 07       		.uleb128 0x7
 2319 00cc 8D000000 		.4byte	0x8d
 2320 00d0 06       		.uleb128 0x6
 2321 00d1 B3010000 		.4byte	.LASF19
 2322 00d5 03       		.byte	0x3
 2323 00d6 8F02     		.2byte	0x28f
 2324 00d8 DC000000 		.4byte	0xdc
 2325 00dc 07       		.uleb128 0x7
 2326 00dd 99000000 		.4byte	0x99
 2327 00e1 08       		.uleb128 0x8
 2328 00e2 57010000 		.4byte	.LASF20
 2329 00e6 01       		.byte	0x1
 2330 00e7 64       		.byte	0x64
 2331 00e8 00000000 		.4byte	.LFB0
 2332 00ec 1C000000 		.4byte	.LFE0-.LFB0
 2333 00f0 01       		.uleb128 0x1
 2334 00f1 9C       		.byte	0x9c
 2335 00f2 0F010000 		.4byte	0x10f
 2336 00f6 09       		.uleb128 0x9
 2337 00f7 7300     		.ascii	"s\000"
 2338 00f9 01       		.byte	0x1
 2339 00fa 64       		.byte	0x64
 2340 00fb 84000000 		.4byte	0x84
 2341 00ff 02       		.uleb128 0x2
 2342 0100 91       		.byte	0x91
 2343 0101 74       		.sleb128 -12
 2344 0102 09       		.uleb128 0x9
 2345 0103 6E00     		.ascii	"n\000"
 2346 0105 01       		.byte	0x1
 2347 0106 64       		.byte	0x64
 2348 0107 2C000000 		.4byte	0x2c
 2349 010b 02       		.uleb128 0x2
 2350 010c 91       		.byte	0x91
 2351 010d 70       		.sleb128 -16
 2352 010e 00       		.byte	0
 2353 010f 08       		.uleb128 0x8
 2354 0110 8A040000 		.4byte	.LASF21
 2355 0114 01       		.byte	0x1
 2356 0115 6B       		.byte	0x6b
 2357 0116 00000000 		.4byte	.LFB1
 2358 011a 1E000000 		.4byte	.LFE1-.LFB1
 2359 011e 01       		.uleb128 0x1
 2360 011f 9C       		.byte	0x9c
 2361 0120 4D010000 		.4byte	0x14d
 2362 0124 0A       		.uleb128 0xa
 2363 0125 54030000 		.4byte	.LASF22
 2364 0129 01       		.byte	0x1
 2365 012a 6B       		.byte	0x6b
 2366 012b 84000000 		.4byte	0x84
 2367 012f 02       		.uleb128 0x2
 2368 0130 91       		.byte	0x91
 2369 0131 74       		.sleb128 -12
 2370 0132 09       		.uleb128 0x9
 2371 0133 73726300 		.ascii	"src\000"
 2372 0137 01       		.byte	0x1
 2373 0138 6B       		.byte	0x6b
 2374 0139 4D010000 		.4byte	0x14d
ARM GAS  C:\Users\bryan.lee\AppData\Local\Temp\ccC85gGx.s 			page 61


 2375 013d 02       		.uleb128 0x2
 2376 013e 91       		.byte	0x91
 2377 013f 70       		.sleb128 -16
 2378 0140 09       		.uleb128 0x9
 2379 0141 6E00     		.ascii	"n\000"
 2380 0143 01       		.byte	0x1
 2381 0144 6B       		.byte	0x6b
 2382 0145 2C000000 		.4byte	0x2c
 2383 0149 02       		.uleb128 0x2
 2384 014a 91       		.byte	0x91
 2385 014b 6C       		.sleb128 -20
 2386 014c 00       		.byte	0
 2387 014d 0B       		.uleb128 0xb
 2388 014e 04       		.byte	0x4
 2389 014f 53010000 		.4byte	0x153
 2390 0153 0C       		.uleb128 0xc
 2391 0154 08       		.uleb128 0x8
 2392 0155 1D030000 		.4byte	.LASF23
 2393 0159 01       		.byte	0x1
 2394 015a 72       		.byte	0x72
 2395 015b 00000000 		.4byte	.LFB2
 2396 015f 1E000000 		.4byte	.LFE2-.LFB2
 2397 0163 01       		.uleb128 0x1
 2398 0164 9C       		.byte	0x9c
 2399 0165 92010000 		.4byte	0x192
 2400 0169 0A       		.uleb128 0xa
 2401 016a 54030000 		.4byte	.LASF22
 2402 016e 01       		.byte	0x1
 2403 016f 72       		.byte	0x72
 2404 0170 84000000 		.4byte	0x84
 2405 0174 02       		.uleb128 0x2
 2406 0175 91       		.byte	0x91
 2407 0176 74       		.sleb128 -12
 2408 0177 09       		.uleb128 0x9
 2409 0178 73726300 		.ascii	"src\000"
 2410 017c 01       		.byte	0x1
 2411 017d 72       		.byte	0x72
 2412 017e 4D010000 		.4byte	0x14d
 2413 0182 02       		.uleb128 0x2
 2414 0183 91       		.byte	0x91
 2415 0184 70       		.sleb128 -16
 2416 0185 09       		.uleb128 0x9
 2417 0186 6E00     		.ascii	"n\000"
 2418 0188 01       		.byte	0x1
 2419 0189 72       		.byte	0x72
 2420 018a 2C000000 		.4byte	0x2c
 2421 018e 02       		.uleb128 0x2
 2422 018f 91       		.byte	0x91
 2423 0190 6C       		.sleb128 -20
 2424 0191 00       		.byte	0
 2425 0192 0D       		.uleb128 0xd
 2426 0193 2D000000 		.4byte	.LASF24
 2427 0197 01       		.byte	0x1
 2428 0198 96       		.byte	0x96
 2429 0199 00000000 		.4byte	.LFB3
 2430 019d 0C000000 		.4byte	.LFE3-.LFB3
 2431 01a1 01       		.uleb128 0x1
ARM GAS  C:\Users\bryan.lee\AppData\Local\Temp\ccC85gGx.s 			page 62


 2432 01a2 9C       		.byte	0x9c
 2433 01a3 B6010000 		.4byte	0x1b6
 2434 01a7 0A       		.uleb128 0xa
 2435 01a8 91010000 		.4byte	.LASF25
 2436 01ac 01       		.byte	0x1
 2437 01ad 96       		.byte	0x96
 2438 01ae 8D000000 		.4byte	0x8d
 2439 01b2 02       		.uleb128 0x2
 2440 01b3 91       		.byte	0x91
 2441 01b4 77       		.sleb128 -9
 2442 01b5 00       		.byte	0
 2443 01b6 0E       		.uleb128 0xe
 2444 01b7 05010000 		.4byte	.LASF26
 2445 01bb 01       		.byte	0x1
 2446 01bc 4301     		.2byte	0x143
 2447 01be 00000000 		.4byte	.LFB4
 2448 01c2 74010000 		.4byte	.LFE4-.LFB4
 2449 01c6 01       		.uleb128 0x1
 2450 01c7 9C       		.byte	0x9c
 2451 01c8 BE020000 		.4byte	0x2be
 2452 01cc 0F       		.uleb128 0xf
 2453 01cd CA030000 		.4byte	.LASF66
 2454 01d1 08       		.byte	0x8
 2455 01d2 01       		.byte	0x1
 2456 01d3 4601     		.2byte	0x146
 2457 01d5 1B020000 		.4byte	0x21b
 2458 01d9 10       		.uleb128 0x10
 2459 01da 97020000 		.4byte	.LASF27
 2460 01de 01       		.byte	0x1
 2461 01df 4701     		.2byte	0x147
 2462 01e1 99000000 		.4byte	0x99
 2463 01e5 00       		.byte	0
 2464 01e6 10       		.uleb128 0x10
 2465 01e7 BF010000 		.4byte	.LASF28
 2466 01eb 01       		.byte	0x1
 2467 01ec 4801     		.2byte	0x148
 2468 01ee 8D000000 		.4byte	0x8d
 2469 01f2 02       		.byte	0x2
 2470 01f3 10       		.uleb128 0x10
 2471 01f4 BC040000 		.4byte	.LASF29
 2472 01f8 01       		.byte	0x1
 2473 01f9 4901     		.2byte	0x149
 2474 01fb 8D000000 		.4byte	0x8d
 2475 01ff 03       		.byte	0x3
 2476 0200 11       		.uleb128 0x11
 2477 0201 73726300 		.ascii	"src\000"
 2478 0205 01       		.byte	0x1
 2479 0206 4A01     		.2byte	0x14a
 2480 0208 99000000 		.4byte	0x99
 2481 020c 04       		.byte	0x4
 2482 020d 10       		.uleb128 0x10
 2483 020e 54030000 		.4byte	.LASF22
 2484 0212 01       		.byte	0x1
 2485 0213 4B01     		.2byte	0x14b
 2486 0215 99000000 		.4byte	0x99
 2487 0219 06       		.byte	0x6
 2488 021a 00       		.byte	0
ARM GAS  C:\Users\bryan.lee\AppData\Local\Temp\ccC85gGx.s 			page 63


 2489 021b 12       		.uleb128 0x12
 2490 021c D9030000 		.4byte	.LASF30
 2491 0220 01       		.byte	0x1
 2492 0221 4F01     		.2byte	0x14f
 2493 0223 D3020000 		.4byte	0x2d3
 2494 0227 05       		.uleb128 0x5
 2495 0228 03       		.byte	0x3
 2496 0229 00000000 		.4byte	CH1_ADDR_DATA0.5000
 2497 022d 12       		.uleb128 0x12
 2498 022e 17040000 		.4byte	.LASF31
 2499 0232 01       		.byte	0x1
 2500 0233 5201     		.2byte	0x152
 2501 0235 D8020000 		.4byte	0x2d8
 2502 0239 05       		.uleb128 0x5
 2503 023a 03       		.byte	0x3
 2504 023b 08000000 		.4byte	CH2_ADDR_DATA0.5001
 2505 023f 12       		.uleb128 0x12
 2506 0240 7B040000 		.4byte	.LASF32
 2507 0244 01       		.byte	0x1
 2508 0245 5501     		.2byte	0x155
 2509 0247 DD020000 		.4byte	0x2dd
 2510 024b 05       		.uleb128 0x5
 2511 024c 03       		.byte	0x3
 2512 024d 10000000 		.4byte	CH5_ADDR_DATA0.5002
 2513 0251 12       		.uleb128 0x12
 2514 0252 A4010000 		.4byte	.LASF33
 2515 0256 01       		.byte	0x1
 2516 0257 5801     		.2byte	0x158
 2517 0259 E2020000 		.4byte	0x2e2
 2518 025d 05       		.uleb128 0x5
 2519 025e 03       		.byte	0x3
 2520 025f 18000000 		.4byte	CH6_ADDR_DATA0.5003
 2521 0263 12       		.uleb128 0x12
 2522 0264 86020000 		.4byte	.LASF34
 2523 0268 01       		.byte	0x1
 2524 0269 5B01     		.2byte	0x15b
 2525 026b F7020000 		.4byte	0x2f7
 2526 026f 05       		.uleb128 0x5
 2527 0270 03       		.byte	0x3
 2528 0271 20000000 		.4byte	DMA_TD_START_CMD.5004
 2529 0275 12       		.uleb128 0x12
 2530 0276 C2040000 		.4byte	.LASF35
 2531 027a 01       		.byte	0x1
 2532 027b 5D01     		.2byte	0x15d
 2533 027d A5000000 		.4byte	0xa5
 2534 0281 05       		.uleb128 0x5
 2535 0282 03       		.byte	0x3
 2536 0283 00000000 		.4byte	DMA_ZERO_VAL.5005
 2537 0287 13       		.uleb128 0x13
 2538 0288 CC010000 		.4byte	0x1cc
 2539 028c 12       		.uleb128 0x12
 2540 028d 61010000 		.4byte	.LASF36
 2541 0291 01       		.byte	0x1
 2542 0292 6501     		.2byte	0x165
 2543 0294 0C030000 		.4byte	0x30c
 2544 0298 05       		.uleb128 0x5
 2545 0299 03       		.byte	0x3
ARM GAS  C:\Users\bryan.lee\AppData\Local\Temp\ccC85gGx.s 			page 64


 2546 029a 28000000 		.4byte	CFG_TD_LIST0.5006
 2547 029e 12       		.uleb128 0x12
 2548 029f D2010000 		.4byte	.LASF37
 2549 02a3 01       		.byte	0x1
 2550 02a4 AC01     		.2byte	0x1ac
 2551 02a6 26030000 		.4byte	0x326
 2552 02aa 05       		.uleb128 0x5
 2553 02ab 03       		.byte	0x3
 2554 02ac A0000000 		.4byte	CFG_TD_ADDR0.5007
 2555 02b0 14       		.uleb128 0x14
 2556 02b1 6900     		.ascii	"i\000"
 2557 02b3 01       		.byte	0x1
 2558 02b4 EE01     		.2byte	0x1ee
 2559 02b6 A5000000 		.4byte	0xa5
 2560 02ba 02       		.uleb128 0x2
 2561 02bb 91       		.byte	0x91
 2562 02bc 74       		.sleb128 -12
 2563 02bd 00       		.byte	0
 2564 02be 15       		.uleb128 0x15
 2565 02bf CE020000 		.4byte	0x2ce
 2566 02c3 CE020000 		.4byte	0x2ce
 2567 02c7 16       		.uleb128 0x16
 2568 02c8 7D000000 		.4byte	0x7d
 2569 02cc 07       		.byte	0x7
 2570 02cd 00       		.byte	0
 2571 02ce 13       		.uleb128 0x13
 2572 02cf 8D000000 		.4byte	0x8d
 2573 02d3 13       		.uleb128 0x13
 2574 02d4 BE020000 		.4byte	0x2be
 2575 02d8 13       		.uleb128 0x13
 2576 02d9 BE020000 		.4byte	0x2be
 2577 02dd 13       		.uleb128 0x13
 2578 02de BE020000 		.4byte	0x2be
 2579 02e2 13       		.uleb128 0x13
 2580 02e3 BE020000 		.4byte	0x2be
 2581 02e7 15       		.uleb128 0x15
 2582 02e8 CE020000 		.4byte	0x2ce
 2583 02ec F7020000 		.4byte	0x2f7
 2584 02f0 16       		.uleb128 0x16
 2585 02f1 7D000000 		.4byte	0x7d
 2586 02f5 04       		.byte	0x4
 2587 02f6 00       		.byte	0
 2588 02f7 13       		.uleb128 0x13
 2589 02f8 E7020000 		.4byte	0x2e7
 2590 02fc 15       		.uleb128 0x15
 2591 02fd 87020000 		.4byte	0x287
 2592 0301 0C030000 		.4byte	0x30c
 2593 0305 16       		.uleb128 0x16
 2594 0306 7D000000 		.4byte	0x7d
 2595 030a 3D       		.byte	0x3d
 2596 030b 00       		.byte	0
 2597 030c 13       		.uleb128 0x13
 2598 030d FC020000 		.4byte	0x2fc
 2599 0311 15       		.uleb128 0x15
 2600 0312 21030000 		.4byte	0x321
 2601 0316 21030000 		.4byte	0x321
 2602 031a 16       		.uleb128 0x16
ARM GAS  C:\Users\bryan.lee\AppData\Local\Temp\ccC85gGx.s 			page 65


 2603 031b 7D000000 		.4byte	0x7d
 2604 031f 3D       		.byte	0x3d
 2605 0320 00       		.byte	0
 2606 0321 13       		.uleb128 0x13
 2607 0322 4D010000 		.4byte	0x14d
 2608 0326 13       		.uleb128 0x13
 2609 0327 11030000 		.4byte	0x311
 2610 032b 17       		.uleb128 0x17
 2611 032c 6E010000 		.4byte	.LASF38
 2612 0330 01       		.byte	0x1
 2613 0331 2B02     		.2byte	0x22b
 2614 0333 00000000 		.4byte	.LFB5
 2615 0337 8C010000 		.4byte	.LFE5-.LFB5
 2616 033b 01       		.uleb128 0x1
 2617 033c 9C       		.byte	0x9c
 2618 033d 60030000 		.4byte	0x360
 2619 0341 12       		.uleb128 0x12
 2620 0342 7E020000 		.4byte	.LASF39
 2621 0346 01       		.byte	0x1
 2622 0347 2D02     		.2byte	0x22d
 2623 0349 A5000000 		.4byte	0xa5
 2624 034d 02       		.uleb128 0x2
 2625 034e 91       		.byte	0x91
 2626 034f 74       		.sleb128 -12
 2627 0350 12       		.uleb128 0x12
 2628 0351 07040000 		.4byte	.LASF40
 2629 0355 01       		.byte	0x1
 2630 0356 2E02     		.2byte	0x22e
 2631 0358 8D000000 		.4byte	0x8d
 2632 035c 02       		.uleb128 0x2
 2633 035d 91       		.byte	0x91
 2634 035e 73       		.sleb128 -13
 2635 035f 00       		.byte	0
 2636 0360 17       		.uleb128 0x17
 2637 0361 2C010000 		.4byte	.LASF41
 2638 0365 01       		.byte	0x1
 2639 0366 8302     		.2byte	0x283
 2640 0368 00000000 		.4byte	.LFB6
 2641 036c 00010000 		.4byte	.LFE6-.LFB6
 2642 0370 01       		.uleb128 0x1
 2643 0371 9C       		.byte	0x9c
 2644 0372 A4030000 		.4byte	0x3a4
 2645 0376 12       		.uleb128 0x12
 2646 0377 42030000 		.4byte	.LASF42
 2647 037b 01       		.byte	0x1
 2648 037c 8502     		.2byte	0x285
 2649 037e 8D000000 		.4byte	0x8d
 2650 0382 02       		.uleb128 0x2
 2651 0383 91       		.byte	0x91
 2652 0384 77       		.sleb128 -9
 2653 0385 14       		.uleb128 0x14
 2654 0386 63723400 		.ascii	"cr4\000"
 2655 038a 01       		.byte	0x1
 2656 038b 8602     		.2byte	0x286
 2657 038d 8D000000 		.4byte	0x8d
 2658 0391 02       		.uleb128 0x2
 2659 0392 91       		.byte	0x91
ARM GAS  C:\Users\bryan.lee\AppData\Local\Temp\ccC85gGx.s 			page 66


 2660 0393 76       		.sleb128 -10
 2661 0394 14       		.uleb128 0x14
 2662 0395 63723500 		.ascii	"cr5\000"
 2663 0399 01       		.byte	0x1
 2664 039a 8702     		.2byte	0x287
 2665 039c 8D000000 		.4byte	0x8d
 2666 03a0 02       		.uleb128 0x2
 2667 03a1 91       		.byte	0x91
 2668 03a2 75       		.sleb128 -11
 2669 03a3 00       		.byte	0
 2670 03a4 18       		.uleb128 0x18
 2671 03a5 45040000 		.4byte	.LASF45
 2672 03a9 01       		.byte	0x1
 2673 03aa B202     		.2byte	0x2b2
 2674 03ac 00000000 		.4byte	.LFB7
 2675 03b0 3C000000 		.4byte	.LFE7-.LFB7
 2676 03b4 01       		.uleb128 0x1
 2677 03b5 9C       		.byte	0x9c
 2678 03b6 D9030000 		.4byte	0x3d9
 2679 03ba 19       		.uleb128 0x19
 2680 03bb 73040000 		.4byte	.LASF43
 2681 03bf 01       		.byte	0x1
 2682 03c0 B202     		.2byte	0x2b2
 2683 03c2 8D000000 		.4byte	0x8d
 2684 03c6 02       		.uleb128 0x2
 2685 03c7 91       		.byte	0x91
 2686 03c8 6F       		.sleb128 -17
 2687 03c9 12       		.uleb128 0x12
 2688 03ca 05020000 		.4byte	.LASF44
 2689 03ce 01       		.byte	0x1
 2690 03cf B402     		.2byte	0x2b4
 2691 03d1 8D000000 		.4byte	0x8d
 2692 03d5 02       		.uleb128 0x2
 2693 03d6 91       		.byte	0x91
 2694 03d7 77       		.sleb128 -9
 2695 03d8 00       		.byte	0
 2696 03d9 18       		.uleb128 0x18
 2697 03da 79010000 		.4byte	.LASF46
 2698 03de 01       		.byte	0x1
 2699 03df E102     		.2byte	0x2e1
 2700 03e1 00000000 		.4byte	.LFB8
 2701 03e5 6C000000 		.4byte	.LFE8-.LFB8
 2702 03e9 01       		.uleb128 0x1
 2703 03ea 9C       		.byte	0x9c
 2704 03eb FF030000 		.4byte	0x3ff
 2705 03ef 19       		.uleb128 0x19
 2706 03f0 0F040000 		.4byte	.LASF47
 2707 03f4 01       		.byte	0x1
 2708 03f5 E102     		.2byte	0x2e1
 2709 03f7 8D000000 		.4byte	0x8d
 2710 03fb 02       		.uleb128 0x2
 2711 03fc 91       		.byte	0x91
 2712 03fd 77       		.sleb128 -9
 2713 03fe 00       		.byte	0
 2714 03ff 18       		.uleb128 0x18
 2715 0400 2B040000 		.4byte	.LASF48
 2716 0404 01       		.byte	0x1
ARM GAS  C:\Users\bryan.lee\AppData\Local\Temp\ccC85gGx.s 			page 67


 2717 0405 FA02     		.2byte	0x2fa
 2718 0407 00000000 		.4byte	.LFB9
 2719 040b 74000000 		.4byte	.LFE9-.LFB9
 2720 040f 01       		.uleb128 0x1
 2721 0410 9C       		.byte	0x9c
 2722 0411 25040000 		.4byte	0x425
 2723 0415 19       		.uleb128 0x19
 2724 0416 0F040000 		.4byte	.LASF47
 2725 041a 01       		.byte	0x1
 2726 041b FA02     		.2byte	0x2fa
 2727 041d 8D000000 		.4byte	0x8d
 2728 0421 02       		.uleb128 0x2
 2729 0422 91       		.byte	0x91
 2730 0423 77       		.sleb128 -9
 2731 0424 00       		.byte	0
 2732 0425 18       		.uleb128 0x18
 2733 0426 5B040000 		.4byte	.LASF49
 2734 042a 01       		.byte	0x1
 2735 042b 2403     		.2byte	0x324
 2736 042d 00000000 		.4byte	.LFB10
 2737 0431 6C000000 		.4byte	.LFE10-.LFB10
 2738 0435 01       		.uleb128 0x1
 2739 0436 9C       		.byte	0x9c
 2740 0437 4B040000 		.4byte	0x44b
 2741 043b 19       		.uleb128 0x19
 2742 043c 0F040000 		.4byte	.LASF47
 2743 0440 01       		.byte	0x1
 2744 0441 2403     		.2byte	0x324
 2745 0443 8D000000 		.4byte	0x8d
 2746 0447 02       		.uleb128 0x2
 2747 0448 91       		.byte	0x91
 2748 0449 77       		.sleb128 -9
 2749 044a 00       		.byte	0
 2750 044b 18       		.uleb128 0x18
 2751 044c 0E020000 		.4byte	.LASF50
 2752 0450 01       		.byte	0x1
 2753 0451 3D03     		.2byte	0x33d
 2754 0453 00000000 		.4byte	.LFB11
 2755 0457 74000000 		.4byte	.LFE11-.LFB11
 2756 045b 01       		.uleb128 0x1
 2757 045c 9C       		.byte	0x9c
 2758 045d 71040000 		.4byte	0x471
 2759 0461 19       		.uleb128 0x19
 2760 0462 0F040000 		.4byte	.LASF47
 2761 0466 01       		.byte	0x1
 2762 0467 3D03     		.2byte	0x33d
 2763 0469 8D000000 		.4byte	0x8d
 2764 046d 02       		.uleb128 0x2
 2765 046e 91       		.byte	0x91
 2766 046f 77       		.sleb128 -9
 2767 0470 00       		.byte	0
 2768 0471 18       		.uleb128 0x18
 2769 0472 54020000 		.4byte	.LASF51
 2770 0476 01       		.byte	0x1
 2771 0477 6703     		.2byte	0x367
 2772 0479 00000000 		.4byte	.LFB12
 2773 047d 6C000000 		.4byte	.LFE12-.LFB12
ARM GAS  C:\Users\bryan.lee\AppData\Local\Temp\ccC85gGx.s 			page 68


 2774 0481 01       		.uleb128 0x1
 2775 0482 9C       		.byte	0x9c
 2776 0483 97040000 		.4byte	0x497
 2777 0487 19       		.uleb128 0x19
 2778 0488 0F040000 		.4byte	.LASF47
 2779 048c 01       		.byte	0x1
 2780 048d 6703     		.2byte	0x367
 2781 048f 8D000000 		.4byte	0x8d
 2782 0493 02       		.uleb128 0x2
 2783 0494 91       		.byte	0x91
 2784 0495 77       		.sleb128 -9
 2785 0496 00       		.byte	0
 2786 0497 18       		.uleb128 0x18
 2787 0498 12010000 		.4byte	.LASF52
 2788 049c 01       		.byte	0x1
 2789 049d 8003     		.2byte	0x380
 2790 049f 00000000 		.4byte	.LFB13
 2791 04a3 74000000 		.4byte	.LFE13-.LFB13
 2792 04a7 01       		.uleb128 0x1
 2793 04a8 9C       		.byte	0x9c
 2794 04a9 BD040000 		.4byte	0x4bd
 2795 04ad 19       		.uleb128 0x19
 2796 04ae 0F040000 		.4byte	.LASF47
 2797 04b2 01       		.byte	0x1
 2798 04b3 8003     		.2byte	0x380
 2799 04b5 8D000000 		.4byte	0x8d
 2800 04b9 02       		.uleb128 0x2
 2801 04ba 91       		.byte	0x91
 2802 04bb 77       		.sleb128 -9
 2803 04bc 00       		.byte	0
 2804 04bd 18       		.uleb128 0x18
 2805 04be CF040000 		.4byte	.LASF53
 2806 04c2 01       		.byte	0x1
 2807 04c3 AA03     		.2byte	0x3aa
 2808 04c5 00000000 		.4byte	.LFB14
 2809 04c9 6C000000 		.4byte	.LFE14-.LFB14
 2810 04cd 01       		.uleb128 0x1
 2811 04ce 9C       		.byte	0x9c
 2812 04cf E3040000 		.4byte	0x4e3
 2813 04d3 19       		.uleb128 0x19
 2814 04d4 0F040000 		.4byte	.LASF47
 2815 04d8 01       		.byte	0x1
 2816 04d9 AA03     		.2byte	0x3aa
 2817 04db 8D000000 		.4byte	0x8d
 2818 04df 02       		.uleb128 0x2
 2819 04e0 91       		.byte	0x91
 2820 04e1 77       		.sleb128 -9
 2821 04e2 00       		.byte	0
 2822 04e3 18       		.uleb128 0x18
 2823 04e4 7E030000 		.4byte	.LASF54
 2824 04e8 01       		.byte	0x1
 2825 04e9 C303     		.2byte	0x3c3
 2826 04eb 00000000 		.4byte	.LFB15
 2827 04ef 74000000 		.4byte	.LFE15-.LFB15
 2828 04f3 01       		.uleb128 0x1
 2829 04f4 9C       		.byte	0x9c
 2830 04f5 09050000 		.4byte	0x509
ARM GAS  C:\Users\bryan.lee\AppData\Local\Temp\ccC85gGx.s 			page 69


 2831 04f9 19       		.uleb128 0x19
 2832 04fa 0F040000 		.4byte	.LASF47
 2833 04fe 01       		.byte	0x1
 2834 04ff C303     		.2byte	0x3c3
 2835 0501 8D000000 		.4byte	0x8d
 2836 0505 02       		.uleb128 0x2
 2837 0506 91       		.byte	0x91
 2838 0507 77       		.sleb128 -9
 2839 0508 00       		.byte	0
 2840 0509 1A       		.uleb128 0x1a
 2841 050a E7040000 		.4byte	.LASF67
 2842 050e 01       		.byte	0x1
 2843 050f E103     		.2byte	0x3e1
 2844 0511 00000000 		.4byte	.LFB16
 2845 0515 18010000 		.4byte	.LFE16-.LFB16
 2846 0519 01       		.uleb128 0x1
 2847 051a 9C       		.byte	0x9c
 2848 051b 15       		.uleb128 0x15
 2849 051c 31050000 		.4byte	0x531
 2850 0520 2B050000 		.4byte	0x52b
 2851 0524 16       		.uleb128 0x16
 2852 0525 7D000000 		.4byte	0x7d
 2853 0529 07       		.byte	0x7
 2854 052a 00       		.byte	0
 2855 052b 0B       		.uleb128 0xb
 2856 052c 04       		.byte	0x4
 2857 052d 8D000000 		.4byte	0x8d
 2858 0531 13       		.uleb128 0x13
 2859 0532 2B050000 		.4byte	0x52b
 2860 0536 1B       		.uleb128 0x1b
 2861 0537 E8030000 		.4byte	.LASF55
 2862 053b 01       		.byte	0x1
 2863 053c C402     		.2byte	0x2c4
 2864 053e 48050000 		.4byte	0x548
 2865 0542 05       		.uleb128 0x5
 2866 0543 03       		.byte	0x3
 2867 0544 00000000 		.4byte	AMux_0_CYAMUXSIDE_A__addrTable
 2868 0548 13       		.uleb128 0x13
 2869 0549 1B050000 		.4byte	0x51b
 2870 054d 1B       		.uleb128 0x1b
 2871 054e 9D030000 		.4byte	.LASF56
 2872 0552 01       		.byte	0x1
 2873 0553 CD02     		.2byte	0x2cd
 2874 0555 5F050000 		.4byte	0x55f
 2875 0559 05       		.uleb128 0x5
 2876 055a 03       		.byte	0x3
 2877 055b 00000000 		.4byte	AMux_0_CYAMUXSIDE_A__maskTable
 2878 055f 13       		.uleb128 0x13
 2879 0560 BE020000 		.4byte	0x2be
 2880 0564 1B       		.uleb128 0x1b
 2881 0565 41000000 		.4byte	.LASF57
 2882 0569 01       		.byte	0x1
 2883 056a 0703     		.2byte	0x307
 2884 056c 76050000 		.4byte	0x576
 2885 0570 05       		.uleb128 0x5
 2886 0571 03       		.byte	0x3
 2887 0572 00000000 		.4byte	AMux_0_CYAMUXSIDE_B__addrTable
ARM GAS  C:\Users\bryan.lee\AppData\Local\Temp\ccC85gGx.s 			page 70


 2888 0576 13       		.uleb128 0x13
 2889 0577 1B050000 		.4byte	0x51b
 2890 057b 1B       		.uleb128 0x1b
 2891 057c 00000000 		.4byte	.LASF58
 2892 0580 01       		.byte	0x1
 2893 0581 1003     		.2byte	0x310
 2894 0583 8D050000 		.4byte	0x58d
 2895 0587 05       		.uleb128 0x5
 2896 0588 03       		.byte	0x3
 2897 0589 00000000 		.4byte	AMux_0_CYAMUXSIDE_B__maskTable
 2898 058d 13       		.uleb128 0x13
 2899 058e BE020000 		.4byte	0x2be
 2900 0592 1B       		.uleb128 0x1b
 2901 0593 E6010000 		.4byte	.LASF59
 2902 0597 01       		.byte	0x1
 2903 0598 4A03     		.2byte	0x34a
 2904 059a A4050000 		.4byte	0x5a4
 2905 059e 05       		.uleb128 0x5
 2906 059f 03       		.byte	0x3
 2907 05a0 00000000 		.4byte	AMux_1_CYAMUXSIDE_A__addrTable
 2908 05a4 13       		.uleb128 0x13
 2909 05a5 1B050000 		.4byte	0x51b
 2910 05a9 1B       		.uleb128 0x1b
 2911 05aa AF020000 		.4byte	.LASF60
 2912 05ae 01       		.byte	0x1
 2913 05af 5303     		.2byte	0x353
 2914 05b1 BB050000 		.4byte	0x5bb
 2915 05b5 05       		.uleb128 0x5
 2916 05b6 03       		.byte	0x3
 2917 05b7 00000000 		.4byte	AMux_1_CYAMUXSIDE_A__maskTable
 2918 05bb 13       		.uleb128 0x13
 2919 05bc BE020000 		.4byte	0x2be
 2920 05c0 1B       		.uleb128 0x1b
 2921 05c1 35020000 		.4byte	.LASF61
 2922 05c5 01       		.byte	0x1
 2923 05c6 8D03     		.2byte	0x38d
 2924 05c8 D2050000 		.4byte	0x5d2
 2925 05cc 05       		.uleb128 0x5
 2926 05cd 03       		.byte	0x3
 2927 05ce 00000000 		.4byte	AMux_1_CYAMUXSIDE_B__addrTable
 2928 05d2 13       		.uleb128 0x13
 2929 05d3 1B050000 		.4byte	0x51b
 2930 05d7 1B       		.uleb128 0x1b
 2931 05d8 5F030000 		.4byte	.LASF62
 2932 05dc 01       		.byte	0x1
 2933 05dd 9603     		.2byte	0x396
 2934 05df E9050000 		.4byte	0x5e9
 2935 05e3 05       		.uleb128 0x5
 2936 05e4 03       		.byte	0x3
 2937 05e5 00000000 		.4byte	AMux_1_CYAMUXSIDE_B__maskTable
 2938 05e9 13       		.uleb128 0x13
 2939 05ea BE020000 		.4byte	0x2be
 2940 05ee 00       		.byte	0
 2941              		.section	.debug_abbrev,"",%progbits
 2942              	.Ldebug_abbrev0:
 2943 0000 01       		.uleb128 0x1
 2944 0001 11       		.uleb128 0x11
ARM GAS  C:\Users\bryan.lee\AppData\Local\Temp\ccC85gGx.s 			page 71


 2945 0002 01       		.byte	0x1
 2946 0003 25       		.uleb128 0x25
 2947 0004 0E       		.uleb128 0xe
 2948 0005 13       		.uleb128 0x13
 2949 0006 0B       		.uleb128 0xb
 2950 0007 03       		.uleb128 0x3
 2951 0008 0E       		.uleb128 0xe
 2952 0009 1B       		.uleb128 0x1b
 2953 000a 0E       		.uleb128 0xe
 2954 000b 55       		.uleb128 0x55
 2955 000c 17       		.uleb128 0x17
 2956 000d 11       		.uleb128 0x11
 2957 000e 01       		.uleb128 0x1
 2958 000f 10       		.uleb128 0x10
 2959 0010 17       		.uleb128 0x17
 2960 0011 00       		.byte	0
 2961 0012 00       		.byte	0
 2962 0013 02       		.uleb128 0x2
 2963 0014 24       		.uleb128 0x24
 2964 0015 00       		.byte	0
 2965 0016 0B       		.uleb128 0xb
 2966 0017 0B       		.uleb128 0xb
 2967 0018 3E       		.uleb128 0x3e
 2968 0019 0B       		.uleb128 0xb
 2969 001a 03       		.uleb128 0x3
 2970 001b 08       		.uleb128 0x8
 2971 001c 00       		.byte	0
 2972 001d 00       		.byte	0
 2973 001e 03       		.uleb128 0x3
 2974 001f 16       		.uleb128 0x16
 2975 0020 00       		.byte	0
 2976 0021 03       		.uleb128 0x3
 2977 0022 0E       		.uleb128 0xe
 2978 0023 3A       		.uleb128 0x3a
 2979 0024 0B       		.uleb128 0xb
 2980 0025 3B       		.uleb128 0x3b
 2981 0026 0B       		.uleb128 0xb
 2982 0027 49       		.uleb128 0x49
 2983 0028 13       		.uleb128 0x13
 2984 0029 00       		.byte	0
 2985 002a 00       		.byte	0
 2986 002b 04       		.uleb128 0x4
 2987 002c 24       		.uleb128 0x24
 2988 002d 00       		.byte	0
 2989 002e 0B       		.uleb128 0xb
 2990 002f 0B       		.uleb128 0xb
 2991 0030 3E       		.uleb128 0x3e
 2992 0031 0B       		.uleb128 0xb
 2993 0032 03       		.uleb128 0x3
 2994 0033 0E       		.uleb128 0xe
 2995 0034 00       		.byte	0
 2996 0035 00       		.byte	0
 2997 0036 05       		.uleb128 0x5
 2998 0037 0F       		.uleb128 0xf
 2999 0038 00       		.byte	0
 3000 0039 0B       		.uleb128 0xb
 3001 003a 0B       		.uleb128 0xb
ARM GAS  C:\Users\bryan.lee\AppData\Local\Temp\ccC85gGx.s 			page 72


 3002 003b 00       		.byte	0
 3003 003c 00       		.byte	0
 3004 003d 06       		.uleb128 0x6
 3005 003e 16       		.uleb128 0x16
 3006 003f 00       		.byte	0
 3007 0040 03       		.uleb128 0x3
 3008 0041 0E       		.uleb128 0xe
 3009 0042 3A       		.uleb128 0x3a
 3010 0043 0B       		.uleb128 0xb
 3011 0044 3B       		.uleb128 0x3b
 3012 0045 05       		.uleb128 0x5
 3013 0046 49       		.uleb128 0x49
 3014 0047 13       		.uleb128 0x13
 3015 0048 00       		.byte	0
 3016 0049 00       		.byte	0
 3017 004a 07       		.uleb128 0x7
 3018 004b 35       		.uleb128 0x35
 3019 004c 00       		.byte	0
 3020 004d 49       		.uleb128 0x49
 3021 004e 13       		.uleb128 0x13
 3022 004f 00       		.byte	0
 3023 0050 00       		.byte	0
 3024 0051 08       		.uleb128 0x8
 3025 0052 2E       		.uleb128 0x2e
 3026 0053 01       		.byte	0x1
 3027 0054 03       		.uleb128 0x3
 3028 0055 0E       		.uleb128 0xe
 3029 0056 3A       		.uleb128 0x3a
 3030 0057 0B       		.uleb128 0xb
 3031 0058 3B       		.uleb128 0x3b
 3032 0059 0B       		.uleb128 0xb
 3033 005a 27       		.uleb128 0x27
 3034 005b 19       		.uleb128 0x19
 3035 005c 11       		.uleb128 0x11
 3036 005d 01       		.uleb128 0x1
 3037 005e 12       		.uleb128 0x12
 3038 005f 06       		.uleb128 0x6
 3039 0060 40       		.uleb128 0x40
 3040 0061 18       		.uleb128 0x18
 3041 0062 9642     		.uleb128 0x2116
 3042 0064 19       		.uleb128 0x19
 3043 0065 01       		.uleb128 0x1
 3044 0066 13       		.uleb128 0x13
 3045 0067 00       		.byte	0
 3046 0068 00       		.byte	0
 3047 0069 09       		.uleb128 0x9
 3048 006a 05       		.uleb128 0x5
 3049 006b 00       		.byte	0
 3050 006c 03       		.uleb128 0x3
 3051 006d 08       		.uleb128 0x8
 3052 006e 3A       		.uleb128 0x3a
 3053 006f 0B       		.uleb128 0xb
 3054 0070 3B       		.uleb128 0x3b
 3055 0071 0B       		.uleb128 0xb
 3056 0072 49       		.uleb128 0x49
 3057 0073 13       		.uleb128 0x13
 3058 0074 02       		.uleb128 0x2
ARM GAS  C:\Users\bryan.lee\AppData\Local\Temp\ccC85gGx.s 			page 73


 3059 0075 18       		.uleb128 0x18
 3060 0076 00       		.byte	0
 3061 0077 00       		.byte	0
 3062 0078 0A       		.uleb128 0xa
 3063 0079 05       		.uleb128 0x5
 3064 007a 00       		.byte	0
 3065 007b 03       		.uleb128 0x3
 3066 007c 0E       		.uleb128 0xe
 3067 007d 3A       		.uleb128 0x3a
 3068 007e 0B       		.uleb128 0xb
 3069 007f 3B       		.uleb128 0x3b
 3070 0080 0B       		.uleb128 0xb
 3071 0081 49       		.uleb128 0x49
 3072 0082 13       		.uleb128 0x13
 3073 0083 02       		.uleb128 0x2
 3074 0084 18       		.uleb128 0x18
 3075 0085 00       		.byte	0
 3076 0086 00       		.byte	0
 3077 0087 0B       		.uleb128 0xb
 3078 0088 0F       		.uleb128 0xf
 3079 0089 00       		.byte	0
 3080 008a 0B       		.uleb128 0xb
 3081 008b 0B       		.uleb128 0xb
 3082 008c 49       		.uleb128 0x49
 3083 008d 13       		.uleb128 0x13
 3084 008e 00       		.byte	0
 3085 008f 00       		.byte	0
 3086 0090 0C       		.uleb128 0xc
 3087 0091 26       		.uleb128 0x26
 3088 0092 00       		.byte	0
 3089 0093 00       		.byte	0
 3090 0094 00       		.byte	0
 3091 0095 0D       		.uleb128 0xd
 3092 0096 2E       		.uleb128 0x2e
 3093 0097 01       		.byte	0x1
 3094 0098 03       		.uleb128 0x3
 3095 0099 0E       		.uleb128 0xe
 3096 009a 3A       		.uleb128 0x3a
 3097 009b 0B       		.uleb128 0xb
 3098 009c 3B       		.uleb128 0x3b
 3099 009d 0B       		.uleb128 0xb
 3100 009e 27       		.uleb128 0x27
 3101 009f 19       		.uleb128 0x19
 3102 00a0 11       		.uleb128 0x11
 3103 00a1 01       		.uleb128 0x1
 3104 00a2 12       		.uleb128 0x12
 3105 00a3 06       		.uleb128 0x6
 3106 00a4 40       		.uleb128 0x40
 3107 00a5 18       		.uleb128 0x18
 3108 00a6 9742     		.uleb128 0x2117
 3109 00a8 19       		.uleb128 0x19
 3110 00a9 01       		.uleb128 0x1
 3111 00aa 13       		.uleb128 0x13
 3112 00ab 00       		.byte	0
 3113 00ac 00       		.byte	0
 3114 00ad 0E       		.uleb128 0xe
 3115 00ae 2E       		.uleb128 0x2e
ARM GAS  C:\Users\bryan.lee\AppData\Local\Temp\ccC85gGx.s 			page 74


 3116 00af 01       		.byte	0x1
 3117 00b0 03       		.uleb128 0x3
 3118 00b1 0E       		.uleb128 0xe
 3119 00b2 3A       		.uleb128 0x3a
 3120 00b3 0B       		.uleb128 0xb
 3121 00b4 3B       		.uleb128 0x3b
 3122 00b5 05       		.uleb128 0x5
 3123 00b6 27       		.uleb128 0x27
 3124 00b7 19       		.uleb128 0x19
 3125 00b8 11       		.uleb128 0x11
 3126 00b9 01       		.uleb128 0x1
 3127 00ba 12       		.uleb128 0x12
 3128 00bb 06       		.uleb128 0x6
 3129 00bc 40       		.uleb128 0x40
 3130 00bd 18       		.uleb128 0x18
 3131 00be 9742     		.uleb128 0x2117
 3132 00c0 19       		.uleb128 0x19
 3133 00c1 01       		.uleb128 0x1
 3134 00c2 13       		.uleb128 0x13
 3135 00c3 00       		.byte	0
 3136 00c4 00       		.byte	0
 3137 00c5 0F       		.uleb128 0xf
 3138 00c6 13       		.uleb128 0x13
 3139 00c7 01       		.byte	0x1
 3140 00c8 03       		.uleb128 0x3
 3141 00c9 0E       		.uleb128 0xe
 3142 00ca 0B       		.uleb128 0xb
 3143 00cb 0B       		.uleb128 0xb
 3144 00cc 3A       		.uleb128 0x3a
 3145 00cd 0B       		.uleb128 0xb
 3146 00ce 3B       		.uleb128 0x3b
 3147 00cf 05       		.uleb128 0x5
 3148 00d0 01       		.uleb128 0x1
 3149 00d1 13       		.uleb128 0x13
 3150 00d2 00       		.byte	0
 3151 00d3 00       		.byte	0
 3152 00d4 10       		.uleb128 0x10
 3153 00d5 0D       		.uleb128 0xd
 3154 00d6 00       		.byte	0
 3155 00d7 03       		.uleb128 0x3
 3156 00d8 0E       		.uleb128 0xe
 3157 00d9 3A       		.uleb128 0x3a
 3158 00da 0B       		.uleb128 0xb
 3159 00db 3B       		.uleb128 0x3b
 3160 00dc 05       		.uleb128 0x5
 3161 00dd 49       		.uleb128 0x49
 3162 00de 13       		.uleb128 0x13
 3163 00df 38       		.uleb128 0x38
 3164 00e0 0B       		.uleb128 0xb
 3165 00e1 00       		.byte	0
 3166 00e2 00       		.byte	0
 3167 00e3 11       		.uleb128 0x11
 3168 00e4 0D       		.uleb128 0xd
 3169 00e5 00       		.byte	0
 3170 00e6 03       		.uleb128 0x3
 3171 00e7 08       		.uleb128 0x8
 3172 00e8 3A       		.uleb128 0x3a
ARM GAS  C:\Users\bryan.lee\AppData\Local\Temp\ccC85gGx.s 			page 75


 3173 00e9 0B       		.uleb128 0xb
 3174 00ea 3B       		.uleb128 0x3b
 3175 00eb 05       		.uleb128 0x5
 3176 00ec 49       		.uleb128 0x49
 3177 00ed 13       		.uleb128 0x13
 3178 00ee 38       		.uleb128 0x38
 3179 00ef 0B       		.uleb128 0xb
 3180 00f0 00       		.byte	0
 3181 00f1 00       		.byte	0
 3182 00f2 12       		.uleb128 0x12
 3183 00f3 34       		.uleb128 0x34
 3184 00f4 00       		.byte	0
 3185 00f5 03       		.uleb128 0x3
 3186 00f6 0E       		.uleb128 0xe
 3187 00f7 3A       		.uleb128 0x3a
 3188 00f8 0B       		.uleb128 0xb
 3189 00f9 3B       		.uleb128 0x3b
 3190 00fa 05       		.uleb128 0x5
 3191 00fb 49       		.uleb128 0x49
 3192 00fc 13       		.uleb128 0x13
 3193 00fd 02       		.uleb128 0x2
 3194 00fe 18       		.uleb128 0x18
 3195 00ff 00       		.byte	0
 3196 0100 00       		.byte	0
 3197 0101 13       		.uleb128 0x13
 3198 0102 26       		.uleb128 0x26
 3199 0103 00       		.byte	0
 3200 0104 49       		.uleb128 0x49
 3201 0105 13       		.uleb128 0x13
 3202 0106 00       		.byte	0
 3203 0107 00       		.byte	0
 3204 0108 14       		.uleb128 0x14
 3205 0109 34       		.uleb128 0x34
 3206 010a 00       		.byte	0
 3207 010b 03       		.uleb128 0x3
 3208 010c 08       		.uleb128 0x8
 3209 010d 3A       		.uleb128 0x3a
 3210 010e 0B       		.uleb128 0xb
 3211 010f 3B       		.uleb128 0x3b
 3212 0110 05       		.uleb128 0x5
 3213 0111 49       		.uleb128 0x49
 3214 0112 13       		.uleb128 0x13
 3215 0113 02       		.uleb128 0x2
 3216 0114 18       		.uleb128 0x18
 3217 0115 00       		.byte	0
 3218 0116 00       		.byte	0
 3219 0117 15       		.uleb128 0x15
 3220 0118 01       		.uleb128 0x1
 3221 0119 01       		.byte	0x1
 3222 011a 49       		.uleb128 0x49
 3223 011b 13       		.uleb128 0x13
 3224 011c 01       		.uleb128 0x1
 3225 011d 13       		.uleb128 0x13
 3226 011e 00       		.byte	0
 3227 011f 00       		.byte	0
 3228 0120 16       		.uleb128 0x16
 3229 0121 21       		.uleb128 0x21
ARM GAS  C:\Users\bryan.lee\AppData\Local\Temp\ccC85gGx.s 			page 76


 3230 0122 00       		.byte	0
 3231 0123 49       		.uleb128 0x49
 3232 0124 13       		.uleb128 0x13
 3233 0125 2F       		.uleb128 0x2f
 3234 0126 0B       		.uleb128 0xb
 3235 0127 00       		.byte	0
 3236 0128 00       		.byte	0
 3237 0129 17       		.uleb128 0x17
 3238 012a 2E       		.uleb128 0x2e
 3239 012b 01       		.byte	0x1
 3240 012c 03       		.uleb128 0x3
 3241 012d 0E       		.uleb128 0xe
 3242 012e 3A       		.uleb128 0x3a
 3243 012f 0B       		.uleb128 0xb
 3244 0130 3B       		.uleb128 0x3b
 3245 0131 05       		.uleb128 0x5
 3246 0132 27       		.uleb128 0x27
 3247 0133 19       		.uleb128 0x19
 3248 0134 11       		.uleb128 0x11
 3249 0135 01       		.uleb128 0x1
 3250 0136 12       		.uleb128 0x12
 3251 0137 06       		.uleb128 0x6
 3252 0138 40       		.uleb128 0x40
 3253 0139 18       		.uleb128 0x18
 3254 013a 9642     		.uleb128 0x2116
 3255 013c 19       		.uleb128 0x19
 3256 013d 01       		.uleb128 0x1
 3257 013e 13       		.uleb128 0x13
 3258 013f 00       		.byte	0
 3259 0140 00       		.byte	0
 3260 0141 18       		.uleb128 0x18
 3261 0142 2E       		.uleb128 0x2e
 3262 0143 01       		.byte	0x1
 3263 0144 3F       		.uleb128 0x3f
 3264 0145 19       		.uleb128 0x19
 3265 0146 03       		.uleb128 0x3
 3266 0147 0E       		.uleb128 0xe
 3267 0148 3A       		.uleb128 0x3a
 3268 0149 0B       		.uleb128 0xb
 3269 014a 3B       		.uleb128 0x3b
 3270 014b 05       		.uleb128 0x5
 3271 014c 27       		.uleb128 0x27
 3272 014d 19       		.uleb128 0x19
 3273 014e 11       		.uleb128 0x11
 3274 014f 01       		.uleb128 0x1
 3275 0150 12       		.uleb128 0x12
 3276 0151 06       		.uleb128 0x6
 3277 0152 40       		.uleb128 0x40
 3278 0153 18       		.uleb128 0x18
 3279 0154 9742     		.uleb128 0x2117
 3280 0156 19       		.uleb128 0x19
 3281 0157 01       		.uleb128 0x1
 3282 0158 13       		.uleb128 0x13
 3283 0159 00       		.byte	0
 3284 015a 00       		.byte	0
 3285 015b 19       		.uleb128 0x19
 3286 015c 05       		.uleb128 0x5
ARM GAS  C:\Users\bryan.lee\AppData\Local\Temp\ccC85gGx.s 			page 77


 3287 015d 00       		.byte	0
 3288 015e 03       		.uleb128 0x3
 3289 015f 0E       		.uleb128 0xe
 3290 0160 3A       		.uleb128 0x3a
 3291 0161 0B       		.uleb128 0xb
 3292 0162 3B       		.uleb128 0x3b
 3293 0163 05       		.uleb128 0x5
 3294 0164 49       		.uleb128 0x49
 3295 0165 13       		.uleb128 0x13
 3296 0166 02       		.uleb128 0x2
 3297 0167 18       		.uleb128 0x18
 3298 0168 00       		.byte	0
 3299 0169 00       		.byte	0
 3300 016a 1A       		.uleb128 0x1a
 3301 016b 2E       		.uleb128 0x2e
 3302 016c 00       		.byte	0
 3303 016d 3F       		.uleb128 0x3f
 3304 016e 19       		.uleb128 0x19
 3305 016f 03       		.uleb128 0x3
 3306 0170 0E       		.uleb128 0xe
 3307 0171 3A       		.uleb128 0x3a
 3308 0172 0B       		.uleb128 0xb
 3309 0173 3B       		.uleb128 0x3b
 3310 0174 05       		.uleb128 0x5
 3311 0175 27       		.uleb128 0x27
 3312 0176 19       		.uleb128 0x19
 3313 0177 11       		.uleb128 0x11
 3314 0178 01       		.uleb128 0x1
 3315 0179 12       		.uleb128 0x12
 3316 017a 06       		.uleb128 0x6
 3317 017b 40       		.uleb128 0x40
 3318 017c 18       		.uleb128 0x18
 3319 017d 9642     		.uleb128 0x2116
 3320 017f 19       		.uleb128 0x19
 3321 0180 00       		.byte	0
 3322 0181 00       		.byte	0
 3323 0182 1B       		.uleb128 0x1b
 3324 0183 34       		.uleb128 0x34
 3325 0184 00       		.byte	0
 3326 0185 03       		.uleb128 0x3
 3327 0186 0E       		.uleb128 0xe
 3328 0187 3A       		.uleb128 0x3a
 3329 0188 0B       		.uleb128 0xb
 3330 0189 3B       		.uleb128 0x3b
 3331 018a 05       		.uleb128 0x5
 3332 018b 49       		.uleb128 0x49
 3333 018c 13       		.uleb128 0x13
 3334 018d 3F       		.uleb128 0x3f
 3335 018e 19       		.uleb128 0x19
 3336 018f 02       		.uleb128 0x2
 3337 0190 18       		.uleb128 0x18
 3338 0191 00       		.byte	0
 3339 0192 00       		.byte	0
 3340 0193 00       		.byte	0
 3341              		.section	.debug_aranges,"",%progbits
 3342 0000 9C000000 		.4byte	0x9c
 3343 0004 0200     		.2byte	0x2
ARM GAS  C:\Users\bryan.lee\AppData\Local\Temp\ccC85gGx.s 			page 78


 3344 0006 00000000 		.4byte	.Ldebug_info0
 3345 000a 04       		.byte	0x4
 3346 000b 00       		.byte	0
 3347 000c 0000     		.2byte	0
 3348 000e 0000     		.2byte	0
 3349 0010 00000000 		.4byte	.LFB0
 3350 0014 1C000000 		.4byte	.LFE0-.LFB0
 3351 0018 00000000 		.4byte	.LFB1
 3352 001c 1E000000 		.4byte	.LFE1-.LFB1
 3353 0020 00000000 		.4byte	.LFB2
 3354 0024 1E000000 		.4byte	.LFE2-.LFB2
 3355 0028 00000000 		.4byte	.LFB3
 3356 002c 0C000000 		.4byte	.LFE3-.LFB3
 3357 0030 00000000 		.4byte	.LFB4
 3358 0034 74010000 		.4byte	.LFE4-.LFB4
 3359 0038 00000000 		.4byte	.LFB5
 3360 003c 8C010000 		.4byte	.LFE5-.LFB5
 3361 0040 00000000 		.4byte	.LFB6
 3362 0044 00010000 		.4byte	.LFE6-.LFB6
 3363 0048 00000000 		.4byte	.LFB7
 3364 004c 3C000000 		.4byte	.LFE7-.LFB7
 3365 0050 00000000 		.4byte	.LFB8
 3366 0054 6C000000 		.4byte	.LFE8-.LFB8
 3367 0058 00000000 		.4byte	.LFB9
 3368 005c 74000000 		.4byte	.LFE9-.LFB9
 3369 0060 00000000 		.4byte	.LFB10
 3370 0064 6C000000 		.4byte	.LFE10-.LFB10
 3371 0068 00000000 		.4byte	.LFB11
 3372 006c 74000000 		.4byte	.LFE11-.LFB11
 3373 0070 00000000 		.4byte	.LFB12
 3374 0074 6C000000 		.4byte	.LFE12-.LFB12
 3375 0078 00000000 		.4byte	.LFB13
 3376 007c 74000000 		.4byte	.LFE13-.LFB13
 3377 0080 00000000 		.4byte	.LFB14
 3378 0084 6C000000 		.4byte	.LFE14-.LFB14
 3379 0088 00000000 		.4byte	.LFB15
 3380 008c 74000000 		.4byte	.LFE15-.LFB15
 3381 0090 00000000 		.4byte	.LFB16
 3382 0094 18010000 		.4byte	.LFE16-.LFB16
 3383 0098 00000000 		.4byte	0
 3384 009c 00000000 		.4byte	0
 3385              		.section	.debug_ranges,"",%progbits
 3386              	.Ldebug_ranges0:
 3387 0000 00000000 		.4byte	.LFB0
 3388 0004 1C000000 		.4byte	.LFE0
 3389 0008 00000000 		.4byte	.LFB1
 3390 000c 1E000000 		.4byte	.LFE1
 3391 0010 00000000 		.4byte	.LFB2
 3392 0014 1E000000 		.4byte	.LFE2
 3393 0018 00000000 		.4byte	.LFB3
 3394 001c 0C000000 		.4byte	.LFE3
 3395 0020 00000000 		.4byte	.LFB4
 3396 0024 74010000 		.4byte	.LFE4
 3397 0028 00000000 		.4byte	.LFB5
 3398 002c 8C010000 		.4byte	.LFE5
 3399 0030 00000000 		.4byte	.LFB6
 3400 0034 00010000 		.4byte	.LFE6
ARM GAS  C:\Users\bryan.lee\AppData\Local\Temp\ccC85gGx.s 			page 79


 3401 0038 00000000 		.4byte	.LFB7
 3402 003c 3C000000 		.4byte	.LFE7
 3403 0040 00000000 		.4byte	.LFB8
 3404 0044 6C000000 		.4byte	.LFE8
 3405 0048 00000000 		.4byte	.LFB9
 3406 004c 74000000 		.4byte	.LFE9
 3407 0050 00000000 		.4byte	.LFB10
 3408 0054 6C000000 		.4byte	.LFE10
 3409 0058 00000000 		.4byte	.LFB11
 3410 005c 74000000 		.4byte	.LFE11
 3411 0060 00000000 		.4byte	.LFB12
 3412 0064 6C000000 		.4byte	.LFE12
 3413 0068 00000000 		.4byte	.LFB13
 3414 006c 74000000 		.4byte	.LFE13
 3415 0070 00000000 		.4byte	.LFB14
 3416 0074 6C000000 		.4byte	.LFE14
 3417 0078 00000000 		.4byte	.LFB15
 3418 007c 74000000 		.4byte	.LFE15
 3419 0080 00000000 		.4byte	.LFB16
 3420 0084 18010000 		.4byte	.LFE16
 3421 0088 00000000 		.4byte	0
 3422 008c 00000000 		.4byte	0
 3423              		.section	.debug_line,"",%progbits
 3424              	.Ldebug_line0:
 3425 0000 03030000 		.section	.debug_str,"MS",%progbits,1
 3425      0200CB00 
 3425      00000201 
 3425      FB0E0D00 
 3425      01010101 
 3426              	.LASF58:
 3427 0000 414D7578 		.ascii	"AMux_0_CYAMUXSIDE_B__maskTable\000"
 3427      5F305F43 
 3427      59414D55 
 3427      58534944 
 3427      455F425F 
 3428              	.LASF14:
 3429 001f 75696E74 		.ascii	"uint16\000"
 3429      313600
 3430              	.LASF12:
 3431 0026 73697A65 		.ascii	"size_t\000"
 3431      5F7400
 3432              	.LASF24:
 3433 002d 4379436C 		.ascii	"CyClockStartupError\000"
 3433      6F636B53 
 3433      74617274 
 3433      75704572 
 3433      726F7200 
 3434              	.LASF57:
 3435 0041 414D7578 		.ascii	"AMux_0_CYAMUXSIDE_B__addrTable\000"
 3435      5F305F43 
 3435      59414D55 
 3435      58534944 
 3435      455F425F 
 3436              	.LASF63:
 3437 0060 474E5520 		.ascii	"GNU C11 5.4.1 20160609 (release) [ARM/embedded-5-br"
 3437      43313120 
 3437      352E342E 
ARM GAS  C:\Users\bryan.lee\AppData\Local\Temp\ccC85gGx.s 			page 80


 3437      31203230 
 3437      31363036 
 3438 0093 616E6368 		.ascii	"anch revision 237715] -mcpu=cortex-m3 -mthumb -g -O"
 3438      20726576 
 3438      6973696F 
 3438      6E203233 
 3438      37373135 
 3439 00c6 30202D66 		.ascii	"0 -ffunction-sections -ffat-lto-objects\000"
 3439      66756E63 
 3439      74696F6E 
 3439      2D736563 
 3439      74696F6E 
 3440              	.LASF9:
 3441 00ee 6C6F6E67 		.ascii	"long long unsigned int\000"
 3441      206C6F6E 
 3441      6720756E 
 3441      7369676E 
 3441      65642069 
 3442              	.LASF26:
 3443 0105 6366675F 		.ascii	"cfg_dma_init\000"
 3443      646D615F 
 3443      696E6974 
 3443      00
 3444              	.LASF52:
 3445 0112 414D7578 		.ascii	"AMux_1_CYAMUXSIDE_A_Unset\000"
 3445      5F315F43 
 3445      59414D55 
 3445      58534944 
 3445      455F415F 
 3446              	.LASF41:
 3447 012c 416E616C 		.ascii	"AnalogSetDefault\000"
 3447      6F675365 
 3447      74446566 
 3447      61756C74 
 3447      00
 3448              	.LASF1:
 3449 013d 6C6F6E67 		.ascii	"long long int\000"
 3449      206C6F6E 
 3449      6720696E 
 3449      7400
 3450              	.LASF3:
 3451 014b 7369676E 		.ascii	"signed char\000"
 3451      65642063 
 3451      68617200 
 3452              	.LASF20:
 3453 0157 43594D45 		.ascii	"CYMEMZERO\000"
 3453      4D5A4552 
 3453      4F00
 3454              	.LASF36:
 3455 0161 4346475F 		.ascii	"CFG_TD_LIST0\000"
 3455      54445F4C 
 3455      49535430 
 3455      00
 3456              	.LASF38:
 3457 016e 436C6F63 		.ascii	"ClockSetup\000"
 3457      6B536574 
 3457      757000
ARM GAS  C:\Users\bryan.lee\AppData\Local\Temp\ccC85gGx.s 			page 81


 3458              	.LASF46:
 3459 0179 414D7578 		.ascii	"AMux_0_CYAMUXSIDE_A_Set\000"
 3459      5F305F43 
 3459      59414D55 
 3459      58534944 
 3459      455F415F 
 3460              	.LASF25:
 3461 0191 6572726F 		.ascii	"errorCode\000"
 3461      72436F64 
 3461      6500
 3462              	.LASF7:
 3463 019b 6C6F6E67 		.ascii	"long int\000"
 3463      20696E74 
 3463      00
 3464              	.LASF33:
 3465 01a4 4348365F 		.ascii	"CH6_ADDR_DATA0\000"
 3465      41444452 
 3465      5F444154 
 3465      413000
 3466              	.LASF19:
 3467 01b3 72656731 		.ascii	"reg16\000"
 3467      3600
 3468              	.LASF13:
 3469 01b9 75696E74 		.ascii	"uint8\000"
 3469      3800
 3470              	.LASF28:
 3471 01bf 6E657874 		.ascii	"next_td_ptr\000"
 3471      5F74645F 
 3471      70747200 
 3472              	.LASF17:
 3473 01cb 646F7562 		.ascii	"double\000"
 3473      6C6500
 3474              	.LASF37:
 3475 01d2 4346475F 		.ascii	"CFG_TD_ADDR0\000"
 3475      54445F41 
 3475      44445230 
 3475      00
 3476              	.LASF15:
 3477 01df 75696E74 		.ascii	"uint32\000"
 3477      333200
 3478              	.LASF59:
 3479 01e6 414D7578 		.ascii	"AMux_1_CYAMUXSIDE_A__addrTable\000"
 3479      5F315F43 
 3479      59414D55 
 3479      58534944 
 3479      455F415F 
 3480              	.LASF44:
 3481 0205 72656756 		.ascii	"regValue\000"
 3481      616C7565 
 3481      00
 3482              	.LASF50:
 3483 020e 414D7578 		.ascii	"AMux_0_CYAMUXSIDE_B_Unset\000"
 3483      5F305F43 
 3483      59414D55 
 3483      58534944 
 3483      455F425F 
 3484              	.LASF0:
ARM GAS  C:\Users\bryan.lee\AppData\Local\Temp\ccC85gGx.s 			page 82


 3485 0228 756E7369 		.ascii	"unsigned int\000"
 3485      676E6564 
 3485      20696E74 
 3485      00
 3486              	.LASF61:
 3487 0235 414D7578 		.ascii	"AMux_1_CYAMUXSIDE_B__addrTable\000"
 3487      5F315F43 
 3487      59414D55 
 3487      58534944 
 3487      455F425F 
 3488              	.LASF51:
 3489 0254 414D7578 		.ascii	"AMux_1_CYAMUXSIDE_A_Set\000"
 3489      5F315F43 
 3489      59414D55 
 3489      58534944 
 3489      455F415F 
 3490              	.LASF8:
 3491 026c 6C6F6E67 		.ascii	"long unsigned int\000"
 3491      20756E73 
 3491      69676E65 
 3491      6420696E 
 3491      7400
 3492              	.LASF39:
 3493 027e 74696D65 		.ascii	"timeout\000"
 3493      6F757400 
 3494              	.LASF34:
 3495 0286 444D415F 		.ascii	"DMA_TD_START_CMD\000"
 3495      54445F53 
 3495      54415254 
 3495      5F434D44 
 3495      00
 3496              	.LASF27:
 3497 0297 73697A65 		.ascii	"size\000"
 3497      00
 3498              	.LASF6:
 3499 029c 73686F72 		.ascii	"short unsigned int\000"
 3499      7420756E 
 3499      7369676E 
 3499      65642069 
 3499      6E7400
 3500              	.LASF60:
 3501 02af 414D7578 		.ascii	"AMux_1_CYAMUXSIDE_A__maskTable\000"
 3501      5F315F43 
 3501      59414D55 
 3501      58534944 
 3501      455F415F 
 3502              	.LASF65:
 3503 02ce 433A5C55 		.ascii	"C:\\Users\\bryan.lee\\Documents\\GitHub\\hello-worl"
 3503      73657273 
 3503      5C627279 
 3503      616E2E6C 
 3503      65655C44 
 3504 02fc 645C4379 		.ascii	"d\\Cypress\\USB\\SAR_SPIM_USB.cydsn\000"
 3504      70726573 
 3504      735C5553 
 3504      425C5341 
 3504      525F5350 
ARM GAS  C:\Users\bryan.lee\AppData\Local\Temp\ccC85gGx.s 			page 83


 3505              	.LASF23:
 3506 031d 4359434F 		.ascii	"CYCONFIGCPYCODE\000"
 3506      4E464947 
 3506      43505943 
 3506      4F444500 
 3507              	.LASF10:
 3508 032d 73697A65 		.ascii	"sizetype\000"
 3508      74797065 
 3508      00
 3509              	.LASF2:
 3510 0336 6C6F6E67 		.ascii	"long double\000"
 3510      20646F75 
 3510      626C6500 
 3511              	.LASF42:
 3512 0342 62675F78 		.ascii	"bg_xover_inl_trim\000"
 3512      6F766572 
 3512      5F696E6C 
 3512      5F747269 
 3512      6D00
 3513              	.LASF22:
 3514 0354 64657374 		.ascii	"dest\000"
 3514      00
 3515              	.LASF16:
 3516 0359 666C6F61 		.ascii	"float\000"
 3516      7400
 3517              	.LASF62:
 3518 035f 414D7578 		.ascii	"AMux_1_CYAMUXSIDE_B__maskTable\000"
 3518      5F315F43 
 3518      59414D55 
 3518      58534944 
 3518      455F425F 
 3519              	.LASF54:
 3520 037e 414D7578 		.ascii	"AMux_1_CYAMUXSIDE_B_Unset\000"
 3520      5F315F43 
 3520      59414D55 
 3520      58534944 
 3520      455F425F 
 3521              	.LASF18:
 3522 0398 72656738 		.ascii	"reg8\000"
 3522      00
 3523              	.LASF56:
 3524 039d 414D7578 		.ascii	"AMux_0_CYAMUXSIDE_A__maskTable\000"
 3524      5F305F43 
 3524      59414D55 
 3524      58534944 
 3524      455F415F 
 3525              	.LASF4:
 3526 03bc 756E7369 		.ascii	"unsigned char\000"
 3526      676E6564 
 3526      20636861 
 3526      7200
 3527              	.LASF66:
 3528 03ca 74645F74 		.ascii	"td_t\000"
 3528      00
 3529              	.LASF5:
 3530 03cf 73686F72 		.ascii	"short int\000"
 3530      7420696E 
ARM GAS  C:\Users\bryan.lee\AppData\Local\Temp\ccC85gGx.s 			page 84


 3530      7400
 3531              	.LASF30:
 3532 03d9 4348315F 		.ascii	"CH1_ADDR_DATA0\000"
 3532      41444452 
 3532      5F444154 
 3532      413000
 3533              	.LASF55:
 3534 03e8 414D7578 		.ascii	"AMux_0_CYAMUXSIDE_A__addrTable\000"
 3534      5F305F43 
 3534      59414D55 
 3534      58534944 
 3534      455F415F 
 3535              	.LASF40:
 3536 0407 706C6C4C 		.ascii	"pllLock\000"
 3536      6F636B00 
 3537              	.LASF47:
 3538 040f 6368616E 		.ascii	"channel\000"
 3538      6E656C00 
 3539              	.LASF31:
 3540 0417 4348325F 		.ascii	"CH2_ADDR_DATA0\000"
 3540      41444452 
 3540      5F444154 
 3540      413000
 3541              	.LASF11:
 3542 0426 63686172 		.ascii	"char\000"
 3542      00
 3543              	.LASF48:
 3544 042b 414D7578 		.ascii	"AMux_0_CYAMUXSIDE_A_Unset\000"
 3544      5F305F43 
 3544      59414D55 
 3544      58534944 
 3544      455F415F 
 3545              	.LASF45:
 3546 0445 53657441 		.ascii	"SetAnalogRoutingPumps\000"
 3546      6E616C6F 
 3546      67526F75 
 3546      74696E67 
 3546      50756D70 
 3547              	.LASF49:
 3548 045b 414D7578 		.ascii	"AMux_0_CYAMUXSIDE_B_Set\000"
 3548      5F305F43 
 3548      59414D55 
 3548      58534944 
 3548      455F425F 
 3549              	.LASF43:
 3550 0473 656E6162 		.ascii	"enabled\000"
 3550      6C656400 
 3551              	.LASF32:
 3552 047b 4348355F 		.ascii	"CH5_ADDR_DATA0\000"
 3552      41444452 
 3552      5F444154 
 3552      413000
 3553              	.LASF21:
 3554 048a 4359434F 		.ascii	"CYCONFIGCPY\000"
 3554      4E464947 
 3554      43505900 
 3555              	.LASF64:
ARM GAS  C:\Users\bryan.lee\AppData\Local\Temp\ccC85gGx.s 			page 85


 3556 0496 47656E65 		.ascii	"Generated_Source\\PSoC5\\cyfitter_cfg.c\000"
 3556      72617465 
 3556      645F536F 
 3556      75726365 
 3556      5C50536F 
 3557              	.LASF29:
 3558 04bc 666C6167 		.ascii	"flags\000"
 3558      7300
 3559              	.LASF35:
 3560 04c2 444D415F 		.ascii	"DMA_ZERO_VAL\000"
 3560      5A45524F 
 3560      5F56414C 
 3560      00
 3561              	.LASF53:
 3562 04cf 414D7578 		.ascii	"AMux_1_CYAMUXSIDE_B_Set\000"
 3562      5F315F43 
 3562      59414D55 
 3562      58534944 
 3562      455F425F 
 3563              	.LASF67:
 3564 04e7 63796669 		.ascii	"cyfitter_cfg\000"
 3564      74746572 
 3564      5F636667 
 3564      00
 3565              		.ident	"GCC: (GNU Tools for ARM Embedded Processors) 5.4.1 20160609 (release) [ARM/embedded-5-bran
