ARM GAS  C:\Users\bryan.lee\AppData\Local\Temp\ccdksgr5.s 			page 1


   1              		.syntax unified
   2              		.cpu cortex-m3
   3              		.fpu softvfp
   4              		.eabi_attribute 20, 1
   5              		.eabi_attribute 21, 1
   6              		.eabi_attribute 23, 3
   7              		.eabi_attribute 24, 1
   8              		.eabi_attribute 25, 1
   9              		.eabi_attribute 26, 1
  10              		.eabi_attribute 30, 6
  11              		.eabi_attribute 34, 1
  12              		.eabi_attribute 18, 4
  13              		.thumb
  14              		.syntax unified
  15              		.file	"main.c"
  16              		.text
  17              	.Ltext0:
  18              		.cfi_sections	.debug_frame
  19              		.syntax unified
  20              		.global _printf_float
  21              		.section	.rodata
  22              		.align	2
  23              	.LC0:
  24 0000 55534220 		.ascii	"USB to UART test\000"
  24      746F2055 
  24      41525420 
  24      74657374 
  24      00
  25 0011 000000   		.align	2
  26              	.LC1:
  27 0014 506C6561 		.ascii	"Please choose the channel (0-7) \012\015\000"
  27      73652063 
  27      686F6F73 
  27      65207468 
  27      65206368 
  28 0037 00       		.align	2
  29              	.LC2:
  30 0038 496E7075 		.ascii	"Input Error\000"
  30      74204572 
  30      726F7200 
  31              		.align	2
  32              	.LC3:
  33 0044 496E7075 		.ascii	"Input Error, (%d) \012\015\000"
  33      74204572 
  33      726F722C 
  33      20282564 
  33      29200A0D 
  34 0059 000000   		.align	2
  35              	.LC4:
  36 005c 54686520 		.ascii	"The ADC_0 channel(%d) is: 0x%4x \012\015\012\015\000"
  36      4144435F 
  36      30206368 
  36      616E6E65 
  36      6C282564 
  37 0081 000000   		.align	2
  38              	.LC5:
  39 0084 54686520 		.ascii	"The ADC_1 channel(%d) is: 0x%4x \012\015\012\015\000"
ARM GAS  C:\Users\bryan.lee\AppData\Local\Temp\ccdksgr5.s 			page 2


  39      4144435F 
  39      31206368 
  39      616E6E65 
  39      6C282564 
  40 00a9 000000   		.align	2
  41              	.LC6:
  42 00ac 307800   		.ascii	"0x\000"
  43 00af 00       		.align	2
  44              	.LC7:
  45 00b0 656E6400 		.ascii	"end\000"
  46              		.thumb
  47              		.syntax unified
  48              		.section	.text.main,"ax",%progbits
  49              		.align	2
  50              		.global	main
  51              		.thumb
  52              		.thumb_func
  53              		.type	main, %function
  54              	main:
  55              	.LFB64:
  56              		.file 1 "main.c"
   1:main.c        **** /*******************************************************************************
   2:main.c        **** * File Name: main.c
   3:main.c        **** *
   4:main.c        **** * Version: 1.0
   5:main.c        **** *
   6:main.c        **** * Description:
   7:main.c        **** *  This is source code for example project of the 4ch dual SAR with SPI Master
   8:main.c        **** *  and USBUART.
   9:main.c        **** *
  10:main.c        **** * Parameters used:
  11:main.c        **** *  SPI Master
  12:main.c        **** *   Mode                0(CPHA ==0, CPOL ==0)
  13:main.c        **** *   Data lines          MOSI+MISO
  14:main.c        **** *   Shift direction     MSB First
  15:main.c        **** *   DataBits            16
  16:main.c        **** *   Bit Rate            1Mbit/s
  17:main.c        **** *   Clock source        External
  18:main.c        **** *
  19:main.c        **** *  USBFS
  20:main.c        **** *    Configured as a CDC device (see datasheet and USBUART example project)
  21:main.c        **** *    Note that for USB operation, a 24MHz crystal needs to be installed on
  22:main.c        **** *    processor module for CY8CKIT-001.
  23:main.c        **** *
  24:main.c        **** *  SAR ADCs
  25:main.c        **** *      Sample mode             Triggered
  26:main.c        **** *     Clock source         Internal
  27:main.c        **** *    Resolution            12 bits
  28:main.c        **** *    Conversion Rate        100000 SPS
  29:main.c        **** *    Input range            +/- Vdda (Differential)
  30:main.c        **** *    Reference            Internal Vref bypassed
  31:main.c        **** *    Bypass Capacitors    10uF each
  32:main.c        **** *
  33:main.c        **** *  IDAC
  34:main.c        **** *    Polarity            Positive
  35:main.c        **** *    Range                0-31.875 uA
  36:main.c        **** *    Speed                Slow
ARM GAS  C:\Users\bryan.lee\AppData\Local\Temp\ccdksgr5.s 			page 3


  37:main.c        **** *    Value                10uA
  38:main.c        **** *
  39:main.c        **** *  Analog Mux
  40:main.c        **** *    Mux type            Differential
  41:main.c        **** *    Channels            4
  42:main.c        **** *
  43:main.c        **** *  Clocking
  44:main.c        **** *    IMO source            24 MHz Xtal
  45:main.c        **** *    USB                    48 MHz (IMO*2)
  46:main.c        **** *    ILO                    100 kHz
  47:main.c        **** *
  48:main.c        **** * In this project, data input to two 4ch SAR ADCs via two 4ch analog muxes
  49:main.c        **** * is converted and sent to a USB host device and a SPI slave device. To
  50:main.c        **** * accomplish this, the central PSoC device implements a SPI Master and USB UART
  51:main.c        **** * for communication. The USB host device can select which channel of the mux is
  52:main.c        **** * to be read.
  53:main.c        **** *
  54:main.c        **** * To access the PSoC using the USBUART follow these steps:
  55:main.c        **** *    1. Connect CY8CKIT-001 to the PC using USB cable.
  56:main.c        **** *    2. Select the USB_UART.inf file from the project directory, as the driver
  57:main.c        **** *      for this example once Windows asks for it.
  58:main.c        **** *    3. Go to Start > Devices and Printers and identify COM port number
  59:main.c        **** *       associated with the project.
  60:main.c        **** *    4. Open a terminal emulation software and connect to COM port number
  61:main.c        **** *       identified in previous step.
  62:main.c        **** *    5. The input window will open with a blank screen. Type in a channel value.
  63:main.c        **** *
  64:main.c        **** ********************************************************************************
  65:main.c        **** * Copyright 2012, Cypress Semiconductor Corporation. All rights reserved.
  66:main.c        **** * This software is owned by Cypress Semiconductor Corporation and is protected
  67:main.c        **** * by and subject to worldwide patent and copyright laws and treaties.
  68:main.c        **** * Therefore, you may use this software only as provided in the license agreement
  69:main.c        **** * accompanying the software package from which you obtained this software.
  70:main.c        **** * CYPRESS AND ITS SUPPLIERS MAKE NO WARRANTY OF ANY KIND, EXPRESS OR IMPLIED,
  71:main.c        **** * WITH REGARD TO THIS SOFTWARE, INCLUDING, BUT NOT LIMITED TO, NONINFRINGEMENT,
  72:main.c        **** * IMPLIED WARRANTIES OF MERCHANTABILITY AND FITNESS FOR A PARTICULAR PURPOSE.
  73:main.c        **** *******************************************************************************/
  74:main.c        **** 
  75:main.c        **** #include <project.h>
  76:main.c        **** #include <stdio.h>
  77:main.c        **** 
  78:main.c        **** #if defined (__GNUC__)
  79:main.c        ****     /* Add an explicit reference to the floating point printf library */
  80:main.c        ****     /* to allow the usage of floating point conversion specifiers. */
  81:main.c        ****     /* This is not linked in by default with the newlib-nano library. */
  82:main.c        ****     asm (".global _printf_float");
  83:main.c        **** #endif
  84:main.c        **** 
  85:main.c        **** 
  86:main.c        **** #define RD_BUFFER_LEN           (64u)
  87:main.c        **** #define WR_BUFFER_LEN           (64u)
  88:main.c        **** #define MUX_SIZE                (4u)
  89:main.c        **** 
  90:main.c        **** /* ASCII value of decimal zero is 48 */
  91:main.c        **** #define ASCII_DECIMAL_ZERO      (48u)
  92:main.c        **** 
  93:main.c        **** /* Any value above 0x07 is an illegal input for mux channel selection */
ARM GAS  C:\Users\bryan.lee\AppData\Local\Temp\ccdksgr5.s 			page 4


  94:main.c        **** #define ERROR_MASK              (0xF8u)
  95:main.c        **** 
  96:main.c        **** /* Function that encapsulates the process of writing text strings to USBUART */
  97:main.c        **** void PrintToUSBUART(char8 * outText);
  98:main.c        **** 
  99:main.c        **** 
 100:main.c        **** /*******************************************************************************
 101:main.c        **** * Function Name: main
 102:main.c        **** ********************************************************************************
 103:main.c        **** *
 104:main.c        **** * Summary:
 105:main.c        **** *  main() performs following functions:
 106:main.c        **** *   1. Starts all used components.
 107:main.c        **** *   2. Enumerates and handles data transfer between PC and PSoC via USBUART.
 108:main.c        **** *   3. Chooses mux channel to be read according to USB UART data .
 109:main.c        **** *   4. Reads ADC converted data, sends this data to SPI SLAVE via a SPI Master
 110:main.c        **** *       and also back to the USBUART.
 111:main.c        **** *   5. Displays ADC converted data on Character LCD for debugging.
 112:main.c        **** *
 113:main.c        **** * Parameters:
 114:main.c        **** *  None.
 115:main.c        **** *
 116:main.c        **** * Return:
 117:main.c        **** *  None.
 118:main.c        **** *
 119:main.c        **** *******************************************************************************/
 120:main.c        **** int main()
 121:main.c        **** {
  57              		.loc 1 121 0
  58              		.cfi_startproc
  59              		@ args = 0, pretend = 0, frame = 136
  60              		@ frame_needed = 1, uses_anonymous_args = 0
  61 0000 80B5     		push	{r7, lr}
  62              		.cfi_def_cfa_offset 8
  63              		.cfi_offset 7, -8
  64              		.cfi_offset 14, -4
  65 0002 A2B0     		sub	sp, sp, #136
  66              		.cfi_def_cfa_offset 144
  67 0004 00AF     		add	r7, sp, #0
  68              		.cfi_def_cfa_register 7
 122:main.c        ****     /* adcReading holds the converted 16-bit data from the ADC */
 123:main.c        ****     uint16 adcReading = 0u;
  69              		.loc 1 123 0
  70 0006 0023     		movs	r3, #0
  71 0008 A7F88630 		strh	r3, [r7, #134]	@ movhi
 124:main.c        ****     uint8 rdBuffer[RD_BUFFER_LEN];
 125:main.c        ****     uint8 wrBuffer[WR_BUFFER_LEN];
 126:main.c        ****     uint8 rdValue;
 127:main.c        ****     uint8 temp;
 128:main.c        **** 
 129:main.c        ****     /* Enable Global interrupts - used for USB communication */
 130:main.c        ****     CyGlobalIntEnable;
  72              		.loc 1 130 0
  73              		.syntax unified
  74              	@ 130 "main.c" 1
  75 000c 62B6     		CPSIE   i
  76              	@ 0 "" 2
ARM GAS  C:\Users\bryan.lee\AppData\Local\Temp\ccdksgr5.s 			page 5


 131:main.c        **** 
 132:main.c        ****     SPIM_Start();
  77              		.loc 1 132 0
  78              		.thumb
  79              		.syntax unified
  80 000e FFF7FEFF 		bl	SPIM_Start
 133:main.c        ****     USBUART_1_Start(0u, USBUART_1_3V_OPERATION);
  81              		.loc 1 133 0
  82 0012 0021     		movs	r1, #0
  83 0014 0020     		movs	r0, #0
  84 0016 FFF7FEFF 		bl	USBUART_1_Start
 134:main.c        ****     LCD_Char_Start();
  85              		.loc 1 134 0
  86 001a FFF7FEFF 		bl	LCD_Char_Start
 135:main.c        ****     LCD_Char_Init();
  87              		.loc 1 135 0
  88 001e FFF7FEFF 		bl	LCD_Char_Init
 136:main.c        ****     LCD_Char_ClearDisplay();
  89              		.loc 1 136 0
  90 0022 0120     		movs	r0, #1
  91 0024 FFF7FEFF 		bl	LCD_Char_WriteControl
 137:main.c        ****     LCD_Char_PrintString("USB to UART test");
  92              		.loc 1 137 0
  93 0028 5848     		ldr	r0, .L10
  94 002a FFF7FEFF 		bl	LCD_Char_PrintString
 138:main.c        ****     //IDAC8_Start();
 139:main.c        ****     ADC_SAR_0_Start();
  95              		.loc 1 139 0
  96 002e FFF7FEFF 		bl	ADC_SAR_0_Start
 140:main.c        ****     ADC_SAR_1_Start();
  97              		.loc 1 140 0
  98 0032 FFF7FEFF 		bl	ADC_SAR_1_Start
 141:main.c        **** 
 142:main.c        ****     /* When implementing a <=4 channel mux, the Analog sequencing Mux is faster
 143:main.c        ****      * on an average than the Analog Hardware mux. However, additional code is
 144:main.c        ****      * required to select channels non-sequentially.
 145:main.c        ****      */
 146:main.c        ****     AMux_0_Start();
  99              		.loc 1 146 0
 100 0036 FFF7FEFF 		bl	AMux_0_Start
 147:main.c        ****     AMux_1_Start();
 101              		.loc 1 147 0
 102 003a FFF7FEFF 		bl	AMux_1_Start
 148:main.c        **** 
 149:main.c        ****     /* Wait for Device to enumerate */
 150:main.c        ****     while(!USBUART_1_GetConfiguration());
 103              		.loc 1 150 0
 104 003e 00BF     		nop
 105              	.L2:
 106              		.loc 1 150 0 is_stmt 0 discriminator 1
 107 0040 FFF7FEFF 		bl	USBUART_1_GetConfiguration
 108 0044 0346     		mov	r3, r0
 109 0046 002B     		cmp	r3, #0
 110 0048 FAD0     		beq	.L2
 151:main.c        **** 
 152:main.c        ****     /* Enumeration is complete, enable OUT endpoint for received data from Host */
 153:main.c        ****     USBUART_1_CDC_Init();
ARM GAS  C:\Users\bryan.lee\AppData\Local\Temp\ccdksgr5.s 			page 6


 111              		.loc 1 153 0 is_stmt 1
 112 004a FFF7FEFF 		bl	USBUART_1_CDC_Init
 113              	.L9:
 154:main.c        **** 
 155:main.c        ****     for(;;)
 156:main.c        ****     {
 157:main.c        ****         PrintToUSBUART("Please choose the channel (0-7) \n\r");
 114              		.loc 1 157 0
 115 004e 5048     		ldr	r0, .L10+4
 116 0050 FFF7FEFF 		bl	PrintToUSBUART
 158:main.c        **** 
 159:main.c        ****         /* Wait for input data from PC */
 160:main.c        ****         while(USBUART_1_DataIsReady() == 0u);
 117              		.loc 1 160 0
 118 0054 00BF     		nop
 119              	.L3:
 120              		.loc 1 160 0 is_stmt 0 discriminator 1
 121 0056 FFF7FEFF 		bl	USBUART_1_DataIsReady
 122 005a 0346     		mov	r3, r0
 123 005c 002B     		cmp	r3, #0
 124 005e FAD0     		beq	.L3
 161:main.c        ****         USBUART_1_GetAll(rdBuffer);
 125              		.loc 1 161 0 is_stmt 1
 126 0060 07F14403 		add	r3, r7, #68
 127 0064 1846     		mov	r0, r3
 128 0066 FFF7FEFF 		bl	USBUART_1_GetAll
 162:main.c        **** 
 163:main.c        ****         /* Convert ASCII value in rdBuffer to numerical value:
 164:main.c        ****          * Note that ASCII 48, 49,...,57 (decimal) corresponds to 0,1,...,9
 165:main.c        ****          */
 166:main.c        ****         rdValue = rdBuffer[0] - ASCII_DECIMAL_ZERO;
 129              		.loc 1 166 0
 130 006a 97F84430 		ldrb	r3, [r7, #68]	@ zero_extendqisi2
 131 006e 303B     		subs	r3, r3, #48
 132 0070 87F88530 		strb	r3, [r7, #133]
 167:main.c        **** 
 168:main.c        ****         /* If the value read is not a number in the range [0,7] */
 169:main.c        ****         if(rdValue & ERROR_MASK)
 133              		.loc 1 169 0
 134 0074 97F88530 		ldrb	r3, [r7, #133]	@ zero_extendqisi2
 135 0078 03F0F803 		and	r3, r3, #248
 136 007c 002B     		cmp	r3, #0
 137 007e 11D0     		beq	.L4
 170:main.c        ****         {
 171:main.c        ****             LCD_Char_ClearDisplay();
 138              		.loc 1 171 0
 139 0080 0120     		movs	r0, #1
 140 0082 FFF7FEFF 		bl	LCD_Char_WriteControl
 172:main.c        ****             LCD_Char_PrintString("Input Error");
 141              		.loc 1 172 0
 142 0086 4348     		ldr	r0, .L10+8
 143 0088 FFF7FEFF 		bl	LCD_Char_PrintString
 173:main.c        ****             sprintf((char *)wrBuffer, "Input Error, (%d) \n\r",(int)(rdValue));
 144              		.loc 1 173 0
 145 008c 97F88520 		ldrb	r2, [r7, #133]	@ zero_extendqisi2
 146 0090 3B1D     		adds	r3, r7, #4
 147 0092 4149     		ldr	r1, .L10+12
ARM GAS  C:\Users\bryan.lee\AppData\Local\Temp\ccdksgr5.s 			page 7


 148 0094 1846     		mov	r0, r3
 149 0096 FFF7FEFF 		bl	sprintf
 174:main.c        ****             PrintToUSBUART((char8 *)wrBuffer);
 150              		.loc 1 174 0
 151 009a 3B1D     		adds	r3, r7, #4
 152 009c 1846     		mov	r0, r3
 153 009e FFF7FEFF 		bl	PrintToUSBUART
 154 00a2 3BE0     		b	.L5
 155              	.L4:
 175:main.c        ****         }
 176:main.c        **** 
 177:main.c        ****         else /* The input from user is valid */
 178:main.c        ****         {
 179:main.c        ****             /* If this input is in the range [0,3], use mux0 */
 180:main.c        ****             if(!(rdValue/MUX_SIZE))
 156              		.loc 1 180 0
 157 00a4 97F88530 		ldrb	r3, [r7, #133]	@ zero_extendqisi2
 158 00a8 032B     		cmp	r3, #3
 159 00aa 17D8     		bhi	.L6
 181:main.c        ****             {
 182:main.c        ****                 AMux_0_FastSelect(rdValue);
 160              		.loc 1 182 0
 161 00ac 97F88530 		ldrb	r3, [r7, #133]	@ zero_extendqisi2
 162 00b0 1846     		mov	r0, r3
 163 00b2 FFF7FEFF 		bl	AMux_0_FastSelect
 183:main.c        **** 
 184:main.c        ****                 /* Initiate a single conversion of input data (ADC is in triggered
 185:main.c        ****                  * mode).
 186:main.c        ****                  */
 187:main.c        ****                 ADC_SAR_0_StartConvert();
 164              		.loc 1 187 0
 165 00b6 FFF7FEFF 		bl	ADC_SAR_0_StartConvert
 188:main.c        ****                 ADC_SAR_0_IsEndConversion(ADC_SAR_0_WAIT_FOR_RESULT);
 166              		.loc 1 188 0
 167 00ba 0020     		movs	r0, #0
 168 00bc FFF7FEFF 		bl	ADC_SAR_0_IsEndConversion
 189:main.c        ****                 adcReading = ADC_SAR_0_GetResult16();
 169              		.loc 1 189 0
 170 00c0 FFF7FEFF 		bl	ADC_SAR_0_GetResult16
 171 00c4 0346     		mov	r3, r0
 172 00c6 A7F88630 		strh	r3, [r7, #134]	@ movhi
 190:main.c        **** 
 191:main.c        ****                 sprintf((char *)wrBuffer, "The ADC_0 channel(%d) is: 0x%4x \n\r\n\r",
 173              		.loc 1 191 0
 174 00ca 97F88520 		ldrb	r2, [r7, #133]	@ zero_extendqisi2
 175 00ce B7F88630 		ldrh	r3, [r7, #134]
 176 00d2 381D     		adds	r0, r7, #4
 177 00d4 3149     		ldr	r1, .L10+16
 178 00d6 FFF7FEFF 		bl	sprintf
 179 00da 1BE0     		b	.L7
 180              	.L6:
 192:main.c        ****                                                             (int)rdValue, adcReading);
 193:main.c        ****             }
 194:main.c        **** 
 195:main.c        ****             else
 196:main.c        ****             {
 197:main.c        ****                 /* If rdValue is between [4,7], scale down to [0,3] */
ARM GAS  C:\Users\bryan.lee\AppData\Local\Temp\ccdksgr5.s 			page 8


 198:main.c        ****                 AMux_1_FastSelect(rdValue % MUX_SIZE);
 181              		.loc 1 198 0
 182 00dc 97F88530 		ldrb	r3, [r7, #133]
 183 00e0 03F00303 		and	r3, r3, #3
 184 00e4 DBB2     		uxtb	r3, r3
 185 00e6 1846     		mov	r0, r3
 186 00e8 FFF7FEFF 		bl	AMux_1_FastSelect
 199:main.c        **** 
 200:main.c        ****                 ADC_SAR_1_StartConvert();
 187              		.loc 1 200 0
 188 00ec FFF7FEFF 		bl	ADC_SAR_1_StartConvert
 201:main.c        ****                 ADC_SAR_1_IsEndConversion(ADC_SAR_1_WAIT_FOR_RESULT);
 189              		.loc 1 201 0
 190 00f0 0020     		movs	r0, #0
 191 00f2 FFF7FEFF 		bl	ADC_SAR_1_IsEndConversion
 202:main.c        ****                 adcReading = ADC_SAR_1_GetResult16();
 192              		.loc 1 202 0
 193 00f6 FFF7FEFF 		bl	ADC_SAR_1_GetResult16
 194 00fa 0346     		mov	r3, r0
 195 00fc A7F88630 		strh	r3, [r7, #134]	@ movhi
 203:main.c        **** 
 204:main.c        ****                 sprintf((char *)wrBuffer, "The ADC_1 channel(%d) is: 0x%4x \n\r\n\r",
 205:main.c        ****                                                 (int)(rdValue % MUX_SIZE), adcReading);
 196              		.loc 1 205 0
 197 0100 97F88530 		ldrb	r3, [r7, #133]	@ zero_extendqisi2
 204:main.c        ****                                                 (int)(rdValue % MUX_SIZE), adcReading);
 198              		.loc 1 204 0
 199 0104 03F00302 		and	r2, r3, #3
 200 0108 B7F88630 		ldrh	r3, [r7, #134]
 201 010c 381D     		adds	r0, r7, #4
 202 010e 2449     		ldr	r1, .L10+20
 203 0110 FFF7FEFF 		bl	sprintf
 204              	.L7:
 206:main.c        ****             }
 207:main.c        **** 
 208:main.c        ****             PrintToUSBUART((char8 *)wrBuffer);
 205              		.loc 1 208 0
 206 0114 3B1D     		adds	r3, r7, #4
 207 0116 1846     		mov	r0, r3
 208 0118 FFF7FEFF 		bl	PrintToUSBUART
 209              	.L5:
 209:main.c        ****         }
 210:main.c        **** 
 211:main.c        ****         /* For verification purposes, display the adcReading on the LCD */
 212:main.c        ****         LCD_Char_ClearDisplay();
 210              		.loc 1 212 0
 211 011c 0120     		movs	r0, #1
 212 011e FFF7FEFF 		bl	LCD_Char_WriteControl
 213:main.c        ****         LCD_Char_PrintString("0x");
 213              		.loc 1 213 0
 214 0122 2048     		ldr	r0, .L10+24
 215 0124 FFF7FEFF 		bl	LCD_Char_PrintString
 214:main.c        ****         LCD_Char_PrintInt16(adcReading);
 216              		.loc 1 214 0
 217 0128 B7F88630 		ldrh	r3, [r7, #134]
 218 012c 1846     		mov	r0, r3
 219 012e FFF7FEFF 		bl	LCD_Char_PrintInt16
ARM GAS  C:\Users\bryan.lee\AppData\Local\Temp\ccdksgr5.s 			page 9


 215:main.c        ****         LCD_Char_Position(1,0);
 220              		.loc 1 215 0
 221 0132 0021     		movs	r1, #0
 222 0134 0120     		movs	r0, #1
 223 0136 FFF7FEFF 		bl	LCD_Char_Position
 216:main.c        ****         LCD_Char_PrintInt8(rdValue);
 224              		.loc 1 216 0
 225 013a 97F88530 		ldrb	r3, [r7, #133]	@ zero_extendqisi2
 226 013e 1846     		mov	r0, r3
 227 0140 FFF7FEFF 		bl	LCD_Char_PrintInt8
 217:main.c        ****         LCD_Char_Position(2,0);
 228              		.loc 1 217 0
 229 0144 0021     		movs	r1, #0
 230 0146 0220     		movs	r0, #2
 231 0148 FFF7FEFF 		bl	LCD_Char_Position
 218:main.c        ****         LCD_Char_PrintInt8(rdBuffer[0]);
 232              		.loc 1 218 0
 233 014c 97F84430 		ldrb	r3, [r7, #68]	@ zero_extendqisi2
 234 0150 1846     		mov	r0, r3
 235 0152 FFF7FEFF 		bl	LCD_Char_PrintInt8
 219:main.c        ****         LCD_Char_Position(3,0);
 236              		.loc 1 219 0
 237 0156 0021     		movs	r1, #0
 238 0158 0320     		movs	r0, #3
 239 015a FFF7FEFF 		bl	LCD_Char_Position
 220:main.c        ****         LCD_Char_PrintString("end");
 240              		.loc 1 220 0
 241 015e 1248     		ldr	r0, .L10+28
 242 0160 FFF7FEFF 		bl	LCD_Char_PrintString
 221:main.c        ****         
 222:main.c        **** 
 223:main.c        ****         /* Clear the transmit buffer before next reading (good practice) */
 224:main.c        ****         SPIM_ClearTxBuffer();
 243              		.loc 1 224 0
 244 0164 FFF7FEFF 		bl	SPIM_ClearTxBuffer
 225:main.c        **** 
 226:main.c        ****         temp = SPIM_ReadTxStatus();
 245              		.loc 1 226 0
 246 0168 FFF7FEFF 		bl	SPIM_ReadTxStatus
 247 016c 0346     		mov	r3, r0
 248 016e 87F88430 		strb	r3, [r7, #132]
 227:main.c        **** 
 228:main.c        ****         /* Ensure that previous SPI read is done, or SPI is idle before sending data */
 229:main.c        ****         if((temp & (SPIM_STS_SPI_DONE | SPIM_STS_SPI_IDLE)))
 249              		.loc 1 229 0
 250 0172 97F88430 		ldrb	r3, [r7, #132]	@ zero_extendqisi2
 251 0176 03F01103 		and	r3, r3, #17
 252 017a 002B     		cmp	r3, #0
 253 017c 3FF467AF 		beq	.L9
 230:main.c        ****         {
 231:main.c        ****             SPIM_WriteTxData(adcReading);
 254              		.loc 1 231 0
 255 0180 B7F88630 		ldrh	r3, [r7, #134]
 256 0184 1846     		mov	r0, r3
 257 0186 FFF7FEFF 		bl	SPIM_WriteTxData
 232:main.c        ****         }
 233:main.c        **** 
ARM GAS  C:\Users\bryan.lee\AppData\Local\Temp\ccdksgr5.s 			page 10


 234:main.c        ****     }  /* End of forever loop */
 258              		.loc 1 234 0
 259 018a 60E7     		b	.L9
 260              	.L11:
 261              		.align	2
 262              	.L10:
 263 018c 00000000 		.word	.LC0
 264 0190 14000000 		.word	.LC1
 265 0194 38000000 		.word	.LC2
 266 0198 44000000 		.word	.LC3
 267 019c 5C000000 		.word	.LC4
 268 01a0 84000000 		.word	.LC5
 269 01a4 AC000000 		.word	.LC6
 270 01a8 B0000000 		.word	.LC7
 271              		.cfi_endproc
 272              	.LFE64:
 273              		.size	main, .-main
 274              		.section	.text.PrintToUSBUART,"ax",%progbits
 275              		.align	2
 276              		.global	PrintToUSBUART
 277              		.thumb
 278              		.thumb_func
 279              		.type	PrintToUSBUART, %function
 280              	PrintToUSBUART:
 281              	.LFB65:
 235:main.c        **** }  /* End of main */
 236:main.c        **** 
 237:main.c        **** 
 238:main.c        **** /*******************************************************************************
 239:main.c        **** * Function Name: PrintToUSBUART
 240:main.c        **** ********************************************************************************
 241:main.c        **** *
 242:main.c        **** * Summary:
 243:main.c        **** *  The input string passed to the function is printed to the USBUART
 244:main.c        **** *  interface when the CDC device is ready.
 245:main.c        **** *
 246:main.c        **** * Parameters:
 247:main.c        **** *  Text to be printed to USBUART as a string.
 248:main.c        **** *
 249:main.c        **** * Return:
 250:main.c        **** *  None.
 251:main.c        **** *
 252:main.c        **** *******************************************************************************/
 253:main.c        **** 
 254:main.c        **** void PrintToUSBUART(char8 * outText)
 255:main.c        **** {
 282              		.loc 1 255 0
 283              		.cfi_startproc
 284              		@ args = 0, pretend = 0, frame = 8
 285              		@ frame_needed = 1, uses_anonymous_args = 0
 286 0000 80B5     		push	{r7, lr}
 287              		.cfi_def_cfa_offset 8
 288              		.cfi_offset 7, -8
 289              		.cfi_offset 14, -4
 290 0002 82B0     		sub	sp, sp, #8
 291              		.cfi_def_cfa_offset 16
 292 0004 00AF     		add	r7, sp, #0
ARM GAS  C:\Users\bryan.lee\AppData\Local\Temp\ccdksgr5.s 			page 11


 293              		.cfi_def_cfa_register 7
 294 0006 7860     		str	r0, [r7, #4]
 256:main.c        ****     /* Wait till the CDC device is ready before sending data */
 257:main.c        ****     while(USBUART_1_CDCIsReady() == 0u);
 295              		.loc 1 257 0
 296 0008 00BF     		nop
 297              	.L13:
 298              		.loc 1 257 0 is_stmt 0 discriminator 1
 299 000a FFF7FEFF 		bl	USBUART_1_CDCIsReady
 300 000e 0346     		mov	r3, r0
 301 0010 002B     		cmp	r3, #0
 302 0012 FAD0     		beq	.L13
 258:main.c        ****     /* Send strlen number of characters of wrBuffer to USBUART */
 259:main.c        ****     USBUART_1_PutData((uint8 *)outText, strlen(outText));
 303              		.loc 1 259 0 is_stmt 1
 304 0014 7868     		ldr	r0, [r7, #4]
 305 0016 FFF7FEFF 		bl	strlen
 306 001a 0346     		mov	r3, r0
 307 001c 9BB2     		uxth	r3, r3
 308 001e 1946     		mov	r1, r3
 309 0020 7868     		ldr	r0, [r7, #4]
 310 0022 FFF7FEFF 		bl	USBUART_1_PutData
 260:main.c        **** }
 311              		.loc 1 260 0
 312 0026 00BF     		nop
 313 0028 0837     		adds	r7, r7, #8
 314              		.cfi_def_cfa_offset 8
 315 002a BD46     		mov	sp, r7
 316              		.cfi_def_cfa_register 13
 317              		@ sp needed
 318 002c 80BD     		pop	{r7, pc}
 319              		.cfi_endproc
 320              	.LFE65:
 321              		.size	PrintToUSBUART, .-PrintToUSBUART
 322              		.text
 323              	.Letext0:
 324              		.file 2 "c:\\program files (x86)\\cypress\\psoc creator\\4.3\\psoc creator\\import\\gnu\\arm\\5.4.
 325              		.file 3 "c:\\program files (x86)\\cypress\\psoc creator\\4.3\\psoc creator\\import\\gnu\\arm\\5.4.
 326              		.file 4 "Generated_Source\\PSoC5/cytypes.h"
 327              		.file 5 "Generated_Source\\PSoC5/core_cm3.h"