ARM GAS  C:\Users\bryan.lee\AppData\Local\Temp\ccjkYYi5.s 			page 1


   1              		.syntax unified
   2              		.cpu cortex-m0
   3              		.fpu softvfp
   4              		.eabi_attribute 20, 1
   5              		.eabi_attribute 21, 1
   6              		.eabi_attribute 23, 3
   7              		.eabi_attribute 24, 1
   8              		.eabi_attribute 25, 1
   9              		.eabi_attribute 26, 1
  10              		.eabi_attribute 30, 1
  11              		.eabi_attribute 34, 0
  12              		.eabi_attribute 18, 4
  13              		.thumb
  14              		.syntax unified
  15              		.file	"ADC_SAR_Seq_Button.c"
  16              		.text
  17              	.Ltext0:
  18              		.cfi_sections	.debug_frame
  19              		.section	.text.ADC_SAR_Seq_Button_Init,"ax",%progbits
  20              		.align	2
  21              		.global	ADC_SAR_Seq_Button_Init
  22              		.code	16
  23              		.thumb_func
  24              		.type	ADC_SAR_Seq_Button_Init, %function
  25              	ADC_SAR_Seq_Button_Init:
  26              	.LFB3:
  27              		.file 1 "Generated_Source\\PSoC4\\ADC_SAR_Seq_Button.c"
   1:Generated_Source\PSoC4/ADC_SAR_Seq_Button.c **** /*******************************************************************************
   2:Generated_Source\PSoC4/ADC_SAR_Seq_Button.c **** * File Name: ADC_SAR_Seq_Button.c
   3:Generated_Source\PSoC4/ADC_SAR_Seq_Button.c **** * Version 2.40
   4:Generated_Source\PSoC4/ADC_SAR_Seq_Button.c **** *
   5:Generated_Source\PSoC4/ADC_SAR_Seq_Button.c **** * Description:
   6:Generated_Source\PSoC4/ADC_SAR_Seq_Button.c **** *  This file provides the source code to the API for the Sequencing Successive
   7:Generated_Source\PSoC4/ADC_SAR_Seq_Button.c **** *  Approximation ADC Component Component.
   8:Generated_Source\PSoC4/ADC_SAR_Seq_Button.c **** *
   9:Generated_Source\PSoC4/ADC_SAR_Seq_Button.c **** * Note:
  10:Generated_Source\PSoC4/ADC_SAR_Seq_Button.c **** *
  11:Generated_Source\PSoC4/ADC_SAR_Seq_Button.c **** ********************************************************************************
  12:Generated_Source\PSoC4/ADC_SAR_Seq_Button.c **** * Copyright 2008-2015, Cypress Semiconductor Corporation.  All rights reserved.
  13:Generated_Source\PSoC4/ADC_SAR_Seq_Button.c **** * You may use this file only in accordance with the license, terms, conditions,
  14:Generated_Source\PSoC4/ADC_SAR_Seq_Button.c **** * disclaimers, and limitations in the end user license agreement accompanying
  15:Generated_Source\PSoC4/ADC_SAR_Seq_Button.c **** * the software package with which this file was provided.
  16:Generated_Source\PSoC4/ADC_SAR_Seq_Button.c **** *******************************************************************************/
  17:Generated_Source\PSoC4/ADC_SAR_Seq_Button.c **** 
  18:Generated_Source\PSoC4/ADC_SAR_Seq_Button.c **** #include "ADC_SAR_Seq_Button.h"
  19:Generated_Source\PSoC4/ADC_SAR_Seq_Button.c **** 
  20:Generated_Source\PSoC4/ADC_SAR_Seq_Button.c **** 
  21:Generated_Source\PSoC4/ADC_SAR_Seq_Button.c **** /***************************************
  22:Generated_Source\PSoC4/ADC_SAR_Seq_Button.c **** * Global data allocation
  23:Generated_Source\PSoC4/ADC_SAR_Seq_Button.c **** ***************************************/
  24:Generated_Source\PSoC4/ADC_SAR_Seq_Button.c **** uint8 ADC_SAR_Seq_Button_initVar = 0u;
  25:Generated_Source\PSoC4/ADC_SAR_Seq_Button.c **** volatile int16 ADC_SAR_Seq_Button_offset[ADC_SAR_Seq_Button_TOTAL_CHANNELS_NUM];
  26:Generated_Source\PSoC4/ADC_SAR_Seq_Button.c **** volatile int32 ADC_SAR_Seq_Button_countsPer10Volt[ADC_SAR_Seq_Button_TOTAL_CHANNELS_NUM];   /* Gain
  27:Generated_Source\PSoC4/ADC_SAR_Seq_Button.c **** 
  28:Generated_Source\PSoC4/ADC_SAR_Seq_Button.c **** 
  29:Generated_Source\PSoC4/ADC_SAR_Seq_Button.c **** /***************************************
  30:Generated_Source\PSoC4/ADC_SAR_Seq_Button.c **** * Local data allocation
ARM GAS  C:\Users\bryan.lee\AppData\Local\Temp\ccjkYYi5.s 			page 2


  31:Generated_Source\PSoC4/ADC_SAR_Seq_Button.c **** ***************************************/
  32:Generated_Source\PSoC4/ADC_SAR_Seq_Button.c **** /* Channels configuration generated by customiser */
  33:Generated_Source\PSoC4/ADC_SAR_Seq_Button.c **** static const uint32 CYCODE ADC_SAR_Seq_Button_channelsConfig[] = { 0x00000200u };
  34:Generated_Source\PSoC4/ADC_SAR_Seq_Button.c **** 
  35:Generated_Source\PSoC4/ADC_SAR_Seq_Button.c **** 
  36:Generated_Source\PSoC4/ADC_SAR_Seq_Button.c **** /*******************************************************************************
  37:Generated_Source\PSoC4/ADC_SAR_Seq_Button.c **** * Function Name: ADC_SAR_Seq_Button_Start
  38:Generated_Source\PSoC4/ADC_SAR_Seq_Button.c **** ********************************************************************************
  39:Generated_Source\PSoC4/ADC_SAR_Seq_Button.c **** *
  40:Generated_Source\PSoC4/ADC_SAR_Seq_Button.c **** * Summary:
  41:Generated_Source\PSoC4/ADC_SAR_Seq_Button.c **** *  Performs all required initialization for this component
  42:Generated_Source\PSoC4/ADC_SAR_Seq_Button.c **** *  and enables the power. The power will be set to the appropriate
  43:Generated_Source\PSoC4/ADC_SAR_Seq_Button.c **** *  power based on the clock frequency.
  44:Generated_Source\PSoC4/ADC_SAR_Seq_Button.c **** *
  45:Generated_Source\PSoC4/ADC_SAR_Seq_Button.c **** * Parameters:
  46:Generated_Source\PSoC4/ADC_SAR_Seq_Button.c **** *  None.
  47:Generated_Source\PSoC4/ADC_SAR_Seq_Button.c **** *
  48:Generated_Source\PSoC4/ADC_SAR_Seq_Button.c **** * Return:
  49:Generated_Source\PSoC4/ADC_SAR_Seq_Button.c **** *  None.
  50:Generated_Source\PSoC4/ADC_SAR_Seq_Button.c **** *
  51:Generated_Source\PSoC4/ADC_SAR_Seq_Button.c **** * Global variables:
  52:Generated_Source\PSoC4/ADC_SAR_Seq_Button.c **** *  The ADC_SAR_Seq_Button_initVar variable is used to indicate when/if initial
  53:Generated_Source\PSoC4/ADC_SAR_Seq_Button.c **** *  configuration of this component has happened. The variable is initialized to
  54:Generated_Source\PSoC4/ADC_SAR_Seq_Button.c **** *  zero and set to 1 the first time ADC_Start() is called. This allows for
  55:Generated_Source\PSoC4/ADC_SAR_Seq_Button.c **** *  component Re-Start without re-initialization in all subsequent calls to the
  56:Generated_Source\PSoC4/ADC_SAR_Seq_Button.c **** *  ADC_SAR_Seq_Button_Start() routine.
  57:Generated_Source\PSoC4/ADC_SAR_Seq_Button.c **** *  If re-initialization of the component is required the variable should be set
  58:Generated_Source\PSoC4/ADC_SAR_Seq_Button.c **** *  to zero before call of ADC_SAR_Seq_Button_Start() routine, or the user may call
  59:Generated_Source\PSoC4/ADC_SAR_Seq_Button.c **** *  ADC_SAR_Seq_Button_Init() and ADC_SAR_Seq_Button_Enable() as done in the
  60:Generated_Source\PSoC4/ADC_SAR_Seq_Button.c **** *  ADC_SAR_Seq_Button_Start() routine.
  61:Generated_Source\PSoC4/ADC_SAR_Seq_Button.c **** *
  62:Generated_Source\PSoC4/ADC_SAR_Seq_Button.c **** *******************************************************************************/
  63:Generated_Source\PSoC4/ADC_SAR_Seq_Button.c **** void ADC_SAR_Seq_Button_Start(void)
  64:Generated_Source\PSoC4/ADC_SAR_Seq_Button.c **** {
  65:Generated_Source\PSoC4/ADC_SAR_Seq_Button.c ****     /* If not Initialized then initialize all required hardware and software */
  66:Generated_Source\PSoC4/ADC_SAR_Seq_Button.c ****     if(ADC_SAR_Seq_Button_initVar == 0u)
  67:Generated_Source\PSoC4/ADC_SAR_Seq_Button.c ****     {
  68:Generated_Source\PSoC4/ADC_SAR_Seq_Button.c ****         ADC_SAR_Seq_Button_Init();
  69:Generated_Source\PSoC4/ADC_SAR_Seq_Button.c ****         ADC_SAR_Seq_Button_initVar = 1u;
  70:Generated_Source\PSoC4/ADC_SAR_Seq_Button.c ****     }
  71:Generated_Source\PSoC4/ADC_SAR_Seq_Button.c ****     ADC_SAR_Seq_Button_Enable();
  72:Generated_Source\PSoC4/ADC_SAR_Seq_Button.c **** }
  73:Generated_Source\PSoC4/ADC_SAR_Seq_Button.c **** 
  74:Generated_Source\PSoC4/ADC_SAR_Seq_Button.c **** 
  75:Generated_Source\PSoC4/ADC_SAR_Seq_Button.c **** /*******************************************************************************
  76:Generated_Source\PSoC4/ADC_SAR_Seq_Button.c **** * Function Name: ADC_SAR_Seq_Button_Init
  77:Generated_Source\PSoC4/ADC_SAR_Seq_Button.c **** ********************************************************************************
  78:Generated_Source\PSoC4/ADC_SAR_Seq_Button.c **** *
  79:Generated_Source\PSoC4/ADC_SAR_Seq_Button.c **** * Summary:
  80:Generated_Source\PSoC4/ADC_SAR_Seq_Button.c **** *  Initialize component's parameters to the parameters set by user in the
  81:Generated_Source\PSoC4/ADC_SAR_Seq_Button.c **** *  customizer of the component placed onto schematic. Usually called in
  82:Generated_Source\PSoC4/ADC_SAR_Seq_Button.c **** *  ADC_SAR_Seq_Button_Start().
  83:Generated_Source\PSoC4/ADC_SAR_Seq_Button.c **** *
  84:Generated_Source\PSoC4/ADC_SAR_Seq_Button.c **** * Parameters:
  85:Generated_Source\PSoC4/ADC_SAR_Seq_Button.c **** *  None.
  86:Generated_Source\PSoC4/ADC_SAR_Seq_Button.c **** *
  87:Generated_Source\PSoC4/ADC_SAR_Seq_Button.c **** * Return:
ARM GAS  C:\Users\bryan.lee\AppData\Local\Temp\ccjkYYi5.s 			page 3


  88:Generated_Source\PSoC4/ADC_SAR_Seq_Button.c **** *  None.
  89:Generated_Source\PSoC4/ADC_SAR_Seq_Button.c **** *
  90:Generated_Source\PSoC4/ADC_SAR_Seq_Button.c **** * Global variables:
  91:Generated_Source\PSoC4/ADC_SAR_Seq_Button.c **** *  The ADC_SAR_Seq_Button_offset variable is initialized.
  92:Generated_Source\PSoC4/ADC_SAR_Seq_Button.c **** *
  93:Generated_Source\PSoC4/ADC_SAR_Seq_Button.c **** *******************************************************************************/
  94:Generated_Source\PSoC4/ADC_SAR_Seq_Button.c **** void ADC_SAR_Seq_Button_Init(void)
  95:Generated_Source\PSoC4/ADC_SAR_Seq_Button.c **** {
  28              		.loc 1 95 0
  29              		.cfi_startproc
  30              		@ args = 0, pretend = 0, frame = 0
  31              		@ frame_needed = 0, uses_anonymous_args = 0
  32 0000 10B5     		push	{r4, lr}
  33              		.cfi_def_cfa_offset 8
  34              		.cfi_offset 4, -8
  35              		.cfi_offset 14, -4
  96:Generated_Source\PSoC4/ADC_SAR_Seq_Button.c ****     uint32 chNum;
  97:Generated_Source\PSoC4/ADC_SAR_Seq_Button.c ****     uint32 tmpRegVal;
  98:Generated_Source\PSoC4/ADC_SAR_Seq_Button.c ****     int32 counts;
  99:Generated_Source\PSoC4/ADC_SAR_Seq_Button.c **** 
 100:Generated_Source\PSoC4/ADC_SAR_Seq_Button.c ****     #if(ADC_SAR_Seq_Button_TOTAL_CHANNELS_NUM > 1u)
 101:Generated_Source\PSoC4/ADC_SAR_Seq_Button.c ****         static const uint8 CYCODE ADC_SAR_Seq_Button_InputsPlacement[] =
 102:Generated_Source\PSoC4/ADC_SAR_Seq_Button.c ****         {
 103:Generated_Source\PSoC4/ADC_SAR_Seq_Button.c ****             (uint8)(ADC_SAR_Seq_Button_cy_psoc4_sarmux_8__CH_0_PORT << 4u) |
 104:Generated_Source\PSoC4/ADC_SAR_Seq_Button.c ****             (uint8)ADC_SAR_Seq_Button_cy_psoc4_sarmux_8__CH_0_PIN
 105:Generated_Source\PSoC4/ADC_SAR_Seq_Button.c ****             ,(uint8)(ADC_SAR_Seq_Button_cy_psoc4_sarmux_8__CH_1_PORT << 4u) |
 106:Generated_Source\PSoC4/ADC_SAR_Seq_Button.c ****              (uint8)ADC_SAR_Seq_Button_cy_psoc4_sarmux_8__CH_1_PIN
 107:Generated_Source\PSoC4/ADC_SAR_Seq_Button.c ****             #if(ADC_SAR_Seq_Button_TOTAL_CHANNELS_NUM > 2u)
 108:Generated_Source\PSoC4/ADC_SAR_Seq_Button.c ****                 ,(uint8)(ADC_SAR_Seq_Button_cy_psoc4_sarmux_8__CH_2_PORT << 4u) |
 109:Generated_Source\PSoC4/ADC_SAR_Seq_Button.c ****                  (uint8)ADC_SAR_Seq_Button_cy_psoc4_sarmux_8__CH_2_PIN
 110:Generated_Source\PSoC4/ADC_SAR_Seq_Button.c ****             #endif /* End ADC_SAR_Seq_Button_TOTAL_CHANNELS_NUM > 2u */
 111:Generated_Source\PSoC4/ADC_SAR_Seq_Button.c ****             #if(ADC_SAR_Seq_Button_TOTAL_CHANNELS_NUM > 3u)
 112:Generated_Source\PSoC4/ADC_SAR_Seq_Button.c ****                 ,(uint8)(ADC_SAR_Seq_Button_cy_psoc4_sarmux_8__CH_3_PORT << 4u) |
 113:Generated_Source\PSoC4/ADC_SAR_Seq_Button.c ****                  (uint8)ADC_SAR_Seq_Button_cy_psoc4_sarmux_8__CH_3_PIN
 114:Generated_Source\PSoC4/ADC_SAR_Seq_Button.c ****             #endif /* End ADC_SAR_Seq_Button_TOTAL_CHANNELS_NUM > 3u */
 115:Generated_Source\PSoC4/ADC_SAR_Seq_Button.c ****             #if(ADC_SAR_Seq_Button_TOTAL_CHANNELS_NUM > 4u)
 116:Generated_Source\PSoC4/ADC_SAR_Seq_Button.c ****                 ,(uint8)(ADC_SAR_Seq_Button_cy_psoc4_sarmux_8__CH_4_PORT << 4u) |
 117:Generated_Source\PSoC4/ADC_SAR_Seq_Button.c ****                  (uint8)ADC_SAR_Seq_Button_cy_psoc4_sarmux_8__CH_4_PIN
 118:Generated_Source\PSoC4/ADC_SAR_Seq_Button.c ****             #endif /* End ADC_SAR_Seq_Button_TOTAL_CHANNELS_NUM > 4u */
 119:Generated_Source\PSoC4/ADC_SAR_Seq_Button.c ****             #if(ADC_SAR_Seq_Button_TOTAL_CHANNELS_NUM > 5u)
 120:Generated_Source\PSoC4/ADC_SAR_Seq_Button.c ****                 ,(uint8)(ADC_SAR_Seq_Button_cy_psoc4_sarmux_8__CH_5_PORT << 4u) |
 121:Generated_Source\PSoC4/ADC_SAR_Seq_Button.c ****                  (uint8)ADC_SAR_Seq_Button_cy_psoc4_sarmux_8__CH_5_PIN
 122:Generated_Source\PSoC4/ADC_SAR_Seq_Button.c ****             #endif /* End ADC_SAR_Seq_Button_TOTAL_CHANNELS_NUM > 5u */
 123:Generated_Source\PSoC4/ADC_SAR_Seq_Button.c ****             #if(ADC_SAR_Seq_Button_TOTAL_CHANNELS_NUM > 6u)
 124:Generated_Source\PSoC4/ADC_SAR_Seq_Button.c ****                 ,(uint8)(ADC_SAR_Seq_Button_cy_psoc4_sarmux_8__CH_6_PORT << 4u) |
 125:Generated_Source\PSoC4/ADC_SAR_Seq_Button.c ****                  (uint8)ADC_SAR_Seq_Button_cy_psoc4_sarmux_8__CH_6_PIN
 126:Generated_Source\PSoC4/ADC_SAR_Seq_Button.c ****             #endif /* End ADC_SAR_Seq_Button_TOTAL_CHANNELS_NUM > 6u */
 127:Generated_Source\PSoC4/ADC_SAR_Seq_Button.c ****             #if(ADC_SAR_Seq_Button_TOTAL_CHANNELS_NUM > 7u)
 128:Generated_Source\PSoC4/ADC_SAR_Seq_Button.c ****                 ,(uint8)(ADC_SAR_Seq_Button_cy_psoc4_sarmux_8__CH_7_PORT << 4u) |
 129:Generated_Source\PSoC4/ADC_SAR_Seq_Button.c ****                  (uint8)ADC_SAR_Seq_Button_cy_psoc4_sarmux_8__CH_7_PIN
 130:Generated_Source\PSoC4/ADC_SAR_Seq_Button.c ****             #endif /* End ADC_SAR_Seq_Button_TOTAL_CHANNELS_NUM > 7u */
 131:Generated_Source\PSoC4/ADC_SAR_Seq_Button.c ****             #if(ADC_SAR_Seq_Button_TOTAL_CHANNELS_NUM > 8u)
 132:Generated_Source\PSoC4/ADC_SAR_Seq_Button.c ****                 ,(uint8)(ADC_SAR_Seq_Button_cy_psoc4_sarmux_8__CH_8_PORT << 4u) |
 133:Generated_Source\PSoC4/ADC_SAR_Seq_Button.c ****                  (uint8)ADC_SAR_Seq_Button_cy_psoc4_sarmux_8__CH_8_PIN
 134:Generated_Source\PSoC4/ADC_SAR_Seq_Button.c ****             #endif /* End ADC_SAR_Seq_Button_TOTAL_CHANNELS_NUM > 8u */
 135:Generated_Source\PSoC4/ADC_SAR_Seq_Button.c ****             #if(ADC_SAR_Seq_Button_TOTAL_CHANNELS_NUM > 9u)
 136:Generated_Source\PSoC4/ADC_SAR_Seq_Button.c ****                 ,(uint8)(ADC_SAR_Seq_Button_cy_psoc4_sarmux_8__CH_9_PORT << 4u) |
ARM GAS  C:\Users\bryan.lee\AppData\Local\Temp\ccjkYYi5.s 			page 4


 137:Generated_Source\PSoC4/ADC_SAR_Seq_Button.c ****                  (uint8)ADC_SAR_Seq_Button_cy_psoc4_sarmux_8__CH_9_PIN
 138:Generated_Source\PSoC4/ADC_SAR_Seq_Button.c ****             #endif /* End ADC_SAR_Seq_Button_TOTAL_CHANNELS_NUM > 9u */
 139:Generated_Source\PSoC4/ADC_SAR_Seq_Button.c ****             #if(ADC_SAR_Seq_Button_TOTAL_CHANNELS_NUM > 10u)
 140:Generated_Source\PSoC4/ADC_SAR_Seq_Button.c ****                 ,(uint8)(ADC_SAR_Seq_Button_cy_psoc4_sarmux_8__CH_10_PORT << 4u) |
 141:Generated_Source\PSoC4/ADC_SAR_Seq_Button.c ****                  (uint8)ADC_SAR_Seq_Button_cy_psoc4_sarmux_8__CH_10_PIN
 142:Generated_Source\PSoC4/ADC_SAR_Seq_Button.c ****             #endif /* End ADC_SAR_Seq_Button_TOTAL_CHANNELS_NUM > 10u */
 143:Generated_Source\PSoC4/ADC_SAR_Seq_Button.c ****             #if(ADC_SAR_Seq_Button_TOTAL_CHANNELS_NUM > 11u)
 144:Generated_Source\PSoC4/ADC_SAR_Seq_Button.c ****                 ,(uint8)(ADC_SAR_Seq_Button_cy_psoc4_sarmux_8__CH_11_PORT << 4u) |
 145:Generated_Source\PSoC4/ADC_SAR_Seq_Button.c ****                  (uint8)ADC_SAR_Seq_Button_cy_psoc4_sarmux_8__CH_11_PIN
 146:Generated_Source\PSoC4/ADC_SAR_Seq_Button.c ****             #endif /* End ADC_SAR_Seq_Button_TOTAL_CHANNELS_NUM > 11u */
 147:Generated_Source\PSoC4/ADC_SAR_Seq_Button.c ****             #if(ADC_SAR_Seq_Button_TOTAL_CHANNELS_NUM > 12u)
 148:Generated_Source\PSoC4/ADC_SAR_Seq_Button.c ****                 ,(uint8)(ADC_SAR_Seq_Button_cy_psoc4_sarmux_8__CH_12_PORT << 4u) |
 149:Generated_Source\PSoC4/ADC_SAR_Seq_Button.c ****                  (uint8)ADC_SAR_Seq_Button_cy_psoc4_sarmux_8__CH_12_PIN
 150:Generated_Source\PSoC4/ADC_SAR_Seq_Button.c ****             #endif /* End ADC_SAR_Seq_Button_TOTAL_CHANNELS_NUM > 12u */
 151:Generated_Source\PSoC4/ADC_SAR_Seq_Button.c ****             #if(ADC_SAR_Seq_Button_TOTAL_CHANNELS_NUM > 13u)
 152:Generated_Source\PSoC4/ADC_SAR_Seq_Button.c ****                 ,(uint8)(ADC_SAR_Seq_Button_cy_psoc4_sarmux_8__CH_13_PORT << 4u) |
 153:Generated_Source\PSoC4/ADC_SAR_Seq_Button.c ****                  (uint8)ADC_SAR_Seq_Button_cy_psoc4_sarmux_8__CH_13_PIN
 154:Generated_Source\PSoC4/ADC_SAR_Seq_Button.c ****             #endif /* End ADC_SAR_Seq_Button_TOTAL_CHANNELS_NUM > 13u */
 155:Generated_Source\PSoC4/ADC_SAR_Seq_Button.c ****             #if(ADC_SAR_Seq_Button_TOTAL_CHANNELS_NUM > 14u)
 156:Generated_Source\PSoC4/ADC_SAR_Seq_Button.c ****                 ,(uint8)(ADC_SAR_Seq_Button_cy_psoc4_sarmux_8__CH_14_PORT << 4u) |
 157:Generated_Source\PSoC4/ADC_SAR_Seq_Button.c ****                  (uint8)ADC_SAR_Seq_Button_cy_psoc4_sarmux_8__CH_14_PIN
 158:Generated_Source\PSoC4/ADC_SAR_Seq_Button.c ****             #endif /* End ADC_SAR_Seq_Button_TOTAL_CHANNELS_NUM > 14u */
 159:Generated_Source\PSoC4/ADC_SAR_Seq_Button.c ****             #if(ADC_SAR_Seq_Button_TOTAL_CHANNELS_NUM > 15u)
 160:Generated_Source\PSoC4/ADC_SAR_Seq_Button.c ****                 ,(uint8)(ADC_SAR_Seq_Button_cy_psoc4_sarmux_8__CH_15_PORT << 4u) |
 161:Generated_Source\PSoC4/ADC_SAR_Seq_Button.c ****                  (uint8)ADC_SAR_Seq_Button_cy_psoc4_sarmux_8__CH_15_PIN
 162:Generated_Source\PSoC4/ADC_SAR_Seq_Button.c ****             #endif /* End ADC_SAR_Seq_Button_TOTAL_CHANNELS_NUM > 15u */
 163:Generated_Source\PSoC4/ADC_SAR_Seq_Button.c ****             #if(ADC_SAR_Seq_Button_TOTAL_CHANNELS_NUM > 16u)
 164:Generated_Source\PSoC4/ADC_SAR_Seq_Button.c ****                 ,(uint8)(ADC_SAR_Seq_Button_cy_psoc4_sarmux_8__CH_16_PORT << 4u) |
 165:Generated_Source\PSoC4/ADC_SAR_Seq_Button.c ****                  (uint8)ADC_SAR_Seq_Button_cy_psoc4_sarmux_8__CH_16_PIN
 166:Generated_Source\PSoC4/ADC_SAR_Seq_Button.c ****             #endif /* End ADC_SAR_Seq_Button_TOTAL_CHANNELS_NUM > 16u */
 167:Generated_Source\PSoC4/ADC_SAR_Seq_Button.c ****         };
 168:Generated_Source\PSoC4/ADC_SAR_Seq_Button.c ****     #endif /* End ADC_SAR_Seq_Button_TOTAL_CHANNELS_NUM > 1u */
 169:Generated_Source\PSoC4/ADC_SAR_Seq_Button.c **** 
 170:Generated_Source\PSoC4/ADC_SAR_Seq_Button.c ****     #if(ADC_SAR_Seq_Button_IRQ_REMOVE == 0u)
 171:Generated_Source\PSoC4/ADC_SAR_Seq_Button.c ****         /* Start and set interrupt vector */
 172:Generated_Source\PSoC4/ADC_SAR_Seq_Button.c ****         CyIntSetPriority(ADC_SAR_Seq_Button_INTC_NUMBER, ADC_SAR_Seq_Button_INTC_PRIOR_NUMBER);
  36              		.loc 1 172 0
  37 0002 0321     		movs	r1, #3
  38 0004 0F20     		movs	r0, #15
  39 0006 FFF7FEFF 		bl	CyIntSetPriority
  40              	.LVL0:
 173:Generated_Source\PSoC4/ADC_SAR_Seq_Button.c ****         (void)CyIntSetVector(ADC_SAR_Seq_Button_INTC_NUMBER, &ADC_SAR_Seq_Button_ISR);
  41              		.loc 1 173 0
  42 000a 2349     		ldr	r1, .L6
  43 000c 0F20     		movs	r0, #15
  44 000e FFF7FEFF 		bl	CyIntSetVector
  45              	.LVL1:
 174:Generated_Source\PSoC4/ADC_SAR_Seq_Button.c ****     #endif   /* End ADC_SAR_Seq_Button_IRQ_REMOVE */
 175:Generated_Source\PSoC4/ADC_SAR_Seq_Button.c **** 
 176:Generated_Source\PSoC4/ADC_SAR_Seq_Button.c ****     /* Init SAR and MUX registers */
 177:Generated_Source\PSoC4/ADC_SAR_Seq_Button.c ****     ADC_SAR_Seq_Button_SAR_CHAN_EN_REG = ADC_SAR_Seq_Button_DEFAULT_EN_CHANNELS;
  46              		.loc 1 177 0
  47 0012 0122     		movs	r2, #1
  48 0014 214B     		ldr	r3, .L6+4
  49 0016 1A60     		str	r2, [r3]
 178:Generated_Source\PSoC4/ADC_SAR_Seq_Button.c ****     ADC_SAR_Seq_Button_SAR_CTRL_REG |= ADC_SAR_Seq_Button_DEFAULT_CTRL_REG_CFG | 
 179:Generated_Source\PSoC4/ADC_SAR_Seq_Button.c ****         /* Enable the SAR internal pump when global pump is enabled */
ARM GAS  C:\Users\bryan.lee\AppData\Local\Temp\ccjkYYi5.s 			page 5


 180:Generated_Source\PSoC4/ADC_SAR_Seq_Button.c ****         (((ADC_SAR_Seq_Button_PUMP_CTRL_REG & ADC_SAR_Seq_Button_PUMP_CTRL_ENABLED) != 0u) ? 
  50              		.loc 1 180 0
  51 0018 214B     		ldr	r3, .L6+8
  52 001a 1B68     		ldr	r3, [r3]
 178:Generated_Source\PSoC4/ADC_SAR_Seq_Button.c ****     ADC_SAR_Seq_Button_SAR_CTRL_REG |= ADC_SAR_Seq_Button_DEFAULT_CTRL_REG_CFG | 
  53              		.loc 1 178 0
  54 001c 002B     		cmp	r3, #0
  55 001e 01DA     		bge	.L5
  56 0020 2049     		ldr	r1, .L6+12
  57 0022 00E0     		b	.L2
  58              	.L5:
  59 0024 2049     		ldr	r1, .L6+16
  60              	.L2:
 178:Generated_Source\PSoC4/ADC_SAR_Seq_Button.c ****     ADC_SAR_Seq_Button_SAR_CTRL_REG |= ADC_SAR_Seq_Button_DEFAULT_CTRL_REG_CFG | 
  61              		.loc 1 178 0 is_stmt 0 discriminator 4
  62 0026 214A     		ldr	r2, .L6+20
  63 0028 1368     		ldr	r3, [r2]
  64 002a 0B43     		orrs	r3, r1
  65 002c 1360     		str	r3, [r2]
 181:Generated_Source\PSoC4/ADC_SAR_Seq_Button.c ****         ADC_SAR_Seq_Button_BOOSTPUMP_EN : 0u);
 182:Generated_Source\PSoC4/ADC_SAR_Seq_Button.c ****     ADC_SAR_Seq_Button_SAR_SAMPLE_CTRL_REG = ADC_SAR_Seq_Button_DEFAULT_SAMPLE_CTRL_REG_CFG;
  66              		.loc 1 182 0 is_stmt 1 discriminator 4
  67 002e 204A     		ldr	r2, .L6+24
  68 0030 204B     		ldr	r3, .L6+28
  69 0032 1A60     		str	r2, [r3]
 183:Generated_Source\PSoC4/ADC_SAR_Seq_Button.c ****     ADC_SAR_Seq_Button_SAR_RANGE_THRES_REG = ADC_SAR_Seq_Button_DEFAULT_RANGE_THRES_REG_CFG;
  70              		.loc 1 183 0 discriminator 4
  71 0034 204A     		ldr	r2, .L6+32
  72 0036 214B     		ldr	r3, .L6+36
  73 0038 1A60     		str	r2, [r3]
 184:Generated_Source\PSoC4/ADC_SAR_Seq_Button.c ****     ADC_SAR_Seq_Button_SAR_RANGE_COND_REG  = ADC_SAR_Seq_Button_COMPARE_MODE;
  74              		.loc 1 184 0 discriminator 4
  75 003a 0023     		movs	r3, #0
  76 003c 204A     		ldr	r2, .L6+40
  77 003e 1360     		str	r3, [r2]
 185:Generated_Source\PSoC4/ADC_SAR_Seq_Button.c ****     ADC_SAR_Seq_Button_SAR_SAMPLE_TIME01_REG = ADC_SAR_Seq_Button_DEFAULT_SAMPLE_TIME01_REG_CFG;
  78              		.loc 1 185 0 discriminator 4
  79 0040 204A     		ldr	r2, .L6+44
  80 0042 2149     		ldr	r1, .L6+48
  81 0044 0A60     		str	r2, [r1]
 186:Generated_Source\PSoC4/ADC_SAR_Seq_Button.c ****     ADC_SAR_Seq_Button_SAR_SAMPLE_TIME23_REG = ADC_SAR_Seq_Button_DEFAULT_SAMPLE_TIME23_REG_CFG;
  82              		.loc 1 186 0 discriminator 4
  83 0046 2149     		ldr	r1, .L6+52
  84 0048 0A60     		str	r2, [r1]
 187:Generated_Source\PSoC4/ADC_SAR_Seq_Button.c ****     
 188:Generated_Source\PSoC4/ADC_SAR_Seq_Button.c ****     /* Connect Vm to VSSA when even one channel is single-ended or multiple channels configured */
 189:Generated_Source\PSoC4/ADC_SAR_Seq_Button.c ****     #if(ADC_SAR_Seq_Button_DEFAULT_MUX_SWITCH0 != 0u)
 190:Generated_Source\PSoC4/ADC_SAR_Seq_Button.c ****         ADC_SAR_Seq_Button_MUX_SWITCH0_REG |= ADC_SAR_Seq_Button_DEFAULT_MUX_SWITCH0;
 191:Generated_Source\PSoC4/ADC_SAR_Seq_Button.c ****         /* Set MUX_HW_CTRL_VSSA in MUX_SWITCH_HW_CTRL when multiple channels enabled */
 192:Generated_Source\PSoC4/ADC_SAR_Seq_Button.c ****         #if(ADC_SAR_Seq_Button_TOTAL_CHANNELS_NUM > 1u)
 193:Generated_Source\PSoC4/ADC_SAR_Seq_Button.c ****             ADC_SAR_Seq_Button_MUX_SWITCH_HW_CTRL_REG |= ADC_SAR_Seq_Button_DEFAULT_MUX_SWITCH0;
 194:Generated_Source\PSoC4/ADC_SAR_Seq_Button.c ****         #endif /* ADC_SAR_Seq_Button_TOTAL_CHANNELS_NUM > 1u */
 195:Generated_Source\PSoC4/ADC_SAR_Seq_Button.c ****     #endif /*ADC_SAR_Seq_Button_CHANNELS_MODE !=0 */
 196:Generated_Source\PSoC4/ADC_SAR_Seq_Button.c **** 
 197:Generated_Source\PSoC4/ADC_SAR_Seq_Button.c ****     ADC_SAR_Seq_Button_SAR_SATURATE_INTR_MASK_REG = 0u;
  85              		.loc 1 197 0 discriminator 4
  86 004a 214A     		ldr	r2, .L6+56
ARM GAS  C:\Users\bryan.lee\AppData\Local\Temp\ccjkYYi5.s 			page 6


  87 004c 1360     		str	r3, [r2]
 198:Generated_Source\PSoC4/ADC_SAR_Seq_Button.c ****     ADC_SAR_Seq_Button_SAR_RANGE_INTR_MASK_REG = 0u;
  88              		.loc 1 198 0 discriminator 4
  89 004e 214A     		ldr	r2, .L6+60
  90 0050 1360     		str	r3, [r2]
 199:Generated_Source\PSoC4/ADC_SAR_Seq_Button.c ****     ADC_SAR_Seq_Button_SAR_INTR_MASK_REG = ADC_SAR_Seq_Button_SAR_INTR_MASK;
  91              		.loc 1 199 0 discriminator 4
  92 0052 0122     		movs	r2, #1
  93 0054 204B     		ldr	r3, .L6+64
  94 0056 1A60     		str	r2, [r3]
 200:Generated_Source\PSoC4/ADC_SAR_Seq_Button.c **** 
 201:Generated_Source\PSoC4/ADC_SAR_Seq_Button.c ****     #if(ADC_SAR_Seq_Button_CY_SAR_IP_VER == ADC_SAR_Seq_Button_CY_SAR_IP_VER0)
 202:Generated_Source\PSoC4/ADC_SAR_Seq_Button.c ****         ADC_SAR_Seq_Button_ANA_TRIM_REG = ADC_SAR_Seq_Button_TRIM_COEF;
 203:Generated_Source\PSoC4/ADC_SAR_Seq_Button.c ****     #endif /* (ADC_SAR_Seq_Button_CY_SAR_IP_VER == ADC_SAR_Seq_Button_CY_SAR_IP_VER0) */
 204:Generated_Source\PSoC4/ADC_SAR_Seq_Button.c **** 
 205:Generated_Source\PSoC4/ADC_SAR_Seq_Button.c ****     /* Read and modify default configuration based on characterization */
 206:Generated_Source\PSoC4/ADC_SAR_Seq_Button.c ****     tmpRegVal = ADC_SAR_Seq_Button_SAR_DFT_CTRL_REG;
  95              		.loc 1 206 0 discriminator 4
  96 0058 204A     		ldr	r2, .L6+68
  97 005a 1168     		ldr	r1, [r2]
  98              	.LVL2:
  99 005c 204B     		ldr	r3, .L6+72
 100 005e 0B40     		ands	r3, r1
 207:Generated_Source\PSoC4/ADC_SAR_Seq_Button.c ****     tmpRegVal &= (uint32)~ADC_SAR_Seq_Button_DCEN;
 208:Generated_Source\PSoC4/ADC_SAR_Seq_Button.c ****     
 209:Generated_Source\PSoC4/ADC_SAR_Seq_Button.c ****     #if(ADC_SAR_Seq_Button_CY_SAR_IP_VER == ADC_SAR_Seq_Button_CY_SAR_IP_VER0)
 210:Generated_Source\PSoC4/ADC_SAR_Seq_Button.c ****         #if(ADC_SAR_Seq_Button_NOMINAL_CLOCK_FREQ > (ADC_SAR_Seq_Button_MAX_FREQUENCY / 2))
 211:Generated_Source\PSoC4/ADC_SAR_Seq_Button.c ****             tmpRegVal |= ADC_SAR_Seq_Button_SEL_CSEL_DFT_CHAR;
 212:Generated_Source\PSoC4/ADC_SAR_Seq_Button.c ****         #else  /* clock speed < 9 Mhz */
 213:Generated_Source\PSoC4/ADC_SAR_Seq_Button.c ****             tmpRegVal |= ADC_SAR_Seq_Button_DLY_INC;
 214:Generated_Source\PSoC4/ADC_SAR_Seq_Button.c ****         #endif /* clock speed > 9 Mhz */
 215:Generated_Source\PSoC4/ADC_SAR_Seq_Button.c ****     #else
 216:Generated_Source\PSoC4/ADC_SAR_Seq_Button.c ****         #if ((ADC_SAR_Seq_Button_DEFAULT_VREF_SEL == ADC_SAR_Seq_Button__INTERNAL1024) || \
 217:Generated_Source\PSoC4/ADC_SAR_Seq_Button.c ****              (ADC_SAR_Seq_Button_DEFAULT_VREF_SEL == ADC_SAR_Seq_Button__INTERNALVREF))
 218:Generated_Source\PSoC4/ADC_SAR_Seq_Button.c ****             tmpRegVal |= ADC_SAR_Seq_Button_DLY_INC;
 219:Generated_Source\PSoC4/ADC_SAR_Seq_Button.c ****         #else
 220:Generated_Source\PSoC4/ADC_SAR_Seq_Button.c ****             tmpRegVal |= ADC_SAR_Seq_Button_DCEN;
 221:Generated_Source\PSoC4/ADC_SAR_Seq_Button.c ****             tmpRegVal &= (uint32)~ADC_SAR_Seq_Button_DLY_INC;
 101              		.loc 1 221 0 discriminator 4
 102 0060 8021     		movs	r1, #128
 103              	.LVL3:
 104 0062 8905     		lsls	r1, r1, #22
 105 0064 0B43     		orrs	r3, r1
 106              	.LVL4:
 222:Generated_Source\PSoC4/ADC_SAR_Seq_Button.c ****         #endif /* ((ADC_SAR_Seq_Button_DEFAULT_VREF_SEL == ADC_SAR_Seq_Button__INTERNAL1024) || \
 223:Generated_Source\PSoC4/ADC_SAR_Seq_Button.c ****                    (ADC_SAR_Seq_Button_DEFAULT_VREF_SEL == ADC_SAR_Seq_Button__INTERNALVREF)) */
 224:Generated_Source\PSoC4/ADC_SAR_Seq_Button.c ****     #endif /* (ADC_SAR_Seq_Button_CY_SAR_IP_VER == ADC_SAR_Seq_Button_CY_SAR_IP_VER0) */
 225:Generated_Source\PSoC4/ADC_SAR_Seq_Button.c ****     
 226:Generated_Source\PSoC4/ADC_SAR_Seq_Button.c ****     ADC_SAR_Seq_Button_SAR_DFT_CTRL_REG = tmpRegVal;
 107              		.loc 1 226 0 discriminator 4
 108 0066 1360     		str	r3, [r2]
 227:Generated_Source\PSoC4/ADC_SAR_Seq_Button.c **** 
 228:Generated_Source\PSoC4/ADC_SAR_Seq_Button.c ****     #if(ADC_SAR_Seq_Button_MAX_RESOLUTION != ADC_SAR_Seq_Button_RESOLUTION_12)
 229:Generated_Source\PSoC4/ADC_SAR_Seq_Button.c ****         ADC_SAR_Seq_Button_WOUNDING_REG = ADC_SAR_Seq_Button_ALT_WOUNDING;
 109              		.loc 1 229 0 discriminator 4
 110 0068 0222     		movs	r2, #2
 111 006a 1E4B     		ldr	r3, .L6+76
ARM GAS  C:\Users\bryan.lee\AppData\Local\Temp\ccjkYYi5.s 			page 7


 112              	.LVL5:
 113 006c 1A60     		str	r2, [r3]
 114              	.LVL6:
 230:Generated_Source\PSoC4/ADC_SAR_Seq_Button.c ****     #endif /* ADC_SAR_Seq_Button_MAX_RESOLUTION != ADC_SAR_Seq_Button_RESOLUTION_12 */
 231:Generated_Source\PSoC4/ADC_SAR_Seq_Button.c **** 
 232:Generated_Source\PSoC4/ADC_SAR_Seq_Button.c ****     for(chNum = 0u; chNum < ADC_SAR_Seq_Button_TOTAL_CHANNELS_NUM; chNum++)
 115              		.loc 1 232 0 discriminator 4
 116 006e 0023     		movs	r3, #0
 117 0070 0EE0     		b	.L3
 118              	.LVL7:
 119              	.L4:
 233:Generated_Source\PSoC4/ADC_SAR_Seq_Button.c ****     {
 234:Generated_Source\PSoC4/ADC_SAR_Seq_Button.c ****         tmpRegVal = (ADC_SAR_Seq_Button_channelsConfig[chNum] & ADC_SAR_Seq_Button_CHANNEL_CONFIG_M
 235:Generated_Source\PSoC4/ADC_SAR_Seq_Button.c ****         #if(ADC_SAR_Seq_Button_TOTAL_CHANNELS_NUM > 1u)
 236:Generated_Source\PSoC4/ADC_SAR_Seq_Button.c ****             tmpRegVal |= ADC_SAR_Seq_Button_InputsPlacement[chNum];
 237:Generated_Source\PSoC4/ADC_SAR_Seq_Button.c ****         #endif /* End ADC_SAR_Seq_Button_TOTAL_CHANNELS_NUM > 1u */
 238:Generated_Source\PSoC4/ADC_SAR_Seq_Button.c ****         
 239:Generated_Source\PSoC4/ADC_SAR_Seq_Button.c ****         
 240:Generated_Source\PSoC4/ADC_SAR_Seq_Button.c ****         /* When the part is limited to 10-bit then the SUB_RESOLUTION bit
 241:Generated_Source\PSoC4/ADC_SAR_Seq_Button.c ****         *  will be ignored and the RESOLUTION bit selects between 10-bit
 242:Generated_Source\PSoC4/ADC_SAR_Seq_Button.c ****         *  (0) and 8-bit (1) resolution.
 243:Generated_Source\PSoC4/ADC_SAR_Seq_Button.c ****         */
 244:Generated_Source\PSoC4/ADC_SAR_Seq_Button.c ****         #if((ADC_SAR_Seq_Button_MAX_RESOLUTION != ADC_SAR_Seq_Button_RESOLUTION_12) && \
 245:Generated_Source\PSoC4/ADC_SAR_Seq_Button.c ****             (ADC_SAR_Seq_Button_ALT_WOUNDING == ADC_SAR_Seq_Button_WOUNDING_10BIT))
 246:Generated_Source\PSoC4/ADC_SAR_Seq_Button.c ****             tmpRegVal &= (uint32)(~ADC_SAR_Seq_Button_ALT_RESOLUTION_ON);
 247:Generated_Source\PSoC4/ADC_SAR_Seq_Button.c ****         #endif /* ADC_SAR_Seq_Button_MAX_RESOLUTION != ADC_SAR_Seq_Button_RESOLUTION_12 */
 248:Generated_Source\PSoC4/ADC_SAR_Seq_Button.c **** 
 249:Generated_Source\PSoC4/ADC_SAR_Seq_Button.c ****         #if(ADC_SAR_Seq_Button_INJ_CHANNEL_ENABLED)
 250:Generated_Source\PSoC4/ADC_SAR_Seq_Button.c ****         if(chNum < ADC_SAR_Seq_Button_SEQUENCED_CHANNELS_NUM)
 251:Generated_Source\PSoC4/ADC_SAR_Seq_Button.c ****         #endif /* ADC_SAR_Seq_Button_INJ_CHANNEL_ENABLED */
 252:Generated_Source\PSoC4/ADC_SAR_Seq_Button.c ****         {
 253:Generated_Source\PSoC4/ADC_SAR_Seq_Button.c ****             CY_SET_REG32((reg32 *)(ADC_SAR_Seq_Button_SAR_CHAN_CONFIG_IND + (uint32)(chNum << 2)), 
 120              		.loc 1 253 0
 121 0072 9A00     		lsls	r2, r3, #2
 122 0074 1C49     		ldr	r1, .L6+80
 123 0076 5118     		adds	r1, r2, r1
 124 0078 8020     		movs	r0, #128
 125 007a 8000     		lsls	r0, r0, #2
 126 007c 0860     		str	r0, [r1]
 127              	.LVL8:
 254:Generated_Source\PSoC4/ADC_SAR_Seq_Button.c **** 
 255:Generated_Source\PSoC4/ADC_SAR_Seq_Button.c ****             if((ADC_SAR_Seq_Button_channelsConfig[chNum] & ADC_SAR_Seq_Button_IS_SATURATE_EN_MASK) 
 256:Generated_Source\PSoC4/ADC_SAR_Seq_Button.c ****             {
 257:Generated_Source\PSoC4/ADC_SAR_Seq_Button.c ****                 ADC_SAR_Seq_Button_SAR_SATURATE_INTR_MASK_REG |= (uint16)((uint16)1 << chNum);
 258:Generated_Source\PSoC4/ADC_SAR_Seq_Button.c ****             }
 259:Generated_Source\PSoC4/ADC_SAR_Seq_Button.c **** 
 260:Generated_Source\PSoC4/ADC_SAR_Seq_Button.c ****             if((ADC_SAR_Seq_Button_channelsConfig[chNum] & ADC_SAR_Seq_Button_IS_RANGE_CTRL_EN_MASK
 261:Generated_Source\PSoC4/ADC_SAR_Seq_Button.c ****             {
 262:Generated_Source\PSoC4/ADC_SAR_Seq_Button.c ****                 ADC_SAR_Seq_Button_SAR_RANGE_INTR_MASK_REG |= (uint16)((uint16)1 << chNum);
 263:Generated_Source\PSoC4/ADC_SAR_Seq_Button.c ****             }
 264:Generated_Source\PSoC4/ADC_SAR_Seq_Button.c ****         }
 265:Generated_Source\PSoC4/ADC_SAR_Seq_Button.c ****         #if(ADC_SAR_Seq_Button_INJ_CHANNEL_ENABLED)
 266:Generated_Source\PSoC4/ADC_SAR_Seq_Button.c ****             else
 267:Generated_Source\PSoC4/ADC_SAR_Seq_Button.c ****             {
 268:Generated_Source\PSoC4/ADC_SAR_Seq_Button.c ****                 CY_SET_REG32(ADC_SAR_Seq_Button_SAR_INJ_CHAN_CONFIG_PTR, tmpRegVal | ADC_SAR_Seq_Bu
 269:Generated_Source\PSoC4/ADC_SAR_Seq_Button.c **** 
 270:Generated_Source\PSoC4/ADC_SAR_Seq_Button.c ****                 if((ADC_SAR_Seq_Button_channelsConfig[chNum] & ADC_SAR_Seq_Button_IS_SATURATE_EN_MA
ARM GAS  C:\Users\bryan.lee\AppData\Local\Temp\ccjkYYi5.s 			page 8


 271:Generated_Source\PSoC4/ADC_SAR_Seq_Button.c ****                 {
 272:Generated_Source\PSoC4/ADC_SAR_Seq_Button.c ****                     ADC_SAR_Seq_Button_SAR_INTR_MASK_REG |= ADC_SAR_Seq_Button_INJ_SATURATE_MASK;
 273:Generated_Source\PSoC4/ADC_SAR_Seq_Button.c ****                 }
 274:Generated_Source\PSoC4/ADC_SAR_Seq_Button.c **** 
 275:Generated_Source\PSoC4/ADC_SAR_Seq_Button.c ****                 if((ADC_SAR_Seq_Button_channelsConfig[chNum] & ADC_SAR_Seq_Button_IS_RANGE_CTRL_EN_
 276:Generated_Source\PSoC4/ADC_SAR_Seq_Button.c ****                 {
 277:Generated_Source\PSoC4/ADC_SAR_Seq_Button.c ****                     ADC_SAR_Seq_Button_SAR_INTR_MASK_REG |= ADC_SAR_Seq_Button_INJ_RANGE_MASK;
 278:Generated_Source\PSoC4/ADC_SAR_Seq_Button.c ****                 }
 279:Generated_Source\PSoC4/ADC_SAR_Seq_Button.c ****             }
 280:Generated_Source\PSoC4/ADC_SAR_Seq_Button.c ****         #endif /* ADC_SAR_Seq_Button_INJ_CHANNEL_ENABLED */
 281:Generated_Source\PSoC4/ADC_SAR_Seq_Button.c **** 
 282:Generated_Source\PSoC4/ADC_SAR_Seq_Button.c ****         if((ADC_SAR_Seq_Button_channelsConfig[chNum] & ADC_SAR_Seq_Button_ALT_RESOLUTION_ON) != 0u)
 283:Generated_Source\PSoC4/ADC_SAR_Seq_Button.c ****         {
 284:Generated_Source\PSoC4/ADC_SAR_Seq_Button.c ****                counts = (int32)ADC_SAR_Seq_Button_DEFAULT_MAX_WRK_ALT;
 285:Generated_Source\PSoC4/ADC_SAR_Seq_Button.c ****         }
 286:Generated_Source\PSoC4/ADC_SAR_Seq_Button.c ****         else
 287:Generated_Source\PSoC4/ADC_SAR_Seq_Button.c ****         {
 288:Generated_Source\PSoC4/ADC_SAR_Seq_Button.c ****                counts = (int32)ADC_SAR_Seq_Button_SAR_WRK_MAX_12BIT;
 289:Generated_Source\PSoC4/ADC_SAR_Seq_Button.c ****         }
 290:Generated_Source\PSoC4/ADC_SAR_Seq_Button.c **** 
 291:Generated_Source\PSoC4/ADC_SAR_Seq_Button.c ****         if((ADC_SAR_Seq_Button_channelsConfig[chNum] & ADC_SAR_Seq_Button_DIFFERENTIAL_EN) == 0u)
 292:Generated_Source\PSoC4/ADC_SAR_Seq_Button.c ****         {
 293:Generated_Source\PSoC4/ADC_SAR_Seq_Button.c ****             #if((ADC_SAR_Seq_Button_DEFAULT_SE_RESULT_FORMAT_SEL == ADC_SAR_Seq_Button__FSIGNED) &&
 294:Generated_Source\PSoC4/ADC_SAR_Seq_Button.c ****                 (ADC_SAR_Seq_Button_DEFAULT_NEG_INPUT_SEL == ADC_SAR_Seq_Button__VREF))
 295:Generated_Source\PSoC4/ADC_SAR_Seq_Button.c ****                 /* Set offset to the minus half scale to convert results to unsigned format */
 296:Generated_Source\PSoC4/ADC_SAR_Seq_Button.c ****                 ADC_SAR_Seq_Button_offset[chNum] = (int16)(counts / -2);
 297:Generated_Source\PSoC4/ADC_SAR_Seq_Button.c ****             #else
 298:Generated_Source\PSoC4/ADC_SAR_Seq_Button.c ****                 ADC_SAR_Seq_Button_offset[chNum] = 0;
 128              		.loc 1 298 0
 129 007e 5800     		lsls	r0, r3, #1
 130 0080 0024     		movs	r4, #0
 131 0082 1A49     		ldr	r1, .L6+84
 132 0084 4452     		strh	r4, [r0, r1]
 299:Generated_Source\PSoC4/ADC_SAR_Seq_Button.c ****             #endif /* end DEFAULT_SE_RESULT_FORMAT_SEL == ADC_SAR_Seq_Button__FSIGNED */
 300:Generated_Source\PSoC4/ADC_SAR_Seq_Button.c ****         }
 301:Generated_Source\PSoC4/ADC_SAR_Seq_Button.c ****         else    /* Differential channel */
 302:Generated_Source\PSoC4/ADC_SAR_Seq_Button.c ****         {
 303:Generated_Source\PSoC4/ADC_SAR_Seq_Button.c ****             #if(ADC_SAR_Seq_Button_DEFAULT_DIFF_RESULT_FORMAT_SEL == ADC_SAR_Seq_Button__FUNSIGNED)
 304:Generated_Source\PSoC4/ADC_SAR_Seq_Button.c ****                 /* Set offset to the half scale to convert results to signed format */
 305:Generated_Source\PSoC4/ADC_SAR_Seq_Button.c ****                 ADC_SAR_Seq_Button_offset[chNum] = (int16)(counts / 2);
 306:Generated_Source\PSoC4/ADC_SAR_Seq_Button.c ****             #else
 307:Generated_Source\PSoC4/ADC_SAR_Seq_Button.c ****                 ADC_SAR_Seq_Button_offset[chNum] = 0;
 308:Generated_Source\PSoC4/ADC_SAR_Seq_Button.c ****             #endif /* end ADC_SAR_Seq_Button_DEFAULT_DIFF_RESULT_FORMAT_SEL == ADC_SAR_Seq_Button__
 309:Generated_Source\PSoC4/ADC_SAR_Seq_Button.c ****         }
 310:Generated_Source\PSoC4/ADC_SAR_Seq_Button.c ****         /* Calculate gain in counts per 10 volts with rounding */
 311:Generated_Source\PSoC4/ADC_SAR_Seq_Button.c ****         ADC_SAR_Seq_Button_countsPer10Volt[chNum] = (int16)(((counts * ADC_SAR_Seq_Button_10MV_COUN
 133              		.loc 1 311 0
 134 0086 C220     		movs	r0, #194
 135 0088 4000     		lsls	r0, r0, #1
 136 008a 1949     		ldr	r1, .L6+88
 137 008c 5050     		str	r0, [r2, r1]
 232:Generated_Source\PSoC4/ADC_SAR_Seq_Button.c ****     {
 138              		.loc 1 232 0
 139 008e 0133     		adds	r3, r3, #1
 140              	.LVL9:
 141              	.L3:
 232:Generated_Source\PSoC4/ADC_SAR_Seq_Button.c ****     {
ARM GAS  C:\Users\bryan.lee\AppData\Local\Temp\ccjkYYi5.s 			page 9


 142              		.loc 1 232 0 is_stmt 0 discriminator 1
 143 0090 002B     		cmp	r3, #0
 144 0092 EED0     		beq	.L4
 312:Generated_Source\PSoC4/ADC_SAR_Seq_Button.c ****                             ADC_SAR_Seq_Button_DEFAULT_VREF_MV_VALUE) / (ADC_SAR_Seq_Button_DEFAULT
 313:Generated_Source\PSoC4/ADC_SAR_Seq_Button.c ****     }
 314:Generated_Source\PSoC4/ADC_SAR_Seq_Button.c **** }
 145              		.loc 1 314 0 is_stmt 1
 146              		@ sp needed
 147 0094 10BD     		pop	{r4, pc}
 148              	.L7:
 149 0096 C046     		.align	2
 150              	.L6:
 151 0098 00000000 		.word	ADC_SAR_Seq_Button_ISR
 152 009c 20003A40 		.word	1077542944
 153 00a0 80033A40 		.word	1077543808
 154 00a4 700E1050 		.word	1343229552
 155 00a8 700E0050 		.word	1342180976
 156 00ac 00003A40 		.word	1077542912
 157 00b0 F0000080 		.word	-2147483408
 158 00b4 04003A40 		.word	1077542916
 159 00b8 0000FFFF 		.word	-65536
 160 00bc 18003A40 		.word	1077542936
 161 00c0 1C003A40 		.word	1077542940
 162 00c4 04000400 		.word	262148
 163 00c8 10003A40 		.word	1077542928
 164 00cc 14003A40 		.word	1077542932
 165 00d0 28023A40 		.word	1077543464
 166 00d4 38023A40 		.word	1077543480
 167 00d8 18023A40 		.word	1077543448
 168 00dc 30003A40 		.word	1077542960
 169 00e0 FEFFFFDF 		.word	-536870914
 170 00e4 040F3A40 		.word	1077546756
 171 00e8 80003A40 		.word	1077543040
 172 00ec 00000000 		.word	ADC_SAR_Seq_Button_offset
 173 00f0 00000000 		.word	ADC_SAR_Seq_Button_countsPer10Volt
 174              		.cfi_endproc
 175              	.LFE3:
 176              		.size	ADC_SAR_Seq_Button_Init, .-ADC_SAR_Seq_Button_Init
 177              		.section	.text.ADC_SAR_Seq_Button_Enable,"ax",%progbits
 178              		.align	2
 179              		.global	ADC_SAR_Seq_Button_Enable
 180              		.code	16
 181              		.thumb_func
 182              		.type	ADC_SAR_Seq_Button_Enable, %function
 183              	ADC_SAR_Seq_Button_Enable:
 184              	.LFB4:
 315:Generated_Source\PSoC4/ADC_SAR_Seq_Button.c **** 
 316:Generated_Source\PSoC4/ADC_SAR_Seq_Button.c **** /*******************************************************************************
 317:Generated_Source\PSoC4/ADC_SAR_Seq_Button.c **** * Function Name: ADC_SAR_1_Enable
 318:Generated_Source\PSoC4/ADC_SAR_Seq_Button.c **** ********************************************************************************
 319:Generated_Source\PSoC4/ADC_SAR_Seq_Button.c **** *
 320:Generated_Source\PSoC4/ADC_SAR_Seq_Button.c **** * Summary:
 321:Generated_Source\PSoC4/ADC_SAR_Seq_Button.c **** *  Enables the clock and analog power for SAR ADC.
 322:Generated_Source\PSoC4/ADC_SAR_Seq_Button.c **** *
 323:Generated_Source\PSoC4/ADC_SAR_Seq_Button.c **** * Parameters:
 324:Generated_Source\PSoC4/ADC_SAR_Seq_Button.c **** *  None.
 325:Generated_Source\PSoC4/ADC_SAR_Seq_Button.c **** *
ARM GAS  C:\Users\bryan.lee\AppData\Local\Temp\ccjkYYi5.s 			page 10


 326:Generated_Source\PSoC4/ADC_SAR_Seq_Button.c **** * Return:
 327:Generated_Source\PSoC4/ADC_SAR_Seq_Button.c **** *  None.
 328:Generated_Source\PSoC4/ADC_SAR_Seq_Button.c **** *
 329:Generated_Source\PSoC4/ADC_SAR_Seq_Button.c **** *******************************************************************************/
 330:Generated_Source\PSoC4/ADC_SAR_Seq_Button.c **** void ADC_SAR_Seq_Button_Enable(void)
 331:Generated_Source\PSoC4/ADC_SAR_Seq_Button.c **** {
 185              		.loc 1 331 0
 186              		.cfi_startproc
 187              		@ args = 0, pretend = 0, frame = 0
 188              		@ frame_needed = 0, uses_anonymous_args = 0
 189 0000 10B5     		push	{r4, lr}
 190              		.cfi_def_cfa_offset 8
 191              		.cfi_offset 4, -8
 192              		.cfi_offset 14, -4
 332:Generated_Source\PSoC4/ADC_SAR_Seq_Button.c ****     if (0u == (ADC_SAR_Seq_Button_SAR_CTRL_REG & ADC_SAR_Seq_Button_ENABLE))
 193              		.loc 1 332 0
 194 0002 094B     		ldr	r3, .L11
 195 0004 1B68     		ldr	r3, [r3]
 196 0006 002B     		cmp	r3, #0
 197 0008 0CDB     		blt	.L8
 198              	.L10:
 333:Generated_Source\PSoC4/ADC_SAR_Seq_Button.c ****     {
 334:Generated_Source\PSoC4/ADC_SAR_Seq_Button.c ****         #if(ADC_SAR_Seq_Button_CY_SAR_IP_VER != ADC_SAR_Seq_Button_CY_SAR_IP_VER0)
 335:Generated_Source\PSoC4/ADC_SAR_Seq_Button.c **** 
 336:Generated_Source\PSoC4/ADC_SAR_Seq_Button.c ****             while (0u != (ADC_SAR_Seq_Button_SAR_STATUS_REG & ADC_SAR_Seq_Button_STATUS_BUSY))
 199              		.loc 1 336 0 discriminator 1
 200 000a 084B     		ldr	r3, .L11+4
 201 000c 1B68     		ldr	r3, [r3]
 202 000e 002B     		cmp	r3, #0
 203 0010 FBDB     		blt	.L10
 337:Generated_Source\PSoC4/ADC_SAR_Seq_Button.c ****             {
 338:Generated_Source\PSoC4/ADC_SAR_Seq_Button.c ****                 /* wait for SAR to go idle to avoid deadlock */
 339:Generated_Source\PSoC4/ADC_SAR_Seq_Button.c ****             }
 340:Generated_Source\PSoC4/ADC_SAR_Seq_Button.c ****         #endif /* (ADC_SAR_Seq_Button_CY_SAR_IP_VER != ADC_SAR_Seq_Button_CY_SAR_IP_VER0) */
 341:Generated_Source\PSoC4/ADC_SAR_Seq_Button.c ****         
 342:Generated_Source\PSoC4/ADC_SAR_Seq_Button.c ****         ADC_SAR_Seq_Button_SAR_CTRL_REG |= ADC_SAR_Seq_Button_ENABLE;
 204              		.loc 1 342 0
 205 0012 054A     		ldr	r2, .L11
 206 0014 1368     		ldr	r3, [r2]
 207 0016 8021     		movs	r1, #128
 208 0018 0906     		lsls	r1, r1, #24
 209 001a 0B43     		orrs	r3, r1
 210 001c 1360     		str	r3, [r2]
 343:Generated_Source\PSoC4/ADC_SAR_Seq_Button.c ****         
 344:Generated_Source\PSoC4/ADC_SAR_Seq_Button.c ****         /* The block is ready to use 10 us after the enable signal is set high. */
 345:Generated_Source\PSoC4/ADC_SAR_Seq_Button.c ****         CyDelayUs(ADC_SAR_Seq_Button_10US_DELAY);         
 211              		.loc 1 345 0
 212 001e 0A20     		movs	r0, #10
 213 0020 FFF7FEFF 		bl	CyDelayUs
 214              	.LVL10:
 215              	.L8:
 346:Generated_Source\PSoC4/ADC_SAR_Seq_Button.c ****     }
 347:Generated_Source\PSoC4/ADC_SAR_Seq_Button.c **** }
 216              		.loc 1 347 0
 217              		@ sp needed
 218 0024 10BD     		pop	{r4, pc}
 219              	.L12:
ARM GAS  C:\Users\bryan.lee\AppData\Local\Temp\ccjkYYi5.s 			page 11


 220 0026 C046     		.align	2
 221              	.L11:
 222 0028 00003A40 		.word	1077542912
 223 002c 08023A40 		.word	1077543432
 224              		.cfi_endproc
 225              	.LFE4:
 226              		.size	ADC_SAR_Seq_Button_Enable, .-ADC_SAR_Seq_Button_Enable
 227              		.section	.text.ADC_SAR_Seq_Button_Start,"ax",%progbits
 228              		.align	2
 229              		.global	ADC_SAR_Seq_Button_Start
 230              		.code	16
 231              		.thumb_func
 232              		.type	ADC_SAR_Seq_Button_Start, %function
 233              	ADC_SAR_Seq_Button_Start:
 234              	.LFB2:
  64:Generated_Source\PSoC4/ADC_SAR_Seq_Button.c ****     /* If not Initialized then initialize all required hardware and software */
 235              		.loc 1 64 0
 236              		.cfi_startproc
 237              		@ args = 0, pretend = 0, frame = 0
 238              		@ frame_needed = 0, uses_anonymous_args = 0
 239 0000 10B5     		push	{r4, lr}
 240              		.cfi_def_cfa_offset 8
 241              		.cfi_offset 4, -8
 242              		.cfi_offset 14, -4
  66:Generated_Source\PSoC4/ADC_SAR_Seq_Button.c ****     {
 243              		.loc 1 66 0
 244 0002 064B     		ldr	r3, .L15
 245 0004 1B78     		ldrb	r3, [r3]
 246 0006 002B     		cmp	r3, #0
 247 0008 04D1     		bne	.L14
  68:Generated_Source\PSoC4/ADC_SAR_Seq_Button.c ****         ADC_SAR_Seq_Button_initVar = 1u;
 248              		.loc 1 68 0
 249 000a FFF7FEFF 		bl	ADC_SAR_Seq_Button_Init
 250              	.LVL11:
  69:Generated_Source\PSoC4/ADC_SAR_Seq_Button.c ****     }
 251              		.loc 1 69 0
 252 000e 0122     		movs	r2, #1
 253 0010 024B     		ldr	r3, .L15
 254 0012 1A70     		strb	r2, [r3]
 255              	.L14:
  71:Generated_Source\PSoC4/ADC_SAR_Seq_Button.c **** }
 256              		.loc 1 71 0
 257 0014 FFF7FEFF 		bl	ADC_SAR_Seq_Button_Enable
 258              	.LVL12:
  72:Generated_Source\PSoC4/ADC_SAR_Seq_Button.c **** 
 259              		.loc 1 72 0
 260              		@ sp needed
 261 0018 10BD     		pop	{r4, pc}
 262              	.L16:
 263 001a C046     		.align	2
 264              	.L15:
 265 001c 00000000 		.word	.LANCHOR0
 266              		.cfi_endproc
 267              	.LFE2:
 268              		.size	ADC_SAR_Seq_Button_Start, .-ADC_SAR_Seq_Button_Start
 269              		.section	.text.ADC_SAR_Seq_Button_Stop,"ax",%progbits
 270              		.align	2
ARM GAS  C:\Users\bryan.lee\AppData\Local\Temp\ccjkYYi5.s 			page 12


 271              		.global	ADC_SAR_Seq_Button_Stop
 272              		.code	16
 273              		.thumb_func
 274              		.type	ADC_SAR_Seq_Button_Stop, %function
 275              	ADC_SAR_Seq_Button_Stop:
 276              	.LFB5:
 348:Generated_Source\PSoC4/ADC_SAR_Seq_Button.c **** 
 349:Generated_Source\PSoC4/ADC_SAR_Seq_Button.c **** 
 350:Generated_Source\PSoC4/ADC_SAR_Seq_Button.c **** /*******************************************************************************
 351:Generated_Source\PSoC4/ADC_SAR_Seq_Button.c **** * Function Name: ADC_SAR_Seq_Button_Stop
 352:Generated_Source\PSoC4/ADC_SAR_Seq_Button.c **** ********************************************************************************
 353:Generated_Source\PSoC4/ADC_SAR_Seq_Button.c **** *
 354:Generated_Source\PSoC4/ADC_SAR_Seq_Button.c **** * Summary:
 355:Generated_Source\PSoC4/ADC_SAR_Seq_Button.c **** *  This function stops ADC conversions and puts the ADC into its lowest power
 356:Generated_Source\PSoC4/ADC_SAR_Seq_Button.c **** *  mode.
 357:Generated_Source\PSoC4/ADC_SAR_Seq_Button.c **** *
 358:Generated_Source\PSoC4/ADC_SAR_Seq_Button.c **** * Parameters:
 359:Generated_Source\PSoC4/ADC_SAR_Seq_Button.c **** *  None.
 360:Generated_Source\PSoC4/ADC_SAR_Seq_Button.c **** *
 361:Generated_Source\PSoC4/ADC_SAR_Seq_Button.c **** * Return:
 362:Generated_Source\PSoC4/ADC_SAR_Seq_Button.c **** *  None.
 363:Generated_Source\PSoC4/ADC_SAR_Seq_Button.c **** *
 364:Generated_Source\PSoC4/ADC_SAR_Seq_Button.c **** *******************************************************************************/
 365:Generated_Source\PSoC4/ADC_SAR_Seq_Button.c **** void ADC_SAR_Seq_Button_Stop(void)
 366:Generated_Source\PSoC4/ADC_SAR_Seq_Button.c **** {
 277              		.loc 1 366 0
 278              		.cfi_startproc
 279              		@ args = 0, pretend = 0, frame = 0
 280              		@ frame_needed = 0, uses_anonymous_args = 0
 281              		@ link register save eliminated.
 367:Generated_Source\PSoC4/ADC_SAR_Seq_Button.c ****     ADC_SAR_Seq_Button_SAR_CTRL_REG &= (uint32)~ADC_SAR_Seq_Button_ENABLE;
 282              		.loc 1 367 0
 283 0000 024A     		ldr	r2, .L18
 284 0002 1368     		ldr	r3, [r2]
 285 0004 5B00     		lsls	r3, r3, #1
 286 0006 5B08     		lsrs	r3, r3, #1
 287 0008 1360     		str	r3, [r2]
 368:Generated_Source\PSoC4/ADC_SAR_Seq_Button.c **** }
 288              		.loc 1 368 0
 289              		@ sp needed
 290 000a 7047     		bx	lr
 291              	.L19:
 292              		.align	2
 293              	.L18:
 294 000c 00003A40 		.word	1077542912
 295              		.cfi_endproc
 296              	.LFE5:
 297              		.size	ADC_SAR_Seq_Button_Stop, .-ADC_SAR_Seq_Button_Stop
 298              		.section	.text.ADC_SAR_Seq_Button_StartConvert,"ax",%progbits
 299              		.align	2
 300              		.global	ADC_SAR_Seq_Button_StartConvert
 301              		.code	16
 302              		.thumb_func
 303              		.type	ADC_SAR_Seq_Button_StartConvert, %function
 304              	ADC_SAR_Seq_Button_StartConvert:
 305              	.LFB6:
 369:Generated_Source\PSoC4/ADC_SAR_Seq_Button.c **** 
ARM GAS  C:\Users\bryan.lee\AppData\Local\Temp\ccjkYYi5.s 			page 13


 370:Generated_Source\PSoC4/ADC_SAR_Seq_Button.c **** 
 371:Generated_Source\PSoC4/ADC_SAR_Seq_Button.c **** /*******************************************************************************
 372:Generated_Source\PSoC4/ADC_SAR_Seq_Button.c **** * Function Name: ADC_SAR_Seq_Button_StartConvert
 373:Generated_Source\PSoC4/ADC_SAR_Seq_Button.c **** ********************************************************************************
 374:Generated_Source\PSoC4/ADC_SAR_Seq_Button.c **** *
 375:Generated_Source\PSoC4/ADC_SAR_Seq_Button.c **** * Summary:
 376:Generated_Source\PSoC4/ADC_SAR_Seq_Button.c **** *  Description:
 377:Generated_Source\PSoC4/ADC_SAR_Seq_Button.c **** *  For free running mode, this API starts the conversion process and it
 378:Generated_Source\PSoC4/ADC_SAR_Seq_Button.c **** *  runs continuously.
 379:Generated_Source\PSoC4/ADC_SAR_Seq_Button.c **** *
 380:Generated_Source\PSoC4/ADC_SAR_Seq_Button.c **** *  In a triggered mode, this routine triggers every conversion by
 381:Generated_Source\PSoC4/ADC_SAR_Seq_Button.c **** *  writing into the FW_TRIGGER bit in SAR_START_CTRL reg. In triggered mode,
 382:Generated_Source\PSoC4/ADC_SAR_Seq_Button.c **** *  every conversion has to start by this API.
 383:Generated_Source\PSoC4/ADC_SAR_Seq_Button.c **** *
 384:Generated_Source\PSoC4/ADC_SAR_Seq_Button.c **** * Parameters:
 385:Generated_Source\PSoC4/ADC_SAR_Seq_Button.c **** *  None.
 386:Generated_Source\PSoC4/ADC_SAR_Seq_Button.c **** *
 387:Generated_Source\PSoC4/ADC_SAR_Seq_Button.c **** * Return:
 388:Generated_Source\PSoC4/ADC_SAR_Seq_Button.c **** *  None.
 389:Generated_Source\PSoC4/ADC_SAR_Seq_Button.c **** *
 390:Generated_Source\PSoC4/ADC_SAR_Seq_Button.c **** *******************************************************************************/
 391:Generated_Source\PSoC4/ADC_SAR_Seq_Button.c **** void ADC_SAR_Seq_Button_StartConvert(void)
 392:Generated_Source\PSoC4/ADC_SAR_Seq_Button.c **** {
 306              		.loc 1 392 0
 307              		.cfi_startproc
 308              		@ args = 0, pretend = 0, frame = 0
 309              		@ frame_needed = 0, uses_anonymous_args = 0
 310              		@ link register save eliminated.
 393:Generated_Source\PSoC4/ADC_SAR_Seq_Button.c ****     #if(ADC_SAR_Seq_Button_DEFAULT_SAMPLE_MODE_SEL == ADC_SAR_Seq_Button__FREERUNNING)
 394:Generated_Source\PSoC4/ADC_SAR_Seq_Button.c ****         ADC_SAR_Seq_Button_SAR_SAMPLE_CTRL_REG |= ADC_SAR_Seq_Button_CONTINUOUS_EN;
 311              		.loc 1 394 0
 312 0000 034A     		ldr	r2, .L21
 313 0002 1368     		ldr	r3, [r2]
 314 0004 8021     		movs	r1, #128
 315 0006 4902     		lsls	r1, r1, #9
 316 0008 0B43     		orrs	r3, r1
 317 000a 1360     		str	r3, [r2]
 395:Generated_Source\PSoC4/ADC_SAR_Seq_Button.c ****     #else /* Firmware trigger */
 396:Generated_Source\PSoC4/ADC_SAR_Seq_Button.c ****         ADC_SAR_Seq_Button_SAR_START_CTRL_REG = ADC_SAR_Seq_Button_FW_TRIGGER;
 397:Generated_Source\PSoC4/ADC_SAR_Seq_Button.c ****     #endif /* End ADC_SAR_Seq_Button_DEFAULT_SAMPLE_MODE == ADC_SAR_Seq_Button__FREERUNNING */
 398:Generated_Source\PSoC4/ADC_SAR_Seq_Button.c **** 
 399:Generated_Source\PSoC4/ADC_SAR_Seq_Button.c **** }
 318              		.loc 1 399 0
 319              		@ sp needed
 320 000c 7047     		bx	lr
 321              	.L22:
 322 000e C046     		.align	2
 323              	.L21:
 324 0010 04003A40 		.word	1077542916
 325              		.cfi_endproc
 326              	.LFE6:
 327              		.size	ADC_SAR_Seq_Button_StartConvert, .-ADC_SAR_Seq_Button_StartConvert
 328              		.section	.text.ADC_SAR_Seq_Button_StopConvert,"ax",%progbits
 329              		.align	2
 330              		.global	ADC_SAR_Seq_Button_StopConvert
 331              		.code	16
 332              		.thumb_func
ARM GAS  C:\Users\bryan.lee\AppData\Local\Temp\ccjkYYi5.s 			page 14


 333              		.type	ADC_SAR_Seq_Button_StopConvert, %function
 334              	ADC_SAR_Seq_Button_StopConvert:
 335              	.LFB7:
 400:Generated_Source\PSoC4/ADC_SAR_Seq_Button.c **** 
 401:Generated_Source\PSoC4/ADC_SAR_Seq_Button.c **** 
 402:Generated_Source\PSoC4/ADC_SAR_Seq_Button.c **** /*******************************************************************************
 403:Generated_Source\PSoC4/ADC_SAR_Seq_Button.c **** * Function Name: ADC_SAR_Seq_Button_StopConvert
 404:Generated_Source\PSoC4/ADC_SAR_Seq_Button.c **** ********************************************************************************
 405:Generated_Source\PSoC4/ADC_SAR_Seq_Button.c **** *
 406:Generated_Source\PSoC4/ADC_SAR_Seq_Button.c **** * Summary:
 407:Generated_Source\PSoC4/ADC_SAR_Seq_Button.c **** *  Forces the ADC to stop all conversions.
 408:Generated_Source\PSoC4/ADC_SAR_Seq_Button.c **** *
 409:Generated_Source\PSoC4/ADC_SAR_Seq_Button.c **** * Parameters:
 410:Generated_Source\PSoC4/ADC_SAR_Seq_Button.c **** *  None.
 411:Generated_Source\PSoC4/ADC_SAR_Seq_Button.c **** *
 412:Generated_Source\PSoC4/ADC_SAR_Seq_Button.c **** * Return:
 413:Generated_Source\PSoC4/ADC_SAR_Seq_Button.c **** *  None.
 414:Generated_Source\PSoC4/ADC_SAR_Seq_Button.c **** *
 415:Generated_Source\PSoC4/ADC_SAR_Seq_Button.c **** *******************************************************************************/
 416:Generated_Source\PSoC4/ADC_SAR_Seq_Button.c **** void ADC_SAR_Seq_Button_StopConvert(void)
 417:Generated_Source\PSoC4/ADC_SAR_Seq_Button.c **** {
 336              		.loc 1 417 0
 337              		.cfi_startproc
 338              		@ args = 0, pretend = 0, frame = 0
 339              		@ frame_needed = 0, uses_anonymous_args = 0
 340              		@ link register save eliminated.
 418:Generated_Source\PSoC4/ADC_SAR_Seq_Button.c ****     #if(ADC_SAR_Seq_Button_DEFAULT_SAMPLE_MODE_SEL == ADC_SAR_Seq_Button__FREERUNNING)
 419:Generated_Source\PSoC4/ADC_SAR_Seq_Button.c ****         ADC_SAR_Seq_Button_SAR_SAMPLE_CTRL_REG &= (uint32)(~ADC_SAR_Seq_Button_CONTINUOUS_EN);
 341              		.loc 1 419 0
 342 0000 024A     		ldr	r2, .L24
 343 0002 1168     		ldr	r1, [r2]
 344 0004 024B     		ldr	r3, .L24+4
 345 0006 0B40     		ands	r3, r1
 346 0008 1360     		str	r3, [r2]
 420:Generated_Source\PSoC4/ADC_SAR_Seq_Button.c ****     #endif /* ADC_SAR_Seq_Button_DEFAULT_SAMPLE_MODE == ADC_SAR_Seq_Button__FREERUNNING */
 421:Generated_Source\PSoC4/ADC_SAR_Seq_Button.c **** }
 347              		.loc 1 421 0
 348              		@ sp needed
 349 000a 7047     		bx	lr
 350              	.L25:
 351              		.align	2
 352              	.L24:
 353 000c 04003A40 		.word	1077542916
 354 0010 FFFFFEFF 		.word	-65537
 355              		.cfi_endproc
 356              	.LFE7:
 357              		.size	ADC_SAR_Seq_Button_StopConvert, .-ADC_SAR_Seq_Button_StopConvert
 358              		.section	.text.ADC_SAR_Seq_Button_IsEndConversion,"ax",%progbits
 359              		.align	2
 360              		.global	ADC_SAR_Seq_Button_IsEndConversion
 361              		.code	16
 362              		.thumb_func
 363              		.type	ADC_SAR_Seq_Button_IsEndConversion, %function
 364              	ADC_SAR_Seq_Button_IsEndConversion:
 365              	.LFB8:
 422:Generated_Source\PSoC4/ADC_SAR_Seq_Button.c **** 
 423:Generated_Source\PSoC4/ADC_SAR_Seq_Button.c **** 
ARM GAS  C:\Users\bryan.lee\AppData\Local\Temp\ccjkYYi5.s 			page 15


 424:Generated_Source\PSoC4/ADC_SAR_Seq_Button.c **** /*******************************************************************************
 425:Generated_Source\PSoC4/ADC_SAR_Seq_Button.c **** * Function Name: ADC_SAR_Seq_Button_IsEndConversion
 426:Generated_Source\PSoC4/ADC_SAR_Seq_Button.c **** ********************************************************************************
 427:Generated_Source\PSoC4/ADC_SAR_Seq_Button.c **** *
 428:Generated_Source\PSoC4/ADC_SAR_Seq_Button.c **** * Summary:
 429:Generated_Source\PSoC4/ADC_SAR_Seq_Button.c **** *  Description: Checks for ADC end of conversion for the case one
 430:Generated_Source\PSoC4/ADC_SAR_Seq_Button.c **** *  channel and end of scan for the case of multiple channels. It acts
 431:Generated_Source\PSoC4/ADC_SAR_Seq_Button.c **** *  as a software version of the EOC. This function provides the
 432:Generated_Source\PSoC4/ADC_SAR_Seq_Button.c **** *  programmer with two options. In one mode this function
 433:Generated_Source\PSoC4/ADC_SAR_Seq_Button.c **** *  immediately returns with the conversion status. In the other mode,
 434:Generated_Source\PSoC4/ADC_SAR_Seq_Button.c **** *  the function does not return (blocking) until the conversion has
 435:Generated_Source\PSoC4/ADC_SAR_Seq_Button.c **** *  completed.
 436:Generated_Source\PSoC4/ADC_SAR_Seq_Button.c **** *
 437:Generated_Source\PSoC4/ADC_SAR_Seq_Button.c **** * Parameters:
 438:Generated_Source\PSoC4/ADC_SAR_Seq_Button.c **** *  ADC_RETURN_STATUS        -> Immediately returns conversion result status
 439:Generated_Source\PSoC4/ADC_SAR_Seq_Button.c **** *  ADC_WAIT_FOR_RESULT      -> Does not return until ADC complete
 440:Generated_Source\PSoC4/ADC_SAR_Seq_Button.c **** *  ADC_RETURN_STATUS_INJ    -> Immediately returns conversion result status
 441:Generated_Source\PSoC4/ADC_SAR_Seq_Button.c **** *                              for injection channel
 442:Generated_Source\PSoC4/ADC_SAR_Seq_Button.c **** *  ADC_WAIT_FOR_RESULT_INJ  -> Does not return until ADC completes injection
 443:Generated_Source\PSoC4/ADC_SAR_Seq_Button.c **** *                              channel conversion
 444:Generated_Source\PSoC4/ADC_SAR_Seq_Button.c **** *
 445:Generated_Source\PSoC4/ADC_SAR_Seq_Button.c **** * Return:
 446:Generated_Source\PSoC4/ADC_SAR_Seq_Button.c **** *  If a non-zero value is returned, the last conversion or scan has completed.
 447:Generated_Source\PSoC4/ADC_SAR_Seq_Button.c **** *  If the returned value is zero, the ADC is still in the process of a scan.
 448:Generated_Source\PSoC4/ADC_SAR_Seq_Button.c **** *
 449:Generated_Source\PSoC4/ADC_SAR_Seq_Button.c **** *******************************************************************************/
 450:Generated_Source\PSoC4/ADC_SAR_Seq_Button.c **** uint32 ADC_SAR_Seq_Button_IsEndConversion(uint32 retMode)
 451:Generated_Source\PSoC4/ADC_SAR_Seq_Button.c **** {
 366              		.loc 1 451 0
 367              		.cfi_startproc
 368              		@ args = 0, pretend = 0, frame = 0
 369              		@ frame_needed = 0, uses_anonymous_args = 0
 370              		@ link register save eliminated.
 371              	.LVL13:
 372 0000 0200     		movs	r2, r0
 373              	.LVL14:
 452:Generated_Source\PSoC4/ADC_SAR_Seq_Button.c ****     uint32 status = 0u;
 453:Generated_Source\PSoC4/ADC_SAR_Seq_Button.c **** 
 454:Generated_Source\PSoC4/ADC_SAR_Seq_Button.c ****     if((retMode & (ADC_SAR_Seq_Button_RETURN_STATUS | ADC_SAR_Seq_Button_WAIT_FOR_RESULT)) != 0u)
 374              		.loc 1 454 0
 375 0002 8307     		lsls	r3, r0, #30
 376 0004 0CD0     		beq	.L30
 377              	.LVL15:
 378              	.L29:
 455:Generated_Source\PSoC4/ADC_SAR_Seq_Button.c ****     {
 456:Generated_Source\PSoC4/ADC_SAR_Seq_Button.c ****         do
 457:Generated_Source\PSoC4/ADC_SAR_Seq_Button.c ****         {
 458:Generated_Source\PSoC4/ADC_SAR_Seq_Button.c ****             status = ADC_SAR_Seq_Button_SAR_INTR_REG & ADC_SAR_Seq_Button_EOS_MASK;
 379              		.loc 1 458 0 discriminator 2
 380 0006 074B     		ldr	r3, .L31
 381 0008 1B68     		ldr	r3, [r3]
 382 000a 0120     		movs	r0, #1
 383 000c 1840     		ands	r0, r3
 384              	.LVL16:
 459:Generated_Source\PSoC4/ADC_SAR_Seq_Button.c ****         }while((status == 0u) && ((retMode & ADC_SAR_Seq_Button_WAIT_FOR_RESULT) != 0u));
 385              		.loc 1 459 0 discriminator 2
 386 000e 01D1     		bne	.L28
ARM GAS  C:\Users\bryan.lee\AppData\Local\Temp\ccjkYYi5.s 			page 16


 387              		.loc 1 459 0 is_stmt 0 discriminator 1
 388 0010 9307     		lsls	r3, r2, #30
 389 0012 F8D4     		bmi	.L29
 390              	.L28:
 460:Generated_Source\PSoC4/ADC_SAR_Seq_Button.c **** 
 461:Generated_Source\PSoC4/ADC_SAR_Seq_Button.c ****         if(status != 0u)
 391              		.loc 1 461 0 is_stmt 1
 392 0014 0028     		cmp	r0, #0
 393 0016 04D0     		beq	.L27
 462:Generated_Source\PSoC4/ADC_SAR_Seq_Button.c ****         {
 463:Generated_Source\PSoC4/ADC_SAR_Seq_Button.c ****             /* Clear EOS bit */
 464:Generated_Source\PSoC4/ADC_SAR_Seq_Button.c ****             ADC_SAR_Seq_Button_SAR_INTR_REG = ADC_SAR_Seq_Button_EOS_MASK;
 394              		.loc 1 464 0
 395 0018 0122     		movs	r2, #1
 396              	.LVL17:
 397 001a 024B     		ldr	r3, .L31
 398 001c 1A60     		str	r2, [r3]
 399 001e 00E0     		b	.L27
 400              	.LVL18:
 401              	.L30:
 452:Generated_Source\PSoC4/ADC_SAR_Seq_Button.c **** 
 402              		.loc 1 452 0
 403 0020 0020     		movs	r0, #0
 404              	.LVL19:
 405              	.L27:
 465:Generated_Source\PSoC4/ADC_SAR_Seq_Button.c ****         }
 466:Generated_Source\PSoC4/ADC_SAR_Seq_Button.c ****     }
 467:Generated_Source\PSoC4/ADC_SAR_Seq_Button.c **** 
 468:Generated_Source\PSoC4/ADC_SAR_Seq_Button.c ****     #if(ADC_SAR_Seq_Button_INJ_CHANNEL_ENABLED)
 469:Generated_Source\PSoC4/ADC_SAR_Seq_Button.c ****         if((retMode & (ADC_SAR_Seq_Button_RETURN_STATUS_INJ | ADC_SAR_Seq_Button_WAIT_FOR_RESULT_IN
 470:Generated_Source\PSoC4/ADC_SAR_Seq_Button.c ****         {
 471:Generated_Source\PSoC4/ADC_SAR_Seq_Button.c ****             do
 472:Generated_Source\PSoC4/ADC_SAR_Seq_Button.c ****             {
 473:Generated_Source\PSoC4/ADC_SAR_Seq_Button.c ****                 status |= ADC_SAR_Seq_Button_SAR_INTR_REG & ADC_SAR_Seq_Button_INJ_EOC_MASK;
 474:Generated_Source\PSoC4/ADC_SAR_Seq_Button.c ****             }while(((status & ADC_SAR_Seq_Button_INJ_EOC_MASK) == 0u) &&
 475:Generated_Source\PSoC4/ADC_SAR_Seq_Button.c ****                    ((retMode & ADC_SAR_Seq_Button_WAIT_FOR_RESULT_INJ) != 0u));
 476:Generated_Source\PSoC4/ADC_SAR_Seq_Button.c **** 
 477:Generated_Source\PSoC4/ADC_SAR_Seq_Button.c ****             if((status & ADC_SAR_Seq_Button_INJ_EOC_MASK) != 0u)
 478:Generated_Source\PSoC4/ADC_SAR_Seq_Button.c ****             {
 479:Generated_Source\PSoC4/ADC_SAR_Seq_Button.c ****                 /* Clear Injection EOS bit */
 480:Generated_Source\PSoC4/ADC_SAR_Seq_Button.c ****                 ADC_SAR_Seq_Button_SAR_INTR_REG = ADC_SAR_Seq_Button_INJ_EOC_MASK;
 481:Generated_Source\PSoC4/ADC_SAR_Seq_Button.c ****             }
 482:Generated_Source\PSoC4/ADC_SAR_Seq_Button.c ****         }
 483:Generated_Source\PSoC4/ADC_SAR_Seq_Button.c ****     #endif /* ADC_SAR_Seq_Button_INJ_CHANNEL_ENABLED */
 484:Generated_Source\PSoC4/ADC_SAR_Seq_Button.c **** 
 485:Generated_Source\PSoC4/ADC_SAR_Seq_Button.c ****     return (status);
 486:Generated_Source\PSoC4/ADC_SAR_Seq_Button.c **** }
 406              		.loc 1 486 0
 407              		@ sp needed
 408 0022 7047     		bx	lr
 409              	.L32:
 410              		.align	2
 411              	.L31:
 412 0024 10023A40 		.word	1077543440
 413              		.cfi_endproc
 414              	.LFE8:
 415              		.size	ADC_SAR_Seq_Button_IsEndConversion, .-ADC_SAR_Seq_Button_IsEndConversion
ARM GAS  C:\Users\bryan.lee\AppData\Local\Temp\ccjkYYi5.s 			page 17


 416              		.section	.text.ADC_SAR_Seq_Button_GetResult16,"ax",%progbits
 417              		.align	2
 418              		.global	ADC_SAR_Seq_Button_GetResult16
 419              		.code	16
 420              		.thumb_func
 421              		.type	ADC_SAR_Seq_Button_GetResult16, %function
 422              	ADC_SAR_Seq_Button_GetResult16:
 423              	.LFB9:
 487:Generated_Source\PSoC4/ADC_SAR_Seq_Button.c **** 
 488:Generated_Source\PSoC4/ADC_SAR_Seq_Button.c **** 
 489:Generated_Source\PSoC4/ADC_SAR_Seq_Button.c **** /*******************************************************************************
 490:Generated_Source\PSoC4/ADC_SAR_Seq_Button.c **** * Function Name: ADC_SAR_Seq_Button_GetResult16
 491:Generated_Source\PSoC4/ADC_SAR_Seq_Button.c **** ********************************************************************************
 492:Generated_Source\PSoC4/ADC_SAR_Seq_Button.c **** *
 493:Generated_Source\PSoC4/ADC_SAR_Seq_Button.c **** * Summary:
 494:Generated_Source\PSoC4/ADC_SAR_Seq_Button.c **** *  Gets the data available in the SAR DATA register.
 495:Generated_Source\PSoC4/ADC_SAR_Seq_Button.c **** *
 496:Generated_Source\PSoC4/ADC_SAR_Seq_Button.c **** * Parameters:
 497:Generated_Source\PSoC4/ADC_SAR_Seq_Button.c **** *  chan: The ADC channel in which to return the result. The first channel
 498:Generated_Source\PSoC4/ADC_SAR_Seq_Button.c **** *  is 0 and the injection channel if enabled is the number of valid channels.
 499:Generated_Source\PSoC4/ADC_SAR_Seq_Button.c **** *
 500:Generated_Source\PSoC4/ADC_SAR_Seq_Button.c **** * Return:
 501:Generated_Source\PSoC4/ADC_SAR_Seq_Button.c **** *  Returns converted data as a signed 16-bit integer
 502:Generated_Source\PSoC4/ADC_SAR_Seq_Button.c **** *
 503:Generated_Source\PSoC4/ADC_SAR_Seq_Button.c **** *******************************************************************************/
 504:Generated_Source\PSoC4/ADC_SAR_Seq_Button.c **** int16 ADC_SAR_Seq_Button_GetResult16(uint32 chan)
 505:Generated_Source\PSoC4/ADC_SAR_Seq_Button.c **** {
 424              		.loc 1 505 0
 425              		.cfi_startproc
 426              		@ args = 0, pretend = 0, frame = 0
 427              		@ frame_needed = 0, uses_anonymous_args = 0
 428              	.LVL20:
 429 0000 10B5     		push	{r4, lr}
 430              		.cfi_def_cfa_offset 8
 431              		.cfi_offset 4, -8
 432              		.cfi_offset 14, -4
 433 0002 041E     		subs	r4, r0, #0
 506:Generated_Source\PSoC4/ADC_SAR_Seq_Button.c ****     uint32 result;
 507:Generated_Source\PSoC4/ADC_SAR_Seq_Button.c **** 
 508:Generated_Source\PSoC4/ADC_SAR_Seq_Button.c ****     /* Halt CPU in debug mode if channel is out of valid range */
 509:Generated_Source\PSoC4/ADC_SAR_Seq_Button.c ****     CYASSERT(chan < ADC_SAR_Seq_Button_TOTAL_CHANNELS_NUM);
 434              		.loc 1 509 0
 435 0004 02D0     		beq	.L34
 436              		.loc 1 509 0 is_stmt 0 discriminator 1
 437 0006 0020     		movs	r0, #0
 438              	.LVL21:
 439 0008 FFF7FEFF 		bl	CyHalt
 440              	.LVL22:
 441              	.L34:
 510:Generated_Source\PSoC4/ADC_SAR_Seq_Button.c **** 
 511:Generated_Source\PSoC4/ADC_SAR_Seq_Button.c ****     if(chan < ADC_SAR_Seq_Button_SEQUENCED_CHANNELS_NUM)
 442              		.loc 1 511 0 is_stmt 1
 443 000c 002C     		cmp	r4, #0
 444 000e 07D1     		bne	.L36
 512:Generated_Source\PSoC4/ADC_SAR_Seq_Button.c ****     {
 513:Generated_Source\PSoC4/ADC_SAR_Seq_Button.c ****         result = CY_GET_REG32((reg32 *)(ADC_SAR_Seq_Button_SAR_CHAN_RESULT_IND + (uint32)(chan << 2
 445              		.loc 1 513 0
ARM GAS  C:\Users\bryan.lee\AppData\Local\Temp\ccjkYYi5.s 			page 18


 446 0010 A400     		lsls	r4, r4, #2
 447              	.LVL23:
 448 0012 054B     		ldr	r3, .L37
 449 0014 9C46     		mov	ip, r3
 450 0016 6444     		add	r4, r4, ip
 451 0018 2068     		ldr	r0, [r4]
 452 001a 0004     		lsls	r0, r0, #16
 453 001c 000C     		lsrs	r0, r0, #16
 454              	.LVL24:
 455 001e 00E0     		b	.L35
 456              	.LVL25:
 457              	.L36:
 514:Generated_Source\PSoC4/ADC_SAR_Seq_Button.c ****                 ADC_SAR_Seq_Button_RESULT_MASK;
 515:Generated_Source\PSoC4/ADC_SAR_Seq_Button.c ****     }
 516:Generated_Source\PSoC4/ADC_SAR_Seq_Button.c ****     else
 517:Generated_Source\PSoC4/ADC_SAR_Seq_Button.c ****     {
 518:Generated_Source\PSoC4/ADC_SAR_Seq_Button.c ****         #if(ADC_SAR_Seq_Button_INJ_CHANNEL_ENABLED)
 519:Generated_Source\PSoC4/ADC_SAR_Seq_Button.c ****             result = ADC_SAR_Seq_Button_SAR_INJ_RESULT_REG & ADC_SAR_Seq_Button_RESULT_MASK;
 520:Generated_Source\PSoC4/ADC_SAR_Seq_Button.c ****         #else
 521:Generated_Source\PSoC4/ADC_SAR_Seq_Button.c ****             result = 0u;
 458              		.loc 1 521 0
 459 0020 0020     		movs	r0, #0
 460              	.LVL26:
 461              	.L35:
 522:Generated_Source\PSoC4/ADC_SAR_Seq_Button.c ****         #endif /* ADC_SAR_Seq_Button_INJ_CHANNEL_ENABLED */
 523:Generated_Source\PSoC4/ADC_SAR_Seq_Button.c ****     }
 524:Generated_Source\PSoC4/ADC_SAR_Seq_Button.c **** 
 525:Generated_Source\PSoC4/ADC_SAR_Seq_Button.c ****     return ( (int16)result );
 462              		.loc 1 525 0
 463 0022 00B2     		sxth	r0, r0
 464              	.LVL27:
 526:Generated_Source\PSoC4/ADC_SAR_Seq_Button.c **** }
 465              		.loc 1 526 0
 466              		@ sp needed
 467 0024 10BD     		pop	{r4, pc}
 468              	.L38:
 469 0026 C046     		.align	2
 470              	.L37:
 471 0028 80013A40 		.word	1077543296
 472              		.cfi_endproc
 473              	.LFE9:
 474              		.size	ADC_SAR_Seq_Button_GetResult16, .-ADC_SAR_Seq_Button_GetResult16
 475              		.section	.text.ADC_SAR_Seq_Button_SetChanMask,"ax",%progbits
 476              		.align	2
 477              		.global	ADC_SAR_Seq_Button_SetChanMask
 478              		.code	16
 479              		.thumb_func
 480              		.type	ADC_SAR_Seq_Button_SetChanMask, %function
 481              	ADC_SAR_Seq_Button_SetChanMask:
 482              	.LFB10:
 527:Generated_Source\PSoC4/ADC_SAR_Seq_Button.c **** 
 528:Generated_Source\PSoC4/ADC_SAR_Seq_Button.c **** 
 529:Generated_Source\PSoC4/ADC_SAR_Seq_Button.c **** /*******************************************************************************
 530:Generated_Source\PSoC4/ADC_SAR_Seq_Button.c **** * Function Name: ADC_SAR_Seq_Button_SetChanMask
 531:Generated_Source\PSoC4/ADC_SAR_Seq_Button.c **** ********************************************************************************
 532:Generated_Source\PSoC4/ADC_SAR_Seq_Button.c **** *
 533:Generated_Source\PSoC4/ADC_SAR_Seq_Button.c **** * Summary:
ARM GAS  C:\Users\bryan.lee\AppData\Local\Temp\ccjkYYi5.s 			page 19


 534:Generated_Source\PSoC4/ADC_SAR_Seq_Button.c **** *  Sets the channel enable mask.
 535:Generated_Source\PSoC4/ADC_SAR_Seq_Button.c **** *
 536:Generated_Source\PSoC4/ADC_SAR_Seq_Button.c **** * Parameters:
 537:Generated_Source\PSoC4/ADC_SAR_Seq_Button.c **** *  mask: Sets which channels that will be
 538:Generated_Source\PSoC4/ADC_SAR_Seq_Button.c **** *  scanned. Setting bits for channels that do not exist will have no
 539:Generated_Source\PSoC4/ADC_SAR_Seq_Button.c **** *  effect. For example, if only 6 channels were enabled, setting a
 540:Generated_Source\PSoC4/ADC_SAR_Seq_Button.c **** *  mask of 0x0103 would only enable the last two channels (0 and 1).
 541:Generated_Source\PSoC4/ADC_SAR_Seq_Button.c **** *  This API will not enable the injection channel.
 542:Generated_Source\PSoC4/ADC_SAR_Seq_Button.c **** *  Examples: If the component is setup to sequence through 8
 543:Generated_Source\PSoC4/ADC_SAR_Seq_Button.c **** *  channels, a mask of 0x000F would enable channels 0, 1, 2, and 3.
 544:Generated_Source\PSoC4/ADC_SAR_Seq_Button.c **** *
 545:Generated_Source\PSoC4/ADC_SAR_Seq_Button.c **** * Return:
 546:Generated_Source\PSoC4/ADC_SAR_Seq_Button.c **** *  None.
 547:Generated_Source\PSoC4/ADC_SAR_Seq_Button.c **** *
 548:Generated_Source\PSoC4/ADC_SAR_Seq_Button.c **** *******************************************************************************/
 549:Generated_Source\PSoC4/ADC_SAR_Seq_Button.c **** void ADC_SAR_Seq_Button_SetChanMask(uint32 mask)
 550:Generated_Source\PSoC4/ADC_SAR_Seq_Button.c **** {
 483              		.loc 1 550 0
 484              		.cfi_startproc
 485              		@ args = 0, pretend = 0, frame = 0
 486              		@ frame_needed = 0, uses_anonymous_args = 0
 487              		@ link register save eliminated.
 488              	.LVL28:
 551:Generated_Source\PSoC4/ADC_SAR_Seq_Button.c ****     ADC_SAR_Seq_Button_SAR_CHAN_EN_REG = mask & ADC_SAR_Seq_Button_MAX_CHANNELS_EN_MASK;
 489              		.loc 1 551 0
 490 0000 0123     		movs	r3, #1
 491 0002 1840     		ands	r0, r3
 492              	.LVL29:
 493 0004 014B     		ldr	r3, .L40
 494 0006 1860     		str	r0, [r3]
 552:Generated_Source\PSoC4/ADC_SAR_Seq_Button.c **** }
 495              		.loc 1 552 0
 496              		@ sp needed
 497 0008 7047     		bx	lr
 498              	.L41:
 499 000a C046     		.align	2
 500              	.L40:
 501 000c 20003A40 		.word	1077542944
 502              		.cfi_endproc
 503              	.LFE10:
 504              		.size	ADC_SAR_Seq_Button_SetChanMask, .-ADC_SAR_Seq_Button_SetChanMask
 505              		.section	.text.ADC_SAR_Seq_Button_SetLowLimit,"ax",%progbits
 506              		.align	2
 507              		.global	ADC_SAR_Seq_Button_SetLowLimit
 508              		.code	16
 509              		.thumb_func
 510              		.type	ADC_SAR_Seq_Button_SetLowLimit, %function
 511              	ADC_SAR_Seq_Button_SetLowLimit:
 512              	.LFB11:
 553:Generated_Source\PSoC4/ADC_SAR_Seq_Button.c **** 
 554:Generated_Source\PSoC4/ADC_SAR_Seq_Button.c **** #if(ADC_SAR_Seq_Button_INJ_CHANNEL_ENABLED)
 555:Generated_Source\PSoC4/ADC_SAR_Seq_Button.c **** 
 556:Generated_Source\PSoC4/ADC_SAR_Seq_Button.c **** 
 557:Generated_Source\PSoC4/ADC_SAR_Seq_Button.c ****     /*******************************************************************************
 558:Generated_Source\PSoC4/ADC_SAR_Seq_Button.c ****     * Function Name: ADC_SAR_Seq_Button_EnableInjection
 559:Generated_Source\PSoC4/ADC_SAR_Seq_Button.c ****     ********************************************************************************
 560:Generated_Source\PSoC4/ADC_SAR_Seq_Button.c ****     *
ARM GAS  C:\Users\bryan.lee\AppData\Local\Temp\ccjkYYi5.s 			page 20


 561:Generated_Source\PSoC4/ADC_SAR_Seq_Button.c ****     * Summary:
 562:Generated_Source\PSoC4/ADC_SAR_Seq_Button.c ****     *  Enables the injection channel for the next scan only.
 563:Generated_Source\PSoC4/ADC_SAR_Seq_Button.c ****     *
 564:Generated_Source\PSoC4/ADC_SAR_Seq_Button.c ****     * Parameters:
 565:Generated_Source\PSoC4/ADC_SAR_Seq_Button.c ****     *  None.
 566:Generated_Source\PSoC4/ADC_SAR_Seq_Button.c ****     *
 567:Generated_Source\PSoC4/ADC_SAR_Seq_Button.c ****     * Return:
 568:Generated_Source\PSoC4/ADC_SAR_Seq_Button.c ****     *  None.
 569:Generated_Source\PSoC4/ADC_SAR_Seq_Button.c ****     *
 570:Generated_Source\PSoC4/ADC_SAR_Seq_Button.c ****     *******************************************************************************/
 571:Generated_Source\PSoC4/ADC_SAR_Seq_Button.c ****     void ADC_SAR_Seq_Button_EnableInjection(void)
 572:Generated_Source\PSoC4/ADC_SAR_Seq_Button.c ****     {
 573:Generated_Source\PSoC4/ADC_SAR_Seq_Button.c ****         ADC_SAR_Seq_Button_SAR_INJ_CHAN_CONFIG_REG |= ADC_SAR_Seq_Button_INJ_CHAN_EN;
 574:Generated_Source\PSoC4/ADC_SAR_Seq_Button.c ****     }
 575:Generated_Source\PSoC4/ADC_SAR_Seq_Button.c **** 
 576:Generated_Source\PSoC4/ADC_SAR_Seq_Button.c **** #endif /* ADC_SAR_Seq_Button_INJ_CHANNEL_ENABLED */
 577:Generated_Source\PSoC4/ADC_SAR_Seq_Button.c **** 
 578:Generated_Source\PSoC4/ADC_SAR_Seq_Button.c **** 
 579:Generated_Source\PSoC4/ADC_SAR_Seq_Button.c **** /*******************************************************************************
 580:Generated_Source\PSoC4/ADC_SAR_Seq_Button.c **** * Function Name: ADC_SAR_Seq_Button_SetLowLimit
 581:Generated_Source\PSoC4/ADC_SAR_Seq_Button.c **** ********************************************************************************
 582:Generated_Source\PSoC4/ADC_SAR_Seq_Button.c **** *
 583:Generated_Source\PSoC4/ADC_SAR_Seq_Button.c **** * Summary:
 584:Generated_Source\PSoC4/ADC_SAR_Seq_Button.c **** *  Sets the low limit parameter for a limit condition.
 585:Generated_Source\PSoC4/ADC_SAR_Seq_Button.c **** *
 586:Generated_Source\PSoC4/ADC_SAR_Seq_Button.c **** * Parameters:
 587:Generated_Source\PSoC4/ADC_SAR_Seq_Button.c **** *  lowLimit: The low limit for a limit condition.
 588:Generated_Source\PSoC4/ADC_SAR_Seq_Button.c **** *
 589:Generated_Source\PSoC4/ADC_SAR_Seq_Button.c **** * Return:
 590:Generated_Source\PSoC4/ADC_SAR_Seq_Button.c **** *  None.
 591:Generated_Source\PSoC4/ADC_SAR_Seq_Button.c **** *
 592:Generated_Source\PSoC4/ADC_SAR_Seq_Button.c **** *******************************************************************************/
 593:Generated_Source\PSoC4/ADC_SAR_Seq_Button.c **** void ADC_SAR_Seq_Button_SetLowLimit(uint32 lowLimit)
 594:Generated_Source\PSoC4/ADC_SAR_Seq_Button.c **** {
 513              		.loc 1 594 0
 514              		.cfi_startproc
 515              		@ args = 0, pretend = 0, frame = 0
 516              		@ frame_needed = 0, uses_anonymous_args = 0
 517              		@ link register save eliminated.
 518              	.LVL30:
 595:Generated_Source\PSoC4/ADC_SAR_Seq_Button.c ****     ADC_SAR_Seq_Button_SAR_RANGE_THRES_REG &= (uint32)(~ADC_SAR_Seq_Button_RANGE_LOW_MASK);
 519              		.loc 1 595 0
 520 0000 054A     		ldr	r2, .L43
 521 0002 1368     		ldr	r3, [r2]
 522 0004 1B0C     		lsrs	r3, r3, #16
 523 0006 1B04     		lsls	r3, r3, #16
 524 0008 1360     		str	r3, [r2]
 596:Generated_Source\PSoC4/ADC_SAR_Seq_Button.c ****     ADC_SAR_Seq_Button_SAR_RANGE_THRES_REG |= lowLimit & ADC_SAR_Seq_Button_RANGE_LOW_MASK;
 525              		.loc 1 596 0
 526 000a 1368     		ldr	r3, [r2]
 527 000c 0004     		lsls	r0, r0, #16
 528              	.LVL31:
 529 000e 000C     		lsrs	r0, r0, #16
 530 0010 1843     		orrs	r0, r3
 531 0012 1060     		str	r0, [r2]
 597:Generated_Source\PSoC4/ADC_SAR_Seq_Button.c **** }
 532              		.loc 1 597 0
ARM GAS  C:\Users\bryan.lee\AppData\Local\Temp\ccjkYYi5.s 			page 21


 533              		@ sp needed
 534 0014 7047     		bx	lr
 535              	.L44:
 536 0016 C046     		.align	2
 537              	.L43:
 538 0018 18003A40 		.word	1077542936
 539              		.cfi_endproc
 540              	.LFE11:
 541              		.size	ADC_SAR_Seq_Button_SetLowLimit, .-ADC_SAR_Seq_Button_SetLowLimit
 542              		.section	.text.ADC_SAR_Seq_Button_SetHighLimit,"ax",%progbits
 543              		.align	2
 544              		.global	ADC_SAR_Seq_Button_SetHighLimit
 545              		.code	16
 546              		.thumb_func
 547              		.type	ADC_SAR_Seq_Button_SetHighLimit, %function
 548              	ADC_SAR_Seq_Button_SetHighLimit:
 549              	.LFB12:
 598:Generated_Source\PSoC4/ADC_SAR_Seq_Button.c **** 
 599:Generated_Source\PSoC4/ADC_SAR_Seq_Button.c **** 
 600:Generated_Source\PSoC4/ADC_SAR_Seq_Button.c **** /*******************************************************************************
 601:Generated_Source\PSoC4/ADC_SAR_Seq_Button.c **** * Function Name: ADC_SAR_Seq_Button_SetHighLimit
 602:Generated_Source\PSoC4/ADC_SAR_Seq_Button.c **** ********************************************************************************
 603:Generated_Source\PSoC4/ADC_SAR_Seq_Button.c **** *
 604:Generated_Source\PSoC4/ADC_SAR_Seq_Button.c **** * Summary:
 605:Generated_Source\PSoC4/ADC_SAR_Seq_Button.c **** *  Sets the low limit parameter for a limit condition.
 606:Generated_Source\PSoC4/ADC_SAR_Seq_Button.c **** *
 607:Generated_Source\PSoC4/ADC_SAR_Seq_Button.c **** * Parameters:
 608:Generated_Source\PSoC4/ADC_SAR_Seq_Button.c **** *  highLimit: The high limit for a limit condition.
 609:Generated_Source\PSoC4/ADC_SAR_Seq_Button.c **** *
 610:Generated_Source\PSoC4/ADC_SAR_Seq_Button.c **** * Return:
 611:Generated_Source\PSoC4/ADC_SAR_Seq_Button.c **** *  None.
 612:Generated_Source\PSoC4/ADC_SAR_Seq_Button.c **** *
 613:Generated_Source\PSoC4/ADC_SAR_Seq_Button.c **** *******************************************************************************/
 614:Generated_Source\PSoC4/ADC_SAR_Seq_Button.c **** void ADC_SAR_Seq_Button_SetHighLimit(uint32 highLimit)
 615:Generated_Source\PSoC4/ADC_SAR_Seq_Button.c **** {
 550              		.loc 1 615 0
 551              		.cfi_startproc
 552              		@ args = 0, pretend = 0, frame = 0
 553              		@ frame_needed = 0, uses_anonymous_args = 0
 554              		@ link register save eliminated.
 555              	.LVL32:
 616:Generated_Source\PSoC4/ADC_SAR_Seq_Button.c ****     ADC_SAR_Seq_Button_SAR_RANGE_THRES_REG &= (uint32)(~ADC_SAR_Seq_Button_RANGE_HIGH_MASK);
 556              		.loc 1 616 0
 557 0000 044A     		ldr	r2, .L46
 558 0002 1368     		ldr	r3, [r2]
 559 0004 1B04     		lsls	r3, r3, #16
 560 0006 1B0C     		lsrs	r3, r3, #16
 561 0008 1360     		str	r3, [r2]
 617:Generated_Source\PSoC4/ADC_SAR_Seq_Button.c ****     ADC_SAR_Seq_Button_SAR_RANGE_THRES_REG |= (uint32)(highLimit << ADC_SAR_Seq_Button_RANGE_HIGH_O
 562              		.loc 1 617 0
 563 000a 1368     		ldr	r3, [r2]
 564 000c 0004     		lsls	r0, r0, #16
 565              	.LVL33:
 566 000e 1843     		orrs	r0, r3
 567 0010 1060     		str	r0, [r2]
 618:Generated_Source\PSoC4/ADC_SAR_Seq_Button.c **** }
 568              		.loc 1 618 0
ARM GAS  C:\Users\bryan.lee\AppData\Local\Temp\ccjkYYi5.s 			page 22


 569              		@ sp needed
 570 0012 7047     		bx	lr
 571              	.L47:
 572              		.align	2
 573              	.L46:
 574 0014 18003A40 		.word	1077542936
 575              		.cfi_endproc
 576              	.LFE12:
 577              		.size	ADC_SAR_Seq_Button_SetHighLimit, .-ADC_SAR_Seq_Button_SetHighLimit
 578              		.section	.text.ADC_SAR_Seq_Button_SetLimitMask,"ax",%progbits
 579              		.align	2
 580              		.global	ADC_SAR_Seq_Button_SetLimitMask
 581              		.code	16
 582              		.thumb_func
 583              		.type	ADC_SAR_Seq_Button_SetLimitMask, %function
 584              	ADC_SAR_Seq_Button_SetLimitMask:
 585              	.LFB13:
 619:Generated_Source\PSoC4/ADC_SAR_Seq_Button.c **** 
 620:Generated_Source\PSoC4/ADC_SAR_Seq_Button.c **** 
 621:Generated_Source\PSoC4/ADC_SAR_Seq_Button.c **** /*******************************************************************************
 622:Generated_Source\PSoC4/ADC_SAR_Seq_Button.c **** * Function Name: ADC_SAR_Seq_Button_SetLimitMask
 623:Generated_Source\PSoC4/ADC_SAR_Seq_Button.c **** ********************************************************************************
 624:Generated_Source\PSoC4/ADC_SAR_Seq_Button.c **** *
 625:Generated_Source\PSoC4/ADC_SAR_Seq_Button.c **** * Summary:
 626:Generated_Source\PSoC4/ADC_SAR_Seq_Button.c **** *  Sets the channel limit condition mask.
 627:Generated_Source\PSoC4/ADC_SAR_Seq_Button.c **** *
 628:Generated_Source\PSoC4/ADC_SAR_Seq_Button.c **** * Parameters:
 629:Generated_Source\PSoC4/ADC_SAR_Seq_Button.c **** *  mask: Sets which channels that may cause a
 630:Generated_Source\PSoC4/ADC_SAR_Seq_Button.c **** *  limit condition interrupt. Setting bits for channels that do not exist
 631:Generated_Source\PSoC4/ADC_SAR_Seq_Button.c **** *  will have no effect. For example, if only 6 channels were enabled,
 632:Generated_Source\PSoC4/ADC_SAR_Seq_Button.c **** *  setting a mask of 0x0103 would only enable the last two channels (0 and 1).
 633:Generated_Source\PSoC4/ADC_SAR_Seq_Button.c **** *
 634:Generated_Source\PSoC4/ADC_SAR_Seq_Button.c **** * Return:
 635:Generated_Source\PSoC4/ADC_SAR_Seq_Button.c **** *  None.
 636:Generated_Source\PSoC4/ADC_SAR_Seq_Button.c **** *
 637:Generated_Source\PSoC4/ADC_SAR_Seq_Button.c **** *******************************************************************************/
 638:Generated_Source\PSoC4/ADC_SAR_Seq_Button.c **** void ADC_SAR_Seq_Button_SetLimitMask(uint32 mask)
 639:Generated_Source\PSoC4/ADC_SAR_Seq_Button.c **** {
 586              		.loc 1 639 0
 587              		.cfi_startproc
 588              		@ args = 0, pretend = 0, frame = 0
 589              		@ frame_needed = 0, uses_anonymous_args = 0
 590              		@ link register save eliminated.
 591              	.LVL34:
 640:Generated_Source\PSoC4/ADC_SAR_Seq_Button.c ****     ADC_SAR_Seq_Button_SAR_RANGE_INTR_MASK_REG = mask & ADC_SAR_Seq_Button_MAX_CHANNELS_EN_MASK;
 592              		.loc 1 640 0
 593 0000 0123     		movs	r3, #1
 594 0002 1840     		ands	r0, r3
 595              	.LVL35:
 596 0004 014B     		ldr	r3, .L49
 597 0006 1860     		str	r0, [r3]
 641:Generated_Source\PSoC4/ADC_SAR_Seq_Button.c **** }
 598              		.loc 1 641 0
 599              		@ sp needed
 600 0008 7047     		bx	lr
 601              	.L50:
 602 000a C046     		.align	2
ARM GAS  C:\Users\bryan.lee\AppData\Local\Temp\ccjkYYi5.s 			page 23


 603              	.L49:
 604 000c 38023A40 		.word	1077543480
 605              		.cfi_endproc
 606              	.LFE13:
 607              		.size	ADC_SAR_Seq_Button_SetLimitMask, .-ADC_SAR_Seq_Button_SetLimitMask
 608              		.section	.text.ADC_SAR_Seq_Button_SetSatMask,"ax",%progbits
 609              		.align	2
 610              		.global	ADC_SAR_Seq_Button_SetSatMask
 611              		.code	16
 612              		.thumb_func
 613              		.type	ADC_SAR_Seq_Button_SetSatMask, %function
 614              	ADC_SAR_Seq_Button_SetSatMask:
 615              	.LFB14:
 642:Generated_Source\PSoC4/ADC_SAR_Seq_Button.c **** 
 643:Generated_Source\PSoC4/ADC_SAR_Seq_Button.c **** 
 644:Generated_Source\PSoC4/ADC_SAR_Seq_Button.c **** /*******************************************************************************
 645:Generated_Source\PSoC4/ADC_SAR_Seq_Button.c **** * Function Name: ADC_SAR_Seq_Button_SetSatMask
 646:Generated_Source\PSoC4/ADC_SAR_Seq_Button.c **** ********************************************************************************
 647:Generated_Source\PSoC4/ADC_SAR_Seq_Button.c **** *
 648:Generated_Source\PSoC4/ADC_SAR_Seq_Button.c **** * Summary:
 649:Generated_Source\PSoC4/ADC_SAR_Seq_Button.c **** *  Sets the channel saturation event mask.
 650:Generated_Source\PSoC4/ADC_SAR_Seq_Button.c **** *
 651:Generated_Source\PSoC4/ADC_SAR_Seq_Button.c **** * Parameters:
 652:Generated_Source\PSoC4/ADC_SAR_Seq_Button.c **** *  mask: Sets which channels that may cause a
 653:Generated_Source\PSoC4/ADC_SAR_Seq_Button.c **** *  saturation event interrupt. Setting bits for channels that do not exist
 654:Generated_Source\PSoC4/ADC_SAR_Seq_Button.c **** *  will have no effect. For example, if only 8 channels were enabled,
 655:Generated_Source\PSoC4/ADC_SAR_Seq_Button.c **** *  setting a mask of 0x01C0 would only enable two channels (6 and 7).
 656:Generated_Source\PSoC4/ADC_SAR_Seq_Button.c **** *
 657:Generated_Source\PSoC4/ADC_SAR_Seq_Button.c **** * Return:
 658:Generated_Source\PSoC4/ADC_SAR_Seq_Button.c **** *  None.
 659:Generated_Source\PSoC4/ADC_SAR_Seq_Button.c **** *
 660:Generated_Source\PSoC4/ADC_SAR_Seq_Button.c **** *******************************************************************************/
 661:Generated_Source\PSoC4/ADC_SAR_Seq_Button.c **** void ADC_SAR_Seq_Button_SetSatMask(uint32 mask)
 662:Generated_Source\PSoC4/ADC_SAR_Seq_Button.c **** {
 616              		.loc 1 662 0
 617              		.cfi_startproc
 618              		@ args = 0, pretend = 0, frame = 0
 619              		@ frame_needed = 0, uses_anonymous_args = 0
 620              		@ link register save eliminated.
 621              	.LVL36:
 663:Generated_Source\PSoC4/ADC_SAR_Seq_Button.c ****     ADC_SAR_Seq_Button_SAR_SATURATE_INTR_MASK_REG = mask & ADC_SAR_Seq_Button_MAX_CHANNELS_EN_MASK;
 622              		.loc 1 663 0
 623 0000 0123     		movs	r3, #1
 624 0002 1840     		ands	r0, r3
 625              	.LVL37:
 626 0004 014B     		ldr	r3, .L52
 627 0006 1860     		str	r0, [r3]
 664:Generated_Source\PSoC4/ADC_SAR_Seq_Button.c **** }
 628              		.loc 1 664 0
 629              		@ sp needed
 630 0008 7047     		bx	lr
 631              	.L53:
 632 000a C046     		.align	2
 633              	.L52:
 634 000c 28023A40 		.word	1077543464
 635              		.cfi_endproc
 636              	.LFE14:
ARM GAS  C:\Users\bryan.lee\AppData\Local\Temp\ccjkYYi5.s 			page 24


 637              		.size	ADC_SAR_Seq_Button_SetSatMask, .-ADC_SAR_Seq_Button_SetSatMask
 638              		.section	.text.ADC_SAR_Seq_Button_SetOffset,"ax",%progbits
 639              		.align	2
 640              		.global	ADC_SAR_Seq_Button_SetOffset
 641              		.code	16
 642              		.thumb_func
 643              		.type	ADC_SAR_Seq_Button_SetOffset, %function
 644              	ADC_SAR_Seq_Button_SetOffset:
 645              	.LFB15:
 665:Generated_Source\PSoC4/ADC_SAR_Seq_Button.c **** 
 666:Generated_Source\PSoC4/ADC_SAR_Seq_Button.c **** 
 667:Generated_Source\PSoC4/ADC_SAR_Seq_Button.c **** /*******************************************************************************
 668:Generated_Source\PSoC4/ADC_SAR_Seq_Button.c **** * Function Name: ADC_SAR_Seq_Button_SetOffset
 669:Generated_Source\PSoC4/ADC_SAR_Seq_Button.c **** ********************************************************************************
 670:Generated_Source\PSoC4/ADC_SAR_Seq_Button.c **** *
 671:Generated_Source\PSoC4/ADC_SAR_Seq_Button.c **** * Summary:
 672:Generated_Source\PSoC4/ADC_SAR_Seq_Button.c **** *   Description: Sets the ADC offset which is used by the functions
 673:Generated_Source\PSoC4/ADC_SAR_Seq_Button.c **** *   ADC_CountsTo_uVolts, ADC_CountsTo_mVolts and ADC_CountsTo_Volts
 674:Generated_Source\PSoC4/ADC_SAR_Seq_Button.c **** *   to substract the offset from the given reading
 675:Generated_Source\PSoC4/ADC_SAR_Seq_Button.c **** *   before calculating the voltage conversion.
 676:Generated_Source\PSoC4/ADC_SAR_Seq_Button.c **** *
 677:Generated_Source\PSoC4/ADC_SAR_Seq_Button.c **** * Parameters:
 678:Generated_Source\PSoC4/ADC_SAR_Seq_Button.c **** *  chan: ADC channel number.
 679:Generated_Source\PSoC4/ADC_SAR_Seq_Button.c **** *  offset: This value is a measured value when the
 680:Generated_Source\PSoC4/ADC_SAR_Seq_Button.c **** *          inputs are shorted or connected to the same input voltage.
 681:Generated_Source\PSoC4/ADC_SAR_Seq_Button.c **** *
 682:Generated_Source\PSoC4/ADC_SAR_Seq_Button.c **** * Return:
 683:Generated_Source\PSoC4/ADC_SAR_Seq_Button.c **** *  None.
 684:Generated_Source\PSoC4/ADC_SAR_Seq_Button.c **** *
 685:Generated_Source\PSoC4/ADC_SAR_Seq_Button.c **** * Global variables:
 686:Generated_Source\PSoC4/ADC_SAR_Seq_Button.c **** *  ADC_SAR_Seq_Button_Offset:  Modified to set the user provided offset.
 687:Generated_Source\PSoC4/ADC_SAR_Seq_Button.c **** *
 688:Generated_Source\PSoC4/ADC_SAR_Seq_Button.c **** *******************************************************************************/
 689:Generated_Source\PSoC4/ADC_SAR_Seq_Button.c **** void ADC_SAR_Seq_Button_SetOffset(uint32 chan, int16 offset)
 690:Generated_Source\PSoC4/ADC_SAR_Seq_Button.c **** {
 646              		.loc 1 690 0
 647              		.cfi_startproc
 648              		@ args = 0, pretend = 0, frame = 0
 649              		@ frame_needed = 0, uses_anonymous_args = 0
 650              	.LVL38:
 651 0000 70B5     		push	{r4, r5, r6, lr}
 652              		.cfi_def_cfa_offset 16
 653              		.cfi_offset 4, -16
 654              		.cfi_offset 5, -12
 655              		.cfi_offset 6, -8
 656              		.cfi_offset 14, -4
 657 0002 0400     		movs	r4, r0
 658 0004 0D00     		movs	r5, r1
 691:Generated_Source\PSoC4/ADC_SAR_Seq_Button.c ****     /* Halt CPU in debug mode if channel is out of valid range */
 692:Generated_Source\PSoC4/ADC_SAR_Seq_Button.c ****     CYASSERT(chan < ADC_SAR_Seq_Button_TOTAL_CHANNELS_NUM);
 659              		.loc 1 692 0
 660 0006 0028     		cmp	r0, #0
 661 0008 02D0     		beq	.L55
 662              		.loc 1 692 0 is_stmt 0 discriminator 1
 663 000a 0020     		movs	r0, #0
 664              	.LVL39:
 665 000c FFF7FEFF 		bl	CyHalt
ARM GAS  C:\Users\bryan.lee\AppData\Local\Temp\ccjkYYi5.s 			page 25


 666              	.LVL40:
 667              	.L55:
 693:Generated_Source\PSoC4/ADC_SAR_Seq_Button.c **** 
 694:Generated_Source\PSoC4/ADC_SAR_Seq_Button.c ****     ADC_SAR_Seq_Button_offset[chan] = offset;
 668              		.loc 1 694 0 is_stmt 1
 669 0010 6400     		lsls	r4, r4, #1
 670              	.LVL41:
 671 0012 014B     		ldr	r3, .L56
 672 0014 E552     		strh	r5, [r4, r3]
 695:Generated_Source\PSoC4/ADC_SAR_Seq_Button.c **** }
 673              		.loc 1 695 0
 674              		@ sp needed
 675 0016 70BD     		pop	{r4, r5, r6, pc}
 676              	.L57:
 677              		.align	2
 678              	.L56:
 679 0018 00000000 		.word	ADC_SAR_Seq_Button_offset
 680              		.cfi_endproc
 681              	.LFE15:
 682              		.size	ADC_SAR_Seq_Button_SetOffset, .-ADC_SAR_Seq_Button_SetOffset
 683              		.section	.text.ADC_SAR_Seq_Button_SetGain,"ax",%progbits
 684              		.align	2
 685              		.global	ADC_SAR_Seq_Button_SetGain
 686              		.code	16
 687              		.thumb_func
 688              		.type	ADC_SAR_Seq_Button_SetGain, %function
 689              	ADC_SAR_Seq_Button_SetGain:
 690              	.LFB16:
 696:Generated_Source\PSoC4/ADC_SAR_Seq_Button.c **** 
 697:Generated_Source\PSoC4/ADC_SAR_Seq_Button.c **** 
 698:Generated_Source\PSoC4/ADC_SAR_Seq_Button.c **** /*******************************************************************************
 699:Generated_Source\PSoC4/ADC_SAR_Seq_Button.c **** * Function Name: ADC_SAR_Seq_Button_SetGain
 700:Generated_Source\PSoC4/ADC_SAR_Seq_Button.c **** ********************************************************************************
 701:Generated_Source\PSoC4/ADC_SAR_Seq_Button.c **** *
 702:Generated_Source\PSoC4/ADC_SAR_Seq_Button.c **** * Summary:
 703:Generated_Source\PSoC4/ADC_SAR_Seq_Button.c **** *  Description: Sets the ADC gain in counts per 10 volt for the voltage
 704:Generated_Source\PSoC4/ADC_SAR_Seq_Button.c **** *  conversion functions below. This value is set by default by the
 705:Generated_Source\PSoC4/ADC_SAR_Seq_Button.c **** *  reference and input range settings. It should only be used to further
 706:Generated_Source\PSoC4/ADC_SAR_Seq_Button.c **** *  calibrate the ADC with a known input or if an external reference is
 707:Generated_Source\PSoC4/ADC_SAR_Seq_Button.c **** *  used. Affects the ADC_CountsTo_uVolts, ADC_CountsTo_mVolts
 708:Generated_Source\PSoC4/ADC_SAR_Seq_Button.c **** *  and ADC_CountsTo_Volts functions by supplying the correct
 709:Generated_Source\PSoC4/ADC_SAR_Seq_Button.c **** *  conversion between ADC counts and voltage.
 710:Generated_Source\PSoC4/ADC_SAR_Seq_Button.c **** *
 711:Generated_Source\PSoC4/ADC_SAR_Seq_Button.c **** * Parameters:
 712:Generated_Source\PSoC4/ADC_SAR_Seq_Button.c **** *  chan: ADC channel number.
 713:Generated_Source\PSoC4/ADC_SAR_Seq_Button.c **** *  adcGain: ADC gain in counts per 10 volts.
 714:Generated_Source\PSoC4/ADC_SAR_Seq_Button.c **** *
 715:Generated_Source\PSoC4/ADC_SAR_Seq_Button.c **** * Return:
 716:Generated_Source\PSoC4/ADC_SAR_Seq_Button.c **** *  None.
 717:Generated_Source\PSoC4/ADC_SAR_Seq_Button.c **** *
 718:Generated_Source\PSoC4/ADC_SAR_Seq_Button.c **** * Global variables:
 719:Generated_Source\PSoC4/ADC_SAR_Seq_Button.c **** *  ADC_SAR_Seq_Button_CountsPer10Volt:  modified to set the ADC gain in counts
 720:Generated_Source\PSoC4/ADC_SAR_Seq_Button.c **** *   per 10 volt.
 721:Generated_Source\PSoC4/ADC_SAR_Seq_Button.c **** *
 722:Generated_Source\PSoC4/ADC_SAR_Seq_Button.c **** *******************************************************************************/
 723:Generated_Source\PSoC4/ADC_SAR_Seq_Button.c **** void ADC_SAR_Seq_Button_SetGain(uint32 chan, int32 adcGain)
 724:Generated_Source\PSoC4/ADC_SAR_Seq_Button.c **** {
ARM GAS  C:\Users\bryan.lee\AppData\Local\Temp\ccjkYYi5.s 			page 26


 691              		.loc 1 724 0
 692              		.cfi_startproc
 693              		@ args = 0, pretend = 0, frame = 0
 694              		@ frame_needed = 0, uses_anonymous_args = 0
 695              	.LVL42:
 696 0000 70B5     		push	{r4, r5, r6, lr}
 697              		.cfi_def_cfa_offset 16
 698              		.cfi_offset 4, -16
 699              		.cfi_offset 5, -12
 700              		.cfi_offset 6, -8
 701              		.cfi_offset 14, -4
 702 0002 0400     		movs	r4, r0
 703 0004 0D00     		movs	r5, r1
 725:Generated_Source\PSoC4/ADC_SAR_Seq_Button.c ****     /* Halt CPU in debug mode if channel is out of valid range */
 726:Generated_Source\PSoC4/ADC_SAR_Seq_Button.c ****     CYASSERT(chan < ADC_SAR_Seq_Button_TOTAL_CHANNELS_NUM);
 704              		.loc 1 726 0
 705 0006 0028     		cmp	r0, #0
 706 0008 02D0     		beq	.L59
 707              		.loc 1 726 0 is_stmt 0 discriminator 1
 708 000a 0020     		movs	r0, #0
 709              	.LVL43:
 710 000c FFF7FEFF 		bl	CyHalt
 711              	.LVL44:
 712              	.L59:
 727:Generated_Source\PSoC4/ADC_SAR_Seq_Button.c **** 
 728:Generated_Source\PSoC4/ADC_SAR_Seq_Button.c ****     ADC_SAR_Seq_Button_countsPer10Volt[chan] = adcGain;
 713              		.loc 1 728 0 is_stmt 1
 714 0010 A400     		lsls	r4, r4, #2
 715              	.LVL45:
 716 0012 014B     		ldr	r3, .L60
 717 0014 E550     		str	r5, [r4, r3]
 729:Generated_Source\PSoC4/ADC_SAR_Seq_Button.c **** }
 718              		.loc 1 729 0
 719              		@ sp needed
 720              	.LVL46:
 721 0016 70BD     		pop	{r4, r5, r6, pc}
 722              	.L61:
 723              		.align	2
 724              	.L60:
 725 0018 00000000 		.word	ADC_SAR_Seq_Button_countsPer10Volt
 726              		.cfi_endproc
 727              	.LFE16:
 728              		.size	ADC_SAR_Seq_Button_SetGain, .-ADC_SAR_Seq_Button_SetGain
 729              		.global	__aeabi_idiv
 730              		.section	.text.ADC_SAR_Seq_Button_CountsTo_mVolts,"ax",%progbits
 731              		.align	2
 732              		.global	ADC_SAR_Seq_Button_CountsTo_mVolts
 733              		.code	16
 734              		.thumb_func
 735              		.type	ADC_SAR_Seq_Button_CountsTo_mVolts, %function
 736              	ADC_SAR_Seq_Button_CountsTo_mVolts:
 737              	.LFB17:
 730:Generated_Source\PSoC4/ADC_SAR_Seq_Button.c **** 
 731:Generated_Source\PSoC4/ADC_SAR_Seq_Button.c **** 
 732:Generated_Source\PSoC4/ADC_SAR_Seq_Button.c **** #if(ADC_SAR_Seq_Button_DEFAULT_JUSTIFICATION_SEL == ADC_SAR_Seq_Button__RIGHT)
 733:Generated_Source\PSoC4/ADC_SAR_Seq_Button.c **** 
 734:Generated_Source\PSoC4/ADC_SAR_Seq_Button.c **** 
ARM GAS  C:\Users\bryan.lee\AppData\Local\Temp\ccjkYYi5.s 			page 27


 735:Generated_Source\PSoC4/ADC_SAR_Seq_Button.c ****     /*******************************************************************************
 736:Generated_Source\PSoC4/ADC_SAR_Seq_Button.c ****     * Function Name: ADC_SAR_Seq_Button_CountsTo_mVolts
 737:Generated_Source\PSoC4/ADC_SAR_Seq_Button.c ****     ********************************************************************************
 738:Generated_Source\PSoC4/ADC_SAR_Seq_Button.c ****     *
 739:Generated_Source\PSoC4/ADC_SAR_Seq_Button.c ****     * Summary:
 740:Generated_Source\PSoC4/ADC_SAR_Seq_Button.c ****     *  This function converts ADC counts to mVolts
 741:Generated_Source\PSoC4/ADC_SAR_Seq_Button.c ****     *  This function is not available when left data format justification selected.
 742:Generated_Source\PSoC4/ADC_SAR_Seq_Button.c ****     *
 743:Generated_Source\PSoC4/ADC_SAR_Seq_Button.c ****     * Parameters:
 744:Generated_Source\PSoC4/ADC_SAR_Seq_Button.c ****     *  chan: The ADC channel number.
 745:Generated_Source\PSoC4/ADC_SAR_Seq_Button.c ****     *  adcCounts: Result from the ADC conversion
 746:Generated_Source\PSoC4/ADC_SAR_Seq_Button.c ****     *
 747:Generated_Source\PSoC4/ADC_SAR_Seq_Button.c ****     * Return:
 748:Generated_Source\PSoC4/ADC_SAR_Seq_Button.c ****     *  Results in mVolts
 749:Generated_Source\PSoC4/ADC_SAR_Seq_Button.c ****     *
 750:Generated_Source\PSoC4/ADC_SAR_Seq_Button.c ****     * Global variables:
 751:Generated_Source\PSoC4/ADC_SAR_Seq_Button.c ****     *  ADC_SAR_Seq_Button_countsPer10Volt:  used to convert ADC counts to mVolts.
 752:Generated_Source\PSoC4/ADC_SAR_Seq_Button.c ****     *  ADC_SAR_Seq_Button_Offset:  Used as the offset while converting ADC counts
 753:Generated_Source\PSoC4/ADC_SAR_Seq_Button.c ****     *   to mVolts.
 754:Generated_Source\PSoC4/ADC_SAR_Seq_Button.c ****     *
 755:Generated_Source\PSoC4/ADC_SAR_Seq_Button.c ****     *******************************************************************************/
 756:Generated_Source\PSoC4/ADC_SAR_Seq_Button.c ****     int16 ADC_SAR_Seq_Button_CountsTo_mVolts(uint32 chan, int16 adcCounts)
 757:Generated_Source\PSoC4/ADC_SAR_Seq_Button.c ****     {
 738              		.loc 1 757 0
 739              		.cfi_startproc
 740              		@ args = 0, pretend = 0, frame = 0
 741              		@ frame_needed = 0, uses_anonymous_args = 0
 742              	.LVL47:
 743 0000 70B5     		push	{r4, r5, r6, lr}
 744              		.cfi_def_cfa_offset 16
 745              		.cfi_offset 4, -16
 746              		.cfi_offset 5, -12
 747              		.cfi_offset 6, -8
 748              		.cfi_offset 14, -4
 749 0002 0400     		movs	r4, r0
 750 0004 0D00     		movs	r5, r1
 758:Generated_Source\PSoC4/ADC_SAR_Seq_Button.c ****         int16 mVolts;
 759:Generated_Source\PSoC4/ADC_SAR_Seq_Button.c **** 
 760:Generated_Source\PSoC4/ADC_SAR_Seq_Button.c ****         /* Halt CPU in debug mode if channel is out of valid range */
 761:Generated_Source\PSoC4/ADC_SAR_Seq_Button.c ****         CYASSERT(chan < ADC_SAR_Seq_Button_TOTAL_CHANNELS_NUM);
 751              		.loc 1 761 0
 752 0006 0028     		cmp	r0, #0
 753 0008 02D0     		beq	.L63
 754              		.loc 1 761 0 is_stmt 0 discriminator 1
 755 000a 0020     		movs	r0, #0
 756              	.LVL48:
 757 000c FFF7FEFF 		bl	CyHalt
 758              	.LVL49:
 759              	.L63:
 762:Generated_Source\PSoC4/ADC_SAR_Seq_Button.c **** 
 763:Generated_Source\PSoC4/ADC_SAR_Seq_Button.c ****         /* Divide the adcCount when accumulate averaging mode selected */
 764:Generated_Source\PSoC4/ADC_SAR_Seq_Button.c ****         #if(ADC_SAR_Seq_Button_DEFAULT_AVG_MODE == ADC_SAR_Seq_Button__ACCUMULATE)
 765:Generated_Source\PSoC4/ADC_SAR_Seq_Button.c ****             if((ADC_SAR_Seq_Button_channelsConfig[chan] & ADC_SAR_Seq_Button_AVERAGING_EN) != 0u)
 766:Generated_Source\PSoC4/ADC_SAR_Seq_Button.c ****             {
 767:Generated_Source\PSoC4/ADC_SAR_Seq_Button.c ****                 adcCounts /= ADC_SAR_Seq_Button_DEFAULT_AVG_SAMPLES_DIV;
 768:Generated_Source\PSoC4/ADC_SAR_Seq_Button.c ****             }
 769:Generated_Source\PSoC4/ADC_SAR_Seq_Button.c ****         #endif /* ADC_SAR_Seq_Button_DEFAULT_AVG_MODE == ADC_SAR_Seq_Button__ACCUMULATE */
ARM GAS  C:\Users\bryan.lee\AppData\Local\Temp\ccjkYYi5.s 			page 28


 770:Generated_Source\PSoC4/ADC_SAR_Seq_Button.c **** 
 771:Generated_Source\PSoC4/ADC_SAR_Seq_Button.c ****         /* Subtract ADC offset */
 772:Generated_Source\PSoC4/ADC_SAR_Seq_Button.c ****         adcCounts -= ADC_SAR_Seq_Button_offset[chan];
 760              		.loc 1 772 0 is_stmt 1
 761 0010 6300     		lsls	r3, r4, #1
 762 0012 0F4A     		ldr	r2, .L66
 763 0014 995A     		ldrh	r1, [r3, r2]
 764 0016 09B2     		sxth	r1, r1
 765 0018 691A     		subs	r1, r5, r1
 766 001a 09B2     		sxth	r1, r1
 767              	.LVL50:
 773:Generated_Source\PSoC4/ADC_SAR_Seq_Button.c **** 
 774:Generated_Source\PSoC4/ADC_SAR_Seq_Button.c ****         mVolts = (int16)((((int32)adcCounts * ADC_SAR_Seq_Button_10MV_COUNTS) + ( (adcCounts > 0) ?
 768              		.loc 1 774 0
 769 001c 0D48     		ldr	r0, .L66+4
 770 001e 4843     		muls	r0, r1
 775:Generated_Source\PSoC4/ADC_SAR_Seq_Button.c ****                  (ADC_SAR_Seq_Button_countsPer10Volt[chan] / 2) : (-(ADC_SAR_Seq_Button_countsPer10
 771              		.loc 1 775 0
 772 0020 0029     		cmp	r1, #0
 773 0022 06DD     		ble	.L64
 774              		.loc 1 775 0 is_stmt 0 discriminator 1
 775 0024 A300     		lsls	r3, r4, #2
 776 0026 0C4A     		ldr	r2, .L66+8
 777 0028 9A58     		ldr	r2, [r3, r2]
 778 002a D30F     		lsrs	r3, r2, #31
 779 002c 9A18     		adds	r2, r3, r2
 780 002e 5310     		asrs	r3, r2, #1
 781 0030 06E0     		b	.L65
 782              	.L64:
 783              		.loc 1 775 0 discriminator 2
 784 0032 A300     		lsls	r3, r4, #2
 785 0034 084A     		ldr	r2, .L66+8
 786 0036 9A58     		ldr	r2, [r3, r2]
 787 0038 D30F     		lsrs	r3, r2, #31
 788 003a 9A18     		adds	r2, r3, r2
 789 003c 5210     		asrs	r2, r2, #1
 790 003e 5342     		rsbs	r3, r2, #0
 791              	.L65:
 774:Generated_Source\PSoC4/ADC_SAR_Seq_Button.c ****                  (ADC_SAR_Seq_Button_countsPer10Volt[chan] / 2) : (-(ADC_SAR_Seq_Button_countsPer10
 792              		.loc 1 774 0 is_stmt 1
 793 0040 1818     		adds	r0, r3, r0
 776:Generated_Source\PSoC4/ADC_SAR_Seq_Button.c ****                  / ADC_SAR_Seq_Button_countsPer10Volt[chan]);
 794              		.loc 1 776 0
 795 0042 A400     		lsls	r4, r4, #2
 796              	.LVL51:
 797 0044 044B     		ldr	r3, .L66+8
 798 0046 E158     		ldr	r1, [r4, r3]
 799              	.LVL52:
 800 0048 FFF7FEFF 		bl	__aeabi_idiv
 801              	.LVL53:
 774:Generated_Source\PSoC4/ADC_SAR_Seq_Button.c ****                  (ADC_SAR_Seq_Button_countsPer10Volt[chan] / 2) : (-(ADC_SAR_Seq_Button_countsPer10
 802              		.loc 1 774 0
 803 004c 00B2     		sxth	r0, r0
 804              	.LVL54:
 777:Generated_Source\PSoC4/ADC_SAR_Seq_Button.c **** 
 778:Generated_Source\PSoC4/ADC_SAR_Seq_Button.c ****         return( mVolts );
 779:Generated_Source\PSoC4/ADC_SAR_Seq_Button.c ****     }
ARM GAS  C:\Users\bryan.lee\AppData\Local\Temp\ccjkYYi5.s 			page 29


 805              		.loc 1 779 0
 806              		@ sp needed
 807 004e 70BD     		pop	{r4, r5, r6, pc}
 808              	.L67:
 809              		.align	2
 810              	.L66:
 811 0050 00000000 		.word	ADC_SAR_Seq_Button_offset
 812 0054 10270000 		.word	10000
 813 0058 00000000 		.word	ADC_SAR_Seq_Button_countsPer10Volt
 814              		.cfi_endproc
 815              	.LFE17:
 816              		.size	ADC_SAR_Seq_Button_CountsTo_mVolts, .-ADC_SAR_Seq_Button_CountsTo_mVolts
 817              		.global	__aeabi_lmul
 818              		.global	__aeabi_ldivmod
 819              		.section	.text.ADC_SAR_Seq_Button_CountsTo_uVolts,"ax",%progbits
 820              		.align	2
 821              		.global	ADC_SAR_Seq_Button_CountsTo_uVolts
 822              		.code	16
 823              		.thumb_func
 824              		.type	ADC_SAR_Seq_Button_CountsTo_uVolts, %function
 825              	ADC_SAR_Seq_Button_CountsTo_uVolts:
 826              	.LFB18:
 780:Generated_Source\PSoC4/ADC_SAR_Seq_Button.c **** 
 781:Generated_Source\PSoC4/ADC_SAR_Seq_Button.c **** 
 782:Generated_Source\PSoC4/ADC_SAR_Seq_Button.c ****     /*******************************************************************************
 783:Generated_Source\PSoC4/ADC_SAR_Seq_Button.c ****     * Function Name: ADC_SAR_Seq_Button_CountsTo_uVolts
 784:Generated_Source\PSoC4/ADC_SAR_Seq_Button.c ****     ********************************************************************************
 785:Generated_Source\PSoC4/ADC_SAR_Seq_Button.c ****     *
 786:Generated_Source\PSoC4/ADC_SAR_Seq_Button.c ****     * Summary:
 787:Generated_Source\PSoC4/ADC_SAR_Seq_Button.c ****     *  This function converts ADC counts to micro Volts
 788:Generated_Source\PSoC4/ADC_SAR_Seq_Button.c ****     *  This function is not available when left data format justification selected.
 789:Generated_Source\PSoC4/ADC_SAR_Seq_Button.c ****     *
 790:Generated_Source\PSoC4/ADC_SAR_Seq_Button.c ****     * Parameters:
 791:Generated_Source\PSoC4/ADC_SAR_Seq_Button.c ****     *  chan: The ADC channel number.
 792:Generated_Source\PSoC4/ADC_SAR_Seq_Button.c ****     *  adcCounts: Result from the ADC conversion
 793:Generated_Source\PSoC4/ADC_SAR_Seq_Button.c ****     *
 794:Generated_Source\PSoC4/ADC_SAR_Seq_Button.c ****     * Return:
 795:Generated_Source\PSoC4/ADC_SAR_Seq_Button.c ****     *  Results in uVolts
 796:Generated_Source\PSoC4/ADC_SAR_Seq_Button.c ****     *
 797:Generated_Source\PSoC4/ADC_SAR_Seq_Button.c ****     * Global variables:
 798:Generated_Source\PSoC4/ADC_SAR_Seq_Button.c ****     *  ADC_SAR_Seq_Button_countsPer10Volt:  used to convert ADC counts to uVolts.
 799:Generated_Source\PSoC4/ADC_SAR_Seq_Button.c ****     *  ADC_SAR_Seq_Button_Offset:  Used as the offset while converting ADC counts
 800:Generated_Source\PSoC4/ADC_SAR_Seq_Button.c ****     *   to mVolts.
 801:Generated_Source\PSoC4/ADC_SAR_Seq_Button.c ****     *
 802:Generated_Source\PSoC4/ADC_SAR_Seq_Button.c ****     * Theory:
 803:Generated_Source\PSoC4/ADC_SAR_Seq_Button.c ****     *  Care must be taken to not exceed the maximum value for a 31 bit signed
 804:Generated_Source\PSoC4/ADC_SAR_Seq_Button.c ****     *  number in the conversion to uVolts and at the same time not loose
 805:Generated_Source\PSoC4/ADC_SAR_Seq_Button.c ****     *  resolution.
 806:Generated_Source\PSoC4/ADC_SAR_Seq_Button.c ****     *  To convert adcCounts to microVolts it is required to be multiplied
 807:Generated_Source\PSoC4/ADC_SAR_Seq_Button.c ****     *  on 10 million and later divide on gain in counts per 10V.
 808:Generated_Source\PSoC4/ADC_SAR_Seq_Button.c ****     *
 809:Generated_Source\PSoC4/ADC_SAR_Seq_Button.c ****     *******************************************************************************/
 810:Generated_Source\PSoC4/ADC_SAR_Seq_Button.c ****     int32 ADC_SAR_Seq_Button_CountsTo_uVolts(uint32 chan, int16 adcCounts)
 811:Generated_Source\PSoC4/ADC_SAR_Seq_Button.c ****     {
 827              		.loc 1 811 0
 828              		.cfi_startproc
 829              		@ args = 0, pretend = 0, frame = 0
ARM GAS  C:\Users\bryan.lee\AppData\Local\Temp\ccjkYYi5.s 			page 30


 830              		@ frame_needed = 0, uses_anonymous_args = 0
 831              	.LVL55:
 832 0000 70B5     		push	{r4, r5, r6, lr}
 833              		.cfi_def_cfa_offset 16
 834              		.cfi_offset 4, -16
 835              		.cfi_offset 5, -12
 836              		.cfi_offset 6, -8
 837              		.cfi_offset 14, -4
 838 0002 0500     		movs	r5, r0
 839 0004 0C00     		movs	r4, r1
 812:Generated_Source\PSoC4/ADC_SAR_Seq_Button.c ****         int64 uVolts;
 813:Generated_Source\PSoC4/ADC_SAR_Seq_Button.c **** 
 814:Generated_Source\PSoC4/ADC_SAR_Seq_Button.c ****         /* Halt CPU in debug mode if channel is out of valid range */
 815:Generated_Source\PSoC4/ADC_SAR_Seq_Button.c ****         CYASSERT(chan < ADC_SAR_Seq_Button_TOTAL_CHANNELS_NUM);
 840              		.loc 1 815 0
 841 0006 0028     		cmp	r0, #0
 842 0008 02D0     		beq	.L69
 843              		.loc 1 815 0 is_stmt 0 discriminator 1
 844 000a 0020     		movs	r0, #0
 845              	.LVL56:
 846 000c FFF7FEFF 		bl	CyHalt
 847              	.LVL57:
 848              	.L69:
 816:Generated_Source\PSoC4/ADC_SAR_Seq_Button.c **** 
 817:Generated_Source\PSoC4/ADC_SAR_Seq_Button.c ****         /* Divide the adcCount when accumulate averaging mode selected */
 818:Generated_Source\PSoC4/ADC_SAR_Seq_Button.c ****         #if(ADC_SAR_Seq_Button_DEFAULT_AVG_MODE == ADC_SAR_Seq_Button__ACCUMULATE)
 819:Generated_Source\PSoC4/ADC_SAR_Seq_Button.c ****             if((ADC_SAR_Seq_Button_channelsConfig[chan] & ADC_SAR_Seq_Button_AVERAGING_EN) != 0u)
 820:Generated_Source\PSoC4/ADC_SAR_Seq_Button.c ****             {
 821:Generated_Source\PSoC4/ADC_SAR_Seq_Button.c ****                 adcCounts /= ADC_SAR_Seq_Button_DEFAULT_AVG_SAMPLES_DIV;
 822:Generated_Source\PSoC4/ADC_SAR_Seq_Button.c ****             }
 823:Generated_Source\PSoC4/ADC_SAR_Seq_Button.c ****         #endif /* ADC_SAR_Seq_Button_DEFAULT_AVG_MODE == ADC_SAR_Seq_Button__ACCUMULATE */
 824:Generated_Source\PSoC4/ADC_SAR_Seq_Button.c **** 
 825:Generated_Source\PSoC4/ADC_SAR_Seq_Button.c ****         /* Subtract ADC offset */
 826:Generated_Source\PSoC4/ADC_SAR_Seq_Button.c ****         adcCounts -= ADC_SAR_Seq_Button_offset[chan];
 849              		.loc 1 826 0 is_stmt 1
 850 0010 6A00     		lsls	r2, r5, #1
 851 0012 084B     		ldr	r3, .L70
 852 0014 D05A     		ldrh	r0, [r2, r3]
 853 0016 00B2     		sxth	r0, r0
 854 0018 201A     		subs	r0, r4, r0
 855 001a 00B2     		sxth	r0, r0
 856              	.LVL58:
 827:Generated_Source\PSoC4/ADC_SAR_Seq_Button.c **** 
 828:Generated_Source\PSoC4/ADC_SAR_Seq_Button.c ****         uVolts = ((int64)adcCounts * ADC_SAR_Seq_Button_10UV_COUNTS) / ADC_SAR_Seq_Button_countsPer
 857              		.loc 1 828 0
 858 001c C117     		asrs	r1, r0, #31
 859 001e 064A     		ldr	r2, .L70+4
 860 0020 0023     		movs	r3, #0
 861 0022 FFF7FEFF 		bl	__aeabi_lmul
 862              	.LVL59:
 863 0026 AD00     		lsls	r5, r5, #2
 864              	.LVL60:
 865 0028 044B     		ldr	r3, .L70+8
 866 002a EA58     		ldr	r2, [r5, r3]
 867 002c D317     		asrs	r3, r2, #31
 868 002e FFF7FEFF 		bl	__aeabi_ldivmod
 869              	.LVL61:
ARM GAS  C:\Users\bryan.lee\AppData\Local\Temp\ccjkYYi5.s 			page 31


 829:Generated_Source\PSoC4/ADC_SAR_Seq_Button.c **** 
 830:Generated_Source\PSoC4/ADC_SAR_Seq_Button.c ****         return( (int32)uVolts );
 831:Generated_Source\PSoC4/ADC_SAR_Seq_Button.c ****     }
 870              		.loc 1 831 0
 871              		@ sp needed
 872 0032 70BD     		pop	{r4, r5, r6, pc}
 873              	.L71:
 874              		.align	2
 875              	.L70:
 876 0034 00000000 		.word	ADC_SAR_Seq_Button_offset
 877 0038 80969800 		.word	10000000
 878 003c 00000000 		.word	ADC_SAR_Seq_Button_countsPer10Volt
 879              		.cfi_endproc
 880              	.LFE18:
 881              		.size	ADC_SAR_Seq_Button_CountsTo_uVolts, .-ADC_SAR_Seq_Button_CountsTo_uVolts
 882              		.global	__aeabi_i2f
 883              		.global	__aeabi_fmul
 884              		.global	__aeabi_fdiv
 885              		.section	.text.ADC_SAR_Seq_Button_CountsTo_Volts,"ax",%progbits
 886              		.align	2
 887              		.global	ADC_SAR_Seq_Button_CountsTo_Volts
 888              		.code	16
 889              		.thumb_func
 890              		.type	ADC_SAR_Seq_Button_CountsTo_Volts, %function
 891              	ADC_SAR_Seq_Button_CountsTo_Volts:
 892              	.LFB19:
 832:Generated_Source\PSoC4/ADC_SAR_Seq_Button.c **** 
 833:Generated_Source\PSoC4/ADC_SAR_Seq_Button.c **** 
 834:Generated_Source\PSoC4/ADC_SAR_Seq_Button.c ****     /*******************************************************************************
 835:Generated_Source\PSoC4/ADC_SAR_Seq_Button.c ****     * Function Name: ADC_SAR_Seq_Button_CountsTo_Volts
 836:Generated_Source\PSoC4/ADC_SAR_Seq_Button.c ****     ********************************************************************************
 837:Generated_Source\PSoC4/ADC_SAR_Seq_Button.c ****     *
 838:Generated_Source\PSoC4/ADC_SAR_Seq_Button.c ****     * Summary:
 839:Generated_Source\PSoC4/ADC_SAR_Seq_Button.c ****     *  Converts the ADC output to Volts as a floating point number.
 840:Generated_Source\PSoC4/ADC_SAR_Seq_Button.c ****     *  This function is not available when left data format justification selected.
 841:Generated_Source\PSoC4/ADC_SAR_Seq_Button.c ****     *
 842:Generated_Source\PSoC4/ADC_SAR_Seq_Button.c ****     * Parameters:
 843:Generated_Source\PSoC4/ADC_SAR_Seq_Button.c ****     *  chan: The ADC channel number.
 844:Generated_Source\PSoC4/ADC_SAR_Seq_Button.c ****     *  Result from the ADC conversion
 845:Generated_Source\PSoC4/ADC_SAR_Seq_Button.c ****     *
 846:Generated_Source\PSoC4/ADC_SAR_Seq_Button.c ****     * Return:
 847:Generated_Source\PSoC4/ADC_SAR_Seq_Button.c ****     *  Results in Volts
 848:Generated_Source\PSoC4/ADC_SAR_Seq_Button.c ****     *
 849:Generated_Source\PSoC4/ADC_SAR_Seq_Button.c ****     * Global variables:
 850:Generated_Source\PSoC4/ADC_SAR_Seq_Button.c ****     *  ADC_SAR_Seq_Button_countsPer10Volt:  used to convert ADC counts to Volts.
 851:Generated_Source\PSoC4/ADC_SAR_Seq_Button.c ****     *  ADC_SAR_Seq_Button_Offset:  Used as the offset while converting ADC counts
 852:Generated_Source\PSoC4/ADC_SAR_Seq_Button.c ****     *   to mVolts.
 853:Generated_Source\PSoC4/ADC_SAR_Seq_Button.c ****     *
 854:Generated_Source\PSoC4/ADC_SAR_Seq_Button.c ****     *******************************************************************************/
 855:Generated_Source\PSoC4/ADC_SAR_Seq_Button.c ****     float32 ADC_SAR_Seq_Button_CountsTo_Volts(uint32 chan, int16 adcCounts)
 856:Generated_Source\PSoC4/ADC_SAR_Seq_Button.c ****     {
 893              		.loc 1 856 0
 894              		.cfi_startproc
 895              		@ args = 0, pretend = 0, frame = 0
 896              		@ frame_needed = 0, uses_anonymous_args = 0
 897              	.LVL62:
 898 0000 70B5     		push	{r4, r5, r6, lr}
ARM GAS  C:\Users\bryan.lee\AppData\Local\Temp\ccjkYYi5.s 			page 32


 899              		.cfi_def_cfa_offset 16
 900              		.cfi_offset 4, -16
 901              		.cfi_offset 5, -12
 902              		.cfi_offset 6, -8
 903              		.cfi_offset 14, -4
 904 0002 0400     		movs	r4, r0
 905 0004 0D00     		movs	r5, r1
 857:Generated_Source\PSoC4/ADC_SAR_Seq_Button.c ****         float32 volts;
 858:Generated_Source\PSoC4/ADC_SAR_Seq_Button.c **** 
 859:Generated_Source\PSoC4/ADC_SAR_Seq_Button.c ****         /* Halt CPU in debug mode if channel is out of valid range */
 860:Generated_Source\PSoC4/ADC_SAR_Seq_Button.c ****         CYASSERT(chan < ADC_SAR_Seq_Button_TOTAL_CHANNELS_NUM);
 906              		.loc 1 860 0
 907 0006 0028     		cmp	r0, #0
 908 0008 02D0     		beq	.L73
 909              		.loc 1 860 0 is_stmt 0 discriminator 1
 910 000a 0020     		movs	r0, #0
 911              	.LVL63:
 912 000c FFF7FEFF 		bl	CyHalt
 913              	.LVL64:
 914              	.L73:
 861:Generated_Source\PSoC4/ADC_SAR_Seq_Button.c **** 
 862:Generated_Source\PSoC4/ADC_SAR_Seq_Button.c ****         /* Divide the adcCount when accumulate averaging mode selected */
 863:Generated_Source\PSoC4/ADC_SAR_Seq_Button.c ****         #if(ADC_SAR_Seq_Button_DEFAULT_AVG_MODE == ADC_SAR_Seq_Button__ACCUMULATE)
 864:Generated_Source\PSoC4/ADC_SAR_Seq_Button.c ****             if((ADC_SAR_Seq_Button_channelsConfig[chan] & ADC_SAR_Seq_Button_AVERAGING_EN) != 0u)
 865:Generated_Source\PSoC4/ADC_SAR_Seq_Button.c ****             {
 866:Generated_Source\PSoC4/ADC_SAR_Seq_Button.c ****                 adcCounts /= ADC_SAR_Seq_Button_DEFAULT_AVG_SAMPLES_DIV;
 867:Generated_Source\PSoC4/ADC_SAR_Seq_Button.c ****             }
 868:Generated_Source\PSoC4/ADC_SAR_Seq_Button.c ****         #endif /* ADC_SAR_Seq_Button_DEFAULT_AVG_MODE == ADC_SAR_Seq_Button__ACCUMULATE */
 869:Generated_Source\PSoC4/ADC_SAR_Seq_Button.c **** 
 870:Generated_Source\PSoC4/ADC_SAR_Seq_Button.c ****         /* Subtract ADC offset */
 871:Generated_Source\PSoC4/ADC_SAR_Seq_Button.c ****         adcCounts -= ADC_SAR_Seq_Button_offset[chan];
 915              		.loc 1 871 0 is_stmt 1
 916 0010 6200     		lsls	r2, r4, #1
 917 0012 0A4B     		ldr	r3, .L74
 918 0014 D05A     		ldrh	r0, [r2, r3]
 919 0016 00B2     		sxth	r0, r0
 920 0018 281A     		subs	r0, r5, r0
 921 001a 00B2     		sxth	r0, r0
 922              	.LVL65:
 872:Generated_Source\PSoC4/ADC_SAR_Seq_Button.c **** 
 873:Generated_Source\PSoC4/ADC_SAR_Seq_Button.c ****         volts = ((float32)adcCounts * ADC_SAR_Seq_Button_10V_COUNTS) / (float32)ADC_SAR_Seq_Button_
 923              		.loc 1 873 0
 924 001c FFF7FEFF 		bl	__aeabi_i2f
 925              	.LVL66:
 926 0020 0749     		ldr	r1, .L74+4
 927 0022 FFF7FEFF 		bl	__aeabi_fmul
 928              	.LVL67:
 929 0026 051C     		adds	r5, r0, #0
 930 0028 A400     		lsls	r4, r4, #2
 931              	.LVL68:
 932 002a 064B     		ldr	r3, .L74+8
 933 002c E058     		ldr	r0, [r4, r3]
 934 002e FFF7FEFF 		bl	__aeabi_i2f
 935              	.LVL69:
 936 0032 011C     		adds	r1, r0, #0
 937 0034 281C     		adds	r0, r5, #0
 938 0036 FFF7FEFF 		bl	__aeabi_fdiv
ARM GAS  C:\Users\bryan.lee\AppData\Local\Temp\ccjkYYi5.s 			page 33


 939              	.LVL70:
 874:Generated_Source\PSoC4/ADC_SAR_Seq_Button.c **** 
 875:Generated_Source\PSoC4/ADC_SAR_Seq_Button.c ****         return( volts );
 876:Generated_Source\PSoC4/ADC_SAR_Seq_Button.c ****     }
 940              		.loc 1 876 0
 941              		@ sp needed
 942 003a 70BD     		pop	{r4, r5, r6, pc}
 943              	.L75:
 944              		.align	2
 945              	.L74:
 946 003c 00000000 		.word	ADC_SAR_Seq_Button_offset
 947 0040 00002041 		.word	1092616192
 948 0044 00000000 		.word	ADC_SAR_Seq_Button_countsPer10Volt
 949              		.cfi_endproc
 950              	.LFE19:
 951              		.size	ADC_SAR_Seq_Button_CountsTo_Volts, .-ADC_SAR_Seq_Button_CountsTo_Volts
 952              		.comm	ADC_SAR_Seq_Button_countsPer10Volt,4,4
 953              		.comm	ADC_SAR_Seq_Button_offset,2,4
 954              		.global	ADC_SAR_Seq_Button_initVar
 955              		.bss
 956              		.set	.LANCHOR0,. + 0
 957              		.type	ADC_SAR_Seq_Button_initVar, %object
 958              		.size	ADC_SAR_Seq_Button_initVar, 1
 959              	ADC_SAR_Seq_Button_initVar:
 960 0000 00       		.space	1
 961              		.text
 962              	.Letext0:
 963              		.file 2 "Generated_Source\\PSoC4\\cytypes.h"
 964              		.file 3 "Generated_Source\\PSoC4\\CyLib.h"