ARM GAS  C:\Users\bryan.lee\AppData\Local\Temp\ccwYxMXs.s 			page 1


   1              		.syntax unified
   2              		.cpu cortex-m0
   3              		.fpu softvfp
   4              		.eabi_attribute 20, 1
   5              		.eabi_attribute 21, 1
   6              		.eabi_attribute 23, 3
   7              		.eabi_attribute 24, 1
   8              		.eabi_attribute 25, 1
   9              		.eabi_attribute 26, 1
  10              		.eabi_attribute 30, 1
  11              		.eabi_attribute 34, 0
  12              		.eabi_attribute 18, 4
  13              		.thumb
  14              		.syntax unified
  15              		.file	"LCD.c"
  16              		.text
  17              	.Ltext0:
  18              		.cfi_sections	.debug_frame
  19              		.section	.text.LCD_WrCntrlNib,"ax",%progbits
  20              		.align	2
  21              		.code	16
  22              		.thumb_func
  23              		.type	LCD_WrCntrlNib, %function
  24              	LCD_WrCntrlNib:
  25              	.LFB13:
  26              		.file 1 "Generated_Source\\PSoC4\\LCD.c"
   1:Generated_Source\PSoC4/LCD.c **** /*******************************************************************************
   2:Generated_Source\PSoC4/LCD.c **** * File Name: LCD.c
   3:Generated_Source\PSoC4/LCD.c **** * Version 1.0
   4:Generated_Source\PSoC4/LCD.c **** *
   5:Generated_Source\PSoC4/LCD.c **** * Description:
   6:Generated_Source\PSoC4/LCD.c **** *  This file provides source code for the Character LCD component's API.
   7:Generated_Source\PSoC4/LCD.c **** *
   8:Generated_Source\PSoC4/LCD.c **** * Note:
   9:Generated_Source\PSoC4/LCD.c **** *
  10:Generated_Source\PSoC4/LCD.c **** ********************************************************************************
  11:Generated_Source\PSoC4/LCD.c **** * Copyright 2008-2012, Cypress Semiconductor Corporation.  All rights reserved.
  12:Generated_Source\PSoC4/LCD.c **** * You may use this file only in accordance with the license, terms, conditions,
  13:Generated_Source\PSoC4/LCD.c **** * disclaimers, and limitations in the end user license agreement accompanying
  14:Generated_Source\PSoC4/LCD.c **** * the software package with which this file was provided.
  15:Generated_Source\PSoC4/LCD.c **** *******************************************************************************/
  16:Generated_Source\PSoC4/LCD.c **** 
  17:Generated_Source\PSoC4/LCD.c **** #include "CyLib.h"
  18:Generated_Source\PSoC4/LCD.c **** #include "LCD.h"
  19:Generated_Source\PSoC4/LCD.c **** 
  20:Generated_Source\PSoC4/LCD.c **** 
  21:Generated_Source\PSoC4/LCD.c **** static void LCD_WrDatNib(uint8 nibble) ;
  22:Generated_Source\PSoC4/LCD.c **** static void LCD_WrCntrlNib(uint8 nibble) ;
  23:Generated_Source\PSoC4/LCD.c **** 
  24:Generated_Source\PSoC4/LCD.c **** /* Stores the state of conponent. Indicates wherewer component is 
  25:Generated_Source\PSoC4/LCD.c **** * in enable state or not.
  26:Generated_Source\PSoC4/LCD.c **** */
  27:Generated_Source\PSoC4/LCD.c **** uint8 LCD_enableState = 0u;
  28:Generated_Source\PSoC4/LCD.c **** 
  29:Generated_Source\PSoC4/LCD.c **** uint8 LCD_initVar = 0u;
  30:Generated_Source\PSoC4/LCD.c **** 
  31:Generated_Source\PSoC4/LCD.c **** 
ARM GAS  C:\Users\bryan.lee\AppData\Local\Temp\ccwYxMXs.s 			page 2


  32:Generated_Source\PSoC4/LCD.c **** /*******************************************************************************
  33:Generated_Source\PSoC4/LCD.c **** * Function Name: LCD_Init
  34:Generated_Source\PSoC4/LCD.c **** ********************************************************************************
  35:Generated_Source\PSoC4/LCD.c **** *
  36:Generated_Source\PSoC4/LCD.c **** * Summary:
  37:Generated_Source\PSoC4/LCD.c **** *  Perform initialization required for components normal work.
  38:Generated_Source\PSoC4/LCD.c **** *  This function initializes the LCD hardware module as follows:
  39:Generated_Source\PSoC4/LCD.c **** *        Enable 4-bit interface
  40:Generated_Source\PSoC4/LCD.c **** *        Clear the display
  41:Generated_Source\PSoC4/LCD.c **** *        Enable auto cursor increment
  42:Generated_Source\PSoC4/LCD.c **** *        Resets the cursor to start position
  43:Generated_Source\PSoC4/LCD.c **** *  Also loads custom character set to LCD if it was defined in the customizer.
  44:Generated_Source\PSoC4/LCD.c **** *
  45:Generated_Source\PSoC4/LCD.c **** * Parameters:
  46:Generated_Source\PSoC4/LCD.c **** *  None.
  47:Generated_Source\PSoC4/LCD.c **** *
  48:Generated_Source\PSoC4/LCD.c **** * Return:
  49:Generated_Source\PSoC4/LCD.c **** *  None.
  50:Generated_Source\PSoC4/LCD.c **** *
  51:Generated_Source\PSoC4/LCD.c **** * Reentrant:
  52:Generated_Source\PSoC4/LCD.c **** *  No.
  53:Generated_Source\PSoC4/LCD.c **** *
  54:Generated_Source\PSoC4/LCD.c **** *******************************************************************************/
  55:Generated_Source\PSoC4/LCD.c **** void LCD_Init(void) 
  56:Generated_Source\PSoC4/LCD.c **** {
  57:Generated_Source\PSoC4/LCD.c ****     /* INIT CODE */
  58:Generated_Source\PSoC4/LCD.c ****     CyDelay(40u);                                                        /* Delay 40 ms */
  59:Generated_Source\PSoC4/LCD.c ****     LCD_WrCntrlNib(LCD_DISPLAY_8_BIT_INIT);   /* Selects 8-bit mode */
  60:Generated_Source\PSoC4/LCD.c ****     CyDelay(5u);                                                         /* Delay 5 ms */
  61:Generated_Source\PSoC4/LCD.c ****     LCD_WrCntrlNib(LCD_DISPLAY_8_BIT_INIT);   /* Selects 8-bit mode */
  62:Generated_Source\PSoC4/LCD.c ****     CyDelay(15u);                                                        /* Delay 15 ms */
  63:Generated_Source\PSoC4/LCD.c ****     LCD_WrCntrlNib(LCD_DISPLAY_8_BIT_INIT);   /* Selects 8-bit mode */
  64:Generated_Source\PSoC4/LCD.c ****     CyDelay(1u);                                                         /* Delay 1 ms */
  65:Generated_Source\PSoC4/LCD.c ****     LCD_WrCntrlNib(LCD_DISPLAY_4_BIT_INIT);   /* Selects 4-bit mode */
  66:Generated_Source\PSoC4/LCD.c ****     CyDelay(5u);                                                         /* Delay 5 ms */
  67:Generated_Source\PSoC4/LCD.c **** 
  68:Generated_Source\PSoC4/LCD.c ****     LCD_WriteControl(LCD_CURSOR_AUTO_INCR_ON);    /* Incr Cursor After Writes */
  69:Generated_Source\PSoC4/LCD.c ****     LCD_WriteControl(LCD_DISPLAY_CURSOR_ON);      /* Turn Display, Cursor ON */
  70:Generated_Source\PSoC4/LCD.c ****     LCD_WriteControl(LCD_DISPLAY_2_LINES_5x10);   /* 2 Lines by 5x10 Characters */
  71:Generated_Source\PSoC4/LCD.c ****     LCD_WriteControl(LCD_DISPLAY_CURSOR_OFF);     /* Turn Display, Cursor OFF */
  72:Generated_Source\PSoC4/LCD.c ****     LCD_WriteControl(LCD_CLEAR_DISPLAY);          /* Clear LCD Screen */
  73:Generated_Source\PSoC4/LCD.c ****     LCD_WriteControl(LCD_DISPLAY_ON_CURSOR_OFF);  /* Turn Display ON, Cursor OFF */
  74:Generated_Source\PSoC4/LCD.c ****     LCD_WriteControl(LCD_RESET_CURSOR_POSITION);  /* Set Cursor to 0,0 */
  75:Generated_Source\PSoC4/LCD.c ****     CyDelay(5u);
  76:Generated_Source\PSoC4/LCD.c **** 
  77:Generated_Source\PSoC4/LCD.c ****     #if(LCD_CUSTOM_CHAR_SET != LCD_NONE)
  78:Generated_Source\PSoC4/LCD.c ****         LCD_LoadCustomFonts(LCD_customFonts);
  79:Generated_Source\PSoC4/LCD.c ****     #endif /* LCD_CUSTOM_CHAR_SET != LCD_NONE */
  80:Generated_Source\PSoC4/LCD.c **** }
  81:Generated_Source\PSoC4/LCD.c **** 
  82:Generated_Source\PSoC4/LCD.c **** 
  83:Generated_Source\PSoC4/LCD.c **** /*******************************************************************************
  84:Generated_Source\PSoC4/LCD.c **** * Function Name: LCD_Enable
  85:Generated_Source\PSoC4/LCD.c **** ********************************************************************************
  86:Generated_Source\PSoC4/LCD.c **** *
  87:Generated_Source\PSoC4/LCD.c **** * Summary:
  88:Generated_Source\PSoC4/LCD.c **** *  Turns on the display.
ARM GAS  C:\Users\bryan.lee\AppData\Local\Temp\ccwYxMXs.s 			page 3


  89:Generated_Source\PSoC4/LCD.c **** *
  90:Generated_Source\PSoC4/LCD.c **** * Parameters:
  91:Generated_Source\PSoC4/LCD.c **** *  None.
  92:Generated_Source\PSoC4/LCD.c **** *
  93:Generated_Source\PSoC4/LCD.c **** * Return:
  94:Generated_Source\PSoC4/LCD.c **** *  None.
  95:Generated_Source\PSoC4/LCD.c **** *
  96:Generated_Source\PSoC4/LCD.c **** * Reentrant:
  97:Generated_Source\PSoC4/LCD.c **** *  No.
  98:Generated_Source\PSoC4/LCD.c **** *
  99:Generated_Source\PSoC4/LCD.c **** * Theory:
 100:Generated_Source\PSoC4/LCD.c **** *  This finction has no effect when it called first time as
 101:Generated_Source\PSoC4/LCD.c **** *  LCD_Init() turns on the LCD.
 102:Generated_Source\PSoC4/LCD.c **** *
 103:Generated_Source\PSoC4/LCD.c **** *******************************************************************************/
 104:Generated_Source\PSoC4/LCD.c **** void LCD_Enable(void) 
 105:Generated_Source\PSoC4/LCD.c **** {
 106:Generated_Source\PSoC4/LCD.c ****     LCD_DisplayOn();
 107:Generated_Source\PSoC4/LCD.c ****     LCD_enableState = 1u;
 108:Generated_Source\PSoC4/LCD.c **** }
 109:Generated_Source\PSoC4/LCD.c **** 
 110:Generated_Source\PSoC4/LCD.c **** 
 111:Generated_Source\PSoC4/LCD.c **** /*******************************************************************************
 112:Generated_Source\PSoC4/LCD.c **** * Function Name: LCD_Start
 113:Generated_Source\PSoC4/LCD.c **** ********************************************************************************
 114:Generated_Source\PSoC4/LCD.c **** *
 115:Generated_Source\PSoC4/LCD.c **** * Summary:
 116:Generated_Source\PSoC4/LCD.c **** *  Perform initialization required for components normal work.
 117:Generated_Source\PSoC4/LCD.c **** *  This function initializes the LCD hardware module as follows:
 118:Generated_Source\PSoC4/LCD.c **** *        Enable 4-bit interface
 119:Generated_Source\PSoC4/LCD.c **** *        Clear the display
 120:Generated_Source\PSoC4/LCD.c **** *        Enable auto cursor increment
 121:Generated_Source\PSoC4/LCD.c **** *        Resets the cursor to start position
 122:Generated_Source\PSoC4/LCD.c **** *  Also loads custom character set to LCD if it was defined in the customizer.
 123:Generated_Source\PSoC4/LCD.c **** *  If it was not the first call in this project then it just turns on the
 124:Generated_Source\PSoC4/LCD.c **** *  display
 125:Generated_Source\PSoC4/LCD.c **** *
 126:Generated_Source\PSoC4/LCD.c **** *
 127:Generated_Source\PSoC4/LCD.c **** * Parameters:
 128:Generated_Source\PSoC4/LCD.c **** *  LCD_initVar - global variable.
 129:Generated_Source\PSoC4/LCD.c **** *
 130:Generated_Source\PSoC4/LCD.c **** * Return:
 131:Generated_Source\PSoC4/LCD.c **** *  LCD_initVar - global variable.
 132:Generated_Source\PSoC4/LCD.c **** *
 133:Generated_Source\PSoC4/LCD.c **** * Reentrant:
 134:Generated_Source\PSoC4/LCD.c **** *  No.
 135:Generated_Source\PSoC4/LCD.c **** *
 136:Generated_Source\PSoC4/LCD.c **** *******************************************************************************/
 137:Generated_Source\PSoC4/LCD.c **** void LCD_Start(void) 
 138:Generated_Source\PSoC4/LCD.c **** {
 139:Generated_Source\PSoC4/LCD.c ****     /* If not initialized then perform initialization */
 140:Generated_Source\PSoC4/LCD.c ****     if(LCD_initVar == 0u)
 141:Generated_Source\PSoC4/LCD.c ****     {
 142:Generated_Source\PSoC4/LCD.c ****         LCD_Init();
 143:Generated_Source\PSoC4/LCD.c ****         LCD_initVar = 1u;
 144:Generated_Source\PSoC4/LCD.c ****     }
 145:Generated_Source\PSoC4/LCD.c **** 
ARM GAS  C:\Users\bryan.lee\AppData\Local\Temp\ccwYxMXs.s 			page 4


 146:Generated_Source\PSoC4/LCD.c ****     /* Turn on the LCD */
 147:Generated_Source\PSoC4/LCD.c ****     LCD_Enable();
 148:Generated_Source\PSoC4/LCD.c **** }
 149:Generated_Source\PSoC4/LCD.c **** 
 150:Generated_Source\PSoC4/LCD.c **** 
 151:Generated_Source\PSoC4/LCD.c **** /*******************************************************************************
 152:Generated_Source\PSoC4/LCD.c **** * Function Name: LCD_Stop
 153:Generated_Source\PSoC4/LCD.c **** ********************************************************************************
 154:Generated_Source\PSoC4/LCD.c **** *
 155:Generated_Source\PSoC4/LCD.c **** * Summary:
 156:Generated_Source\PSoC4/LCD.c **** *  Turns off the display of the LCD screen.
 157:Generated_Source\PSoC4/LCD.c **** *
 158:Generated_Source\PSoC4/LCD.c **** * Parameters:
 159:Generated_Source\PSoC4/LCD.c **** *  None.
 160:Generated_Source\PSoC4/LCD.c **** *
 161:Generated_Source\PSoC4/LCD.c **** * Return:
 162:Generated_Source\PSoC4/LCD.c **** *  None.
 163:Generated_Source\PSoC4/LCD.c **** *
 164:Generated_Source\PSoC4/LCD.c **** * Reentrant:
 165:Generated_Source\PSoC4/LCD.c **** *  No.
 166:Generated_Source\PSoC4/LCD.c **** *
 167:Generated_Source\PSoC4/LCD.c **** *******************************************************************************/
 168:Generated_Source\PSoC4/LCD.c **** void LCD_Stop(void) 
 169:Generated_Source\PSoC4/LCD.c **** {
 170:Generated_Source\PSoC4/LCD.c ****     /* Calls LCD Off Macro */
 171:Generated_Source\PSoC4/LCD.c ****     LCD_DisplayOff();
 172:Generated_Source\PSoC4/LCD.c ****     LCD_enableState = 0u;
 173:Generated_Source\PSoC4/LCD.c **** }
 174:Generated_Source\PSoC4/LCD.c **** 
 175:Generated_Source\PSoC4/LCD.c **** 
 176:Generated_Source\PSoC4/LCD.c **** /*******************************************************************************
 177:Generated_Source\PSoC4/LCD.c **** *  Function Name: LCD_Position
 178:Generated_Source\PSoC4/LCD.c **** ********************************************************************************
 179:Generated_Source\PSoC4/LCD.c **** *
 180:Generated_Source\PSoC4/LCD.c **** * Summary:
 181:Generated_Source\PSoC4/LCD.c **** *  Moves active cursor location to a point specified by the input arguments
 182:Generated_Source\PSoC4/LCD.c **** *
 183:Generated_Source\PSoC4/LCD.c **** * Parameters:
 184:Generated_Source\PSoC4/LCD.c **** *  row:     Specific row of LCD module to be written
 185:Generated_Source\PSoC4/LCD.c **** *  column:  Column of LCD module to be written
 186:Generated_Source\PSoC4/LCD.c **** *
 187:Generated_Source\PSoC4/LCD.c **** * Return:
 188:Generated_Source\PSoC4/LCD.c **** *  None.
 189:Generated_Source\PSoC4/LCD.c **** *
 190:Generated_Source\PSoC4/LCD.c **** * Note:
 191:Generated_Source\PSoC4/LCD.c **** *  This only applies for LCD displays which use the 2X40 address mode.
 192:Generated_Source\PSoC4/LCD.c **** *  This results in Row 2 offset from row one by 0x28.
 193:Generated_Source\PSoC4/LCD.c **** *  When there are more than 2 rows, each row must be fewer than 20 characters.
 194:Generated_Source\PSoC4/LCD.c **** *
 195:Generated_Source\PSoC4/LCD.c **** *******************************************************************************/
 196:Generated_Source\PSoC4/LCD.c **** void LCD_Position(uint8 row, uint8 column) 
 197:Generated_Source\PSoC4/LCD.c **** {
 198:Generated_Source\PSoC4/LCD.c ****     switch (row)
 199:Generated_Source\PSoC4/LCD.c ****     {
 200:Generated_Source\PSoC4/LCD.c ****         case (uint8)0:
 201:Generated_Source\PSoC4/LCD.c ****             LCD_WriteControl(LCD_ROW_0_START + column);
 202:Generated_Source\PSoC4/LCD.c ****             break;
ARM GAS  C:\Users\bryan.lee\AppData\Local\Temp\ccwYxMXs.s 			page 5


 203:Generated_Source\PSoC4/LCD.c ****         case (uint8) 1:
 204:Generated_Source\PSoC4/LCD.c ****             LCD_WriteControl(LCD_ROW_1_START + column);
 205:Generated_Source\PSoC4/LCD.c ****             break;
 206:Generated_Source\PSoC4/LCD.c ****         case (uint8) 2:
 207:Generated_Source\PSoC4/LCD.c ****             LCD_WriteControl(LCD_ROW_2_START + column);
 208:Generated_Source\PSoC4/LCD.c ****             break;
 209:Generated_Source\PSoC4/LCD.c ****         case (uint8) 3:
 210:Generated_Source\PSoC4/LCD.c ****             LCD_WriteControl(LCD_ROW_3_START + column);
 211:Generated_Source\PSoC4/LCD.c ****             break;
 212:Generated_Source\PSoC4/LCD.c ****         default:
 213:Generated_Source\PSoC4/LCD.c ****             /* if default case is hit, invalid row argument was passed.*/
 214:Generated_Source\PSoC4/LCD.c ****             break;
 215:Generated_Source\PSoC4/LCD.c ****     }
 216:Generated_Source\PSoC4/LCD.c **** }
 217:Generated_Source\PSoC4/LCD.c **** 
 218:Generated_Source\PSoC4/LCD.c **** 
 219:Generated_Source\PSoC4/LCD.c **** /*******************************************************************************
 220:Generated_Source\PSoC4/LCD.c **** * Function Name: LCD_PrintString
 221:Generated_Source\PSoC4/LCD.c **** ********************************************************************************
 222:Generated_Source\PSoC4/LCD.c **** *
 223:Generated_Source\PSoC4/LCD.c **** * Summary:
 224:Generated_Source\PSoC4/LCD.c **** *  Writes a zero terminated string to the LCD.
 225:Generated_Source\PSoC4/LCD.c **** *
 226:Generated_Source\PSoC4/LCD.c **** * Parameters:
 227:Generated_Source\PSoC4/LCD.c **** *  string:  pointer to head of char8 array to be written to the LCD module
 228:Generated_Source\PSoC4/LCD.c **** *
 229:Generated_Source\PSoC4/LCD.c **** * Return:
 230:Generated_Source\PSoC4/LCD.c **** *  None.
 231:Generated_Source\PSoC4/LCD.c **** *
 232:Generated_Source\PSoC4/LCD.c **** *******************************************************************************/
 233:Generated_Source\PSoC4/LCD.c **** void LCD_PrintString(char8 const string[]) 
 234:Generated_Source\PSoC4/LCD.c **** {
 235:Generated_Source\PSoC4/LCD.c ****     uint8 indexU8 = 1u;
 236:Generated_Source\PSoC4/LCD.c ****     char8 current = *string;
 237:Generated_Source\PSoC4/LCD.c **** 
 238:Generated_Source\PSoC4/LCD.c ****     /* Until null is reached, print next character */
 239:Generated_Source\PSoC4/LCD.c ****     while((char8) '\0' != current)
 240:Generated_Source\PSoC4/LCD.c ****     {
 241:Generated_Source\PSoC4/LCD.c ****         LCD_WriteData((uint8)current);
 242:Generated_Source\PSoC4/LCD.c ****         current = string[indexU8];
 243:Generated_Source\PSoC4/LCD.c ****         indexU8++;
 244:Generated_Source\PSoC4/LCD.c ****     }
 245:Generated_Source\PSoC4/LCD.c **** }
 246:Generated_Source\PSoC4/LCD.c **** 
 247:Generated_Source\PSoC4/LCD.c **** 
 248:Generated_Source\PSoC4/LCD.c **** /*******************************************************************************
 249:Generated_Source\PSoC4/LCD.c **** *  Function Name: LCD_PutChar
 250:Generated_Source\PSoC4/LCD.c **** ********************************************************************************
 251:Generated_Source\PSoC4/LCD.c **** *
 252:Generated_Source\PSoC4/LCD.c **** * Summary:
 253:Generated_Source\PSoC4/LCD.c **** *  Writes a single character to the current cursor position of the LCD module.
 254:Generated_Source\PSoC4/LCD.c **** *  Custom character names (_CUSTOM_0 through
 255:Generated_Source\PSoC4/LCD.c **** *  _CUSTOM_7) are acceptable as inputs.
 256:Generated_Source\PSoC4/LCD.c **** *
 257:Generated_Source\PSoC4/LCD.c **** * Parameters:
 258:Generated_Source\PSoC4/LCD.c **** *  character:  character to be written to the LCD
 259:Generated_Source\PSoC4/LCD.c **** *
ARM GAS  C:\Users\bryan.lee\AppData\Local\Temp\ccwYxMXs.s 			page 6


 260:Generated_Source\PSoC4/LCD.c **** * Return:
 261:Generated_Source\PSoC4/LCD.c **** *  None.
 262:Generated_Source\PSoC4/LCD.c **** *
 263:Generated_Source\PSoC4/LCD.c **** *******************************************************************************/
 264:Generated_Source\PSoC4/LCD.c **** void LCD_PutChar(char8 character) 
 265:Generated_Source\PSoC4/LCD.c **** {
 266:Generated_Source\PSoC4/LCD.c ****     LCD_WriteData((uint8)character);
 267:Generated_Source\PSoC4/LCD.c **** }
 268:Generated_Source\PSoC4/LCD.c **** 
 269:Generated_Source\PSoC4/LCD.c **** 
 270:Generated_Source\PSoC4/LCD.c **** /*******************************************************************************
 271:Generated_Source\PSoC4/LCD.c **** *  Function Name: LCD_WriteData
 272:Generated_Source\PSoC4/LCD.c **** ********************************************************************************
 273:Generated_Source\PSoC4/LCD.c **** *
 274:Generated_Source\PSoC4/LCD.c **** * Summary:
 275:Generated_Source\PSoC4/LCD.c **** *  Writes a data byte to the LCD module's Data Display RAM.
 276:Generated_Source\PSoC4/LCD.c **** *
 277:Generated_Source\PSoC4/LCD.c **** * Parameters:
 278:Generated_Source\PSoC4/LCD.c **** *  dByte:  byte to be written to LCD module.
 279:Generated_Source\PSoC4/LCD.c **** *
 280:Generated_Source\PSoC4/LCD.c **** * Return:
 281:Generated_Source\PSoC4/LCD.c **** *  None.
 282:Generated_Source\PSoC4/LCD.c **** *
 283:Generated_Source\PSoC4/LCD.c **** *******************************************************************************/
 284:Generated_Source\PSoC4/LCD.c **** void LCD_WriteData(uint8 dByte) 
 285:Generated_Source\PSoC4/LCD.c **** {
 286:Generated_Source\PSoC4/LCD.c ****     uint8 nibble;
 287:Generated_Source\PSoC4/LCD.c **** 
 288:Generated_Source\PSoC4/LCD.c ****     /* Write high nibble */
 289:Generated_Source\PSoC4/LCD.c **** 	nibble = dByte >> LCD_NIBBLE_SHIFT;
 290:Generated_Source\PSoC4/LCD.c ****     LCD_WrDatNib(nibble);
 291:Generated_Source\PSoC4/LCD.c **** 
 292:Generated_Source\PSoC4/LCD.c ****      CyDelayUs(LCD_NIB_DELAY_US);
 293:Generated_Source\PSoC4/LCD.c **** 	 
 294:Generated_Source\PSoC4/LCD.c ****     /* Write low nibble */
 295:Generated_Source\PSoC4/LCD.c **** 	nibble = dByte & LCD_NIBBLE_MASK;
 296:Generated_Source\PSoC4/LCD.c ****     LCD_WrDatNib(nibble);
 297:Generated_Source\PSoC4/LCD.c **** 	
 298:Generated_Source\PSoC4/LCD.c **** 	CyDelayUs(LCD_DATA_DELAY_US);
 299:Generated_Source\PSoC4/LCD.c **** 
 300:Generated_Source\PSoC4/LCD.c **** }
 301:Generated_Source\PSoC4/LCD.c **** 
 302:Generated_Source\PSoC4/LCD.c **** 
 303:Generated_Source\PSoC4/LCD.c **** /*******************************************************************************
 304:Generated_Source\PSoC4/LCD.c **** *  Function Name: LCD_WriteControl
 305:Generated_Source\PSoC4/LCD.c **** ********************************************************************************
 306:Generated_Source\PSoC4/LCD.c **** *
 307:Generated_Source\PSoC4/LCD.c **** * Summary:
 308:Generated_Source\PSoC4/LCD.c **** *  Writes a command byte to the LCD module.
 309:Generated_Source\PSoC4/LCD.c **** *
 310:Generated_Source\PSoC4/LCD.c **** * Parameters:
 311:Generated_Source\PSoC4/LCD.c **** *  cByte:   byte to be written to LCD module.
 312:Generated_Source\PSoC4/LCD.c **** *
 313:Generated_Source\PSoC4/LCD.c **** * Return:
 314:Generated_Source\PSoC4/LCD.c **** *  None.
 315:Generated_Source\PSoC4/LCD.c **** *
 316:Generated_Source\PSoC4/LCD.c **** *******************************************************************************/
ARM GAS  C:\Users\bryan.lee\AppData\Local\Temp\ccwYxMXs.s 			page 7


 317:Generated_Source\PSoC4/LCD.c **** void LCD_WriteControl(uint8 cByte) 
 318:Generated_Source\PSoC4/LCD.c **** {
 319:Generated_Source\PSoC4/LCD.c ****     uint8 nibble;
 320:Generated_Source\PSoC4/LCD.c **** 
 321:Generated_Source\PSoC4/LCD.c ****     /* WrCntrlNib(High Nibble) */
 322:Generated_Source\PSoC4/LCD.c **** 	 nibble = cByte >> LCD_NIBBLE_SHIFT;
 323:Generated_Source\PSoC4/LCD.c ****     LCD_WrCntrlNib(nibble);
 324:Generated_Source\PSoC4/LCD.c **** 
 325:Generated_Source\PSoC4/LCD.c ****     CyDelayUs(LCD_NIB_DELAY_US);
 326:Generated_Source\PSoC4/LCD.c **** 	
 327:Generated_Source\PSoC4/LCD.c ****     /* WrCntrlNib(Low Nibble) */
 328:Generated_Source\PSoC4/LCD.c **** 	nibble = cByte & LCD_NIBBLE_MASK;
 329:Generated_Source\PSoC4/LCD.c ****     LCD_WrCntrlNib(nibble);
 330:Generated_Source\PSoC4/LCD.c **** 
 331:Generated_Source\PSoC4/LCD.c ****      CyDelayUs(LCD_CMD_DELAY_US);
 332:Generated_Source\PSoC4/LCD.c **** }
 333:Generated_Source\PSoC4/LCD.c **** 
 334:Generated_Source\PSoC4/LCD.c **** 
 335:Generated_Source\PSoC4/LCD.c **** /*******************************************************************************
 336:Generated_Source\PSoC4/LCD.c **** * Function Name: LCD_IsReady
 337:Generated_Source\PSoC4/LCD.c **** ********************************************************************************
 338:Generated_Source\PSoC4/LCD.c **** *
 339:Generated_Source\PSoC4/LCD.c **** * Summary:
 340:Generated_Source\PSoC4/LCD.c **** *  Polls LCD until the ready bit is set.
 341:Generated_Source\PSoC4/LCD.c **** *
 342:Generated_Source\PSoC4/LCD.c **** * Parameters:
 343:Generated_Source\PSoC4/LCD.c **** *  None.
 344:Generated_Source\PSoC4/LCD.c **** *
 345:Generated_Source\PSoC4/LCD.c **** * Return:
 346:Generated_Source\PSoC4/LCD.c **** *  None.
 347:Generated_Source\PSoC4/LCD.c **** *
 348:Generated_Source\PSoC4/LCD.c **** * Note:
 349:Generated_Source\PSoC4/LCD.c **** *  Changes pins to High-Z.
 350:Generated_Source\PSoC4/LCD.c **** *
 351:Generated_Source\PSoC4/LCD.c **** *******************************************************************************/
 352:Generated_Source\PSoC4/LCD.c **** void LCD_IsReady(void) 
 353:Generated_Source\PSoC4/LCD.c **** {
 354:Generated_Source\PSoC4/LCD.c ****    
 355:Generated_Source\PSoC4/LCD.c **** 	CyDelay(1u);
 356:Generated_Source\PSoC4/LCD.c **** 	
 357:Generated_Source\PSoC4/LCD.c **** }
 358:Generated_Source\PSoC4/LCD.c **** 
 359:Generated_Source\PSoC4/LCD.c **** 
 360:Generated_Source\PSoC4/LCD.c **** /*******************************************************************************
 361:Generated_Source\PSoC4/LCD.c **** *  Function Name: LCD_WrDatNib
 362:Generated_Source\PSoC4/LCD.c **** ********************************************************************************
 363:Generated_Source\PSoC4/LCD.c **** *
 364:Generated_Source\PSoC4/LCD.c **** * Summary:
 365:Generated_Source\PSoC4/LCD.c **** *  Writes a data nibble to the LCD module.
 366:Generated_Source\PSoC4/LCD.c **** *
 367:Generated_Source\PSoC4/LCD.c **** * Parameters:
 368:Generated_Source\PSoC4/LCD.c **** *  nibble:  byte containing nibble in least significant nibble to be written
 369:Generated_Source\PSoC4/LCD.c **** *           to LCD module.
 370:Generated_Source\PSoC4/LCD.c **** *
 371:Generated_Source\PSoC4/LCD.c **** * Return:
 372:Generated_Source\PSoC4/LCD.c **** *  None.
 373:Generated_Source\PSoC4/LCD.c **** *
ARM GAS  C:\Users\bryan.lee\AppData\Local\Temp\ccwYxMXs.s 			page 8


 374:Generated_Source\PSoC4/LCD.c **** *******************************************************************************/
 375:Generated_Source\PSoC4/LCD.c **** static void LCD_WrDatNib(uint8 nibble) 
 376:Generated_Source\PSoC4/LCD.c **** {
 377:Generated_Source\PSoC4/LCD.c **** 
 378:Generated_Source\PSoC4/LCD.c ****     /* RS shoul be low to select data register */
 379:Generated_Source\PSoC4/LCD.c ****     LCD_CNTL_REG |= LCD_RS;
 380:Generated_Source\PSoC4/LCD.c ****     /* Reset RW for write operation */
 381:Generated_Source\PSoC4/LCD.c ****     LCD_CNTL_REG &= ~LCD_RW;
 382:Generated_Source\PSoC4/LCD.c **** 
 383:Generated_Source\PSoC4/LCD.c ****     /* Two following lines of code will provide us with 40ns delay */
 384:Generated_Source\PSoC4/LCD.c ****     /* Clear data pins */
 385:Generated_Source\PSoC4/LCD.c ****     LCD_CNTL_REG &= ~LCD_DATA_MASK;
 386:Generated_Source\PSoC4/LCD.c **** 
 387:Generated_Source\PSoC4/LCD.c ****     /* Write in data, bring E high*/
 388:Generated_Source\PSoC4/LCD.c ****     LCD_CNTL_REG |= (LCD_E | nibble);
 389:Generated_Source\PSoC4/LCD.c **** 
 390:Generated_Source\PSoC4/LCD.c ****     /* Minimum of 230 ns delay */
 391:Generated_Source\PSoC4/LCD.c ****     CyDelayUs(1u);
 392:Generated_Source\PSoC4/LCD.c **** 
 393:Generated_Source\PSoC4/LCD.c ****     LCD_CNTL_REG &= ~LCD_E;
 394:Generated_Source\PSoC4/LCD.c **** 	
 395:Generated_Source\PSoC4/LCD.c **** }
 396:Generated_Source\PSoC4/LCD.c **** 
 397:Generated_Source\PSoC4/LCD.c **** 
 398:Generated_Source\PSoC4/LCD.c **** /*******************************************************************************
 399:Generated_Source\PSoC4/LCD.c **** *  Function Name: LCD_WrCntrlNib
 400:Generated_Source\PSoC4/LCD.c **** ********************************************************************************
 401:Generated_Source\PSoC4/LCD.c **** *
 402:Generated_Source\PSoC4/LCD.c **** * Summary:
 403:Generated_Source\PSoC4/LCD.c **** *  Writes a control nibble to the LCD module.
 404:Generated_Source\PSoC4/LCD.c **** *
 405:Generated_Source\PSoC4/LCD.c **** * Parameters:
 406:Generated_Source\PSoC4/LCD.c **** *  nibble:  byte containing nibble in least significant nibble to be written
 407:Generated_Source\PSoC4/LCD.c **** *           to LCD module.
 408:Generated_Source\PSoC4/LCD.c **** *
 409:Generated_Source\PSoC4/LCD.c **** * Return:
 410:Generated_Source\PSoC4/LCD.c **** *  None.
 411:Generated_Source\PSoC4/LCD.c **** *
 412:Generated_Source\PSoC4/LCD.c **** *******************************************************************************/
 413:Generated_Source\PSoC4/LCD.c **** static void LCD_WrCntrlNib(uint8 nibble) 
 414:Generated_Source\PSoC4/LCD.c **** {
  27              		.loc 1 414 0
  28              		.cfi_startproc
  29              		@ args = 0, pretend = 0, frame = 0
  30              		@ frame_needed = 0, uses_anonymous_args = 0
  31              	.LVL0:
  32 0000 10B5     		push	{r4, lr}
  33              		.cfi_def_cfa_offset 8
  34              		.cfi_offset 4, -8
  35              		.cfi_offset 14, -4
 415:Generated_Source\PSoC4/LCD.c **** 	
 416:Generated_Source\PSoC4/LCD.c **** 	/* RS and RW shoul be low to select instruction register and  write operation respectively */
 417:Generated_Source\PSoC4/LCD.c ****     LCD_CNTL_REG &= ~(LCD_RS | LCD_RW);
  36              		.loc 1 417 0
  37 0002 0B4C     		ldr	r4, .L2
  38 0004 2378     		ldrb	r3, [r4]
  39 0006 6022     		movs	r2, #96
ARM GAS  C:\Users\bryan.lee\AppData\Local\Temp\ccwYxMXs.s 			page 9


  40 0008 9343     		bics	r3, r2
  41 000a 2370     		strb	r3, [r4]
 418:Generated_Source\PSoC4/LCD.c **** 
 419:Generated_Source\PSoC4/LCD.c ****     /* Two following lines of code will give provide ua with 40ns delay */
 420:Generated_Source\PSoC4/LCD.c ****     /* Clear data pins */
 421:Generated_Source\PSoC4/LCD.c ****     LCD_CNTL_REG &= ~LCD_DATA_MASK;
  42              		.loc 1 421 0
  43 000c 2378     		ldrb	r3, [r4]
  44 000e 513A     		subs	r2, r2, #81
  45 0010 9343     		bics	r3, r2
  46 0012 2370     		strb	r3, [r4]
 422:Generated_Source\PSoC4/LCD.c **** 
 423:Generated_Source\PSoC4/LCD.c ****     /* Write control data and set enable signal */
 424:Generated_Source\PSoC4/LCD.c ****     LCD_CNTL_REG |= (LCD_E | nibble);
  47              		.loc 1 424 0
  48 0014 2378     		ldrb	r3, [r4]
  49 0016 1843     		orrs	r0, r3
  50              	.LVL1:
  51 0018 1023     		movs	r3, #16
  52 001a 1843     		orrs	r0, r3
  53 001c C0B2     		uxtb	r0, r0
  54 001e 2070     		strb	r0, [r4]
 425:Generated_Source\PSoC4/LCD.c **** 
 426:Generated_Source\PSoC4/LCD.c ****     /* Minimum of 230 ns delay */
 427:Generated_Source\PSoC4/LCD.c ****     CyDelayUs(1u);
  55              		.loc 1 427 0
  56 0020 0120     		movs	r0, #1
  57 0022 FFF7FEFF 		bl	CyDelayUs
  58              	.LVL2:
 428:Generated_Source\PSoC4/LCD.c **** 
 429:Generated_Source\PSoC4/LCD.c ****     LCD_CNTL_REG &= ~LCD_E;
  59              		.loc 1 429 0
  60 0026 2378     		ldrb	r3, [r4]
  61 0028 1022     		movs	r2, #16
  62 002a 9343     		bics	r3, r2
  63 002c 2370     		strb	r3, [r4]
 430:Generated_Source\PSoC4/LCD.c **** }
  64              		.loc 1 430 0
  65              		@ sp needed
  66 002e 10BD     		pop	{r4, pc}
  67              	.L3:
  68              		.align	2
  69              	.L2:
  70 0030 72000F40 		.word	1074724978
  71              		.cfi_endproc
  72              	.LFE13:
  73              		.size	LCD_WrCntrlNib, .-LCD_WrCntrlNib
  74              		.section	.text.LCD_WrDatNib,"ax",%progbits
  75              		.align	2
  76              		.code	16
  77              		.thumb_func
  78              		.type	LCD_WrDatNib, %function
  79              	LCD_WrDatNib:
  80              	.LFB12:
 376:Generated_Source\PSoC4/LCD.c **** 
  81              		.loc 1 376 0
  82              		.cfi_startproc
ARM GAS  C:\Users\bryan.lee\AppData\Local\Temp\ccwYxMXs.s 			page 10


  83              		@ args = 0, pretend = 0, frame = 0
  84              		@ frame_needed = 0, uses_anonymous_args = 0
  85              	.LVL3:
  86 0000 10B5     		push	{r4, lr}
  87              		.cfi_def_cfa_offset 8
  88              		.cfi_offset 4, -8
  89              		.cfi_offset 14, -4
 379:Generated_Source\PSoC4/LCD.c ****     /* Reset RW for write operation */
  90              		.loc 1 379 0
  91 0002 0E4C     		ldr	r4, .L5
  92 0004 2278     		ldrb	r2, [r4]
  93 0006 2023     		movs	r3, #32
  94 0008 1343     		orrs	r3, r2
  95 000a DBB2     		uxtb	r3, r3
  96 000c 2370     		strb	r3, [r4]
 381:Generated_Source\PSoC4/LCD.c **** 
  97              		.loc 1 381 0
  98 000e 2378     		ldrb	r3, [r4]
  99 0010 4022     		movs	r2, #64
 100 0012 9343     		bics	r3, r2
 101 0014 2370     		strb	r3, [r4]
 385:Generated_Source\PSoC4/LCD.c **** 
 102              		.loc 1 385 0
 103 0016 2378     		ldrb	r3, [r4]
 104 0018 313A     		subs	r2, r2, #49
 105 001a 9343     		bics	r3, r2
 106 001c 2370     		strb	r3, [r4]
 388:Generated_Source\PSoC4/LCD.c **** 
 107              		.loc 1 388 0
 108 001e 2378     		ldrb	r3, [r4]
 109 0020 1843     		orrs	r0, r3
 110              	.LVL4:
 111 0022 1023     		movs	r3, #16
 112 0024 1843     		orrs	r0, r3
 113 0026 C0B2     		uxtb	r0, r0
 114 0028 2070     		strb	r0, [r4]
 391:Generated_Source\PSoC4/LCD.c **** 
 115              		.loc 1 391 0
 116 002a 0120     		movs	r0, #1
 117 002c FFF7FEFF 		bl	CyDelayUs
 118              	.LVL5:
 393:Generated_Source\PSoC4/LCD.c **** 	
 119              		.loc 1 393 0
 120 0030 2378     		ldrb	r3, [r4]
 121 0032 1022     		movs	r2, #16
 122 0034 9343     		bics	r3, r2
 123 0036 2370     		strb	r3, [r4]
 395:Generated_Source\PSoC4/LCD.c **** 
 124              		.loc 1 395 0
 125              		@ sp needed
 126 0038 10BD     		pop	{r4, pc}
 127              	.L6:
 128 003a C046     		.align	2
 129              	.L5:
 130 003c 72000F40 		.word	1074724978
 131              		.cfi_endproc
 132              	.LFE12:
ARM GAS  C:\Users\bryan.lee\AppData\Local\Temp\ccwYxMXs.s 			page 11


 133              		.size	LCD_WrDatNib, .-LCD_WrDatNib
 134              		.section	.text.LCD_WriteData,"ax",%progbits
 135              		.align	2
 136              		.global	LCD_WriteData
 137              		.code	16
 138              		.thumb_func
 139              		.type	LCD_WriteData, %function
 140              	LCD_WriteData:
 141              	.LFB9:
 285:Generated_Source\PSoC4/LCD.c ****     uint8 nibble;
 142              		.loc 1 285 0
 143              		.cfi_startproc
 144              		@ args = 0, pretend = 0, frame = 0
 145              		@ frame_needed = 0, uses_anonymous_args = 0
 146              	.LVL6:
 147 0000 10B5     		push	{r4, lr}
 148              		.cfi_def_cfa_offset 8
 149              		.cfi_offset 4, -8
 150              		.cfi_offset 14, -4
 151 0002 0400     		movs	r4, r0
 289:Generated_Source\PSoC4/LCD.c ****     LCD_WrDatNib(nibble);
 152              		.loc 1 289 0
 153 0004 0009     		lsrs	r0, r0, #4
 154              	.LVL7:
 290:Generated_Source\PSoC4/LCD.c **** 
 155              		.loc 1 290 0
 156 0006 FFF7FEFF 		bl	LCD_WrDatNib
 157              	.LVL8:
 292:Generated_Source\PSoC4/LCD.c **** 	 
 158              		.loc 1 292 0
 159 000a 6420     		movs	r0, #100
 160 000c FFF7FEFF 		bl	CyDelayUs
 161              	.LVL9:
 295:Generated_Source\PSoC4/LCD.c ****     LCD_WrDatNib(nibble);
 162              		.loc 1 295 0
 163 0010 0F20     		movs	r0, #15
 164 0012 2040     		ands	r0, r4
 165              	.LVL10:
 296:Generated_Source\PSoC4/LCD.c **** 	
 166              		.loc 1 296 0
 167 0014 FFF7FEFF 		bl	LCD_WrDatNib
 168              	.LVL11:
 298:Generated_Source\PSoC4/LCD.c **** 
 169              		.loc 1 298 0
 170 0018 9620     		movs	r0, #150
 171 001a FFF7FEFF 		bl	CyDelayUs
 172              	.LVL12:
 300:Generated_Source\PSoC4/LCD.c **** 
 173              		.loc 1 300 0
 174              		@ sp needed
 175              	.LVL13:
 176 001e 10BD     		pop	{r4, pc}
 177              		.cfi_endproc
 178              	.LFE9:
 179              		.size	LCD_WriteData, .-LCD_WriteData
 180              		.section	.text.LCD_PrintString,"ax",%progbits
 181              		.align	2
ARM GAS  C:\Users\bryan.lee\AppData\Local\Temp\ccwYxMXs.s 			page 12


 182              		.global	LCD_PrintString
 183              		.code	16
 184              		.thumb_func
 185              		.type	LCD_PrintString, %function
 186              	LCD_PrintString:
 187              	.LFB7:
 234:Generated_Source\PSoC4/LCD.c ****     uint8 indexU8 = 1u;
 188              		.loc 1 234 0
 189              		.cfi_startproc
 190              		@ args = 0, pretend = 0, frame = 0
 191              		@ frame_needed = 0, uses_anonymous_args = 0
 192              	.LVL14:
 193 0000 70B5     		push	{r4, r5, r6, lr}
 194              		.cfi_def_cfa_offset 16
 195              		.cfi_offset 4, -16
 196              		.cfi_offset 5, -12
 197              		.cfi_offset 6, -8
 198              		.cfi_offset 14, -4
 199 0002 0500     		movs	r5, r0
 200              	.LVL15:
 236:Generated_Source\PSoC4/LCD.c **** 
 201              		.loc 1 236 0
 202 0004 0078     		ldrb	r0, [r0]
 203              	.LVL16:
 235:Generated_Source\PSoC4/LCD.c ****     char8 current = *string;
 204              		.loc 1 235 0
 205 0006 0124     		movs	r4, #1
 239:Generated_Source\PSoC4/LCD.c ****     {
 206              		.loc 1 239 0
 207 0008 04E0     		b	.L9
 208              	.LVL17:
 209              	.L10:
 241:Generated_Source\PSoC4/LCD.c ****         current = string[indexU8];
 210              		.loc 1 241 0
 211 000a FFF7FEFF 		bl	LCD_WriteData
 212              	.LVL18:
 242:Generated_Source\PSoC4/LCD.c ****         indexU8++;
 213              		.loc 1 242 0
 214 000e 285D     		ldrb	r0, [r5, r4]
 215              	.LVL19:
 243:Generated_Source\PSoC4/LCD.c ****     }
 216              		.loc 1 243 0
 217 0010 0134     		adds	r4, r4, #1
 218              	.LVL20:
 219 0012 E4B2     		uxtb	r4, r4
 220              	.LVL21:
 221              	.L9:
 239:Generated_Source\PSoC4/LCD.c ****     {
 222              		.loc 1 239 0
 223 0014 0028     		cmp	r0, #0
 224 0016 F8D1     		bne	.L10
 245:Generated_Source\PSoC4/LCD.c **** 
 225              		.loc 1 245 0
 226              		@ sp needed
 227              	.LVL22:
 228              	.LVL23:
 229 0018 70BD     		pop	{r4, r5, r6, pc}
ARM GAS  C:\Users\bryan.lee\AppData\Local\Temp\ccwYxMXs.s 			page 13


 230              		.cfi_endproc
 231              	.LFE7:
 232              		.size	LCD_PrintString, .-LCD_PrintString
 233 001a C046     		.section	.text.LCD_PutChar,"ax",%progbits
 234              		.align	2
 235              		.global	LCD_PutChar
 236              		.code	16
 237              		.thumb_func
 238              		.type	LCD_PutChar, %function
 239              	LCD_PutChar:
 240              	.LFB8:
 265:Generated_Source\PSoC4/LCD.c ****     LCD_WriteData((uint8)character);
 241              		.loc 1 265 0
 242              		.cfi_startproc
 243              		@ args = 0, pretend = 0, frame = 0
 244              		@ frame_needed = 0, uses_anonymous_args = 0
 245              	.LVL24:
 246 0000 10B5     		push	{r4, lr}
 247              		.cfi_def_cfa_offset 8
 248              		.cfi_offset 4, -8
 249              		.cfi_offset 14, -4
 266:Generated_Source\PSoC4/LCD.c **** }
 250              		.loc 1 266 0
 251 0002 FFF7FEFF 		bl	LCD_WriteData
 252              	.LVL25:
 267:Generated_Source\PSoC4/LCD.c **** 
 253              		.loc 1 267 0
 254              		@ sp needed
 255 0006 10BD     		pop	{r4, pc}
 256              		.cfi_endproc
 257              	.LFE8:
 258              		.size	LCD_PutChar, .-LCD_PutChar
 259              		.section	.text.LCD_WriteControl,"ax",%progbits
 260              		.align	2
 261              		.global	LCD_WriteControl
 262              		.code	16
 263              		.thumb_func
 264              		.type	LCD_WriteControl, %function
 265              	LCD_WriteControl:
 266              	.LFB10:
 318:Generated_Source\PSoC4/LCD.c ****     uint8 nibble;
 267              		.loc 1 318 0
 268              		.cfi_startproc
 269              		@ args = 0, pretend = 0, frame = 0
 270              		@ frame_needed = 0, uses_anonymous_args = 0
 271              	.LVL26:
 272 0000 10B5     		push	{r4, lr}
 273              		.cfi_def_cfa_offset 8
 274              		.cfi_offset 4, -8
 275              		.cfi_offset 14, -4
 276 0002 0400     		movs	r4, r0
 322:Generated_Source\PSoC4/LCD.c ****     LCD_WrCntrlNib(nibble);
 277              		.loc 1 322 0
 278 0004 0009     		lsrs	r0, r0, #4
 279              	.LVL27:
 323:Generated_Source\PSoC4/LCD.c **** 
 280              		.loc 1 323 0
ARM GAS  C:\Users\bryan.lee\AppData\Local\Temp\ccwYxMXs.s 			page 14


 281 0006 FFF7FEFF 		bl	LCD_WrCntrlNib
 282              	.LVL28:
 325:Generated_Source\PSoC4/LCD.c **** 	
 283              		.loc 1 325 0
 284 000a 6420     		movs	r0, #100
 285 000c FFF7FEFF 		bl	CyDelayUs
 286              	.LVL29:
 328:Generated_Source\PSoC4/LCD.c ****     LCD_WrCntrlNib(nibble);
 287              		.loc 1 328 0
 288 0010 0F20     		movs	r0, #15
 289 0012 2040     		ands	r0, r4
 290              	.LVL30:
 329:Generated_Source\PSoC4/LCD.c **** 
 291              		.loc 1 329 0
 292 0014 FFF7FEFF 		bl	LCD_WrCntrlNib
 293              	.LVL31:
 331:Generated_Source\PSoC4/LCD.c **** }
 294              		.loc 1 331 0
 295 0018 0148     		ldr	r0, .L13
 296 001a FFF7FEFF 		bl	CyDelayUs
 297              	.LVL32:
 332:Generated_Source\PSoC4/LCD.c **** 
 298              		.loc 1 332 0
 299              		@ sp needed
 300              	.LVL33:
 301 001e 10BD     		pop	{r4, pc}
 302              	.L14:
 303              		.align	2
 304              	.L13:
 305 0020 DC050000 		.word	1500
 306              		.cfi_endproc
 307              	.LFE10:
 308              		.size	LCD_WriteControl, .-LCD_WriteControl
 309              		.section	.text.LCD_Init,"ax",%progbits
 310              		.align	2
 311              		.global	LCD_Init
 312              		.code	16
 313              		.thumb_func
 314              		.type	LCD_Init, %function
 315              	LCD_Init:
 316              	.LFB2:
  56:Generated_Source\PSoC4/LCD.c ****     /* INIT CODE */
 317              		.loc 1 56 0
 318              		.cfi_startproc
 319              		@ args = 0, pretend = 0, frame = 0
 320              		@ frame_needed = 0, uses_anonymous_args = 0
 321 0000 10B5     		push	{r4, lr}
 322              		.cfi_def_cfa_offset 8
 323              		.cfi_offset 4, -8
 324              		.cfi_offset 14, -4
  58:Generated_Source\PSoC4/LCD.c ****     LCD_WrCntrlNib(LCD_DISPLAY_8_BIT_INIT);   /* Selects 8-bit mode */
 325              		.loc 1 58 0
 326 0002 2820     		movs	r0, #40
 327 0004 FFF7FEFF 		bl	CyDelay
 328              	.LVL34:
  59:Generated_Source\PSoC4/LCD.c ****     CyDelay(5u);                                                         /* Delay 5 ms */
 329              		.loc 1 59 0
ARM GAS  C:\Users\bryan.lee\AppData\Local\Temp\ccwYxMXs.s 			page 15


 330 0008 0320     		movs	r0, #3
 331 000a FFF7FEFF 		bl	LCD_WrCntrlNib
 332              	.LVL35:
  60:Generated_Source\PSoC4/LCD.c ****     LCD_WrCntrlNib(LCD_DISPLAY_8_BIT_INIT);   /* Selects 8-bit mode */
 333              		.loc 1 60 0
 334 000e 0520     		movs	r0, #5
 335 0010 FFF7FEFF 		bl	CyDelay
 336              	.LVL36:
  61:Generated_Source\PSoC4/LCD.c ****     CyDelay(15u);                                                        /* Delay 15 ms */
 337              		.loc 1 61 0
 338 0014 0320     		movs	r0, #3
 339 0016 FFF7FEFF 		bl	LCD_WrCntrlNib
 340              	.LVL37:
  62:Generated_Source\PSoC4/LCD.c ****     LCD_WrCntrlNib(LCD_DISPLAY_8_BIT_INIT);   /* Selects 8-bit mode */
 341              		.loc 1 62 0
 342 001a 0F20     		movs	r0, #15
 343 001c FFF7FEFF 		bl	CyDelay
 344              	.LVL38:
  63:Generated_Source\PSoC4/LCD.c ****     CyDelay(1u);                                                         /* Delay 1 ms */
 345              		.loc 1 63 0
 346 0020 0320     		movs	r0, #3
 347 0022 FFF7FEFF 		bl	LCD_WrCntrlNib
 348              	.LVL39:
  64:Generated_Source\PSoC4/LCD.c ****     LCD_WrCntrlNib(LCD_DISPLAY_4_BIT_INIT);   /* Selects 4-bit mode */
 349              		.loc 1 64 0
 350 0026 0120     		movs	r0, #1
 351 0028 FFF7FEFF 		bl	CyDelay
 352              	.LVL40:
  65:Generated_Source\PSoC4/LCD.c ****     CyDelay(5u);                                                         /* Delay 5 ms */
 353              		.loc 1 65 0
 354 002c 0220     		movs	r0, #2
 355 002e FFF7FEFF 		bl	LCD_WrCntrlNib
 356              	.LVL41:
  66:Generated_Source\PSoC4/LCD.c **** 
 357              		.loc 1 66 0
 358 0032 0520     		movs	r0, #5
 359 0034 FFF7FEFF 		bl	CyDelay
 360              	.LVL42:
  68:Generated_Source\PSoC4/LCD.c ****     LCD_WriteControl(LCD_DISPLAY_CURSOR_ON);      /* Turn Display, Cursor ON */
 361              		.loc 1 68 0
 362 0038 0620     		movs	r0, #6
 363 003a FFF7FEFF 		bl	LCD_WriteControl
 364              	.LVL43:
  69:Generated_Source\PSoC4/LCD.c ****     LCD_WriteControl(LCD_DISPLAY_2_LINES_5x10);   /* 2 Lines by 5x10 Characters */
 365              		.loc 1 69 0
 366 003e 0E20     		movs	r0, #14
 367 0040 FFF7FEFF 		bl	LCD_WriteControl
 368              	.LVL44:
  70:Generated_Source\PSoC4/LCD.c ****     LCD_WriteControl(LCD_DISPLAY_CURSOR_OFF);     /* Turn Display, Cursor OFF */
 369              		.loc 1 70 0
 370 0044 2C20     		movs	r0, #44
 371 0046 FFF7FEFF 		bl	LCD_WriteControl
 372              	.LVL45:
  71:Generated_Source\PSoC4/LCD.c ****     LCD_WriteControl(LCD_CLEAR_DISPLAY);          /* Clear LCD Screen */
 373              		.loc 1 71 0
 374 004a 0820     		movs	r0, #8
 375 004c FFF7FEFF 		bl	LCD_WriteControl
ARM GAS  C:\Users\bryan.lee\AppData\Local\Temp\ccwYxMXs.s 			page 16


 376              	.LVL46:
  72:Generated_Source\PSoC4/LCD.c ****     LCD_WriteControl(LCD_DISPLAY_ON_CURSOR_OFF);  /* Turn Display ON, Cursor OFF */
 377              		.loc 1 72 0
 378 0050 0120     		movs	r0, #1
 379 0052 FFF7FEFF 		bl	LCD_WriteControl
 380              	.LVL47:
  73:Generated_Source\PSoC4/LCD.c ****     LCD_WriteControl(LCD_RESET_CURSOR_POSITION);  /* Set Cursor to 0,0 */
 381              		.loc 1 73 0
 382 0056 0C20     		movs	r0, #12
 383 0058 FFF7FEFF 		bl	LCD_WriteControl
 384              	.LVL48:
  74:Generated_Source\PSoC4/LCD.c ****     CyDelay(5u);
 385              		.loc 1 74 0
 386 005c 0320     		movs	r0, #3
 387 005e FFF7FEFF 		bl	LCD_WriteControl
 388              	.LVL49:
  75:Generated_Source\PSoC4/LCD.c **** 
 389              		.loc 1 75 0
 390 0062 0520     		movs	r0, #5
 391 0064 FFF7FEFF 		bl	CyDelay
 392              	.LVL50:
  80:Generated_Source\PSoC4/LCD.c **** 
 393              		.loc 1 80 0
 394              		@ sp needed
 395 0068 10BD     		pop	{r4, pc}
 396              		.cfi_endproc
 397              	.LFE2:
 398              		.size	LCD_Init, .-LCD_Init
 399 006a C046     		.section	.text.LCD_Enable,"ax",%progbits
 400              		.align	2
 401              		.global	LCD_Enable
 402              		.code	16
 403              		.thumb_func
 404              		.type	LCD_Enable, %function
 405              	LCD_Enable:
 406              	.LFB3:
 105:Generated_Source\PSoC4/LCD.c ****     LCD_DisplayOn();
 407              		.loc 1 105 0
 408              		.cfi_startproc
 409              		@ args = 0, pretend = 0, frame = 0
 410              		@ frame_needed = 0, uses_anonymous_args = 0
 411 0000 10B5     		push	{r4, lr}
 412              		.cfi_def_cfa_offset 8
 413              		.cfi_offset 4, -8
 414              		.cfi_offset 14, -4
 106:Generated_Source\PSoC4/LCD.c ****     LCD_enableState = 1u;
 415              		.loc 1 106 0
 416 0002 0C20     		movs	r0, #12
 417 0004 FFF7FEFF 		bl	LCD_WriteControl
 418              	.LVL51:
 107:Generated_Source\PSoC4/LCD.c **** }
 419              		.loc 1 107 0
 420 0008 0122     		movs	r2, #1
 421 000a 014B     		ldr	r3, .L17
 422 000c 1A70     		strb	r2, [r3]
 108:Generated_Source\PSoC4/LCD.c **** 
 423              		.loc 1 108 0
ARM GAS  C:\Users\bryan.lee\AppData\Local\Temp\ccwYxMXs.s 			page 17


 424              		@ sp needed
 425 000e 10BD     		pop	{r4, pc}
 426              	.L18:
 427              		.align	2
 428              	.L17:
 429 0010 00000000 		.word	.LANCHOR0
 430              		.cfi_endproc
 431              	.LFE3:
 432              		.size	LCD_Enable, .-LCD_Enable
 433              		.section	.text.LCD_Start,"ax",%progbits
 434              		.align	2
 435              		.global	LCD_Start
 436              		.code	16
 437              		.thumb_func
 438              		.type	LCD_Start, %function
 439              	LCD_Start:
 440              	.LFB4:
 138:Generated_Source\PSoC4/LCD.c ****     /* If not initialized then perform initialization */
 441              		.loc 1 138 0
 442              		.cfi_startproc
 443              		@ args = 0, pretend = 0, frame = 0
 444              		@ frame_needed = 0, uses_anonymous_args = 0
 445 0000 10B5     		push	{r4, lr}
 446              		.cfi_def_cfa_offset 8
 447              		.cfi_offset 4, -8
 448              		.cfi_offset 14, -4
 140:Generated_Source\PSoC4/LCD.c ****     {
 449              		.loc 1 140 0
 450 0002 064B     		ldr	r3, .L21
 451 0004 5B78     		ldrb	r3, [r3, #1]
 452 0006 002B     		cmp	r3, #0
 453 0008 04D1     		bne	.L20
 142:Generated_Source\PSoC4/LCD.c ****         LCD_initVar = 1u;
 454              		.loc 1 142 0
 455 000a FFF7FEFF 		bl	LCD_Init
 456              	.LVL52:
 143:Generated_Source\PSoC4/LCD.c ****     }
 457              		.loc 1 143 0
 458 000e 0122     		movs	r2, #1
 459 0010 024B     		ldr	r3, .L21
 460 0012 5A70     		strb	r2, [r3, #1]
 461              	.L20:
 147:Generated_Source\PSoC4/LCD.c **** }
 462              		.loc 1 147 0
 463 0014 FFF7FEFF 		bl	LCD_Enable
 464              	.LVL53:
 148:Generated_Source\PSoC4/LCD.c **** 
 465              		.loc 1 148 0
 466              		@ sp needed
 467 0018 10BD     		pop	{r4, pc}
 468              	.L22:
 469 001a C046     		.align	2
 470              	.L21:
 471 001c 00000000 		.word	.LANCHOR0
 472              		.cfi_endproc
 473              	.LFE4:
 474              		.size	LCD_Start, .-LCD_Start
ARM GAS  C:\Users\bryan.lee\AppData\Local\Temp\ccwYxMXs.s 			page 18


 475              		.section	.text.LCD_Stop,"ax",%progbits
 476              		.align	2
 477              		.global	LCD_Stop
 478              		.code	16
 479              		.thumb_func
 480              		.type	LCD_Stop, %function
 481              	LCD_Stop:
 482              	.LFB5:
 169:Generated_Source\PSoC4/LCD.c ****     /* Calls LCD Off Macro */
 483              		.loc 1 169 0
 484              		.cfi_startproc
 485              		@ args = 0, pretend = 0, frame = 0
 486              		@ frame_needed = 0, uses_anonymous_args = 0
 487 0000 10B5     		push	{r4, lr}
 488              		.cfi_def_cfa_offset 8
 489              		.cfi_offset 4, -8
 490              		.cfi_offset 14, -4
 171:Generated_Source\PSoC4/LCD.c ****     LCD_enableState = 0u;
 491              		.loc 1 171 0
 492 0002 0820     		movs	r0, #8
 493 0004 FFF7FEFF 		bl	LCD_WriteControl
 494              	.LVL54:
 172:Generated_Source\PSoC4/LCD.c **** }
 495              		.loc 1 172 0
 496 0008 0022     		movs	r2, #0
 497 000a 014B     		ldr	r3, .L24
 498 000c 1A70     		strb	r2, [r3]
 173:Generated_Source\PSoC4/LCD.c **** 
 499              		.loc 1 173 0
 500              		@ sp needed
 501 000e 10BD     		pop	{r4, pc}
 502              	.L25:
 503              		.align	2
 504              	.L24:
 505 0010 00000000 		.word	.LANCHOR0
 506              		.cfi_endproc
 507              	.LFE5:
 508              		.size	LCD_Stop, .-LCD_Stop
 509              		.section	.text.LCD_Position,"ax",%progbits
 510              		.align	2
 511              		.global	LCD_Position
 512              		.code	16
 513              		.thumb_func
 514              		.type	LCD_Position, %function
 515              	LCD_Position:
 516              	.LFB6:
 197:Generated_Source\PSoC4/LCD.c ****     switch (row)
 517              		.loc 1 197 0
 518              		.cfi_startproc
 519              		@ args = 0, pretend = 0, frame = 0
 520              		@ frame_needed = 0, uses_anonymous_args = 0
 521              	.LVL55:
 522 0000 10B5     		push	{r4, lr}
 523              		.cfi_def_cfa_offset 8
 524              		.cfi_offset 4, -8
 525              		.cfi_offset 14, -4
 198:Generated_Source\PSoC4/LCD.c ****     {
ARM GAS  C:\Users\bryan.lee\AppData\Local\Temp\ccwYxMXs.s 			page 19


 526              		.loc 1 198 0
 527 0002 0128     		cmp	r0, #1
 528 0004 0BD0     		beq	.L28
 529 0006 0028     		cmp	r0, #0
 530 0008 04D0     		beq	.L29
 531 000a 0228     		cmp	r0, #2
 532 000c 0CD0     		beq	.L30
 533 000e 0328     		cmp	r0, #3
 534 0010 0FD0     		beq	.L31
 535 0012 12E0     		b	.L26
 536              	.L29:
 201:Generated_Source\PSoC4/LCD.c ****             break;
 537              		.loc 1 201 0
 538 0014 8039     		subs	r1, r1, #128
 539              	.LVL56:
 540 0016 C8B2     		uxtb	r0, r1
 541              	.LVL57:
 542 0018 FFF7FEFF 		bl	LCD_WriteControl
 543              	.LVL58:
 202:Generated_Source\PSoC4/LCD.c ****         case (uint8) 1:
 544              		.loc 1 202 0
 545 001c 0DE0     		b	.L26
 546              	.LVL59:
 547              	.L28:
 204:Generated_Source\PSoC4/LCD.c ****             break;
 548              		.loc 1 204 0
 549 001e 4039     		subs	r1, r1, #64
 550              	.LVL60:
 551 0020 C8B2     		uxtb	r0, r1
 552              	.LVL61:
 553 0022 FFF7FEFF 		bl	LCD_WriteControl
 554              	.LVL62:
 205:Generated_Source\PSoC4/LCD.c ****         case (uint8) 2:
 555              		.loc 1 205 0
 556 0026 08E0     		b	.L26
 557              	.LVL63:
 558              	.L30:
 207:Generated_Source\PSoC4/LCD.c ****             break;
 559              		.loc 1 207 0
 560 0028 6C39     		subs	r1, r1, #108
 561              	.LVL64:
 562 002a C8B2     		uxtb	r0, r1
 563              	.LVL65:
 564 002c FFF7FEFF 		bl	LCD_WriteControl
 565              	.LVL66:
 208:Generated_Source\PSoC4/LCD.c ****         case (uint8) 3:
 566              		.loc 1 208 0
 567 0030 03E0     		b	.L26
 568              	.LVL67:
 569              	.L31:
 210:Generated_Source\PSoC4/LCD.c ****             break;
 570              		.loc 1 210 0
 571 0032 2C39     		subs	r1, r1, #44
 572              	.LVL68:
 573 0034 C8B2     		uxtb	r0, r1
 574              	.LVL69:
 575 0036 FFF7FEFF 		bl	LCD_WriteControl
ARM GAS  C:\Users\bryan.lee\AppData\Local\Temp\ccwYxMXs.s 			page 20


 576              	.LVL70:
 577              	.L26:
 216:Generated_Source\PSoC4/LCD.c **** 
 578              		.loc 1 216 0
 579              		@ sp needed
 580 003a 10BD     		pop	{r4, pc}
 581              		.cfi_endproc
 582              	.LFE6:
 583              		.size	LCD_Position, .-LCD_Position
 584              		.section	.text.LCD_IsReady,"ax",%progbits
 585              		.align	2
 586              		.global	LCD_IsReady
 587              		.code	16
 588              		.thumb_func
 589              		.type	LCD_IsReady, %function
 590              	LCD_IsReady:
 591              	.LFB11:
 353:Generated_Source\PSoC4/LCD.c ****    
 592              		.loc 1 353 0
 593              		.cfi_startproc
 594              		@ args = 0, pretend = 0, frame = 0
 595              		@ frame_needed = 0, uses_anonymous_args = 0
 596 0000 10B5     		push	{r4, lr}
 597              		.cfi_def_cfa_offset 8
 598              		.cfi_offset 4, -8
 599              		.cfi_offset 14, -4
 355:Generated_Source\PSoC4/LCD.c **** 	
 600              		.loc 1 355 0
 601 0002 0120     		movs	r0, #1
 602 0004 FFF7FEFF 		bl	CyDelay
 603              	.LVL71:
 357:Generated_Source\PSoC4/LCD.c **** 
 604              		.loc 1 357 0
 605              		@ sp needed
 606 0008 10BD     		pop	{r4, pc}
 607              		.cfi_endproc
 608              	.LFE11:
 609              		.size	LCD_IsReady, .-LCD_IsReady
 610 000a C046     		.section	.text.LCD_PrintInt8,"ax",%progbits
 611              		.align	2
 612              		.global	LCD_PrintInt8
 613              		.code	16
 614              		.thumb_func
 615              		.type	LCD_PrintInt8, %function
 616              	LCD_PrintInt8:
 617              	.LFB14:
 431:Generated_Source\PSoC4/LCD.c **** 
 432:Generated_Source\PSoC4/LCD.c **** 
 433:Generated_Source\PSoC4/LCD.c **** #if(LCD_CONVERSION_ROUTINES == 1u)
 434:Generated_Source\PSoC4/LCD.c **** 
 435:Generated_Source\PSoC4/LCD.c ****     /*******************************************************************************
 436:Generated_Source\PSoC4/LCD.c ****     *  Function Name: LCD_PrintInt8
 437:Generated_Source\PSoC4/LCD.c ****     ********************************************************************************
 438:Generated_Source\PSoC4/LCD.c ****     *
 439:Generated_Source\PSoC4/LCD.c ****     * Summary:
 440:Generated_Source\PSoC4/LCD.c ****     *  Print a byte as two ASCII characters.
 441:Generated_Source\PSoC4/LCD.c ****     *
ARM GAS  C:\Users\bryan.lee\AppData\Local\Temp\ccwYxMXs.s 			page 21


 442:Generated_Source\PSoC4/LCD.c ****     * Parameters:
 443:Generated_Source\PSoC4/LCD.c ****     *  value:  The byte to be printed out as ASCII characters.
 444:Generated_Source\PSoC4/LCD.c ****     *
 445:Generated_Source\PSoC4/LCD.c ****     * Return:
 446:Generated_Source\PSoC4/LCD.c ****     *  None.
 447:Generated_Source\PSoC4/LCD.c ****     *
 448:Generated_Source\PSoC4/LCD.c ****     *******************************************************************************/
 449:Generated_Source\PSoC4/LCD.c ****     void LCD_PrintInt8(uint8 value) 
 450:Generated_Source\PSoC4/LCD.c ****     {
 618              		.loc 1 450 0
 619              		.cfi_startproc
 620              		@ args = 0, pretend = 0, frame = 0
 621              		@ frame_needed = 0, uses_anonymous_args = 0
 622              	.LVL72:
 623 0000 70B5     		push	{r4, r5, r6, lr}
 624              		.cfi_def_cfa_offset 16
 625              		.cfi_offset 4, -16
 626              		.cfi_offset 5, -12
 627              		.cfi_offset 6, -8
 628              		.cfi_offset 14, -4
 629 0002 0400     		movs	r4, r0
 451:Generated_Source\PSoC4/LCD.c ****         static char8 const CYCODE LCD_hex[16u] = "0123456789ABCDEF";
 452:Generated_Source\PSoC4/LCD.c ****         
 453:Generated_Source\PSoC4/LCD.c ****         LCD_PutChar((char8) LCD_hex[value >> LCD_BYTE_UPPER_NIBBLE_SHIFT]);
 630              		.loc 1 453 0
 631 0004 0309     		lsrs	r3, r0, #4
 632 0006 054D     		ldr	r5, .L34
 633 0008 E85C     		ldrb	r0, [r5, r3]
 634              	.LVL73:
 635 000a FFF7FEFF 		bl	LCD_PutChar
 636              	.LVL74:
 454:Generated_Source\PSoC4/LCD.c ****         LCD_PutChar((char8) LCD_hex[value & LCD_BYTE_LOWER_NIBBLE_MASK]);
 637              		.loc 1 454 0
 638 000e 0F23     		movs	r3, #15
 639 0010 1C40     		ands	r4, r3
 640 0012 285D     		ldrb	r0, [r5, r4]
 641 0014 FFF7FEFF 		bl	LCD_PutChar
 642              	.LVL75:
 455:Generated_Source\PSoC4/LCD.c ****     }
 643              		.loc 1 455 0
 644              		@ sp needed
 645 0018 70BD     		pop	{r4, r5, r6, pc}
 646              	.L35:
 647 001a C046     		.align	2
 648              	.L34:
 649 001c 00000000 		.word	.LANCHOR1
 650              		.cfi_endproc
 651              	.LFE14:
 652              		.size	LCD_PrintInt8, .-LCD_PrintInt8
 653              		.section	.text.LCD_PrintInt16,"ax",%progbits
 654              		.align	2
 655              		.global	LCD_PrintInt16
 656              		.code	16
 657              		.thumb_func
 658              		.type	LCD_PrintInt16, %function
 659              	LCD_PrintInt16:
 660              	.LFB15:
ARM GAS  C:\Users\bryan.lee\AppData\Local\Temp\ccwYxMXs.s 			page 22


 456:Generated_Source\PSoC4/LCD.c **** 
 457:Generated_Source\PSoC4/LCD.c **** 
 458:Generated_Source\PSoC4/LCD.c ****     /*******************************************************************************
 459:Generated_Source\PSoC4/LCD.c ****     *  Function Name: LCD_PrintInt16
 460:Generated_Source\PSoC4/LCD.c ****     ********************************************************************************
 461:Generated_Source\PSoC4/LCD.c ****     *
 462:Generated_Source\PSoC4/LCD.c ****     * Summary:
 463:Generated_Source\PSoC4/LCD.c ****     *  Print a uint16 as four ASCII characters.
 464:Generated_Source\PSoC4/LCD.c ****     *
 465:Generated_Source\PSoC4/LCD.c ****     * Parameters:
 466:Generated_Source\PSoC4/LCD.c ****     *  value:   The uint16 to be printed out as ASCII characters.
 467:Generated_Source\PSoC4/LCD.c ****     *
 468:Generated_Source\PSoC4/LCD.c ****     * Return:
 469:Generated_Source\PSoC4/LCD.c ****     *  None.
 470:Generated_Source\PSoC4/LCD.c ****     *
 471:Generated_Source\PSoC4/LCD.c ****     *******************************************************************************/
 472:Generated_Source\PSoC4/LCD.c ****     void LCD_PrintInt16(uint16 value) 
 473:Generated_Source\PSoC4/LCD.c ****     {
 661              		.loc 1 473 0
 662              		.cfi_startproc
 663              		@ args = 0, pretend = 0, frame = 0
 664              		@ frame_needed = 0, uses_anonymous_args = 0
 665              	.LVL76:
 666 0000 10B5     		push	{r4, lr}
 667              		.cfi_def_cfa_offset 8
 668              		.cfi_offset 4, -8
 669              		.cfi_offset 14, -4
 670 0002 0400     		movs	r4, r0
 474:Generated_Source\PSoC4/LCD.c ****         LCD_PrintInt8((uint8)(value >> LCD_U16_UPPER_BYTE_SHIFT));
 671              		.loc 1 474 0
 672 0004 000A     		lsrs	r0, r0, #8
 673              	.LVL77:
 674 0006 FFF7FEFF 		bl	LCD_PrintInt8
 675              	.LVL78:
 475:Generated_Source\PSoC4/LCD.c ****         LCD_PrintInt8((uint8)(value & LCD_U16_LOWER_BYTE_MASK));
 676              		.loc 1 475 0
 677 000a E0B2     		uxtb	r0, r4
 678 000c FFF7FEFF 		bl	LCD_PrintInt8
 679              	.LVL79:
 476:Generated_Source\PSoC4/LCD.c ****     }
 680              		.loc 1 476 0
 681              		@ sp needed
 682 0010 10BD     		pop	{r4, pc}
 683              		.cfi_endproc
 684              	.LFE15:
 685              		.size	LCD_PrintInt16, .-LCD_PrintInt16
 686              		.global	__aeabi_uidivmod
 687              		.global	__aeabi_uidiv
 688 0012 C046     		.section	.text.LCD_PrintNumber,"ax",%progbits
 689              		.align	2
 690              		.global	LCD_PrintNumber
 691              		.code	16
 692              		.thumb_func
 693              		.type	LCD_PrintNumber, %function
 694              	LCD_PrintNumber:
 695              	.LFB16:
 477:Generated_Source\PSoC4/LCD.c **** 
ARM GAS  C:\Users\bryan.lee\AppData\Local\Temp\ccwYxMXs.s 			page 23


 478:Generated_Source\PSoC4/LCD.c **** 
 479:Generated_Source\PSoC4/LCD.c ****     /*******************************************************************************
 480:Generated_Source\PSoC4/LCD.c ****     *  Function Name: LCD_PrintNumber
 481:Generated_Source\PSoC4/LCD.c ****     ********************************************************************************
 482:Generated_Source\PSoC4/LCD.c ****     *
 483:Generated_Source\PSoC4/LCD.c ****     * Summary:
 484:Generated_Source\PSoC4/LCD.c ****     *  Print an uint32 value as a left-justified decimal value.
 485:Generated_Source\PSoC4/LCD.c ****     *
 486:Generated_Source\PSoC4/LCD.c ****     * Parameters:
 487:Generated_Source\PSoC4/LCD.c ****     *  value:  The byte to be printed out as ASCII characters.
 488:Generated_Source\PSoC4/LCD.c ****     *
 489:Generated_Source\PSoC4/LCD.c ****     * Return:
 490:Generated_Source\PSoC4/LCD.c ****     *  None.
 491:Generated_Source\PSoC4/LCD.c ****     *
 492:Generated_Source\PSoC4/LCD.c ****     *******************************************************************************/
 493:Generated_Source\PSoC4/LCD.c ****     void LCD_PrintNumber(uint16 value) 
 494:Generated_Source\PSoC4/LCD.c ****     {
 696              		.loc 1 494 0
 697              		.cfi_startproc
 698              		@ args = 0, pretend = 0, frame = 16
 699              		@ frame_needed = 0, uses_anonymous_args = 0
 700              	.LVL80:
 701 0000 70B5     		push	{r4, r5, r6, lr}
 702              		.cfi_def_cfa_offset 16
 703              		.cfi_offset 4, -16
 704              		.cfi_offset 5, -12
 705              		.cfi_offset 6, -8
 706              		.cfi_offset 14, -4
 707 0002 84B0     		sub	sp, sp, #16
 708              		.cfi_def_cfa_offset 32
 709 0004 0400     		movs	r4, r0
 710              	.LVL81:
 495:Generated_Source\PSoC4/LCD.c **** 
 496:Generated_Source\PSoC4/LCD.c ****         char8 number[LCD_NUMBER_OF_REMAINDERS];
 497:Generated_Source\PSoC4/LCD.c ****         char8 temp[LCD_NUMBER_OF_REMAINDERS];
 498:Generated_Source\PSoC4/LCD.c **** 
 499:Generated_Source\PSoC4/LCD.c ****         uint8 digIndex = 0u;
 711              		.loc 1 499 0
 712 0006 0025     		movs	r5, #0
 500:Generated_Source\PSoC4/LCD.c ****         uint8 numDigits;
 501:Generated_Source\PSoC4/LCD.c **** 
 502:Generated_Source\PSoC4/LCD.c ****         /* Load these in reverse order */
 503:Generated_Source\PSoC4/LCD.c ****         while(value >= LCD_TEN)
 713              		.loc 1 503 0
 714 0008 0DE0     		b	.L38
 715              	.LVL82:
 716              	.L39:
 504:Generated_Source\PSoC4/LCD.c ****         {
 505:Generated_Source\PSoC4/LCD.c ****             temp[digIndex] = (value % LCD_TEN) + '0';
 717              		.loc 1 505 0
 718 000a 0A21     		movs	r1, #10
 719 000c 2000     		movs	r0, r4
 720 000e FFF7FEFF 		bl	__aeabi_uidivmod
 721              	.LVL83:
 722 0012 3031     		adds	r1, r1, #48
 723 0014 6B46     		mov	r3, sp
 724 0016 5955     		strb	r1, [r3, r5]
ARM GAS  C:\Users\bryan.lee\AppData\Local\Temp\ccwYxMXs.s 			page 24


 506:Generated_Source\PSoC4/LCD.c ****             value /= LCD_TEN;
 725              		.loc 1 506 0
 726 0018 0A21     		movs	r1, #10
 727 001a 2000     		movs	r0, r4
 728 001c FFF7FEFF 		bl	__aeabi_uidiv
 729              	.LVL84:
 730 0020 84B2     		uxth	r4, r0
 731              	.LVL85:
 507:Generated_Source\PSoC4/LCD.c ****             digIndex++;
 732              		.loc 1 507 0
 733 0022 0135     		adds	r5, r5, #1
 734              	.LVL86:
 735 0024 EDB2     		uxtb	r5, r5
 736              	.LVL87:
 737              	.L38:
 503:Generated_Source\PSoC4/LCD.c ****         {
 738              		.loc 1 503 0
 739 0026 092C     		cmp	r4, #9
 740 0028 EFD8     		bhi	.L39
 508:Generated_Source\PSoC4/LCD.c ****         }
 509:Generated_Source\PSoC4/LCD.c **** 
 510:Generated_Source\PSoC4/LCD.c ****         temp[digIndex] = (value % LCD_TEN) + '0';
 741              		.loc 1 510 0
 742 002a 2E00     		movs	r6, r5
 743 002c 0A21     		movs	r1, #10
 744 002e 2000     		movs	r0, r4
 745 0030 FFF7FEFF 		bl	__aeabi_uidivmod
 746              	.LVL88:
 747 0034 3031     		adds	r1, r1, #48
 748 0036 6B46     		mov	r3, sp
 749 0038 5955     		strb	r1, [r3, r5]
 750              	.LVL89:
 511:Generated_Source\PSoC4/LCD.c ****         numDigits = digIndex;
 512:Generated_Source\PSoC4/LCD.c **** 
 513:Generated_Source\PSoC4/LCD.c ****         /* While index is greater than or equal to zero copy number
 514:Generated_Source\PSoC4/LCD.c ****         * from temporary array to number[].
 515:Generated_Source\PSoC4/LCD.c ****         */
 516:Generated_Source\PSoC4/LCD.c ****         while (digIndex != 0u)
 751              		.loc 1 516 0
 752 003a 2B00     		movs	r3, r5
 753 003c 06E0     		b	.L40
 754              	.LVL90:
 755              	.L41:
 517:Generated_Source\PSoC4/LCD.c ****         {
 518:Generated_Source\PSoC4/LCD.c ****             number[numDigits - digIndex] = temp[digIndex];
 756              		.loc 1 518 0
 757 003e F21A     		subs	r2, r6, r3
 758 0040 6946     		mov	r1, sp
 759 0042 C85C     		ldrb	r0, [r1, r3]
 760 0044 02A9     		add	r1, sp, #8
 761 0046 8854     		strb	r0, [r1, r2]
 519:Generated_Source\PSoC4/LCD.c ****             digIndex--;
 762              		.loc 1 519 0
 763 0048 013B     		subs	r3, r3, #1
 764              	.LVL91:
 765 004a DBB2     		uxtb	r3, r3
 766              	.LVL92:
ARM GAS  C:\Users\bryan.lee\AppData\Local\Temp\ccwYxMXs.s 			page 25


 767              	.L40:
 516:Generated_Source\PSoC4/LCD.c ****         {
 768              		.loc 1 516 0
 769 004c 002B     		cmp	r3, #0
 770 004e F6D1     		bne	.L41
 520:Generated_Source\PSoC4/LCD.c ****         }
 521:Generated_Source\PSoC4/LCD.c ****         
 522:Generated_Source\PSoC4/LCD.c ****         /* Copy last digit */
 523:Generated_Source\PSoC4/LCD.c ****         number[numDigits] = temp[0u];
 771              		.loc 1 523 0
 772 0050 6B46     		mov	r3, sp
 773              	.LVL93:
 774 0052 1B78     		ldrb	r3, [r3]
 775 0054 02A8     		add	r0, sp, #8
 776 0056 8355     		strb	r3, [r0, r6]
 524:Generated_Source\PSoC4/LCD.c **** 
 525:Generated_Source\PSoC4/LCD.c ****         /* Null Termination */
 526:Generated_Source\PSoC4/LCD.c ****         number[numDigits + 1u] = (char8) '\0';
 777              		.loc 1 526 0
 778 0058 0135     		adds	r5, r5, #1
 779              	.LVL94:
 780 005a 0023     		movs	r3, #0
 781 005c 4355     		strb	r3, [r0, r5]
 527:Generated_Source\PSoC4/LCD.c **** 
 528:Generated_Source\PSoC4/LCD.c ****         /* Print out number */
 529:Generated_Source\PSoC4/LCD.c ****         LCD_PrintString(&number[0u]);
 782              		.loc 1 529 0
 783 005e FFF7FEFF 		bl	LCD_PrintString
 784              	.LVL95:
 530:Generated_Source\PSoC4/LCD.c ****     }
 785              		.loc 1 530 0
 786 0062 04B0     		add	sp, sp, #16
 787              		@ sp needed
 788              	.LVL96:
 789 0064 70BD     		pop	{r4, r5, r6, pc}
 790              		.cfi_endproc
 791              	.LFE16:
 792              		.size	LCD_PrintNumber, .-LCD_PrintNumber
 793              		.global	LCD_initVar
 794              		.global	LCD_enableState
 795 0066 C046     		.section	.rodata
 796              		.align	2
 797              		.set	.LANCHOR1,. + 0
 798              		.type	LCD_hex.4940, %object
 799              		.size	LCD_hex.4940, 16
 800              	LCD_hex.4940:
 801 0000 30313233 		.ascii	"0123456789ABCDEF"
 801      34353637 
 801      38394142 
 801      43444546 
 802              		.bss
 803              		.set	.LANCHOR0,. + 0
 804              		.type	LCD_enableState, %object
 805              		.size	LCD_enableState, 1
 806              	LCD_enableState:
 807 0000 00       		.space	1
 808              		.type	LCD_initVar, %object
ARM GAS  C:\Users\bryan.lee\AppData\Local\Temp\ccwYxMXs.s 			page 26


 809              		.size	LCD_initVar, 1
 810              	LCD_initVar:
 811 0001 00       		.space	1
 812              		.text
 813              	.Letext0:
 814              		.file 2 "Generated_Source\\PSoC4\\cytypes.h"
 815              		.file 3 "Generated_Source\\PSoC4\\CyLib.h"