ARM GAS  C:\Users\bryan.lee\AppData\Local\Temp\ccxlvOfa.s 			page 1


   1              		.syntax unified
   2              		.cpu cortex-m0
   3              		.fpu softvfp
   4              		.eabi_attribute 20, 1
   5              		.eabi_attribute 21, 1
   6              		.eabi_attribute 23, 3
   7              		.eabi_attribute 24, 1
   8              		.eabi_attribute 25, 1
   9              		.eabi_attribute 26, 1
  10              		.eabi_attribute 30, 1
  11              		.eabi_attribute 34, 0
  12              		.eabi_attribute 18, 4
  13              		.thumb
  14              		.syntax unified
  15              		.file	"main.c"
  16              		.text
  17              	.Ltext0:
  18              		.cfi_sections	.debug_frame
  19              		.section	.text.initialize,"ax",%progbits
  20              		.align	2
  21              		.global	initialize
  22              		.code	16
  23              		.thumb_func
  24              		.type	initialize, %function
  25              	initialize:
  26              	.LFB36:
  27              		.file 1 "main.c"
   1:main.c        **** /* ========================================
   2:main.c        ****  *
   3:main.c        ****  * Copyright YOUR COMPANY, THE YEAR
   4:main.c        ****  * All Rights Reserved
   5:main.c        ****  * UNPUBLISHED, LICENSED SOFTWARE.
   6:main.c        ****  *
   7:main.c        ****  * CONFIDENTIAL AND PROPRIETARY INFORMATION
   8:main.c        ****  * WHICH IS THE PROPERTY OF your company.
   9:main.c        ****  *
  10:main.c        ****  * ========================================
  11:main.c        **** */
  12:main.c        **** #include "project.h"
  13:main.c        **** #include <cyapicallbacks.h>
  14:main.c        **** 
  15:main.c        **** /*Functions*/
  16:main.c        **** void initialize();
  17:main.c        **** void test();
  18:main.c        **** void rapid_switch();
  19:main.c        **** void smartbell_test();
  20:main.c        **** void adc_buttons();
  21:main.c        **** void LCD_update();
  22:main.c        **** 
  23:main.c        **** /*Global Variables*/
  24:main.c        **** int x = 0; //cycle count of rapid switch test
  25:main.c        **** int y = 0; //cycle count of full test
  26:main.c        **** int z_on = 1000; //time on for smartbell_test()
  27:main.c        **** int z_off = 1000; //time off for smartbell_test()
  28:main.c        **** 
  29:main.c        **** 
  30:main.c        **** 
ARM GAS  C:\Users\bryan.lee\AppData\Local\Temp\ccxlvOfa.s 			page 2


  31:main.c        **** 
  32:main.c        **** 
  33:main.c        **** 
  34:main.c        **** 
  35:main.c        **** 
  36:main.c        **** 
  37:main.c        **** int main(void)
  38:main.c        **** {
  39:main.c        ****     CyGlobalIntEnable; /* Enable global interrupts. */
  40:main.c        ****     initialize();
  41:main.c        ****     /* Place your initialization/startup code here (e.g. MyInst_Start()) */
  42:main.c        ****     
  43:main.c        ****     for(;;)
  44:main.c        ****     {
  45:main.c        ****         adc_buttons();
  46:main.c        ****         LCD_update();
  47:main.c        ****         
  48:main.c        ****        
  49:main.c        ****         /*if (x < 7) //load test loop
  50:main.c        ****         {
  51:main.c        ****             rapid_switch();
  52:main.c        ****             x++;
  53:main.c        ****         }*/
  54:main.c        ****         //test();
  55:main.c        **** 
  56:main.c        ****         //smartbell_test();
  57:main.c        ****         y++;
  58:main.c        ****         
  59:main.c        ****         /* Place your application code here. */
  60:main.c        ****     }
  61:main.c        **** }
  62:main.c        **** 
  63:main.c        **** /* [] END OF FILE */
  64:main.c        **** 
  65:main.c        **** 
  66:main.c        **** void initialize()
  67:main.c        **** {
  28              		.loc 1 67 0
  29              		.cfi_startproc
  30              		@ args = 0, pretend = 0, frame = 0
  31              		@ frame_needed = 0, uses_anonymous_args = 0
  32 0000 10B5     		push	{r4, lr}
  33              		.cfi_def_cfa_offset 8
  34              		.cfi_offset 4, -8
  35              		.cfi_offset 14, -4
  68:main.c        ****     ADC_SAR_Seq_Button_Start();
  36              		.loc 1 68 0
  37 0002 FFF7FEFF 		bl	ADC_SAR_Seq_Button_Start
  38              	.LVL0:
  69:main.c        ****     ADC_SAR_Seq_Button_StartConvert(); 
  39              		.loc 1 69 0
  40 0006 FFF7FEFF 		bl	ADC_SAR_Seq_Button_StartConvert
  41              	.LVL1:
  70:main.c        ****     pinBacklight_Write(1);
  42              		.loc 1 70 0
  43 000a 0120     		movs	r0, #1
  44 000c FFF7FEFF 		bl	pinBacklight_Write
ARM GAS  C:\Users\bryan.lee\AppData\Local\Temp\ccxlvOfa.s 			page 3


  45              	.LVL2:
  71:main.c        ****     LCD_Start();
  46              		.loc 1 71 0
  47 0010 FFF7FEFF 		bl	LCD_Start
  48              	.LVL3:
  72:main.c        ****     LCD_ClearDisplay();
  49              		.loc 1 72 0
  50 0014 0120     		movs	r0, #1
  51 0016 FFF7FEFF 		bl	LCD_WriteControl
  52              	.LVL4:
  73:main.c        ****     LCD_Position(0,1);
  53              		.loc 1 73 0
  54 001a 0121     		movs	r1, #1
  55 001c 0020     		movs	r0, #0
  56 001e FFF7FEFF 		bl	LCD_Position
  57              	.LVL5:
  74:main.c        ****     LCD_PrintString("AC Power Cycle");
  58              		.loc 1 74 0
  59 0022 1948     		ldr	r0, .L2
  60 0024 FFF7FEFF 		bl	LCD_PrintString
  61              	.LVL6:
  75:main.c        ****     LCD_Position(1,5);
  62              		.loc 1 75 0
  63 0028 0521     		movs	r1, #5
  64 002a 0120     		movs	r0, #1
  65 002c FFF7FEFF 		bl	LCD_Position
  66              	.LVL7:
  76:main.c        ****     LCD_PrintString("Test");
  67              		.loc 1 76 0
  68 0030 1648     		ldr	r0, .L2+4
  69 0032 FFF7FEFF 		bl	LCD_PrintString
  70              	.LVL8:
  77:main.c        ****     CyDelay(1000);
  71              		.loc 1 77 0
  72 0036 FA20     		movs	r0, #250
  73 0038 8000     		lsls	r0, r0, #2
  74 003a FFF7FEFF 		bl	CyDelay
  75              	.LVL9:
  78:main.c        ****     pinSwitchIndicator_Write(0);
  76              		.loc 1 78 0
  77 003e 0020     		movs	r0, #0
  78 0040 FFF7FEFF 		bl	pinSwitchIndicator_Write
  79              	.LVL10:
  79:main.c        ****     pinBacklight_Write(0);
  80              		.loc 1 79 0
  81 0044 0020     		movs	r0, #0
  82 0046 FFF7FEFF 		bl	pinBacklight_Write
  83              	.LVL11:
  80:main.c        ****     CyDelay(500);
  84              		.loc 1 80 0
  85 004a FA24     		movs	r4, #250
  86 004c 6400     		lsls	r4, r4, #1
  87 004e 2000     		movs	r0, r4
  88 0050 FFF7FEFF 		bl	CyDelay
  89              	.LVL12:
  81:main.c        ****     pinSwitchIndicator_Write(1);
  90              		.loc 1 81 0
ARM GAS  C:\Users\bryan.lee\AppData\Local\Temp\ccxlvOfa.s 			page 4


  91 0054 0120     		movs	r0, #1
  92 0056 FFF7FEFF 		bl	pinSwitchIndicator_Write
  93              	.LVL13:
  82:main.c        ****     pinBacklight_Write(1);
  94              		.loc 1 82 0
  95 005a 0120     		movs	r0, #1
  96 005c FFF7FEFF 		bl	pinBacklight_Write
  97              	.LVL14:
  83:main.c        ****     CyDelay(500);
  98              		.loc 1 83 0
  99 0060 2000     		movs	r0, r4
 100 0062 FFF7FEFF 		bl	CyDelay
 101              	.LVL15:
  84:main.c        ****     LCD_ClearDisplay();
 102              		.loc 1 84 0
 103 0066 0120     		movs	r0, #1
 104 0068 FFF7FEFF 		bl	LCD_WriteControl
 105              	.LVL16:
  85:main.c        ****     LCD_Position(0,0);
 106              		.loc 1 85 0
 107 006c 0021     		movs	r1, #0
 108 006e 0020     		movs	r0, #0
 109 0070 FFF7FEFF 		bl	LCD_Position
 110              	.LVL17:
  86:main.c        ****     LCD_PrintString("Cycle #: ");
 111              		.loc 1 86 0
 112 0074 0648     		ldr	r0, .L2+8
 113 0076 FFF7FEFF 		bl	LCD_PrintString
 114              	.LVL18:
  87:main.c        ****     pinRelay_Write(1);
 115              		.loc 1 87 0
 116 007a 0120     		movs	r0, #1
 117 007c FFF7FEFF 		bl	pinRelay_Write
 118              	.LVL19:
  88:main.c        ****     pinSwitchIndicator_Write(0);
 119              		.loc 1 88 0
 120 0080 0020     		movs	r0, #0
 121 0082 FFF7FEFF 		bl	pinSwitchIndicator_Write
 122              	.LVL20:
  89:main.c        **** }
 123              		.loc 1 89 0
 124              		@ sp needed
 125 0086 10BD     		pop	{r4, pc}
 126              	.L3:
 127              		.align	2
 128              	.L2:
 129 0088 00000000 		.word	.LC0
 130 008c 10000000 		.word	.LC2
 131 0090 18000000 		.word	.LC4
 132              		.cfi_endproc
 133              	.LFE36:
 134              		.size	initialize, .-initialize
 135              		.section	.text.rapid_switch,"ax",%progbits
 136              		.align	2
 137              		.global	rapid_switch
 138              		.code	16
 139              		.thumb_func
ARM GAS  C:\Users\bryan.lee\AppData\Local\Temp\ccxlvOfa.s 			page 5


 140              		.type	rapid_switch, %function
 141              	rapid_switch:
 142              	.LFB37:
  90:main.c        **** 
  91:main.c        **** void rapid_switch()
  92:main.c        **** {
 143              		.loc 1 92 0
 144              		.cfi_startproc
 145              		@ args = 0, pretend = 0, frame = 0
 146              		@ frame_needed = 0, uses_anonymous_args = 0
 147 0000 10B5     		push	{r4, lr}
 148              		.cfi_def_cfa_offset 8
 149              		.cfi_offset 4, -8
 150              		.cfi_offset 14, -4
  93:main.c        ****     pinRelay_Write(0);                  //1/5 quick switch off 1 second/on 5 seconds
 151              		.loc 1 93 0
 152 0002 0020     		movs	r0, #0
 153 0004 FFF7FEFF 		bl	pinRelay_Write
 154              	.LVL21:
  94:main.c        ****     pinSwitchIndicator_Write(1);
 155              		.loc 1 94 0
 156 0008 0120     		movs	r0, #1
 157 000a FFF7FEFF 		bl	pinSwitchIndicator_Write
 158              	.LVL22:
  95:main.c        ****     CyDelay(1000);
 159              		.loc 1 95 0
 160 000e FA20     		movs	r0, #250
 161 0010 8000     		lsls	r0, r0, #2
 162 0012 FFF7FEFF 		bl	CyDelay
 163              	.LVL23:
  96:main.c        ****     pinRelay_Write(1);
 164              		.loc 1 96 0
 165 0016 0120     		movs	r0, #1
 166 0018 FFF7FEFF 		bl	pinRelay_Write
 167              	.LVL24:
  97:main.c        ****     pinSwitchIndicator_Write(0);
 168              		.loc 1 97 0
 169 001c 0020     		movs	r0, #0
 170 001e FFF7FEFF 		bl	pinSwitchIndicator_Write
 171              	.LVL25:
  98:main.c        ****     CyDelay(5000);
 172              		.loc 1 98 0
 173 0022 0248     		ldr	r0, .L5
 174 0024 FFF7FEFF 		bl	CyDelay
 175              	.LVL26:
  99:main.c        **** }
 176              		.loc 1 99 0
 177              		@ sp needed
 178 0028 10BD     		pop	{r4, pc}
 179              	.L6:
 180 002a C046     		.align	2
 181              	.L5:
 182 002c 88130000 		.word	5000
 183              		.cfi_endproc
 184              	.LFE37:
 185              		.size	rapid_switch, .-rapid_switch
 186              		.section	.text.test,"ax",%progbits
ARM GAS  C:\Users\bryan.lee\AppData\Local\Temp\ccxlvOfa.s 			page 6


 187              		.align	2
 188              		.global	test
 189              		.code	16
 190              		.thumb_func
 191              		.type	test, %function
 192              	test:
 193              	.LFB38:
 100:main.c        **** 
 101:main.c        **** void test()
 102:main.c        **** {
 194              		.loc 1 102 0
 195              		.cfi_startproc
 196              		@ args = 0, pretend = 0, frame = 0
 197              		@ frame_needed = 0, uses_anonymous_args = 0
 198 0000 10B5     		push	{r4, lr}
 199              		.cfi_def_cfa_offset 8
 200              		.cfi_offset 4, -8
 201              		.cfi_offset 14, -4
 103:main.c        ****     pinRelay_Write(1);                  //1/60 load test off 5 seconds/on 5 minutes
 202              		.loc 1 103 0
 203 0002 0120     		movs	r0, #1
 204 0004 FFF7FEFF 		bl	pinRelay_Write
 205              	.LVL27:
 104:main.c        ****     pinSwitchIndicator_Write(0);
 206              		.loc 1 104 0
 207 0008 0020     		movs	r0, #0
 208 000a FFF7FEFF 		bl	pinSwitchIndicator_Write
 209              	.LVL28:
 105:main.c        ****     CyDelay(5000);
 210              		.loc 1 105 0
 211 000e 0648     		ldr	r0, .L8
 212 0010 FFF7FEFF 		bl	CyDelay
 213              	.LVL29:
 106:main.c        ****     pinRelay_Write(0);
 214              		.loc 1 106 0
 215 0014 0020     		movs	r0, #0
 216 0016 FFF7FEFF 		bl	pinRelay_Write
 217              	.LVL30:
 107:main.c        ****     pinSwitchIndicator_Write(1);
 218              		.loc 1 107 0
 219 001a 0120     		movs	r0, #1
 220 001c FFF7FEFF 		bl	pinSwitchIndicator_Write
 221              	.LVL31:
 108:main.c        ****     CyDelay(10);
 222              		.loc 1 108 0
 223 0020 0A20     		movs	r0, #10
 224 0022 FFF7FEFF 		bl	CyDelay
 225              	.LVL32:
 109:main.c        **** }
 226              		.loc 1 109 0
 227              		@ sp needed
 228 0026 10BD     		pop	{r4, pc}
 229              	.L9:
 230              		.align	2
 231              	.L8:
 232 0028 88130000 		.word	5000
 233              		.cfi_endproc
ARM GAS  C:\Users\bryan.lee\AppData\Local\Temp\ccxlvOfa.s 			page 7


 234              	.LFE38:
 235              		.size	test, .-test
 236              		.section	.text.smartbell_test,"ax",%progbits
 237              		.align	2
 238              		.global	smartbell_test
 239              		.code	16
 240              		.thumb_func
 241              		.type	smartbell_test, %function
 242              	smartbell_test:
 243              	.LFB39:
 110:main.c        **** 
 111:main.c        **** void smartbell_test()
 112:main.c        **** {
 244              		.loc 1 112 0
 245              		.cfi_startproc
 246              		@ args = 0, pretend = 0, frame = 0
 247              		@ frame_needed = 0, uses_anonymous_args = 0
 248 0000 10B5     		push	{r4, lr}
 249              		.cfi_def_cfa_offset 8
 250              		.cfi_offset 4, -8
 251              		.cfi_offset 14, -4
 113:main.c        ****     pinRelay_Write(0);                  // 1/1 5 seconds on / 15 seconds off
 252              		.loc 1 113 0
 253 0002 0020     		movs	r0, #0
 254 0004 FFF7FEFF 		bl	pinRelay_Write
 255              	.LVL33:
 114:main.c        ****     pinSwitchIndicator_Write(1);
 256              		.loc 1 114 0
 257 0008 0120     		movs	r0, #1
 258 000a FFF7FEFF 		bl	pinSwitchIndicator_Write
 259              	.LVL34:
 115:main.c        ****     CyDelay(z_off);
 260              		.loc 1 115 0
 261 000e 074C     		ldr	r4, .L11
 262 0010 2068     		ldr	r0, [r4]
 263 0012 FFF7FEFF 		bl	CyDelay
 264              	.LVL35:
 116:main.c        ****     pinRelay_Write(1);
 265              		.loc 1 116 0
 266 0016 0120     		movs	r0, #1
 267 0018 FFF7FEFF 		bl	pinRelay_Write
 268              	.LVL36:
 117:main.c        ****     pinSwitchIndicator_Write(0);
 269              		.loc 1 117 0
 270 001c 0020     		movs	r0, #0
 271 001e FFF7FEFF 		bl	pinSwitchIndicator_Write
 272              	.LVL37:
 118:main.c        ****     CyDelay(z_on);
 273              		.loc 1 118 0
 274 0022 6068     		ldr	r0, [r4, #4]
 275 0024 FFF7FEFF 		bl	CyDelay
 276              	.LVL38:
 119:main.c        **** }
 277              		.loc 1 119 0
 278              		@ sp needed
 279 0028 10BD     		pop	{r4, pc}
 280              	.L12:
ARM GAS  C:\Users\bryan.lee\AppData\Local\Temp\ccxlvOfa.s 			page 8


 281 002a C046     		.align	2
 282              	.L11:
 283 002c 00000000 		.word	.LANCHOR0
 284              		.cfi_endproc
 285              	.LFE39:
 286              		.size	smartbell_test, .-smartbell_test
 287              		.section	.text.adc_buttons,"ax",%progbits
 288              		.align	2
 289              		.global	adc_buttons
 290              		.code	16
 291              		.thumb_func
 292              		.type	adc_buttons, %function
 293              	adc_buttons:
 294              	.LFB40:
 120:main.c        **** 
 121:main.c        **** void adc_buttons()
 122:main.c        **** {
 295              		.loc 1 122 0
 296              		.cfi_startproc
 297              		@ args = 0, pretend = 0, frame = 0
 298              		@ frame_needed = 0, uses_anonymous_args = 0
 299 0000 10B5     		push	{r4, lr}
 300              		.cfi_def_cfa_offset 8
 301              		.cfi_offset 4, -8
 302              		.cfi_offset 14, -4
 123:main.c        ****     uint16 button = ADC_SAR_Seq_Button_GetResult16(0);
 303              		.loc 1 123 0
 304 0002 0020     		movs	r0, #0
 305 0004 FFF7FEFF 		bl	ADC_SAR_Seq_Button_GetResult16
 306              	.LVL39:
 124:main.c        ****     
 125:main.c        ****         switch (button)
 307              		.loc 1 125 0
 308 0008 2228     		cmp	r0, #34
 309 000a 12D0     		beq	.L15
 310 000c 04DC     		bgt	.L16
 311 000e 0028     		cmp	r0, #0
 312 0010 29D0     		beq	.L17
 313 0012 0D28     		cmp	r0, #13
 314 0014 05D0     		beq	.L18
 315 0016 45E0     		b	.L13
 316              	.L16:
 317 0018 3628     		cmp	r0, #54
 318 001a 17D0     		beq	.L19
 319 001c 5728     		cmp	r0, #87
 320 001e 2AD0     		beq	.L20
 321 0020 40E0     		b	.L13
 322              	.L18:
 126:main.c        ****         {
 127:main.c        ****             case U: //on time up
 128:main.c        ****             {
 129:main.c        ****                 //LCD_Position(1,0);
 130:main.c        ****                 //LCD_PrintString("UP");
 131:main.c        ****                 z_on = z_on + 1000;
 323              		.loc 1 131 0
 324 0022 214A     		ldr	r2, .L21
 325 0024 5368     		ldr	r3, [r2, #4]
ARM GAS  C:\Users\bryan.lee\AppData\Local\Temp\ccxlvOfa.s 			page 9


 326 0026 FA21     		movs	r1, #250
 327 0028 8900     		lsls	r1, r1, #2
 328 002a 8C46     		mov	ip, r1
 329 002c 6344     		add	r3, r3, ip
 330 002e 5360     		str	r3, [r2, #4]
 132:main.c        ****                 break;
 331              		.loc 1 132 0
 332 0030 38E0     		b	.L13
 333              	.L15:
 133:main.c        ****             }
 134:main.c        ****             case D: //on time down
 135:main.c        ****             {
 136:main.c        ****                 //LCD_Position(1,0);
 137:main.c        ****                 //LCD_PrintString("DOWN");
 138:main.c        ****                 z_on = z_on - 1000;
 334              		.loc 1 138 0
 335 0032 1D4A     		ldr	r2, .L21
 336 0034 5368     		ldr	r3, [r2, #4]
 337 0036 1D49     		ldr	r1, .L21+4
 338 0038 8C46     		mov	ip, r1
 339 003a 6344     		add	r3, r3, ip
 340 003c 5360     		str	r3, [r2, #4]
 139:main.c        ****                 if (z_on <= 1000)
 341              		.loc 1 139 0
 342 003e FA22     		movs	r2, #250
 343 0040 9200     		lsls	r2, r2, #2
 344 0042 9342     		cmp	r3, r2
 345 0044 2EDC     		bgt	.L13
 140:main.c        ****                 {
 141:main.c        ****                     z_on = 1000;
 346              		.loc 1 141 0
 347 0046 184B     		ldr	r3, .L21
 348 0048 5A60     		str	r2, [r3, #4]
 349 004a 2BE0     		b	.L13
 350              	.L19:
 142:main.c        ****                 }
 143:main.c        ****                 break;
 144:main.c        ****             }
 145:main.c        ****             case L: //off time down
 146:main.c        ****             {
 147:main.c        ****                 //LCD_Position(1,0);
 148:main.c        ****                 //LCD_PrintString("LEFT");
 149:main.c        ****                 z_off = z_off - 1000;
 351              		.loc 1 149 0
 352 004c 164A     		ldr	r2, .L21
 353 004e 1368     		ldr	r3, [r2]
 354 0050 1649     		ldr	r1, .L21+4
 355 0052 8C46     		mov	ip, r1
 356 0054 6344     		add	r3, r3, ip
 357 0056 1360     		str	r3, [r2]
 150:main.c        ****                 if (z_off <= 1000)
 358              		.loc 1 150 0
 359 0058 FA22     		movs	r2, #250
 360 005a 9200     		lsls	r2, r2, #2
 361 005c 9342     		cmp	r3, r2
 362 005e 21DC     		bgt	.L13
 151:main.c        ****                 {
ARM GAS  C:\Users\bryan.lee\AppData\Local\Temp\ccxlvOfa.s 			page 10


 152:main.c        ****                     z_off = 1000;
 363              		.loc 1 152 0
 364 0060 114B     		ldr	r3, .L21
 365 0062 1A60     		str	r2, [r3]
 366 0064 1EE0     		b	.L13
 367              	.L17:
 153:main.c        ****                 }
 154:main.c        ****                 break;
 155:main.c        ****             }
 156:main.c        ****             case R: //off time up
 157:main.c        ****             {
 158:main.c        ****                 //LCD_Position(1,0);
 159:main.c        ****                 //LCD_PrintString("RIGHT");
 160:main.c        ****                 z_off = z_off + 1000;
 368              		.loc 1 160 0
 369 0066 104A     		ldr	r2, .L21
 370 0068 1368     		ldr	r3, [r2]
 371 006a FA21     		movs	r1, #250
 372 006c 8900     		lsls	r1, r1, #2
 373 006e 8C46     		mov	ip, r1
 374 0070 6344     		add	r3, r3, ip
 375 0072 1360     		str	r3, [r2]
 161:main.c        ****                 break;
 376              		.loc 1 161 0
 377 0074 16E0     		b	.L13
 378              	.L20:
 162:main.c        ****             }
 163:main.c        ****             case S: //default on/off 1/3
 164:main.c        ****             {
 165:main.c        ****                 //LCD_Position(1,0);
 166:main.c        ****                 //LCD_PrintString("SELECT");
 167:main.c        ****                 pinRelay_Write(0);
 379              		.loc 1 167 0
 380 0076 0020     		movs	r0, #0
 381              	.LVL40:
 382 0078 FFF7FEFF 		bl	pinRelay_Write
 383              	.LVL41:
 168:main.c        ****                 pinSwitchIndicator_Write(1);
 384              		.loc 1 168 0
 385 007c 0120     		movs	r0, #1
 386 007e FFF7FEFF 		bl	pinSwitchIndicator_Write
 387              	.LVL42:
 169:main.c        ****                 CyDelay(1500);
 388              		.loc 1 169 0
 389 0082 0B48     		ldr	r0, .L21+8
 390 0084 FFF7FEFF 		bl	CyDelay
 391              	.LVL43:
 170:main.c        ****                 pinRelay_Write(1);
 392              		.loc 1 170 0
 393 0088 0120     		movs	r0, #1
 394 008a FFF7FEFF 		bl	pinRelay_Write
 395              	.LVL44:
 171:main.c        ****                 pinSwitchIndicator_Write(0);
 396              		.loc 1 171 0
 397 008e 0020     		movs	r0, #0
 398 0090 FFF7FEFF 		bl	pinSwitchIndicator_Write
 399              	.LVL45:
ARM GAS  C:\Users\bryan.lee\AppData\Local\Temp\ccxlvOfa.s 			page 11


 172:main.c        ****                 CyDelay(1000);
 400              		.loc 1 172 0
 401 0094 FA24     		movs	r4, #250
 402 0096 A400     		lsls	r4, r4, #2
 403 0098 2000     		movs	r0, r4
 404 009a FFF7FEFF 		bl	CyDelay
 405              	.LVL46:
 173:main.c        ****                 z_on = 1000;
 406              		.loc 1 173 0
 407 009e 024B     		ldr	r3, .L21
 408 00a0 5C60     		str	r4, [r3, #4]
 174:main.c        ****                 z_off = 1000;
 409              		.loc 1 174 0
 410 00a2 1C60     		str	r4, [r3]
 411              	.L13:
 175:main.c        ****                 break;
 176:main.c        ****             }
 177:main.c        ****             default:
 178:main.c        ****             {
 179:main.c        ****                 //LCD_Position(1,0);
 180:main.c        ****                 //LCD_PrintString("       ");
 181:main.c        ****                 break;
 182:main.c        ****                
 183:main.c        ****             }
 184:main.c        ****         }
 185:main.c        ****         //Uncomment to debug button ADC register values.
 186:main.c        ****         /*LCD_Position(1,0);
 187:main.c        ****         LCD_PrintString("Button Data:");*/
 188:main.c        ****         //LCD_PrintInt16(ADC_SAR_Seq_Button_GetResult16(0));
 189:main.c        **** }
 412              		.loc 1 189 0
 413              		@ sp needed
 414 00a4 10BD     		pop	{r4, pc}
 415              	.L22:
 416 00a6 C046     		.align	2
 417              	.L21:
 418 00a8 00000000 		.word	.LANCHOR0
 419 00ac 18FCFFFF 		.word	-1000
 420 00b0 DC050000 		.word	1500
 421              		.cfi_endproc
 422              	.LFE40:
 423              		.size	adc_buttons, .-adc_buttons
 424              		.section	.text.LCD_update,"ax",%progbits
 425              		.align	2
 426              		.global	LCD_update
 427              		.code	16
 428              		.thumb_func
 429              		.type	LCD_update, %function
 430              	LCD_update:
 431              	.LFB41:
 190:main.c        **** void LCD_update()
 191:main.c        **** {
 432              		.loc 1 191 0
 433              		.cfi_startproc
 434              		@ args = 0, pretend = 0, frame = 0
 435              		@ frame_needed = 0, uses_anonymous_args = 0
 436 0000 10B5     		push	{r4, lr}
ARM GAS  C:\Users\bryan.lee\AppData\Local\Temp\ccxlvOfa.s 			page 12


 437              		.cfi_def_cfa_offset 8
 438              		.cfi_offset 4, -8
 439              		.cfi_offset 14, -4
 192:main.c        ****     LCD_Position(0,9);
 440              		.loc 1 192 0
 441 0002 0921     		movs	r1, #9
 442 0004 0020     		movs	r0, #0
 443 0006 FFF7FEFF 		bl	LCD_Position
 444              	.LVL47:
 193:main.c        ****     LCD_PrintNumber(y+1);
 445              		.loc 1 193 0
 446 000a 034B     		ldr	r3, .L24
 447 000c 1868     		ldr	r0, [r3]
 448 000e 0130     		adds	r0, r0, #1
 449 0010 80B2     		uxth	r0, r0
 450 0012 FFF7FEFF 		bl	LCD_PrintNumber
 451              	.LVL48:
 194:main.c        ****     //LCD_Position(1,0);
 195:main.c        ****     //LCD_PrintString("OFF:");
 196:main.c        ****     //LCD_PrintNumber(z_off/1000);
 197:main.c        ****     //LCD_Position(1,8);
 198:main.c        ****     //LCD_PrintString("ON:");
 199:main.c        ****     //LCD_PrintNumber(z_on/1000);
 200:main.c        **** }...
 452              		.loc 1 200 0
 453              		@ sp needed
 454 0016 10BD     		pop	{r4, pc}
 455              	.L25:
 456              		.align	2
 457              	.L24:
 458 0018 00000000 		.word	.LANCHOR1
 459              		.cfi_endproc
 460              	.LFE41:
 461              		.size	LCD_update, .-LCD_update
 462              		.section	.text.main,"ax",%progbits
 463              		.align	2
 464              		.global	main
 465              		.code	16
 466              		.thumb_func
 467              		.type	main, %function
 468              	main:
 469              	.LFB35:
  38:main.c        **** {
 470              		.loc 1 38 0
 471              		.cfi_startproc
 472              		@ Volatile: function does not return.
 473              		@ args = 0, pretend = 0, frame = 0
 474              		@ frame_needed = 0, uses_anonymous_args = 0
 475 0000 10B5     		push	{r4, lr}
 476              		.cfi_def_cfa_offset 8
 477              		.cfi_offset 4, -8
 478              		.cfi_offset 14, -4
  39:main.c        ****     CyGlobalIntEnable; /* Enable global interrupts. */
 479              		.loc 1 39 0
 480              		.syntax divided
 481              	@ 39 "main.c" 1
 482 0002 62B6     		CPSIE   i
ARM GAS  C:\Users\bryan.lee\AppData\Local\Temp\ccxlvOfa.s 			page 13


 483              	@ 0 "" 2
  40:main.c        ****     initialize();
 484              		.loc 1 40 0
 485              		.thumb
 486              		.syntax unified
 487 0004 FFF7FEFF 		bl	initialize
 488              	.LVL49:
 489              	.L27:
  45:main.c        ****         adc_buttons();
 490              		.loc 1 45 0 discriminator 1
 491 0008 FFF7FEFF 		bl	adc_buttons
 492              	.LVL50:
  46:main.c        ****         LCD_update();
 493              		.loc 1 46 0 discriminator 1
 494 000c FFF7FEFF 		bl	LCD_update
 495              	.LVL51:
  57:main.c        ****         y++;
 496              		.loc 1 57 0 discriminator 1
 497 0010 024A     		ldr	r2, .L28
 498 0012 1368     		ldr	r3, [r2]
 499 0014 0133     		adds	r3, r3, #1
 500 0016 1360     		str	r3, [r2]
 501 0018 F6E7     		b	.L27
 502              	.L29:
 503 001a C046     		.align	2
 504              	.L28:
 505 001c 00000000 		.word	.LANCHOR1
 506              		.cfi_endproc
 507              	.LFE35:
 508              		.size	main, .-main
 509              		.global	z_off
 510              		.global	z_on
 511              		.global	y
 512              		.global	x
 513              		.data
 514              		.align	2
 515              		.set	.LANCHOR0,. + 0
 516              		.type	z_off, %object
 517              		.size	z_off, 4
 518              	z_off:
 519 0000 E8030000 		.word	1000
 520              		.type	z_on, %object
 521              		.size	z_on, 4
 522              	z_on:
 523 0004 E8030000 		.word	1000
 524              		.section	.rodata.str1.4,"aMS",%progbits,1
 525              		.align	2
 526              	.LC0:
 527 0000 41432050 		.ascii	"AC Power Cycle\000"
 527      6F776572 
 527      20437963 
 527      6C6500
 528 000f 00       		.space	1
 529              	.LC2:
 530 0010 54657374 		.ascii	"Test\000"
 530      00
 531 0015 000000   		.space	3
ARM GAS  C:\Users\bryan.lee\AppData\Local\Temp\ccxlvOfa.s 			page 14


 532              	.LC4:
 533 0018 4379636C 		.ascii	"Cycle #: \000"
 533      6520233A 
 533      2000
 534              		.bss
 535              		.align	2
 536              		.set	.LANCHOR1,. + 0
 537              		.type	y, %object
 538              		.size	y, 4
 539              	y:
 540 0000 00000000 		.space	4
 541              		.type	x, %object
 542              		.size	x, 4
 543              	x:
 544 0004 00000000 		.space	4
 545              		.text
 546              	.Letext0:
 547              		.file 2 "Generated_Source\\PSoC4/ADC_SAR_Seq_Button.h"
 548              		.file 3 "Generated_Source\\PSoC4/pinBacklight.h"
 549              		.file 4 "Generated_Source\\PSoC4/LCD.h"
 550              		.file 5 "Generated_Source\\PSoC4/CyLib.h"
 551              		.file 6 "Generated_Source\\PSoC4/pinSwitchIndicator.h"
 552              		.file 7 "Generated_Source\\PSoC4/pinRelay.h"
 553              		.file 8 "Generated_Source\\PSoC4/cytypes.h"