ARM GAS  C:\Users\bryan.lee\AppData\Local\Temp\cc6wSQv1.s 			page 1


   1              		.syntax unified
   2              		.cpu cortex-m0
   3              		.fpu softvfp
   4              		.eabi_attribute 20, 1
   5              		.eabi_attribute 21, 1
   6              		.eabi_attribute 23, 3
   7              		.eabi_attribute 24, 1
   8              		.eabi_attribute 25, 1
   9              		.eabi_attribute 26, 1
  10              		.eabi_attribute 30, 1
  11              		.eabi_attribute 34, 0
  12              		.eabi_attribute 18, 4
  13              		.thumb
  14              		.syntax unified
  15              		.file	"CapSense_1_Filter.c"
  16              		.text
  17              	.Ltext0:
  18              		.cfi_sections	.debug_frame
  19              		.section	.text.CapSense_1_FtInitializeBaselineChannel,"ax",%progbits
  20              		.align	2
  21              		.global	CapSense_1_FtInitializeBaselineChannel
  22              		.code	16
  23              		.thumb_func
  24              		.type	CapSense_1_FtInitializeBaselineChannel, %function
  25              	CapSense_1_FtInitializeBaselineChannel:
  26              	.LFB11:
  27              		.file 1 "Generated_Source\\PSoC4\\CapSense_1_Filter.c"
   1:Generated_Source\PSoC4/CapSense_1_Filter.c **** /***************************************************************************//**
   2:Generated_Source\PSoC4/CapSense_1_Filter.c **** * \file CapSense_1_Filter.c
   3:Generated_Source\PSoC4/CapSense_1_Filter.c **** * \version 5.0
   4:Generated_Source\PSoC4/CapSense_1_Filter.c **** *
   5:Generated_Source\PSoC4/CapSense_1_Filter.c **** * \brief
   6:Generated_Source\PSoC4/CapSense_1_Filter.c **** *   This file contains the implementation source code to implement all
   7:Generated_Source\PSoC4/CapSense_1_Filter.c **** *   firmware filters.
   8:Generated_Source\PSoC4/CapSense_1_Filter.c **** *
   9:Generated_Source\PSoC4/CapSense_1_Filter.c **** * \see CapSense_1 v5.0 Datasheet
  10:Generated_Source\PSoC4/CapSense_1_Filter.c **** *
  11:Generated_Source\PSoC4/CapSense_1_Filter.c **** *//*****************************************************************************
  12:Generated_Source\PSoC4/CapSense_1_Filter.c **** * Copyright (2016-2017), Cypress Semiconductor Corporation.
  13:Generated_Source\PSoC4/CapSense_1_Filter.c **** ********************************************************************************
  14:Generated_Source\PSoC4/CapSense_1_Filter.c **** * This software is owned by Cypress Semiconductor Corporation (Cypress) and is
  15:Generated_Source\PSoC4/CapSense_1_Filter.c **** * protected by and subject to worldwide patent protection (United States and
  16:Generated_Source\PSoC4/CapSense_1_Filter.c **** * foreign), United States copyright laws and international treaty provisions.
  17:Generated_Source\PSoC4/CapSense_1_Filter.c **** * Cypress hereby grants to licensee a personal, non-exclusive, non-transferable
  18:Generated_Source\PSoC4/CapSense_1_Filter.c **** * license to copy, use, modify, create derivative works of, and compile the
  19:Generated_Source\PSoC4/CapSense_1_Filter.c **** * Cypress Source Code and derivative works for the sole purpose of creating
  20:Generated_Source\PSoC4/CapSense_1_Filter.c **** * custom software in support of licensee product to be used only in conjunction
  21:Generated_Source\PSoC4/CapSense_1_Filter.c **** * with a Cypress integrated circuit as specified in the applicable agreement.
  22:Generated_Source\PSoC4/CapSense_1_Filter.c **** * Any reproduction, modification, translation, compilation, or representation of
  23:Generated_Source\PSoC4/CapSense_1_Filter.c **** * this software except as specified above is prohibited without the express
  24:Generated_Source\PSoC4/CapSense_1_Filter.c **** * written permission of Cypress.
  25:Generated_Source\PSoC4/CapSense_1_Filter.c **** *
  26:Generated_Source\PSoC4/CapSense_1_Filter.c **** * Disclaimer: CYPRESS MAKES NO WARRANTY OF ANY KIND, EXPRESS OR IMPLIED, WITH
  27:Generated_Source\PSoC4/CapSense_1_Filter.c **** * REGARD TO THIS MATERIAL, INCLUDING, BUT NOT LIMITED TO, THE IMPLIED
  28:Generated_Source\PSoC4/CapSense_1_Filter.c **** * WARRANTIES OF MERCHANTABILITY AND FITNESS FOR A PARTICULAR PURPOSE.
  29:Generated_Source\PSoC4/CapSense_1_Filter.c **** * Cypress reserves the right to make changes without further notice to the
  30:Generated_Source\PSoC4/CapSense_1_Filter.c **** * materials described herein. Cypress does not assume any liability arising out
ARM GAS  C:\Users\bryan.lee\AppData\Local\Temp\cc6wSQv1.s 			page 2


  31:Generated_Source\PSoC4/CapSense_1_Filter.c **** * of the application or use of any product or circuit described herein. Cypress
  32:Generated_Source\PSoC4/CapSense_1_Filter.c **** * does not authorize its products for use as critical components in life-support
  33:Generated_Source\PSoC4/CapSense_1_Filter.c **** * systems where a malfunction or failure may reasonably be expected to result in
  34:Generated_Source\PSoC4/CapSense_1_Filter.c **** * significant injury to the user. The inclusion of Cypress' product in a life-
  35:Generated_Source\PSoC4/CapSense_1_Filter.c **** * support systems application implies that the manufacturer assumes all risk of
  36:Generated_Source\PSoC4/CapSense_1_Filter.c **** * such use and in doing so indemnifies Cypress against all charges. Use may be
  37:Generated_Source\PSoC4/CapSense_1_Filter.c **** * limited by and subject to the applicable Cypress software license agreement.
  38:Generated_Source\PSoC4/CapSense_1_Filter.c **** *******************************************************************************/
  39:Generated_Source\PSoC4/CapSense_1_Filter.c **** 
  40:Generated_Source\PSoC4/CapSense_1_Filter.c **** #include "CapSense_1_Filter.h"
  41:Generated_Source\PSoC4/CapSense_1_Filter.c **** #include "CapSense_1_Configuration.h"
  42:Generated_Source\PSoC4/CapSense_1_Filter.c **** 
  43:Generated_Source\PSoC4/CapSense_1_Filter.c **** #if (0 != (CapSense_1_CSD_AUTOTUNE & CapSense_1_CSD_SS_TH_EN))
  44:Generated_Source\PSoC4/CapSense_1_Filter.c ****     #include "CapSense_1_SmartSense_LL.h"
  45:Generated_Source\PSoC4/CapSense_1_Filter.c **** #endif /* (0 != (CapSense_1_CSD_AUTOTUNE & CapSense_1_CSD_SS_TH_EN)) */
  46:Generated_Source\PSoC4/CapSense_1_Filter.c **** 
  47:Generated_Source\PSoC4/CapSense_1_Filter.c **** #if (CapSense_1_ENABLE == CapSense_1_SELF_TEST_EN)
  48:Generated_Source\PSoC4/CapSense_1_Filter.c ****     #include "CapSense_1_SelfTest.h"
  49:Generated_Source\PSoC4/CapSense_1_Filter.c **** #endif
  50:Generated_Source\PSoC4/CapSense_1_Filter.c **** 
  51:Generated_Source\PSoC4/CapSense_1_Filter.c **** /*******************************************************************************
  52:Generated_Source\PSoC4/CapSense_1_Filter.c **** * Function Name: CapSense_1_FtInitialize
  53:Generated_Source\PSoC4/CapSense_1_Filter.c **** ****************************************************************************//**
  54:Generated_Source\PSoC4/CapSense_1_Filter.c **** *
  55:Generated_Source\PSoC4/CapSense_1_Filter.c **** * \brief
  56:Generated_Source\PSoC4/CapSense_1_Filter.c **** *  Initializes all the firmware filter history, except the baseline filter.
  57:Generated_Source\PSoC4/CapSense_1_Filter.c **** *
  58:Generated_Source\PSoC4/CapSense_1_Filter.c **** * \details
  59:Generated_Source\PSoC4/CapSense_1_Filter.c **** *  Initializes all the firmware filter history, except the baseline filter.
  60:Generated_Source\PSoC4/CapSense_1_Filter.c **** *
  61:Generated_Source\PSoC4/CapSense_1_Filter.c **** *******************************************************************************/
  62:Generated_Source\PSoC4/CapSense_1_Filter.c **** void CapSense_1_FtInitialize(void)
  63:Generated_Source\PSoC4/CapSense_1_Filter.c **** {
  64:Generated_Source\PSoC4/CapSense_1_Filter.c ****     #if ((CapSense_1_ENABLE == CapSense_1_RC_FILTER_EN) || \
  65:Generated_Source\PSoC4/CapSense_1_Filter.c ****          (0u != (CapSense_1_CSD_AUTOTUNE & CapSense_1_CSD_SS_TH_EN)))
  66:Generated_Source\PSoC4/CapSense_1_Filter.c ****         CapSense_1_InitializeAllFilters();
  67:Generated_Source\PSoC4/CapSense_1_Filter.c ****     #endif /* ((CapSense_1_ENABLE == CapSense_1_RC_FILTER_EN) || \
  68:Generated_Source\PSoC4/CapSense_1_Filter.c ****                (0u != (CapSense_1_CSD_AUTOTUNE & CapSense_1_CSD_SS_TH_EN))) */
  69:Generated_Source\PSoC4/CapSense_1_Filter.c **** }
  70:Generated_Source\PSoC4/CapSense_1_Filter.c **** 
  71:Generated_Source\PSoC4/CapSense_1_Filter.c **** 
  72:Generated_Source\PSoC4/CapSense_1_Filter.c **** /*******************************************************************************
  73:Generated_Source\PSoC4/CapSense_1_Filter.c **** * Function Name: CapSense_1_UpdateAllBaselines
  74:Generated_Source\PSoC4/CapSense_1_Filter.c **** ****************************************************************************//**
  75:Generated_Source\PSoC4/CapSense_1_Filter.c **** *
  76:Generated_Source\PSoC4/CapSense_1_Filter.c **** * \brief
  77:Generated_Source\PSoC4/CapSense_1_Filter.c **** *  Updates the baseline for all the sensors in all the widgets.
  78:Generated_Source\PSoC4/CapSense_1_Filter.c **** *
  79:Generated_Source\PSoC4/CapSense_1_Filter.c **** * \details
  80:Generated_Source\PSoC4/CapSense_1_Filter.c **** *  Updates the baseline for all the sensors in all the widgets. Baseline updating is a
  81:Generated_Source\PSoC4/CapSense_1_Filter.c **** *  part of data processing performed by the process functions. So, no need to
  82:Generated_Source\PSoC4/CapSense_1_Filter.c **** *  call this function except a specific process flow is implemented.
  83:Generated_Source\PSoC4/CapSense_1_Filter.c **** *
  84:Generated_Source\PSoC4/CapSense_1_Filter.c **** *  This function ignores the value of the wdgtEnable register. Multiple calling
  85:Generated_Source\PSoC4/CapSense_1_Filter.c **** *  of this function (or any other function with a baseline updating task)
  86:Generated_Source\PSoC4/CapSense_1_Filter.c **** *  without scanning leads to unexpected behavior.
  87:Generated_Source\PSoC4/CapSense_1_Filter.c **** *
ARM GAS  C:\Users\bryan.lee\AppData\Local\Temp\cc6wSQv1.s 			page 3


  88:Generated_Source\PSoC4/CapSense_1_Filter.c **** *  If the Self-test library is enabled, this function executes the baseline duplication
  89:Generated_Source\PSoC4/CapSense_1_Filter.c **** *  test. Refer to CapSense_1_CheckBaselineDuplication() for details.
  90:Generated_Source\PSoC4/CapSense_1_Filter.c **** *
  91:Generated_Source\PSoC4/CapSense_1_Filter.c **** * \return
  92:Generated_Source\PSoC4/CapSense_1_Filter.c **** *  Returns the status of the update baseline operation of all the widgets:
  93:Generated_Source\PSoC4/CapSense_1_Filter.c **** *  - CYRET_SUCCESS - The operation is successfully completed.
  94:Generated_Source\PSoC4/CapSense_1_Filter.c **** *  - CYRET_BAD_DATA - The baseline processing failed.
  95:Generated_Source\PSoC4/CapSense_1_Filter.c **** *
  96:Generated_Source\PSoC4/CapSense_1_Filter.c **** *******************************************************************************/
  97:Generated_Source\PSoC4/CapSense_1_Filter.c **** cystatus CapSense_1_UpdateAllBaselines(void)
  98:Generated_Source\PSoC4/CapSense_1_Filter.c **** {
  99:Generated_Source\PSoC4/CapSense_1_Filter.c ****     uint32 widgetId;
 100:Generated_Source\PSoC4/CapSense_1_Filter.c ****     cystatus bslnStatus = CYRET_SUCCESS;
 101:Generated_Source\PSoC4/CapSense_1_Filter.c **** 
 102:Generated_Source\PSoC4/CapSense_1_Filter.c ****     for(widgetId = CapSense_1_TOTAL_WIDGETS; widgetId-- > 0u;)
 103:Generated_Source\PSoC4/CapSense_1_Filter.c ****     {
 104:Generated_Source\PSoC4/CapSense_1_Filter.c ****         bslnStatus |= CapSense_1_UpdateWidgetBaseline(widgetId);
 105:Generated_Source\PSoC4/CapSense_1_Filter.c ****     }
 106:Generated_Source\PSoC4/CapSense_1_Filter.c **** 
 107:Generated_Source\PSoC4/CapSense_1_Filter.c ****     return(bslnStatus);
 108:Generated_Source\PSoC4/CapSense_1_Filter.c **** }
 109:Generated_Source\PSoC4/CapSense_1_Filter.c **** 
 110:Generated_Source\PSoC4/CapSense_1_Filter.c **** 
 111:Generated_Source\PSoC4/CapSense_1_Filter.c **** /*******************************************************************************
 112:Generated_Source\PSoC4/CapSense_1_Filter.c **** * Function Name: CapSense_1_UpdateWidgetBaseline
 113:Generated_Source\PSoC4/CapSense_1_Filter.c **** ****************************************************************************//**
 114:Generated_Source\PSoC4/CapSense_1_Filter.c **** *
 115:Generated_Source\PSoC4/CapSense_1_Filter.c **** * \brief
 116:Generated_Source\PSoC4/CapSense_1_Filter.c **** *  Updates the baselines for all the sensors in a widget specified by the input
 117:Generated_Source\PSoC4/CapSense_1_Filter.c **** *  parameter.
 118:Generated_Source\PSoC4/CapSense_1_Filter.c **** *
 119:Generated_Source\PSoC4/CapSense_1_Filter.c **** * \details
 120:Generated_Source\PSoC4/CapSense_1_Filter.c **** *  This function performs exactly the same tasks as
 121:Generated_Source\PSoC4/CapSense_1_Filter.c **** *  CapSense_1_UpdateAllBaselines() but only for a specified widget.
 122:Generated_Source\PSoC4/CapSense_1_Filter.c **** *
 123:Generated_Source\PSoC4/CapSense_1_Filter.c **** *  This function ignores the value of the wdgtEnable register. Multiple calling
 124:Generated_Source\PSoC4/CapSense_1_Filter.c **** *  of this function (or any other function with a baseline updating task)
 125:Generated_Source\PSoC4/CapSense_1_Filter.c **** *  without scanning leads to unexpected behavior.
 126:Generated_Source\PSoC4/CapSense_1_Filter.c **** *
 127:Generated_Source\PSoC4/CapSense_1_Filter.c **** *  If the Self-test library is enabled, this function executes the baseline duplication
 128:Generated_Source\PSoC4/CapSense_1_Filter.c **** *  test. Refer to CapSense_1_CheckBaselineDuplication() for details.
 129:Generated_Source\PSoC4/CapSense_1_Filter.c **** *
 130:Generated_Source\PSoC4/CapSense_1_Filter.c **** * \param widgetId
 131:Generated_Source\PSoC4/CapSense_1_Filter.c **** *  Specifies the ID number of the widget to update the baseline of all the sensors
 132:Generated_Source\PSoC4/CapSense_1_Filter.c **** *  in the widget.
 133:Generated_Source\PSoC4/CapSense_1_Filter.c **** *  A macro for the widget ID can be found in the
 134:Generated_Source\PSoC4/CapSense_1_Filter.c **** *  CapSense_1 Configuration header file defined as
 135:Generated_Source\PSoC4/CapSense_1_Filter.c **** *  CapSense_1_<WidgetName>_WDGT_ID.
 136:Generated_Source\PSoC4/CapSense_1_Filter.c **** *
 137:Generated_Source\PSoC4/CapSense_1_Filter.c **** * \return
 138:Generated_Source\PSoC4/CapSense_1_Filter.c **** *  Returns the status of the specified widget update baseline operation:
 139:Generated_Source\PSoC4/CapSense_1_Filter.c **** *  - CYRET_SUCCESS - The operation is successfully completed.
 140:Generated_Source\PSoC4/CapSense_1_Filter.c **** *  - CYRET_BAD_DATA - The baseline processing is failed.
 141:Generated_Source\PSoC4/CapSense_1_Filter.c **** *
 142:Generated_Source\PSoC4/CapSense_1_Filter.c **** *******************************************************************************/
 143:Generated_Source\PSoC4/CapSense_1_Filter.c **** cystatus CapSense_1_UpdateWidgetBaseline(uint32 widgetId)
 144:Generated_Source\PSoC4/CapSense_1_Filter.c **** {
ARM GAS  C:\Users\bryan.lee\AppData\Local\Temp\cc6wSQv1.s 			page 4


 145:Generated_Source\PSoC4/CapSense_1_Filter.c ****     uint32 sensorId;
 146:Generated_Source\PSoC4/CapSense_1_Filter.c ****     uint32 sensorsNumber;
 147:Generated_Source\PSoC4/CapSense_1_Filter.c **** 
 148:Generated_Source\PSoC4/CapSense_1_Filter.c ****     CapSense_1_FLASH_WD_STRUCT const *ptrWidget = &CapSense_1_dsFlash.wdgtArray[widgetId];
 149:Generated_Source\PSoC4/CapSense_1_Filter.c ****     cystatus bslnStatus = CYRET_SUCCESS;
 150:Generated_Source\PSoC4/CapSense_1_Filter.c **** 
 151:Generated_Source\PSoC4/CapSense_1_Filter.c ****     /* Find total amount of sensors in specified widget */
 152:Generated_Source\PSoC4/CapSense_1_Filter.c ****     sensorsNumber = CapSense_1_GET_SNS_CNT_BY_PTR(ptrWidget);
 153:Generated_Source\PSoC4/CapSense_1_Filter.c **** 
 154:Generated_Source\PSoC4/CapSense_1_Filter.c ****     for(sensorId = sensorsNumber; sensorId-- > 0u;)
 155:Generated_Source\PSoC4/CapSense_1_Filter.c ****     {
 156:Generated_Source\PSoC4/CapSense_1_Filter.c ****         bslnStatus |= CapSense_1_UpdateSensorBaseline(widgetId, sensorId);
 157:Generated_Source\PSoC4/CapSense_1_Filter.c ****     }
 158:Generated_Source\PSoC4/CapSense_1_Filter.c **** 
 159:Generated_Source\PSoC4/CapSense_1_Filter.c ****     return(bslnStatus);
 160:Generated_Source\PSoC4/CapSense_1_Filter.c **** }
 161:Generated_Source\PSoC4/CapSense_1_Filter.c **** 
 162:Generated_Source\PSoC4/CapSense_1_Filter.c **** 
 163:Generated_Source\PSoC4/CapSense_1_Filter.c **** /*******************************************************************************
 164:Generated_Source\PSoC4/CapSense_1_Filter.c **** * Function Name: CapSense_1_UpdateSensorBaseline
 165:Generated_Source\PSoC4/CapSense_1_Filter.c **** ****************************************************************************//**
 166:Generated_Source\PSoC4/CapSense_1_Filter.c **** *
 167:Generated_Source\PSoC4/CapSense_1_Filter.c **** * \brief
 168:Generated_Source\PSoC4/CapSense_1_Filter.c **** *  Updates the baseline for a sensor in a widget specified by the input parameters.
 169:Generated_Source\PSoC4/CapSense_1_Filter.c **** *
 170:Generated_Source\PSoC4/CapSense_1_Filter.c **** * \details
 171:Generated_Source\PSoC4/CapSense_1_Filter.c **** *  This function performs exactly the same tasks as
 172:Generated_Source\PSoC4/CapSense_1_Filter.c **** *  CapSense_1_UpdateAllBaselines() and
 173:Generated_Source\PSoC4/CapSense_1_Filter.c **** *  CapSense_1_UpdateWidgetBaseline() but only for a specified sensor.
 174:Generated_Source\PSoC4/CapSense_1_Filter.c **** *
 175:Generated_Source\PSoC4/CapSense_1_Filter.c **** *  This function ignores the value of the wdgtEnable register. Multiple calling
 176:Generated_Source\PSoC4/CapSense_1_Filter.c **** *  of this function (or any other function with a baseline updating task)
 177:Generated_Source\PSoC4/CapSense_1_Filter.c **** *  without scanning leads to unexpected behavior.
 178:Generated_Source\PSoC4/CapSense_1_Filter.c **** *
 179:Generated_Source\PSoC4/CapSense_1_Filter.c **** *  If the Self-test library is enabled, this function executes the baseline duplication
 180:Generated_Source\PSoC4/CapSense_1_Filter.c **** *  test. Refer to CapSense_1_CheckBaselineDuplication() for details.
 181:Generated_Source\PSoC4/CapSense_1_Filter.c **** *
 182:Generated_Source\PSoC4/CapSense_1_Filter.c **** * \param widgetId
 183:Generated_Source\PSoC4/CapSense_1_Filter.c **** *  Specifies the ID number of the widget to update the baseline of the sensor
 184:Generated_Source\PSoC4/CapSense_1_Filter.c **** *  specified by the sensorId argument.
 185:Generated_Source\PSoC4/CapSense_1_Filter.c **** *  A macro for the widget ID can be found in the CapSense_1 Configuration header
 186:Generated_Source\PSoC4/CapSense_1_Filter.c **** *  file defined as CapSense_1_<WidgetName>_WDGT_ID.
 187:Generated_Source\PSoC4/CapSense_1_Filter.c **** *
 188:Generated_Source\PSoC4/CapSense_1_Filter.c **** * \param sensorId
 189:Generated_Source\PSoC4/CapSense_1_Filter.c **** *  Specifies the ID number of the sensor within the widget to update its baseline.
 190:Generated_Source\PSoC4/CapSense_1_Filter.c **** *  A macro for the sensor ID within a specified widget can be found in the
 191:Generated_Source\PSoC4/CapSense_1_Filter.c **** *  CapSense_1 Configuration header file defined as
 192:Generated_Source\PSoC4/CapSense_1_Filter.c **** *  CapSense_1_<WidgetName>_SNS<SensorNumber>_ID.
 193:Generated_Source\PSoC4/CapSense_1_Filter.c **** *
 194:Generated_Source\PSoC4/CapSense_1_Filter.c **** * \return
 195:Generated_Source\PSoC4/CapSense_1_Filter.c **** *  Returns the status of the specified sensor update baseline operation:
 196:Generated_Source\PSoC4/CapSense_1_Filter.c **** *  - CYRET_SUCCESS - The operation is successfully completed.
 197:Generated_Source\PSoC4/CapSense_1_Filter.c **** *  - CYRET_BAD_DATA - The baseline processing failed.
 198:Generated_Source\PSoC4/CapSense_1_Filter.c **** *
 199:Generated_Source\PSoC4/CapSense_1_Filter.c **** *******************************************************************************/
 200:Generated_Source\PSoC4/CapSense_1_Filter.c **** cystatus CapSense_1_UpdateSensorBaseline(uint32 widgetId, uint32 sensorId)
 201:Generated_Source\PSoC4/CapSense_1_Filter.c **** {
ARM GAS  C:\Users\bryan.lee\AppData\Local\Temp\cc6wSQv1.s 			page 5


 202:Generated_Source\PSoC4/CapSense_1_Filter.c ****     uint32 result = CYRET_SUCCESS;
 203:Generated_Source\PSoC4/CapSense_1_Filter.c **** 
 204:Generated_Source\PSoC4/CapSense_1_Filter.c ****     CapSense_1_RAM_SNS_STRUCT *ptrSensor = NULL;
 205:Generated_Source\PSoC4/CapSense_1_Filter.c ****     CapSense_1_FLASH_WD_STRUCT const *ptrWidget = &CapSense_1_dsFlash.wdgtArray[widgetId];
 206:Generated_Source\PSoC4/CapSense_1_Filter.c ****     CapSense_1_RAM_WD_BASE_STRUCT *ptrWidgetRam = (CapSense_1_RAM_WD_BASE_STRUCT *)ptrWidget->ptr2W
 207:Generated_Source\PSoC4/CapSense_1_Filter.c **** 
 208:Generated_Source\PSoC4/CapSense_1_Filter.c ****     /* Find pointer to specified sensor object */
 209:Generated_Source\PSoC4/CapSense_1_Filter.c ****     ptrSensor = ptrWidget->ptr2SnsRam;
 210:Generated_Source\PSoC4/CapSense_1_Filter.c ****     ptrSensor = &ptrSensor[sensorId];
 211:Generated_Source\PSoC4/CapSense_1_Filter.c ****     result = CapSense_1_FtUpdateBaseline(ptrWidgetRam, ptrSensor, (uint32)ptrWidget->wdgtType);
 212:Generated_Source\PSoC4/CapSense_1_Filter.c **** 
 213:Generated_Source\PSoC4/CapSense_1_Filter.c ****     #if (CapSense_1_ENABLE == CapSense_1_TST_BSLN_DUPLICATION_EN)
 214:Generated_Source\PSoC4/CapSense_1_Filter.c ****         if (CYRET_SUCCESS != result)
 215:Generated_Source\PSoC4/CapSense_1_Filter.c ****         {
 216:Generated_Source\PSoC4/CapSense_1_Filter.c ****             result = CYRET_BAD_DATA;
 217:Generated_Source\PSoC4/CapSense_1_Filter.c ****             CapSense_1_UpdateTestResultBaselineDuplication(widgetId, sensorId);
 218:Generated_Source\PSoC4/CapSense_1_Filter.c ****         }
 219:Generated_Source\PSoC4/CapSense_1_Filter.c ****     #endif /* (CapSense_1_ENABLE == CapSense_1_TST_BSLN_DUPLICATION_EN) */
 220:Generated_Source\PSoC4/CapSense_1_Filter.c **** 
 221:Generated_Source\PSoC4/CapSense_1_Filter.c ****     return result;
 222:Generated_Source\PSoC4/CapSense_1_Filter.c **** }
 223:Generated_Source\PSoC4/CapSense_1_Filter.c **** 
 224:Generated_Source\PSoC4/CapSense_1_Filter.c **** /*******************************************************************************
 225:Generated_Source\PSoC4/CapSense_1_Filter.c **** * Function Name: CapSense_1_FtUpdateBaseline
 226:Generated_Source\PSoC4/CapSense_1_Filter.c **** ****************************************************************************//**
 227:Generated_Source\PSoC4/CapSense_1_Filter.c **** *
 228:Generated_Source\PSoC4/CapSense_1_Filter.c **** * \brief
 229:Generated_Source\PSoC4/CapSense_1_Filter.c **** *  Updates the baseline for a sensor specified by an input parameter.
 230:Generated_Source\PSoC4/CapSense_1_Filter.c **** *
 231:Generated_Source\PSoC4/CapSense_1_Filter.c **** * \details
 232:Generated_Source\PSoC4/CapSense_1_Filter.c **** *  Check a matching of present baseline and its inverse duplication. If they
 233:Generated_Source\PSoC4/CapSense_1_Filter.c **** *  match then updates the baseline for a sensor specified by an input parameter.
 234:Generated_Source\PSoC4/CapSense_1_Filter.c **** *  If don't match the function return CapSense_1_TST_BSLN_DUPLICATION
 235:Generated_Source\PSoC4/CapSense_1_Filter.c **** *  result and don't update baseline.
 236:Generated_Source\PSoC4/CapSense_1_Filter.c **** *
 237:Generated_Source\PSoC4/CapSense_1_Filter.c **** * \param ptrWidgetRam
 238:Generated_Source\PSoC4/CapSense_1_Filter.c **** *  The pointer to the widget RAM structure where all the widget parameters
 239:Generated_Source\PSoC4/CapSense_1_Filter.c **** *  are stored.
 240:Generated_Source\PSoC4/CapSense_1_Filter.c **** *
 241:Generated_Source\PSoC4/CapSense_1_Filter.c **** * \param ptrSensor
 242:Generated_Source\PSoC4/CapSense_1_Filter.c **** *  The pointer to the sensor RAM structure where all the sensor parameters
 243:Generated_Source\PSoC4/CapSense_1_Filter.c **** *  are stored.
 244:Generated_Source\PSoC4/CapSense_1_Filter.c **** *
 245:Generated_Source\PSoC4/CapSense_1_Filter.c **** * \param wdType
 246:Generated_Source\PSoC4/CapSense_1_Filter.c **** *  Specifies the type of a widget.
 247:Generated_Source\PSoC4/CapSense_1_Filter.c **** *
 248:Generated_Source\PSoC4/CapSense_1_Filter.c **** * \return
 249:Generated_Source\PSoC4/CapSense_1_Filter.c **** *  Returns a status indicating whether the baseline has been updated:
 250:Generated_Source\PSoC4/CapSense_1_Filter.c **** *  - CYRET_SUCCESS if baseline updating was successful.
 251:Generated_Source\PSoC4/CapSense_1_Filter.c **** *  - CapSense_1_PROCESS_BASELINE_FAILED if present sensor's any channel
 252:Generated_Source\PSoC4/CapSense_1_Filter.c **** *    baseline and its inversion doesn't matched.
 253:Generated_Source\PSoC4/CapSense_1_Filter.c **** *
 254:Generated_Source\PSoC4/CapSense_1_Filter.c **** *******************************************************************************/
 255:Generated_Source\PSoC4/CapSense_1_Filter.c **** uint32 CapSense_1_FtUpdateBaseline(
 256:Generated_Source\PSoC4/CapSense_1_Filter.c ****                                 CapSense_1_RAM_WD_BASE_STRUCT *ptrWidgetRam,
 257:Generated_Source\PSoC4/CapSense_1_Filter.c ****                                 CapSense_1_RAM_SNS_STRUCT *ptrSensor,
 258:Generated_Source\PSoC4/CapSense_1_Filter.c ****                                 uint32 wdType)
ARM GAS  C:\Users\bryan.lee\AppData\Local\Temp\cc6wSQv1.s 			page 6


 259:Generated_Source\PSoC4/CapSense_1_Filter.c **** {
 260:Generated_Source\PSoC4/CapSense_1_Filter.c ****     uint32 sign;
 261:Generated_Source\PSoC4/CapSense_1_Filter.c ****     uint32 difference;
 262:Generated_Source\PSoC4/CapSense_1_Filter.c ****     uint32 freqChannel;
 263:Generated_Source\PSoC4/CapSense_1_Filter.c ****     uint32 baselineCoeff;
 264:Generated_Source\PSoC4/CapSense_1_Filter.c ****     uint32 result = CYRET_SUCCESS;
 265:Generated_Source\PSoC4/CapSense_1_Filter.c **** 
 266:Generated_Source\PSoC4/CapSense_1_Filter.c ****     #if (CapSense_1_TOTAL_WIDGETS)
 267:Generated_Source\PSoC4/CapSense_1_Filter.c ****         uint32 history;
 268:Generated_Source\PSoC4/CapSense_1_Filter.c ****     #endif /* (CapSense_1_TOTAL_WIDGETS) */
 269:Generated_Source\PSoC4/CapSense_1_Filter.c **** 
 270:Generated_Source\PSoC4/CapSense_1_Filter.c ****     /* Apply baseline to every channel in sensor */
 271:Generated_Source\PSoC4/CapSense_1_Filter.c ****     for(freqChannel = CapSense_1_NUM_SCAN_FREQS; freqChannel-- > 0u;)
 272:Generated_Source\PSoC4/CapSense_1_Filter.c ****     {
 273:Generated_Source\PSoC4/CapSense_1_Filter.c ****         #if (CapSense_1_ENABLE == CapSense_1_TST_BSLN_DUPLICATION_EN)
 274:Generated_Source\PSoC4/CapSense_1_Filter.c ****             if (ptrSensor->bslnInv[freqChannel] != ((uint16) ~(ptrSensor->bsln[freqChannel])))
 275:Generated_Source\PSoC4/CapSense_1_Filter.c ****             {
 276:Generated_Source\PSoC4/CapSense_1_Filter.c ****                 result = CapSense_1_PROCESS_BASELINE_FAILED;
 277:Generated_Source\PSoC4/CapSense_1_Filter.c ****             }
 278:Generated_Source\PSoC4/CapSense_1_Filter.c ****             else
 279:Generated_Source\PSoC4/CapSense_1_Filter.c ****             {
 280:Generated_Source\PSoC4/CapSense_1_Filter.c ****         #endif /* (CapSense_1_ENABLE == CapSense_1_TST_BSLN_DUPLICATION_EN) */
 281:Generated_Source\PSoC4/CapSense_1_Filter.c **** 
 282:Generated_Source\PSoC4/CapSense_1_Filter.c ****         /* Calculate signal value and its sign */
 283:Generated_Source\PSoC4/CapSense_1_Filter.c ****         if(ptrSensor->raw[freqChannel] >= ptrSensor->bsln[freqChannel])
 284:Generated_Source\PSoC4/CapSense_1_Filter.c ****         {
 285:Generated_Source\PSoC4/CapSense_1_Filter.c ****             difference = (uint32)ptrSensor->raw[freqChannel] - (uint32)ptrSensor->bsln[freqChannel]
 286:Generated_Source\PSoC4/CapSense_1_Filter.c ****             sign = 1u;
 287:Generated_Source\PSoC4/CapSense_1_Filter.c ****             ptrSensor->negBslnRstCnt[freqChannel] = 0u;
 288:Generated_Source\PSoC4/CapSense_1_Filter.c ****         }
 289:Generated_Source\PSoC4/CapSense_1_Filter.c ****         else
 290:Generated_Source\PSoC4/CapSense_1_Filter.c ****         {
 291:Generated_Source\PSoC4/CapSense_1_Filter.c ****             difference = (uint32)ptrSensor->bsln[freqChannel] - (uint32)ptrSensor->raw[freqChannel]
 292:Generated_Source\PSoC4/CapSense_1_Filter.c ****             sign = 0u;
 293:Generated_Source\PSoC4/CapSense_1_Filter.c ****         }
 294:Generated_Source\PSoC4/CapSense_1_Filter.c **** 
 295:Generated_Source\PSoC4/CapSense_1_Filter.c ****         /* Reset baseline if condition is met */
 296:Generated_Source\PSoC4/CapSense_1_Filter.c ****         if((sign == 0u) && (difference > (uint32) ptrWidgetRam->nNoiseTh))
 297:Generated_Source\PSoC4/CapSense_1_Filter.c ****         {
 298:Generated_Source\PSoC4/CapSense_1_Filter.c ****             if(ptrSensor->negBslnRstCnt[freqChannel] >= ptrWidgetRam->lowBslnRst)
 299:Generated_Source\PSoC4/CapSense_1_Filter.c ****             {
 300:Generated_Source\PSoC4/CapSense_1_Filter.c ****                 CapSense_1_FtInitializeBaselineChannel(ptrSensor, wdType, freqChannel);
 301:Generated_Source\PSoC4/CapSense_1_Filter.c ****             }
 302:Generated_Source\PSoC4/CapSense_1_Filter.c ****             else
 303:Generated_Source\PSoC4/CapSense_1_Filter.c ****             {
 304:Generated_Source\PSoC4/CapSense_1_Filter.c ****                 ptrSensor->negBslnRstCnt[freqChannel]++;
 305:Generated_Source\PSoC4/CapSense_1_Filter.c ****             }
 306:Generated_Source\PSoC4/CapSense_1_Filter.c ****         }
 307:Generated_Source\PSoC4/CapSense_1_Filter.c ****         else
 308:Generated_Source\PSoC4/CapSense_1_Filter.c ****         {
 309:Generated_Source\PSoC4/CapSense_1_Filter.c ****             #if (!CapSense_1_SENSOR_AUTO_RESET_EN)
 310:Generated_Source\PSoC4/CapSense_1_Filter.c ****                 /* Update baseline only if signal is in range between noiseThreshold and negativeno
 311:Generated_Source\PSoC4/CapSense_1_Filter.c ****                 if ((difference <= (uint32)ptrWidgetRam->noiseTh) ||
 312:Generated_Source\PSoC4/CapSense_1_Filter.c ****                     ((difference < (uint32) ptrWidgetRam->nNoiseTh) && (sign == 0u)))
 313:Generated_Source\PSoC4/CapSense_1_Filter.c ****                 {
 314:Generated_Source\PSoC4/CapSense_1_Filter.c ****             #endif /* (CapSense_1_CSD_AUTO_RESET == CapSense_1_CSD_AUTO_RESET_DISABLE) */
 315:Generated_Source\PSoC4/CapSense_1_Filter.c **** 
ARM GAS  C:\Users\bryan.lee\AppData\Local\Temp\cc6wSQv1.s 			page 7


 316:Generated_Source\PSoC4/CapSense_1_Filter.c ****             #if (CapSense_1_BASELINE_TYPE == CapSense_1_IIR_BASELINE)
 317:Generated_Source\PSoC4/CapSense_1_Filter.c ****                 /* Calculate baseline value */
 318:Generated_Source\PSoC4/CapSense_1_Filter.c ****                 if ((CapSense_1_WD_TYPE_ENUM)wdType != CapSense_1_WD_PROXIMITY_E)
 319:Generated_Source\PSoC4/CapSense_1_Filter.c ****                 {
 320:Generated_Source\PSoC4/CapSense_1_Filter.c ****                     #if (CapSense_1_REGULAR_SENSOR_EN)
 321:Generated_Source\PSoC4/CapSense_1_Filter.c ****                         #if (CapSense_1_REGULAR_IIR_BL_TYPE == CapSense_1_IIR_FILTER_PERFORMANCE)
 322:Generated_Source\PSoC4/CapSense_1_Filter.c ****                             history = (uint32) ptrSensor->bsln[freqChannel] << 8u;
 323:Generated_Source\PSoC4/CapSense_1_Filter.c ****                             history |= ptrSensor->bslnExt[freqChannel];
 324:Generated_Source\PSoC4/CapSense_1_Filter.c ****                         #else
 325:Generated_Source\PSoC4/CapSense_1_Filter.c ****                             history = ptrSensor->bsln[freqChannel];
 326:Generated_Source\PSoC4/CapSense_1_Filter.c ****                         #endif /* (CapSense_1_REGULAR_IIR_BL_TYPE == CapSense_1_IIR_FILTER_PERFORMA
 327:Generated_Source\PSoC4/CapSense_1_Filter.c **** 
 328:Generated_Source\PSoC4/CapSense_1_Filter.c ****                         #if (CapSense_1_ENABLE == CapSense_1_WD_BSLN_COEFF_EN)
 329:Generated_Source\PSoC4/CapSense_1_Filter.c ****                             baselineCoeff = ptrWidgetRam->bslnCoeff;
 330:Generated_Source\PSoC4/CapSense_1_Filter.c ****                         #else /* (CapSense_1_ENABLE == CapSense_1_WD_BSLN_COEFF_EN) */
 331:Generated_Source\PSoC4/CapSense_1_Filter.c ****                             baselineCoeff = CapSense_1_REGULAR_IIR_BL_N;
 332:Generated_Source\PSoC4/CapSense_1_Filter.c ****                         #endif /* (CapSense_1_ENABLE == CapSense_1_WD_BSLN_COEFF_EN) */
 333:Generated_Source\PSoC4/CapSense_1_Filter.c **** 
 334:Generated_Source\PSoC4/CapSense_1_Filter.c ****                         history =  CapSense_1_FtIIR1stOrder(
 335:Generated_Source\PSoC4/CapSense_1_Filter.c ****                                         (uint32)ptrSensor->raw[freqChannel],
 336:Generated_Source\PSoC4/CapSense_1_Filter.c ****                                         history, baselineCoeff,
 337:Generated_Source\PSoC4/CapSense_1_Filter.c ****                                         CapSense_1_REGULAR_IIR_BL_SHIFT);
 338:Generated_Source\PSoC4/CapSense_1_Filter.c **** 
 339:Generated_Source\PSoC4/CapSense_1_Filter.c ****                         #if (CapSense_1_REGULAR_IIR_BL_TYPE == CapSense_1_IIR_FILTER_PERFORMANCE)
 340:Generated_Source\PSoC4/CapSense_1_Filter.c ****                             ptrSensor->bsln[freqChannel] = LO16(history >> 8u);
 341:Generated_Source\PSoC4/CapSense_1_Filter.c ****                             ptrSensor->bslnExt[freqChannel] = LO8(history);
 342:Generated_Source\PSoC4/CapSense_1_Filter.c ****                         #else
 343:Generated_Source\PSoC4/CapSense_1_Filter.c ****                             ptrSensor->bsln[freqChannel] = LO16(history);
 344:Generated_Source\PSoC4/CapSense_1_Filter.c ****                         #endif /* (CapSense_1_REGULAR_IIR_BL_TYPE == CapSense_1_IIR_FILTER_PERFORMA
 345:Generated_Source\PSoC4/CapSense_1_Filter.c ****                     #endif /* (CapSense_1_REGULAR_SENSOR_EN) */
 346:Generated_Source\PSoC4/CapSense_1_Filter.c ****                 }
 347:Generated_Source\PSoC4/CapSense_1_Filter.c ****                 else
 348:Generated_Source\PSoC4/CapSense_1_Filter.c ****                 {
 349:Generated_Source\PSoC4/CapSense_1_Filter.c ****                     #if (CapSense_1_PROXIMITY_SENSOR_EN)
 350:Generated_Source\PSoC4/CapSense_1_Filter.c ****                         #if (CapSense_1_PROX_IIR_BL_TYPE == CapSense_1_IIR_FILTER_PERFORMANCE)
 351:Generated_Source\PSoC4/CapSense_1_Filter.c ****                             history = (uint32) ptrSensor->bsln[freqChannel] << 8u;
 352:Generated_Source\PSoC4/CapSense_1_Filter.c ****                             history |= ptrSensor->bslnExt[freqChannel];
 353:Generated_Source\PSoC4/CapSense_1_Filter.c ****                         #else
 354:Generated_Source\PSoC4/CapSense_1_Filter.c ****                             history = (uint32) ptrSensor->bsln[freqChannel];
 355:Generated_Source\PSoC4/CapSense_1_Filter.c ****                         #endif /* (CapSense_1_PROX_IIR_BL_TYPE == CapSense_1_IIR_FILTER_PERFORMANCE
 356:Generated_Source\PSoC4/CapSense_1_Filter.c **** 
 357:Generated_Source\PSoC4/CapSense_1_Filter.c ****                         #if (CapSense_1_ENABLE == CapSense_1_WD_BSLN_COEFF_EN)
 358:Generated_Source\PSoC4/CapSense_1_Filter.c ****                             baselineCoeff = ptrWidgetRam->bslnCoeff;
 359:Generated_Source\PSoC4/CapSense_1_Filter.c ****                         #else /* (CapSense_1_ENABLE == CapSense_1_WD_BSLN_COEFF_EN) */
 360:Generated_Source\PSoC4/CapSense_1_Filter.c ****                             baselineCoeff = CapSense_1_PROX_IIR_BL_N;
 361:Generated_Source\PSoC4/CapSense_1_Filter.c ****                         #endif /* (CapSense_1_ENABLE == CapSense_1_WD_BSLN_COEFF_EN) */
 362:Generated_Source\PSoC4/CapSense_1_Filter.c **** 
 363:Generated_Source\PSoC4/CapSense_1_Filter.c ****                         history = CapSense_1_FtIIR1stOrder(
 364:Generated_Source\PSoC4/CapSense_1_Filter.c ****                                         (uint32)ptrSensor->raw[freqChannel],
 365:Generated_Source\PSoC4/CapSense_1_Filter.c ****                                         history, baselineCoeff,
 366:Generated_Source\PSoC4/CapSense_1_Filter.c ****                                         CapSense_1_PROX_IIR_BL_SHIFT);
 367:Generated_Source\PSoC4/CapSense_1_Filter.c **** 
 368:Generated_Source\PSoC4/CapSense_1_Filter.c ****                         #if (CapSense_1_PROX_IIR_BL_TYPE == CapSense_1_IIR_FILTER_PERFORMANCE)
 369:Generated_Source\PSoC4/CapSense_1_Filter.c ****                             ptrSensor->bsln[freqChannel] = LO16(history >> 8u);
 370:Generated_Source\PSoC4/CapSense_1_Filter.c ****                             ptrSensor->bslnExt[freqChannel] = LO8(history);
 371:Generated_Source\PSoC4/CapSense_1_Filter.c ****                         #else
 372:Generated_Source\PSoC4/CapSense_1_Filter.c ****                             ptrSensor->bsln[freqChannel] = LO16(history);
ARM GAS  C:\Users\bryan.lee\AppData\Local\Temp\cc6wSQv1.s 			page 8


 373:Generated_Source\PSoC4/CapSense_1_Filter.c ****                         #endif /* (CapSense_1_PROX_IIR_BL_TYPE == CapSense_1_IIR_FILTER_PERFORMANCE
 374:Generated_Source\PSoC4/CapSense_1_Filter.c ****                     #endif /* (CapSense_1_PROX_SENSOR_EN) */
 375:Generated_Source\PSoC4/CapSense_1_Filter.c ****                 }
 376:Generated_Source\PSoC4/CapSense_1_Filter.c ****             #else /* (CapSense_1_CSD_BASELINE_TYPE == CapSense_1_IIR_BASELINE) */
 377:Generated_Source\PSoC4/CapSense_1_Filter.c **** 
 378:Generated_Source\PSoC4/CapSense_1_Filter.c ****                 /******************************************************************
 379:Generated_Source\PSoC4/CapSense_1_Filter.c ****                 * This is the place where the bucket algorithm should be implemented.
 380:Generated_Source\PSoC4/CapSense_1_Filter.c ****                 * The bucket method will be implemented in future Component version.
 381:Generated_Source\PSoC4/CapSense_1_Filter.c ****                 *******************************************************************/
 382:Generated_Source\PSoC4/CapSense_1_Filter.c **** 
 383:Generated_Source\PSoC4/CapSense_1_Filter.c ****             #endif /* (CapSense_1_CSD_BASELINE_TYPE == CapSense_1_IIR_BASELINE) */
 384:Generated_Source\PSoC4/CapSense_1_Filter.c **** 
 385:Generated_Source\PSoC4/CapSense_1_Filter.c ****             #if (!CapSense_1_SENSOR_AUTO_RESET_EN)
 386:Generated_Source\PSoC4/CapSense_1_Filter.c ****                 }
 387:Generated_Source\PSoC4/CapSense_1_Filter.c ****             #endif /* (!CapSense_1_SENSOR_AUTO_RESET_EN) */
 388:Generated_Source\PSoC4/CapSense_1_Filter.c ****         }
 389:Generated_Source\PSoC4/CapSense_1_Filter.c **** 
 390:Generated_Source\PSoC4/CapSense_1_Filter.c ****         #if (CapSense_1_ENABLE == CapSense_1_TST_BSLN_DUPLICATION_EN)
 391:Generated_Source\PSoC4/CapSense_1_Filter.c ****             /* Update baseline inversion of every channel in sensor */
 392:Generated_Source\PSoC4/CapSense_1_Filter.c ****             ptrSensor->bslnInv[freqChannel] = ~(ptrSensor->bsln[freqChannel]);
 393:Generated_Source\PSoC4/CapSense_1_Filter.c ****             }
 394:Generated_Source\PSoC4/CapSense_1_Filter.c ****         #endif /* (CapSense_1_ENABLE == CapSense_1_TST_BSLN_DUPLICATION_EN) */
 395:Generated_Source\PSoC4/CapSense_1_Filter.c **** 
 396:Generated_Source\PSoC4/CapSense_1_Filter.c ****     }
 397:Generated_Source\PSoC4/CapSense_1_Filter.c ****     return result;
 398:Generated_Source\PSoC4/CapSense_1_Filter.c **** }
 399:Generated_Source\PSoC4/CapSense_1_Filter.c **** 
 400:Generated_Source\PSoC4/CapSense_1_Filter.c **** 
 401:Generated_Source\PSoC4/CapSense_1_Filter.c **** /*******************************************************************************
 402:Generated_Source\PSoC4/CapSense_1_Filter.c **** * Function Name: CapSense_1_InitializeAllBaselines
 403:Generated_Source\PSoC4/CapSense_1_Filter.c **** ****************************************************************************//**
 404:Generated_Source\PSoC4/CapSense_1_Filter.c **** *
 405:Generated_Source\PSoC4/CapSense_1_Filter.c **** * \brief
 406:Generated_Source\PSoC4/CapSense_1_Filter.c **** *  Initializes (or re-initializes) the baselines of all the sensors of all the widgets.
 407:Generated_Source\PSoC4/CapSense_1_Filter.c **** *
 408:Generated_Source\PSoC4/CapSense_1_Filter.c **** * \details
 409:Generated_Source\PSoC4/CapSense_1_Filter.c **** *  Initializes the baseline for all the sensors of all the widgets. Also, this function
 410:Generated_Source\PSoC4/CapSense_1_Filter.c **** *  can be used to re-initialize baselines. CapSense_1_Start() calls this
 411:Generated_Source\PSoC4/CapSense_1_Filter.c **** *  API as part of CapSense_1 operation initialization.
 412:Generated_Source\PSoC4/CapSense_1_Filter.c **** *
 413:Generated_Source\PSoC4/CapSense_1_Filter.c **** *  If any raw count filter is enabled, make sure the raw count filter history is
 414:Generated_Source\PSoC4/CapSense_1_Filter.c **** *  initialized as well using one of these functions:
 415:Generated_Source\PSoC4/CapSense_1_Filter.c **** *  - CapSense_1_InitializeAllFilters().
 416:Generated_Source\PSoC4/CapSense_1_Filter.c **** *  - CapSense_1_InitializeWidgetFilter().
 417:Generated_Source\PSoC4/CapSense_1_Filter.c **** *
 418:Generated_Source\PSoC4/CapSense_1_Filter.c **** *******************************************************************************/
 419:Generated_Source\PSoC4/CapSense_1_Filter.c **** void CapSense_1_InitializeAllBaselines(void)
 420:Generated_Source\PSoC4/CapSense_1_Filter.c **** {
 421:Generated_Source\PSoC4/CapSense_1_Filter.c ****     uint32 widgetId;
 422:Generated_Source\PSoC4/CapSense_1_Filter.c **** 
 423:Generated_Source\PSoC4/CapSense_1_Filter.c ****     for(widgetId = CapSense_1_TOTAL_WIDGETS; widgetId-- > 0u;)
 424:Generated_Source\PSoC4/CapSense_1_Filter.c ****     {
 425:Generated_Source\PSoC4/CapSense_1_Filter.c ****         CapSense_1_InitializeWidgetBaseline(widgetId);
 426:Generated_Source\PSoC4/CapSense_1_Filter.c ****     }
 427:Generated_Source\PSoC4/CapSense_1_Filter.c **** }
 428:Generated_Source\PSoC4/CapSense_1_Filter.c **** 
 429:Generated_Source\PSoC4/CapSense_1_Filter.c **** 
ARM GAS  C:\Users\bryan.lee\AppData\Local\Temp\cc6wSQv1.s 			page 9


 430:Generated_Source\PSoC4/CapSense_1_Filter.c **** /*******************************************************************************
 431:Generated_Source\PSoC4/CapSense_1_Filter.c **** * Function Name: CapSense_1_InitializeWidgetBaseline
 432:Generated_Source\PSoC4/CapSense_1_Filter.c **** ****************************************************************************//**
 433:Generated_Source\PSoC4/CapSense_1_Filter.c **** *
 434:Generated_Source\PSoC4/CapSense_1_Filter.c **** * \brief
 435:Generated_Source\PSoC4/CapSense_1_Filter.c **** *  Initializes (or re-initializes) the baselines of all the sensors in a widget
 436:Generated_Source\PSoC4/CapSense_1_Filter.c **** *  specified by the input parameter.
 437:Generated_Source\PSoC4/CapSense_1_Filter.c **** *
 438:Generated_Source\PSoC4/CapSense_1_Filter.c **** * \details
 439:Generated_Source\PSoC4/CapSense_1_Filter.c **** *  Initializes (or re-initializes) the baseline for all the sensors of the
 440:Generated_Source\PSoC4/CapSense_1_Filter.c **** *  specified widget.
 441:Generated_Source\PSoC4/CapSense_1_Filter.c **** *
 442:Generated_Source\PSoC4/CapSense_1_Filter.c **** *  If any raw count filter is enabled, make sure the raw count filter history is
 443:Generated_Source\PSoC4/CapSense_1_Filter.c **** *  initialized as well using one of these functions:
 444:Generated_Source\PSoC4/CapSense_1_Filter.c **** *  - CapSense_1_InitializeAllFilters().
 445:Generated_Source\PSoC4/CapSense_1_Filter.c **** *  - CapSense_1_InitializeWidgetFilter().
 446:Generated_Source\PSoC4/CapSense_1_Filter.c **** *
 447:Generated_Source\PSoC4/CapSense_1_Filter.c **** * \param widgetId
 448:Generated_Source\PSoC4/CapSense_1_Filter.c **** *  Specifies the ID number of a widget to initialize the baseline of all the sensors
 449:Generated_Source\PSoC4/CapSense_1_Filter.c **** *  in the widget.
 450:Generated_Source\PSoC4/CapSense_1_Filter.c **** *  A macro for the widget ID can be found in the
 451:Generated_Source\PSoC4/CapSense_1_Filter.c **** *  CapSense_1 Configuration header file defined as
 452:Generated_Source\PSoC4/CapSense_1_Filter.c **** *  CapSense_1_<WidgetName>_WDGT_ID.
 453:Generated_Source\PSoC4/CapSense_1_Filter.c **** *
 454:Generated_Source\PSoC4/CapSense_1_Filter.c **** *******************************************************************************/
 455:Generated_Source\PSoC4/CapSense_1_Filter.c **** void CapSense_1_InitializeWidgetBaseline(uint32 widgetId)
 456:Generated_Source\PSoC4/CapSense_1_Filter.c **** {
 457:Generated_Source\PSoC4/CapSense_1_Filter.c ****     uint32 sensorId;
 458:Generated_Source\PSoC4/CapSense_1_Filter.c ****     uint32 sensorsNumber;
 459:Generated_Source\PSoC4/CapSense_1_Filter.c **** 
 460:Generated_Source\PSoC4/CapSense_1_Filter.c ****     CapSense_1_FLASH_WD_STRUCT const *ptrWidget = &CapSense_1_dsFlash.wdgtArray[widgetId];
 461:Generated_Source\PSoC4/CapSense_1_Filter.c **** 
 462:Generated_Source\PSoC4/CapSense_1_Filter.c ****     /* Find total amount of sensors in specified widget */
 463:Generated_Source\PSoC4/CapSense_1_Filter.c ****     sensorsNumber = CapSense_1_GET_SNS_CNT_BY_PTR(ptrWidget);
 464:Generated_Source\PSoC4/CapSense_1_Filter.c **** 
 465:Generated_Source\PSoC4/CapSense_1_Filter.c ****     for(sensorId = sensorsNumber; sensorId-- > 0u;)
 466:Generated_Source\PSoC4/CapSense_1_Filter.c ****     {
 467:Generated_Source\PSoC4/CapSense_1_Filter.c ****         CapSense_1_InitializeSensorBaseline(widgetId, sensorId);
 468:Generated_Source\PSoC4/CapSense_1_Filter.c ****     }
 469:Generated_Source\PSoC4/CapSense_1_Filter.c **** }
 470:Generated_Source\PSoC4/CapSense_1_Filter.c **** 
 471:Generated_Source\PSoC4/CapSense_1_Filter.c **** 
 472:Generated_Source\PSoC4/CapSense_1_Filter.c **** /*******************************************************************************
 473:Generated_Source\PSoC4/CapSense_1_Filter.c **** * Function Name: CapSense_1_InitializeSensorBaseline
 474:Generated_Source\PSoC4/CapSense_1_Filter.c **** ****************************************************************************//**
 475:Generated_Source\PSoC4/CapSense_1_Filter.c **** *
 476:Generated_Source\PSoC4/CapSense_1_Filter.c **** * \brief
 477:Generated_Source\PSoC4/CapSense_1_Filter.c **** *  Initializes (or re-initializes) the baseline of a sensor in a widget specified
 478:Generated_Source\PSoC4/CapSense_1_Filter.c **** *  by the input parameters.
 479:Generated_Source\PSoC4/CapSense_1_Filter.c **** *
 480:Generated_Source\PSoC4/CapSense_1_Filter.c **** * \details
 481:Generated_Source\PSoC4/CapSense_1_Filter.c **** *  Initializes (or re-initializes) the baseline for a specified sensor within
 482:Generated_Source\PSoC4/CapSense_1_Filter.c **** *  a specified widget.
 483:Generated_Source\PSoC4/CapSense_1_Filter.c **** *
 484:Generated_Source\PSoC4/CapSense_1_Filter.c **** * \param widgetId
 485:Generated_Source\PSoC4/CapSense_1_Filter.c **** *  Specifies the ID number of a widget to initialize the baseline of the sensor
 486:Generated_Source\PSoC4/CapSense_1_Filter.c **** *  in the widget.
ARM GAS  C:\Users\bryan.lee\AppData\Local\Temp\cc6wSQv1.s 			page 10


 487:Generated_Source\PSoC4/CapSense_1_Filter.c **** *  A macro for the widget ID can be found in the
 488:Generated_Source\PSoC4/CapSense_1_Filter.c **** *  CapSense_1 Configuration header file defined as
 489:Generated_Source\PSoC4/CapSense_1_Filter.c **** *  CapSense_1_<WidgetName>_WDGT_ID.
 490:Generated_Source\PSoC4/CapSense_1_Filter.c **** *
 491:Generated_Source\PSoC4/CapSense_1_Filter.c **** * \param sensorId
 492:Generated_Source\PSoC4/CapSense_1_Filter.c **** *  Specifies the ID number of the sensor within the widget to initialize its
 493:Generated_Source\PSoC4/CapSense_1_Filter.c **** *  baseline.
 494:Generated_Source\PSoC4/CapSense_1_Filter.c **** *  A macro for the sensor ID within a specified widget can be found in the
 495:Generated_Source\PSoC4/CapSense_1_Filter.c **** *  CapSense_1 Configuration header file defined as
 496:Generated_Source\PSoC4/CapSense_1_Filter.c **** *  CapSense_1_<WidgetName>_SNS<SensorNumber>_ID.
 497:Generated_Source\PSoC4/CapSense_1_Filter.c **** *
 498:Generated_Source\PSoC4/CapSense_1_Filter.c **** *******************************************************************************/
 499:Generated_Source\PSoC4/CapSense_1_Filter.c **** void CapSense_1_InitializeSensorBaseline(uint32 widgetId, uint32 sensorId)
 500:Generated_Source\PSoC4/CapSense_1_Filter.c **** {
 501:Generated_Source\PSoC4/CapSense_1_Filter.c ****     CapSense_1_RAM_SNS_STRUCT *ptrSensor = NULL;
 502:Generated_Source\PSoC4/CapSense_1_Filter.c ****     CapSense_1_FLASH_WD_STRUCT const *ptrWidget = NULL;
 503:Generated_Source\PSoC4/CapSense_1_Filter.c ****     ptrWidget = &CapSense_1_dsFlash.wdgtArray[widgetId];
 504:Generated_Source\PSoC4/CapSense_1_Filter.c **** 
 505:Generated_Source\PSoC4/CapSense_1_Filter.c ****     /* Find pointer to specified sensor object */
 506:Generated_Source\PSoC4/CapSense_1_Filter.c ****     ptrSensor = ptrWidget->ptr2SnsRam;
 507:Generated_Source\PSoC4/CapSense_1_Filter.c ****     ptrSensor = &ptrSensor[sensorId];
 508:Generated_Source\PSoC4/CapSense_1_Filter.c **** 
 509:Generated_Source\PSoC4/CapSense_1_Filter.c ****     CapSense_1_FtInitializeBaseline(ptrSensor, (uint32)ptrWidget->wdgtType);
 510:Generated_Source\PSoC4/CapSense_1_Filter.c **** }
 511:Generated_Source\PSoC4/CapSense_1_Filter.c **** 
 512:Generated_Source\PSoC4/CapSense_1_Filter.c **** 
 513:Generated_Source\PSoC4/CapSense_1_Filter.c **** /*******************************************************************************
 514:Generated_Source\PSoC4/CapSense_1_Filter.c **** * Function Name: CapSense_1_FtInitializeBaseline
 515:Generated_Source\PSoC4/CapSense_1_Filter.c **** ****************************************************************************//**
 516:Generated_Source\PSoC4/CapSense_1_Filter.c **** *
 517:Generated_Source\PSoC4/CapSense_1_Filter.c **** * \brief
 518:Generated_Source\PSoC4/CapSense_1_Filter.c **** *  Initializes the baseline history for a sensor indicated by an input
 519:Generated_Source\PSoC4/CapSense_1_Filter.c **** *  parameter.
 520:Generated_Source\PSoC4/CapSense_1_Filter.c **** *
 521:Generated_Source\PSoC4/CapSense_1_Filter.c **** * \details
 522:Generated_Source\PSoC4/CapSense_1_Filter.c **** *  Initializes the baseline history for a sensor indicated by an input
 523:Generated_Source\PSoC4/CapSense_1_Filter.c **** *  parameter.
 524:Generated_Source\PSoC4/CapSense_1_Filter.c **** *
 525:Generated_Source\PSoC4/CapSense_1_Filter.c **** * \param *ptrSensor
 526:Generated_Source\PSoC4/CapSense_1_Filter.c **** *  The pointer to the sensor RAM object.
 527:Generated_Source\PSoC4/CapSense_1_Filter.c **** *
 528:Generated_Source\PSoC4/CapSense_1_Filter.c **** * \param wdType
 529:Generated_Source\PSoC4/CapSense_1_Filter.c **** *  Specifies the type of a widget.
 530:Generated_Source\PSoC4/CapSense_1_Filter.c **** *
 531:Generated_Source\PSoC4/CapSense_1_Filter.c **** *******************************************************************************/
 532:Generated_Source\PSoC4/CapSense_1_Filter.c **** void CapSense_1_FtInitializeBaseline(CapSense_1_RAM_SNS_STRUCT *ptrSensor, uint32 wdType)
 533:Generated_Source\PSoC4/CapSense_1_Filter.c **** {
 534:Generated_Source\PSoC4/CapSense_1_Filter.c ****     uint32 freqChannel;
 535:Generated_Source\PSoC4/CapSense_1_Filter.c **** 
 536:Generated_Source\PSoC4/CapSense_1_Filter.c ****     /* Apply baseline initialization to every channel in sensor */
 537:Generated_Source\PSoC4/CapSense_1_Filter.c ****     for(freqChannel = CapSense_1_NUM_SCAN_FREQS; freqChannel-- > 0u;)
 538:Generated_Source\PSoC4/CapSense_1_Filter.c ****     {
 539:Generated_Source\PSoC4/CapSense_1_Filter.c ****         CapSense_1_FtInitializeBaselineChannel(ptrSensor, wdType, freqChannel);
 540:Generated_Source\PSoC4/CapSense_1_Filter.c ****     }
 541:Generated_Source\PSoC4/CapSense_1_Filter.c **** }
 542:Generated_Source\PSoC4/CapSense_1_Filter.c **** 
 543:Generated_Source\PSoC4/CapSense_1_Filter.c **** 
ARM GAS  C:\Users\bryan.lee\AppData\Local\Temp\cc6wSQv1.s 			page 11


 544:Generated_Source\PSoC4/CapSense_1_Filter.c **** /*******************************************************************************
 545:Generated_Source\PSoC4/CapSense_1_Filter.c **** * Function Name: CapSense_1_FtInitializeBaselineChannel
 546:Generated_Source\PSoC4/CapSense_1_Filter.c **** ****************************************************************************//**
 547:Generated_Source\PSoC4/CapSense_1_Filter.c **** *
 548:Generated_Source\PSoC4/CapSense_1_Filter.c **** * \brief
 549:Generated_Source\PSoC4/CapSense_1_Filter.c **** *  Initializes the baseline history for a sensor indicated by an input
 550:Generated_Source\PSoC4/CapSense_1_Filter.c **** *  parameter.
 551:Generated_Source\PSoC4/CapSense_1_Filter.c **** *
 552:Generated_Source\PSoC4/CapSense_1_Filter.c **** * \details
 553:Generated_Source\PSoC4/CapSense_1_Filter.c **** *  Initializes the baseline history for a sensor indicated by an input
 554:Generated_Source\PSoC4/CapSense_1_Filter.c **** *  parameter.
 555:Generated_Source\PSoC4/CapSense_1_Filter.c **** *
 556:Generated_Source\PSoC4/CapSense_1_Filter.c **** * \param *ptrSensor
 557:Generated_Source\PSoC4/CapSense_1_Filter.c **** *  The pointer to the sensor RAM object.
 558:Generated_Source\PSoC4/CapSense_1_Filter.c **** *
 559:Generated_Source\PSoC4/CapSense_1_Filter.c **** * \param wdType
 560:Generated_Source\PSoC4/CapSense_1_Filter.c **** *  Specifies the type of a widget.
 561:Generated_Source\PSoC4/CapSense_1_Filter.c **** *
 562:Generated_Source\PSoC4/CapSense_1_Filter.c **** * \param channel
 563:Generated_Source\PSoC4/CapSense_1_Filter.c **** *  Specifies the number of the channel to be initialized.
 564:Generated_Source\PSoC4/CapSense_1_Filter.c **** *
 565:Generated_Source\PSoC4/CapSense_1_Filter.c **** *******************************************************************************/
 566:Generated_Source\PSoC4/CapSense_1_Filter.c **** void CapSense_1_FtInitializeBaselineChannel(CapSense_1_RAM_SNS_STRUCT *ptrSensor, uint32 wdType, ui
 567:Generated_Source\PSoC4/CapSense_1_Filter.c **** {
  28              		.loc 1 567 0
  29              		.cfi_startproc
  30              		@ args = 0, pretend = 0, frame = 0
  31              		@ frame_needed = 0, uses_anonymous_args = 0
  32              		@ link register save eliminated.
  33              	.LVL0:
 568:Generated_Source\PSoC4/CapSense_1_Filter.c ****     #if (CapSense_1_BASELINE_TYPE == CapSense_1_IIR_BASELINE)
 569:Generated_Source\PSoC4/CapSense_1_Filter.c ****         if ((CapSense_1_WD_TYPE_ENUM)wdType != CapSense_1_WD_PROXIMITY_E)
  34              		.loc 1 569 0
  35 0000 FF23     		movs	r3, #255
  36 0002 1940     		ands	r1, r3
  37              	.LVL1:
  38 0004 0629     		cmp	r1, #6
  39 0006 02D0     		beq	.L2
 570:Generated_Source\PSoC4/CapSense_1_Filter.c ****         {
 571:Generated_Source\PSoC4/CapSense_1_Filter.c ****             #if (CapSense_1_REGULAR_SENSOR_EN)
 572:Generated_Source\PSoC4/CapSense_1_Filter.c ****                 #if (CapSense_1_REGULAR_IIR_BL_TYPE == CapSense_1_IIR_FILTER_PERFORMANCE)
 573:Generated_Source\PSoC4/CapSense_1_Filter.c ****                     ptrSensor->bslnExt[channel] = 0u;
  40              		.loc 1 573 0
  41 0008 8318     		adds	r3, r0, r2
  42 000a 0021     		movs	r1, #0
  43 000c 1971     		strb	r1, [r3, #4]
  44              	.L2:
 574:Generated_Source\PSoC4/CapSense_1_Filter.c ****                 #endif /* (CapSense_1_REGULAR_IIR_BL_TYPE == CapSense_1_IIR_FILTER_PERFORMANCE) */
 575:Generated_Source\PSoC4/CapSense_1_Filter.c ****             #endif /* (CapSense_1_REGULAR_SENSOR_EN) */
 576:Generated_Source\PSoC4/CapSense_1_Filter.c ****         }
 577:Generated_Source\PSoC4/CapSense_1_Filter.c ****         else
 578:Generated_Source\PSoC4/CapSense_1_Filter.c ****         {
 579:Generated_Source\PSoC4/CapSense_1_Filter.c ****             #if (CapSense_1_PROXIMITY_SENSOR_EN)
 580:Generated_Source\PSoC4/CapSense_1_Filter.c ****                 #if (CapSense_1_PROX_IIR_BL_TYPE == CapSense_1_IIR_FILTER_PERFORMANCE)
 581:Generated_Source\PSoC4/CapSense_1_Filter.c ****                     ptrSensor->bslnExt[channel] = 0u;
 582:Generated_Source\PSoC4/CapSense_1_Filter.c ****                 #endif /* (CapSense_1_PROX_IIR_BL_TYPE == CapSense_1_IIR_FILTER_PERFORMANCE) */
 583:Generated_Source\PSoC4/CapSense_1_Filter.c ****             #endif /* (CapSense_1_PROX_SENSOR_EN) */
ARM GAS  C:\Users\bryan.lee\AppData\Local\Temp\cc6wSQv1.s 			page 12


 584:Generated_Source\PSoC4/CapSense_1_Filter.c ****         }
 585:Generated_Source\PSoC4/CapSense_1_Filter.c ****     #else
 586:Generated_Source\PSoC4/CapSense_1_Filter.c ****         /* CapSense_1_BASELINE_TYPE == CapSense_1_BUCKET_BASELINE */
 587:Generated_Source\PSoC4/CapSense_1_Filter.c ****         ptrSensor->bslnExt[channel] = 0u;
 588:Generated_Source\PSoC4/CapSense_1_Filter.c ****     #endif /* (CapSense_1_BASELINE_TYPE == CapSense_1_IIR_BASELINE) */
 589:Generated_Source\PSoC4/CapSense_1_Filter.c **** 
 590:Generated_Source\PSoC4/CapSense_1_Filter.c ****     ptrSensor->bsln[channel] = ptrSensor->raw[channel];
  45              		.loc 1 590 0
  46 000e 5300     		lsls	r3, r2, #1
  47 0010 195A     		ldrh	r1, [r3, r0]
  48 0012 C318     		adds	r3, r0, r3
  49 0014 5980     		strh	r1, [r3, #2]
 591:Generated_Source\PSoC4/CapSense_1_Filter.c **** 
 592:Generated_Source\PSoC4/CapSense_1_Filter.c ****     #if (CapSense_1_ENABLE == CapSense_1_TST_BSLN_DUPLICATION_EN)
 593:Generated_Source\PSoC4/CapSense_1_Filter.c ****     /* Update baseline inversion of the channel in sensor */
 594:Generated_Source\PSoC4/CapSense_1_Filter.c ****         ptrSensor->bslnInv[channel] = ~(ptrSensor->bsln[channel]);
 595:Generated_Source\PSoC4/CapSense_1_Filter.c ****     #endif /* (CapSense_1_ENABLE == CapSense_1_TST_BSLN_DUPLICATION_EN) */
 596:Generated_Source\PSoC4/CapSense_1_Filter.c **** 
 597:Generated_Source\PSoC4/CapSense_1_Filter.c ****     ptrSensor->negBslnRstCnt[channel] = 0u;
  50              		.loc 1 597 0
  51 0016 8218     		adds	r2, r0, r2
  52              	.LVL2:
  53 0018 0023     		movs	r3, #0
  54 001a 1372     		strb	r3, [r2, #8]
 598:Generated_Source\PSoC4/CapSense_1_Filter.c **** }
  55              		.loc 1 598 0
  56              		@ sp needed
  57 001c 7047     		bx	lr
  58              		.cfi_endproc
  59              	.LFE11:
  60              		.size	CapSense_1_FtInitializeBaselineChannel, .-CapSense_1_FtInitializeBaselineChannel
  61 001e C046     		.section	.text.CapSense_1_FtInitializeBaseline,"ax",%progbits
  62              		.align	2
  63              		.global	CapSense_1_FtInitializeBaseline
  64              		.code	16
  65              		.thumb_func
  66              		.type	CapSense_1_FtInitializeBaseline, %function
  67              	CapSense_1_FtInitializeBaseline:
  68              	.LFB10:
 533:Generated_Source\PSoC4/CapSense_1_Filter.c ****     uint32 freqChannel;
  69              		.loc 1 533 0
  70              		.cfi_startproc
  71              		@ args = 0, pretend = 0, frame = 0
  72              		@ frame_needed = 0, uses_anonymous_args = 0
  73              	.LVL3:
  74 0000 70B5     		push	{r4, r5, r6, lr}
  75              		.cfi_def_cfa_offset 16
  76              		.cfi_offset 4, -16
  77              		.cfi_offset 5, -12
  78              		.cfi_offset 6, -8
  79              		.cfi_offset 14, -4
  80 0002 0600     		movs	r6, r0
  81 0004 0D00     		movs	r5, r1
  82              	.LVL4:
 537:Generated_Source\PSoC4/CapSense_1_Filter.c ****     {
  83              		.loc 1 537 0
  84 0006 0123     		movs	r3, #1
ARM GAS  C:\Users\bryan.lee\AppData\Local\Temp\cc6wSQv1.s 			page 13


  85 0008 05E0     		b	.L4
  86              	.LVL5:
  87              	.L5:
 539:Generated_Source\PSoC4/CapSense_1_Filter.c ****     }
  88              		.loc 1 539 0
  89 000a 2200     		movs	r2, r4
  90 000c 2900     		movs	r1, r5
  91 000e 3000     		movs	r0, r6
  92 0010 FFF7FEFF 		bl	CapSense_1_FtInitializeBaselineChannel
  93              	.LVL6:
 537:Generated_Source\PSoC4/CapSense_1_Filter.c ****     {
  94              		.loc 1 537 0
  95 0014 2300     		movs	r3, r4
  96              	.LVL7:
  97              	.L4:
 537:Generated_Source\PSoC4/CapSense_1_Filter.c ****     {
  98              		.loc 1 537 0 is_stmt 0 discriminator 1
  99 0016 5C1E     		subs	r4, r3, #1
 100              	.LVL8:
 101 0018 002B     		cmp	r3, #0
 102 001a F6D1     		bne	.L5
 541:Generated_Source\PSoC4/CapSense_1_Filter.c **** 
 103              		.loc 1 541 0 is_stmt 1
 104              		@ sp needed
 105              	.LVL9:
 106              	.LVL10:
 107              	.LVL11:
 108 001c 70BD     		pop	{r4, r5, r6, pc}
 109              		.cfi_endproc
 110              	.LFE10:
 111              		.size	CapSense_1_FtInitializeBaseline, .-CapSense_1_FtInitializeBaseline
 112 001e C046     		.section	.text.CapSense_1_InitializeSensorBaseline,"ax",%progbits
 113              		.align	2
 114              		.global	CapSense_1_InitializeSensorBaseline
 115              		.code	16
 116              		.thumb_func
 117              		.type	CapSense_1_InitializeSensorBaseline, %function
 118              	CapSense_1_InitializeSensorBaseline:
 119              	.LFB9:
 500:Generated_Source\PSoC4/CapSense_1_Filter.c ****     CapSense_1_RAM_SNS_STRUCT *ptrSensor = NULL;
 120              		.loc 1 500 0
 121              		.cfi_startproc
 122              		@ args = 0, pretend = 0, frame = 0
 123              		@ frame_needed = 0, uses_anonymous_args = 0
 124              	.LVL12:
 125 0000 10B5     		push	{r4, lr}
 126              		.cfi_def_cfa_offset 8
 127              		.cfi_offset 4, -8
 128              		.cfi_offset 14, -4
 129              	.LVL13:
 506:Generated_Source\PSoC4/CapSense_1_Filter.c ****     ptrSensor = &ptrSensor[sensorId];
 130              		.loc 1 506 0
 131 0002 4001     		lsls	r0, r0, #5
 132              	.LVL14:
 133 0004 054B     		ldr	r3, .L7
 134 0006 1B18     		adds	r3, r3, r0
 135              	.LVL15:
ARM GAS  C:\Users\bryan.lee\AppData\Local\Temp\cc6wSQv1.s 			page 14


 507:Generated_Source\PSoC4/CapSense_1_Filter.c **** 
 136              		.loc 1 507 0
 137 0008 8A00     		lsls	r2, r1, #2
 138 000a 5118     		adds	r1, r2, r1
 139              	.LVL16:
 140 000c 4800     		lsls	r0, r1, #1
 141 000e 9A68     		ldr	r2, [r3, #8]
 142 0010 9446     		mov	ip, r2
 143 0012 6044     		add	r0, r0, ip
 144              	.LVL17:
 509:Generated_Source\PSoC4/CapSense_1_Filter.c **** }
 145              		.loc 1 509 0
 146 0014 997E     		ldrb	r1, [r3, #26]
 147 0016 FFF7FEFF 		bl	CapSense_1_FtInitializeBaseline
 148              	.LVL18:
 510:Generated_Source\PSoC4/CapSense_1_Filter.c **** 
 149              		.loc 1 510 0
 150              		@ sp needed
 151 001a 10BD     		pop	{r4, pc}
 152              	.L8:
 153              		.align	2
 154              	.L7:
 155 001c 00000000 		.word	CapSense_1_dsFlash
 156              		.cfi_endproc
 157              	.LFE9:
 158              		.size	CapSense_1_InitializeSensorBaseline, .-CapSense_1_InitializeSensorBaseline
 159              		.section	.text.CapSense_1_InitializeWidgetBaseline,"ax",%progbits
 160              		.align	2
 161              		.global	CapSense_1_InitializeWidgetBaseline
 162              		.code	16
 163              		.thumb_func
 164              		.type	CapSense_1_InitializeWidgetBaseline, %function
 165              	CapSense_1_InitializeWidgetBaseline:
 166              	.LFB8:
 456:Generated_Source\PSoC4/CapSense_1_Filter.c ****     uint32 sensorId;
 167              		.loc 1 456 0
 168              		.cfi_startproc
 169              		@ args = 0, pretend = 0, frame = 0
 170              		@ frame_needed = 0, uses_anonymous_args = 0
 171              	.LVL19:
 172 0000 70B5     		push	{r4, r5, r6, lr}
 173              		.cfi_def_cfa_offset 16
 174              		.cfi_offset 4, -16
 175              		.cfi_offset 5, -12
 176              		.cfi_offset 6, -8
 177              		.cfi_offset 14, -4
 178 0002 0500     		movs	r5, r0
 179              	.LVL20:
 463:Generated_Source\PSoC4/CapSense_1_Filter.c **** 
 180              		.loc 1 463 0
 181 0004 4301     		lsls	r3, r0, #5
 182 0006 064A     		ldr	r2, .L12
 183 0008 D318     		adds	r3, r2, r3
 184              	.LVL21:
 185 000a 1B8B     		ldrh	r3, [r3, #24]
 186              	.LVL22:
 465:Generated_Source\PSoC4/CapSense_1_Filter.c ****     {
ARM GAS  C:\Users\bryan.lee\AppData\Local\Temp\cc6wSQv1.s 			page 15


 187              		.loc 1 465 0
 188 000c 04E0     		b	.L10
 189              	.LVL23:
 190              	.L11:
 467:Generated_Source\PSoC4/CapSense_1_Filter.c ****     }
 191              		.loc 1 467 0
 192 000e 2100     		movs	r1, r4
 193 0010 2800     		movs	r0, r5
 194 0012 FFF7FEFF 		bl	CapSense_1_InitializeSensorBaseline
 195              	.LVL24:
 465:Generated_Source\PSoC4/CapSense_1_Filter.c ****     {
 196              		.loc 1 465 0
 197 0016 2300     		movs	r3, r4
 198              	.LVL25:
 199              	.L10:
 465:Generated_Source\PSoC4/CapSense_1_Filter.c ****     {
 200              		.loc 1 465 0 is_stmt 0 discriminator 1
 201 0018 5C1E     		subs	r4, r3, #1
 202              	.LVL26:
 203 001a 002B     		cmp	r3, #0
 204 001c F7D1     		bne	.L11
 469:Generated_Source\PSoC4/CapSense_1_Filter.c **** 
 205              		.loc 1 469 0 is_stmt 1
 206              		@ sp needed
 207              	.LVL27:
 208              	.LVL28:
 209 001e 70BD     		pop	{r4, r5, r6, pc}
 210              	.L13:
 211              		.align	2
 212              	.L12:
 213 0020 00000000 		.word	CapSense_1_dsFlash
 214              		.cfi_endproc
 215              	.LFE8:
 216              		.size	CapSense_1_InitializeWidgetBaseline, .-CapSense_1_InitializeWidgetBaseline
 217              		.section	.text.CapSense_1_InitializeAllBaselines,"ax",%progbits
 218              		.align	2
 219              		.global	CapSense_1_InitializeAllBaselines
 220              		.code	16
 221              		.thumb_func
 222              		.type	CapSense_1_InitializeAllBaselines, %function
 223              	CapSense_1_InitializeAllBaselines:
 224              	.LFB7:
 420:Generated_Source\PSoC4/CapSense_1_Filter.c ****     uint32 widgetId;
 225              		.loc 1 420 0
 226              		.cfi_startproc
 227              		@ args = 0, pretend = 0, frame = 0
 228              		@ frame_needed = 0, uses_anonymous_args = 0
 229 0000 10B5     		push	{r4, lr}
 230              		.cfi_def_cfa_offset 8
 231              		.cfi_offset 4, -8
 232              		.cfi_offset 14, -4
 233              	.LVL29:
 423:Generated_Source\PSoC4/CapSense_1_Filter.c ****     {
 234              		.loc 1 423 0
 235 0002 0123     		movs	r3, #1
 236 0004 03E0     		b	.L15
 237              	.LVL30:
ARM GAS  C:\Users\bryan.lee\AppData\Local\Temp\cc6wSQv1.s 			page 16


 238              	.L16:
 425:Generated_Source\PSoC4/CapSense_1_Filter.c ****     }
 239              		.loc 1 425 0
 240 0006 2000     		movs	r0, r4
 241 0008 FFF7FEFF 		bl	CapSense_1_InitializeWidgetBaseline
 242              	.LVL31:
 423:Generated_Source\PSoC4/CapSense_1_Filter.c ****     {
 243              		.loc 1 423 0
 244 000c 2300     		movs	r3, r4
 245              	.LVL32:
 246              	.L15:
 423:Generated_Source\PSoC4/CapSense_1_Filter.c ****     {
 247              		.loc 1 423 0 is_stmt 0 discriminator 1
 248 000e 5C1E     		subs	r4, r3, #1
 249              	.LVL33:
 250 0010 002B     		cmp	r3, #0
 251 0012 F8D1     		bne	.L16
 427:Generated_Source\PSoC4/CapSense_1_Filter.c **** 
 252              		.loc 1 427 0 is_stmt 1
 253              		@ sp needed
 254              	.LVL34:
 255 0014 10BD     		pop	{r4, pc}
 256              		.cfi_endproc
 257              	.LFE7:
 258              		.size	CapSense_1_InitializeAllBaselines, .-CapSense_1_InitializeAllBaselines
 259 0016 C046     		.section	.text.CapSense_1_InitializeWidgetFilter,"ax",%progbits
 260              		.align	2
 261              		.global	CapSense_1_InitializeWidgetFilter
 262              		.code	16
 263              		.thumb_func
 264              		.type	CapSense_1_InitializeWidgetFilter, %function
 265              	CapSense_1_InitializeWidgetFilter:
 266              	.LFB13:
 599:Generated_Source\PSoC4/CapSense_1_Filter.c **** 
 600:Generated_Source\PSoC4/CapSense_1_Filter.c **** #if ((CapSense_1_ENABLE == CapSense_1_RC_FILTER_EN) || \
 601:Generated_Source\PSoC4/CapSense_1_Filter.c ****      (0u != (CapSense_1_CSD_AUTOTUNE & CapSense_1_CSD_SS_TH_EN)))
 602:Generated_Source\PSoC4/CapSense_1_Filter.c **** /*******************************************************************************
 603:Generated_Source\PSoC4/CapSense_1_Filter.c **** * Function Name: CapSense_1_InitializeAllFilters
 604:Generated_Source\PSoC4/CapSense_1_Filter.c **** ****************************************************************************//**
 605:Generated_Source\PSoC4/CapSense_1_Filter.c **** *
 606:Generated_Source\PSoC4/CapSense_1_Filter.c **** * \brief
 607:Generated_Source\PSoC4/CapSense_1_Filter.c **** *  Initializes (or re-initializes) the raw count filter history of all the
 608:Generated_Source\PSoC4/CapSense_1_Filter.c **** *  sensors of all the widgets.
 609:Generated_Source\PSoC4/CapSense_1_Filter.c **** *
 610:Generated_Source\PSoC4/CapSense_1_Filter.c **** * \details
 611:Generated_Source\PSoC4/CapSense_1_Filter.c **** *  Initializes the raw count filter history for all the sensors of all the
 612:Generated_Source\PSoC4/CapSense_1_Filter.c **** *  widgets. Also, this function can be used to re-initialize baselines.
 613:Generated_Source\PSoC4/CapSense_1_Filter.c **** *  CapSense_1_Start() calls this API as part of CapSense_1
 614:Generated_Source\PSoC4/CapSense_1_Filter.c **** *  operation initialization.
 615:Generated_Source\PSoC4/CapSense_1_Filter.c **** *
 616:Generated_Source\PSoC4/CapSense_1_Filter.c **** *******************************************************************************/
 617:Generated_Source\PSoC4/CapSense_1_Filter.c **** void CapSense_1_InitializeAllFilters(void)
 618:Generated_Source\PSoC4/CapSense_1_Filter.c **** {
 619:Generated_Source\PSoC4/CapSense_1_Filter.c ****     uint32 widgetId;
 620:Generated_Source\PSoC4/CapSense_1_Filter.c **** 
 621:Generated_Source\PSoC4/CapSense_1_Filter.c ****     for(widgetId = CapSense_1_TOTAL_WIDGETS; widgetId-- > 0u;)
 622:Generated_Source\PSoC4/CapSense_1_Filter.c ****     {
ARM GAS  C:\Users\bryan.lee\AppData\Local\Temp\cc6wSQv1.s 			page 17


 623:Generated_Source\PSoC4/CapSense_1_Filter.c ****         CapSense_1_InitializeWidgetFilter(widgetId);
 624:Generated_Source\PSoC4/CapSense_1_Filter.c ****     }
 625:Generated_Source\PSoC4/CapSense_1_Filter.c **** }
 626:Generated_Source\PSoC4/CapSense_1_Filter.c **** 
 627:Generated_Source\PSoC4/CapSense_1_Filter.c **** /*******************************************************************************
 628:Generated_Source\PSoC4/CapSense_1_Filter.c **** * Function Name: CapSense_1_InitializeWidgetFilter
 629:Generated_Source\PSoC4/CapSense_1_Filter.c **** ****************************************************************************//**
 630:Generated_Source\PSoC4/CapSense_1_Filter.c **** *
 631:Generated_Source\PSoC4/CapSense_1_Filter.c **** * \brief
 632:Generated_Source\PSoC4/CapSense_1_Filter.c **** *  Initializes (or re-initializes) the raw count filter history of all the sensors
 633:Generated_Source\PSoC4/CapSense_1_Filter.c **** *  in a widget specified by the input parameter.
 634:Generated_Source\PSoC4/CapSense_1_Filter.c **** *
 635:Generated_Source\PSoC4/CapSense_1_Filter.c **** * \details
 636:Generated_Source\PSoC4/CapSense_1_Filter.c **** *  Initializes (or re-initializes) the raw count filter history of all the sensors
 637:Generated_Source\PSoC4/CapSense_1_Filter.c **** *  in a widget specified by the input parameter.
 638:Generated_Source\PSoC4/CapSense_1_Filter.c **** *
 639:Generated_Source\PSoC4/CapSense_1_Filter.c **** * \param widgetId
 640:Generated_Source\PSoC4/CapSense_1_Filter.c **** *  Specifies the ID number of a widget to initialize the filter history of all
 641:Generated_Source\PSoC4/CapSense_1_Filter.c **** *  the sensors in the widget.
 642:Generated_Source\PSoC4/CapSense_1_Filter.c **** *  A macro for the widget ID can be found in the
 643:Generated_Source\PSoC4/CapSense_1_Filter.c **** *  CapSense_1 Configuration header file defined as
 644:Generated_Source\PSoC4/CapSense_1_Filter.c **** *  CapSense_1_<WidgetName>_WDGT_ID.
 645:Generated_Source\PSoC4/CapSense_1_Filter.c **** *
 646:Generated_Source\PSoC4/CapSense_1_Filter.c **** *******************************************************************************/
 647:Generated_Source\PSoC4/CapSense_1_Filter.c **** void CapSense_1_InitializeWidgetFilter(uint32 widgetId)
 648:Generated_Source\PSoC4/CapSense_1_Filter.c **** {
 267              		.loc 1 648 0
 268              		.cfi_startproc
 269              		@ args = 0, pretend = 0, frame = 0
 270              		@ frame_needed = 0, uses_anonymous_args = 0
 271              	.LVL35:
 272 0000 F8B5     		push	{r3, r4, r5, r6, r7, lr}
 273              		.cfi_def_cfa_offset 24
 274              		.cfi_offset 3, -24
 275              		.cfi_offset 4, -20
 276              		.cfi_offset 5, -16
 277              		.cfi_offset 6, -12
 278              		.cfi_offset 7, -8
 279              		.cfi_offset 14, -4
 280 0002 0500     		movs	r5, r0
 281              	.LVL36:
 649:Generated_Source\PSoC4/CapSense_1_Filter.c ****     uint32 sensorId;
 650:Generated_Source\PSoC4/CapSense_1_Filter.c ****     uint32 sensorsNumber;
 651:Generated_Source\PSoC4/CapSense_1_Filter.c **** 
 652:Generated_Source\PSoC4/CapSense_1_Filter.c ****     CapSense_1_FLASH_WD_STRUCT const *ptrWidget;
 653:Generated_Source\PSoC4/CapSense_1_Filter.c ****     CapSense_1_RAM_SNS_STRUCT *ptrSensor = NULL;
 654:Generated_Source\PSoC4/CapSense_1_Filter.c ****     #if (CapSense_1_ENABLE == CapSense_1_RC_FILTER_EN)
 655:Generated_Source\PSoC4/CapSense_1_Filter.c ****         CapSense_1_PTR_FILTER_VARIANT ptrFilterHistObj;
 656:Generated_Source\PSoC4/CapSense_1_Filter.c ****     #endif
 657:Generated_Source\PSoC4/CapSense_1_Filter.c **** 
 658:Generated_Source\PSoC4/CapSense_1_Filter.c ****     #if (0u != (CapSense_1_CSD_AUTOTUNE & CapSense_1_CSD_SS_TH_EN))
 659:Generated_Source\PSoC4/CapSense_1_Filter.c ****         CapSense_1_RAM_WD_BASE_STRUCT *ptrWidgetRam;
 660:Generated_Source\PSoC4/CapSense_1_Filter.c ****         SMARTSENSE_CSD_NOISE_ENVELOPE_STRUCT *ptrNoiseEnvelope = NULL;
 661:Generated_Source\PSoC4/CapSense_1_Filter.c ****     #endif /* (0u != (CapSense_1_CSD_AUTOTUNE & CapSense_1_CSD_SS_TH_EN)) */
 662:Generated_Source\PSoC4/CapSense_1_Filter.c **** 
 663:Generated_Source\PSoC4/CapSense_1_Filter.c ****     ptrWidget = &CapSense_1_dsFlash.wdgtArray[widgetId];
 664:Generated_Source\PSoC4/CapSense_1_Filter.c **** 
ARM GAS  C:\Users\bryan.lee\AppData\Local\Temp\cc6wSQv1.s 			page 18


 665:Generated_Source\PSoC4/CapSense_1_Filter.c ****     #if (0u != (CapSense_1_CSD_AUTOTUNE & CapSense_1_CSD_SS_TH_EN))
 666:Generated_Source\PSoC4/CapSense_1_Filter.c ****         ptrWidgetRam = ptrWidget->ptr2WdgtRam;
 282              		.loc 1 666 0
 283 0004 4301     		lsls	r3, r0, #5
 284 0006 0D4A     		ldr	r2, .L20
 285 0008 D318     		adds	r3, r2, r3
 286              	.LVL37:
 287 000a 5E68     		ldr	r6, [r3, #4]
 288              	.LVL38:
 667:Generated_Source\PSoC4/CapSense_1_Filter.c ****     #endif /* (0u != (CapSense_1_CSD_AUTOTUNE & CapSense_1_CSD_SS_TH_EN)) */
 668:Generated_Source\PSoC4/CapSense_1_Filter.c **** 
 669:Generated_Source\PSoC4/CapSense_1_Filter.c ****     /* Find total amount of sensors in specified widget */
 670:Generated_Source\PSoC4/CapSense_1_Filter.c ****     sensorsNumber = CapSense_1_GET_SNS_CNT_BY_PTR(ptrWidget);
 289              		.loc 1 670 0
 290 000c 1B8B     		ldrh	r3, [r3, #24]
 291              	.LVL39:
 671:Generated_Source\PSoC4/CapSense_1_Filter.c **** 
 672:Generated_Source\PSoC4/CapSense_1_Filter.c ****     for (sensorId = sensorsNumber; sensorId-- > 0u;)
 292              		.loc 1 672 0
 293 000e 10E0     		b	.L18
 294              	.LVL40:
 295              	.L19:
 673:Generated_Source\PSoC4/CapSense_1_Filter.c ****     {
 674:Generated_Source\PSoC4/CapSense_1_Filter.c ****         /* Find pointer to specified sensor object */
 675:Generated_Source\PSoC4/CapSense_1_Filter.c ****         ptrSensor = ptrWidget->ptr2SnsRam;
 296              		.loc 1 675 0
 297 0010 6A01     		lsls	r2, r5, #5
 298 0012 0A4B     		ldr	r3, .L20
 299 0014 9B18     		adds	r3, r3, r2
 300 0016 9F68     		ldr	r7, [r3, #8]
 301              	.LVL41:
 676:Generated_Source\PSoC4/CapSense_1_Filter.c ****         ptrSensor = &ptrSensor[sensorId];
 302              		.loc 1 676 0
 303 0018 A200     		lsls	r2, r4, #2
 304 001a 1219     		adds	r2, r2, r4
 305 001c 5000     		lsls	r0, r2, #1
 306              	.LVL42:
 677:Generated_Source\PSoC4/CapSense_1_Filter.c **** 
 678:Generated_Source\PSoC4/CapSense_1_Filter.c ****         #if (CapSense_1_ENABLE == CapSense_1_RC_FILTER_EN)
 679:Generated_Source\PSoC4/CapSense_1_Filter.c ****             /* Find pointer to to specified filter sensor object */
 680:Generated_Source\PSoC4/CapSense_1_Filter.c ****             ptrFilterHistObj.ptr = ptrWidget->ptr2FltrHistory;
 681:Generated_Source\PSoC4/CapSense_1_Filter.c ****         #endif
 682:Generated_Source\PSoC4/CapSense_1_Filter.c **** 
 683:Generated_Source\PSoC4/CapSense_1_Filter.c ****         #if (0u != (CapSense_1_CSD_AUTOTUNE & CapSense_1_CSD_SS_TH_EN))
 684:Generated_Source\PSoC4/CapSense_1_Filter.c ****             /* Find pointer to specified noise envelope sensor object */
 685:Generated_Source\PSoC4/CapSense_1_Filter.c ****             ptrNoiseEnvelope = ptrWidget->ptr2NoiseEnvlp;
 307              		.loc 1 685 0
 308 001e D969     		ldr	r1, [r3, #28]
 309              	.LVL43:
 686:Generated_Source\PSoC4/CapSense_1_Filter.c ****             ptrNoiseEnvelope = &ptrNoiseEnvelope[sensorId];
 310              		.loc 1 686 0
 311 0020 6300     		lsls	r3, r4, #1
 312 0022 1B19     		adds	r3, r3, r4
 313 0024 9A00     		lsls	r2, r3, #2
 314 0026 8A18     		adds	r2, r1, r2
 315              	.LVL44:
 687:Generated_Source\PSoC4/CapSense_1_Filter.c ****         #endif /* (0u != (CapSense_1_CSD_AUTOTUNE & CapSense_1_CSD_SS_TH_EN)) */
ARM GAS  C:\Users\bryan.lee\AppData\Local\Temp\cc6wSQv1.s 			page 19


 688:Generated_Source\PSoC4/CapSense_1_Filter.c **** 
 689:Generated_Source\PSoC4/CapSense_1_Filter.c ****         if ((CapSense_1_WD_TYPE_ENUM)ptrWidget->wdgtType != CapSense_1_WD_PROXIMITY_E)
 690:Generated_Source\PSoC4/CapSense_1_Filter.c ****         {
 691:Generated_Source\PSoC4/CapSense_1_Filter.c ****             #if (0u != CapSense_1_REGULAR_RC_ALP_FILTER_EN)
 692:Generated_Source\PSoC4/CapSense_1_Filter.c ****                 ptrFilterHistObj.ptrAlp = &ptrFilterHistObj.ptrAlp[sensorId];
 693:Generated_Source\PSoC4/CapSense_1_Filter.c ****             #elif (0u != CapSense_1_REGULAR_RC_FILTER_EN)
 694:Generated_Source\PSoC4/CapSense_1_Filter.c ****                 ptrFilterHistObj.ptrRegular = &ptrFilterHistObj.ptrRegular[sensorId];
 695:Generated_Source\PSoC4/CapSense_1_Filter.c ****             #endif
 696:Generated_Source\PSoC4/CapSense_1_Filter.c ****         }
 697:Generated_Source\PSoC4/CapSense_1_Filter.c ****         else
 698:Generated_Source\PSoC4/CapSense_1_Filter.c ****         {
 699:Generated_Source\PSoC4/CapSense_1_Filter.c ****             #if (0u != CapSense_1_PROX_RC_ALP_FILTER_EN)
 700:Generated_Source\PSoC4/CapSense_1_Filter.c ****                 ptrFilterHistObj.ptrAlp = &ptrFilterHistObj.ptrAlp[sensorId];
 701:Generated_Source\PSoC4/CapSense_1_Filter.c ****             #elif (0u != CapSense_1_PROX_RC_FILTER_EN)
 702:Generated_Source\PSoC4/CapSense_1_Filter.c ****                 ptrFilterHistObj.ptrProx = &ptrFilterHistObj.ptrProx[sensorId];
 703:Generated_Source\PSoC4/CapSense_1_Filter.c ****             #endif /* #if (0u != CapSense_1_PROX_RC_FILTER_EN) */
 704:Generated_Source\PSoC4/CapSense_1_Filter.c ****         }
 705:Generated_Source\PSoC4/CapSense_1_Filter.c **** 
 706:Generated_Source\PSoC4/CapSense_1_Filter.c ****         #if (CapSense_1_REGULAR_RC_IIR_FILTER_EN || CapSense_1_PROX_RC_IIR_FILTER_EN)
 707:Generated_Source\PSoC4/CapSense_1_Filter.c ****             CapSense_1_InitializeIIRInternal(ptrFilterHistObj, ptrSensor, (uint32)ptrWidget->wdgtTy
 708:Generated_Source\PSoC4/CapSense_1_Filter.c ****         #endif /* (CapSense_1_REGULAR_RC_IIR_FILTER_EN || CapSense_1_PROX_RC_IIR_FILTER_EN) */
 709:Generated_Source\PSoC4/CapSense_1_Filter.c **** 
 710:Generated_Source\PSoC4/CapSense_1_Filter.c ****         #if (CapSense_1_REGULAR_RC_MEDIAN_FILTER_EN || CapSense_1_PROX_RC_MEDIAN_FILTER_EN)
 711:Generated_Source\PSoC4/CapSense_1_Filter.c ****             CapSense_1_InitializeMedianInternal(ptrFilterHistObj, ptrSensor, (uint32)ptrWidget->wdg
 712:Generated_Source\PSoC4/CapSense_1_Filter.c ****         #endif /* (CapSense_1_REGULAR_RC_MEDIAN_FILTER_EN || CapSense_1_PROX_RC_MEDIAN_FILTER_EN) *
 713:Generated_Source\PSoC4/CapSense_1_Filter.c **** 
 714:Generated_Source\PSoC4/CapSense_1_Filter.c ****         #if (CapSense_1_REGULAR_RC_AVERAGE_FILTER_EN || CapSense_1_PROX_RC_AVERAGE_FILTER_EN)
 715:Generated_Source\PSoC4/CapSense_1_Filter.c ****             CapSense_1_InitializeAverageInternal(ptrFilterHistObj, ptrSensor, (uint32)ptrWidget->wd
 716:Generated_Source\PSoC4/CapSense_1_Filter.c ****         #endif /* (CapSense_1_REGULAR_RC_AVERAGE_FILTER_EN || CapSense_1_PROX_RC_AVERAGE_FILTER_EN)
 717:Generated_Source\PSoC4/CapSense_1_Filter.c **** 
 718:Generated_Source\PSoC4/CapSense_1_Filter.c ****         #if (CapSense_1_ALP_FILTER_EN)
 719:Generated_Source\PSoC4/CapSense_1_Filter.c ****             CapSense_1_InitializeALPInternal(ptrFilterHistObj, ptrSensor, (uint32)ptrWidget->wdgtTy
 720:Generated_Source\PSoC4/CapSense_1_Filter.c ****         #endif
 721:Generated_Source\PSoC4/CapSense_1_Filter.c **** 
 722:Generated_Source\PSoC4/CapSense_1_Filter.c ****         #if (0u != (CapSense_1_CSD_AUTOTUNE & CapSense_1_CSD_SS_TH_EN))
 723:Generated_Source\PSoC4/CapSense_1_Filter.c ****             if (CapSense_1_SENSE_METHOD_CSD_E ==
 724:Generated_Source\PSoC4/CapSense_1_Filter.c ****                 CapSense_1_GET_SENSE_METHOD(&CapSense_1_dsFlash.wdgtArray[widgetId]))
 725:Generated_Source\PSoC4/CapSense_1_Filter.c ****             {
 726:Generated_Source\PSoC4/CapSense_1_Filter.c ****                 SmartSense_InitializeNoiseEnvelope(ptrSensor->raw[0u], ptrWidgetRam->sigPFC, ptrNoi
 316              		.loc 1 726 0
 317 0028 318A     		ldrh	r1, [r6, #16]
 318 002a 385A     		ldrh	r0, [r7, r0]
 319              	.LVL45:
 320 002c FFF7FEFF 		bl	SmartSense_InitializeNoiseEnvelope
 321              	.LVL46:
 672:Generated_Source\PSoC4/CapSense_1_Filter.c ****     {
 322              		.loc 1 672 0
 323 0030 2300     		movs	r3, r4
 324              	.LVL47:
 325              	.L18:
 672:Generated_Source\PSoC4/CapSense_1_Filter.c ****     {
 326              		.loc 1 672 0 is_stmt 0 discriminator 1
 327 0032 5C1E     		subs	r4, r3, #1
 328              	.LVL48:
 329 0034 002B     		cmp	r3, #0
 330 0036 EBD1     		bne	.L19
 727:Generated_Source\PSoC4/CapSense_1_Filter.c ****             }
ARM GAS  C:\Users\bryan.lee\AppData\Local\Temp\cc6wSQv1.s 			page 20


 728:Generated_Source\PSoC4/CapSense_1_Filter.c ****         #endif /* (0u != (CapSense_1_CSD_AUTOTUNE & CapSense_1_CSD_SS_TH_EN)) */
 729:Generated_Source\PSoC4/CapSense_1_Filter.c ****     }
 730:Generated_Source\PSoC4/CapSense_1_Filter.c **** }
 331              		.loc 1 730 0 is_stmt 1
 332              		@ sp needed
 333              	.LVL49:
 334              	.LVL50:
 335              	.LVL51:
 336 0038 F8BD     		pop	{r3, r4, r5, r6, r7, pc}
 337              	.L21:
 338 003a C046     		.align	2
 339              	.L20:
 340 003c 00000000 		.word	CapSense_1_dsFlash
 341              		.cfi_endproc
 342              	.LFE13:
 343              		.size	CapSense_1_InitializeWidgetFilter, .-CapSense_1_InitializeWidgetFilter
 344              		.section	.text.CapSense_1_InitializeAllFilters,"ax",%progbits
 345              		.align	2
 346              		.global	CapSense_1_InitializeAllFilters
 347              		.code	16
 348              		.thumb_func
 349              		.type	CapSense_1_InitializeAllFilters, %function
 350              	CapSense_1_InitializeAllFilters:
 351              	.LFB12:
 618:Generated_Source\PSoC4/CapSense_1_Filter.c ****     uint32 widgetId;
 352              		.loc 1 618 0
 353              		.cfi_startproc
 354              		@ args = 0, pretend = 0, frame = 0
 355              		@ frame_needed = 0, uses_anonymous_args = 0
 356 0000 10B5     		push	{r4, lr}
 357              		.cfi_def_cfa_offset 8
 358              		.cfi_offset 4, -8
 359              		.cfi_offset 14, -4
 360              	.LVL52:
 621:Generated_Source\PSoC4/CapSense_1_Filter.c ****     {
 361              		.loc 1 621 0
 362 0002 0123     		movs	r3, #1
 363 0004 03E0     		b	.L23
 364              	.LVL53:
 365              	.L24:
 623:Generated_Source\PSoC4/CapSense_1_Filter.c ****     }
 366              		.loc 1 623 0
 367 0006 2000     		movs	r0, r4
 368 0008 FFF7FEFF 		bl	CapSense_1_InitializeWidgetFilter
 369              	.LVL54:
 621:Generated_Source\PSoC4/CapSense_1_Filter.c ****     {
 370              		.loc 1 621 0
 371 000c 2300     		movs	r3, r4
 372              	.LVL55:
 373              	.L23:
 621:Generated_Source\PSoC4/CapSense_1_Filter.c ****     {
 374              		.loc 1 621 0 is_stmt 0 discriminator 1
 375 000e 5C1E     		subs	r4, r3, #1
 376              	.LVL56:
 377 0010 002B     		cmp	r3, #0
 378 0012 F8D1     		bne	.L24
 625:Generated_Source\PSoC4/CapSense_1_Filter.c **** 
ARM GAS  C:\Users\bryan.lee\AppData\Local\Temp\cc6wSQv1.s 			page 21


 379              		.loc 1 625 0 is_stmt 1
 380              		@ sp needed
 381              	.LVL57:
 382 0014 10BD     		pop	{r4, pc}
 383              		.cfi_endproc
 384              	.LFE12:
 385              		.size	CapSense_1_InitializeAllFilters, .-CapSense_1_InitializeAllFilters
 386 0016 C046     		.section	.text.CapSense_1_FtInitialize,"ax",%progbits
 387              		.align	2
 388              		.global	CapSense_1_FtInitialize
 389              		.code	16
 390              		.thumb_func
 391              		.type	CapSense_1_FtInitialize, %function
 392              	CapSense_1_FtInitialize:
 393              	.LFB2:
  63:Generated_Source\PSoC4/CapSense_1_Filter.c ****     #if ((CapSense_1_ENABLE == CapSense_1_RC_FILTER_EN) || \
 394              		.loc 1 63 0
 395              		.cfi_startproc
 396              		@ args = 0, pretend = 0, frame = 0
 397              		@ frame_needed = 0, uses_anonymous_args = 0
 398 0000 10B5     		push	{r4, lr}
 399              		.cfi_def_cfa_offset 8
 400              		.cfi_offset 4, -8
 401              		.cfi_offset 14, -4
  66:Generated_Source\PSoC4/CapSense_1_Filter.c ****     #endif /* ((CapSense_1_ENABLE == CapSense_1_RC_FILTER_EN) || \
 402              		.loc 1 66 0
 403 0002 FFF7FEFF 		bl	CapSense_1_InitializeAllFilters
 404              	.LVL58:
  69:Generated_Source\PSoC4/CapSense_1_Filter.c **** 
 405              		.loc 1 69 0
 406              		@ sp needed
 407 0006 10BD     		pop	{r4, pc}
 408              		.cfi_endproc
 409              	.LFE2:
 410              		.size	CapSense_1_FtInitialize, .-CapSense_1_FtInitialize
 411              		.section	.text.CapSense_1_RunNoiseEnvelope,"ax",%progbits
 412              		.align	2
 413              		.global	CapSense_1_RunNoiseEnvelope
 414              		.code	16
 415              		.thumb_func
 416              		.type	CapSense_1_RunNoiseEnvelope, %function
 417              	CapSense_1_RunNoiseEnvelope:
 418              	.LFB14:
 731:Generated_Source\PSoC4/CapSense_1_Filter.c **** #endif /* ((CapSense_1_ENABLE == CapSense_1_RC_FILTER_EN) || \
 732:Generated_Source\PSoC4/CapSense_1_Filter.c ****            (0u != (CapSense_1_CSD_AUTOTUNE & CapSense_1_CSD_SS_TH_EN))) */
 733:Generated_Source\PSoC4/CapSense_1_Filter.c **** 
 734:Generated_Source\PSoC4/CapSense_1_Filter.c **** #if (CapSense_1_REGULAR_RC_IIR_FILTER_EN || CapSense_1_PROX_RC_IIR_FILTER_EN)
 735:Generated_Source\PSoC4/CapSense_1_Filter.c **** /*******************************************************************************
 736:Generated_Source\PSoC4/CapSense_1_Filter.c **** * Function Name: CapSense_1_InitializeIIR
 737:Generated_Source\PSoC4/CapSense_1_Filter.c **** ****************************************************************************//**
 738:Generated_Source\PSoC4/CapSense_1_Filter.c **** *
 739:Generated_Source\PSoC4/CapSense_1_Filter.c **** * \brief
 740:Generated_Source\PSoC4/CapSense_1_Filter.c **** *  Initialize the IIR filter history.
 741:Generated_Source\PSoC4/CapSense_1_Filter.c **** *
 742:Generated_Source\PSoC4/CapSense_1_Filter.c **** * \details
 743:Generated_Source\PSoC4/CapSense_1_Filter.c **** *  Initialize the IIR filter history.
 744:Generated_Source\PSoC4/CapSense_1_Filter.c **** *
ARM GAS  C:\Users\bryan.lee\AppData\Local\Temp\cc6wSQv1.s 			page 22


 745:Generated_Source\PSoC4/CapSense_1_Filter.c **** * \param widgetId
 746:Generated_Source\PSoC4/CapSense_1_Filter.c **** *  Specifies the ID number of the widget.
 747:Generated_Source\PSoC4/CapSense_1_Filter.c **** *
 748:Generated_Source\PSoC4/CapSense_1_Filter.c **** * \param sensorId
 749:Generated_Source\PSoC4/CapSense_1_Filter.c **** *  Specifies the ID number of the sensor in the widget.
 750:Generated_Source\PSoC4/CapSense_1_Filter.c **** *
 751:Generated_Source\PSoC4/CapSense_1_Filter.c **** *******************************************************************************/
 752:Generated_Source\PSoC4/CapSense_1_Filter.c **** void CapSense_1_InitializeIIR(uint32 widgetId, uint32 sensorId)
 753:Generated_Source\PSoC4/CapSense_1_Filter.c **** {
 754:Generated_Source\PSoC4/CapSense_1_Filter.c ****     CapSense_1_FLASH_WD_STRUCT const *ptrWidget = &CapSense_1_dsFlash.wdgtArray[widgetId];
 755:Generated_Source\PSoC4/CapSense_1_Filter.c ****     CapSense_1_RAM_SNS_STRUCT *ptrSensor = NULL;
 756:Generated_Source\PSoC4/CapSense_1_Filter.c ****     CapSense_1_PTR_FILTER_VARIANT ptrFilterHistObj;
 757:Generated_Source\PSoC4/CapSense_1_Filter.c **** 
 758:Generated_Source\PSoC4/CapSense_1_Filter.c ****     /* Find pointer to specified sensor object */
 759:Generated_Source\PSoC4/CapSense_1_Filter.c ****     ptrSensor = ptrWidget->ptr2SnsRam;
 760:Generated_Source\PSoC4/CapSense_1_Filter.c ****     ptrSensor = &ptrSensor[sensorId];
 761:Generated_Source\PSoC4/CapSense_1_Filter.c **** 
 762:Generated_Source\PSoC4/CapSense_1_Filter.c ****     /* Find pointer to specified filter sensor object */
 763:Generated_Source\PSoC4/CapSense_1_Filter.c ****     ptrFilterHistObj.ptr = ptrWidget->ptr2FltrHistory;
 764:Generated_Source\PSoC4/CapSense_1_Filter.c **** 
 765:Generated_Source\PSoC4/CapSense_1_Filter.c ****     if ((CapSense_1_WD_TYPE_ENUM)ptrWidget->wdgtType != CapSense_1_WD_PROXIMITY_E)
 766:Generated_Source\PSoC4/CapSense_1_Filter.c ****     {
 767:Generated_Source\PSoC4/CapSense_1_Filter.c ****         #if (CapSense_1_REGULAR_SENSOR_EN)
 768:Generated_Source\PSoC4/CapSense_1_Filter.c ****             ptrFilterHistObj.ptrRegular = &ptrFilterHistObj.ptrRegular[sensorId];
 769:Generated_Source\PSoC4/CapSense_1_Filter.c ****         #endif /* (CapSense_1_REGULAR_SENSOR_EN) */
 770:Generated_Source\PSoC4/CapSense_1_Filter.c ****     }
 771:Generated_Source\PSoC4/CapSense_1_Filter.c ****     else
 772:Generated_Source\PSoC4/CapSense_1_Filter.c ****     {
 773:Generated_Source\PSoC4/CapSense_1_Filter.c ****         #if (CapSense_1_PROXIMITY_SENSOR_EN)
 774:Generated_Source\PSoC4/CapSense_1_Filter.c ****             ptrFilterHistObj.ptrProx = &ptrFilterHistObj.ptrProx[sensorId];
 775:Generated_Source\PSoC4/CapSense_1_Filter.c ****         #endif /* (CapSense_1_PROXIMITY_SENSOR_EN) */
 776:Generated_Source\PSoC4/CapSense_1_Filter.c ****     }
 777:Generated_Source\PSoC4/CapSense_1_Filter.c **** 
 778:Generated_Source\PSoC4/CapSense_1_Filter.c ****     CapSense_1_InitializeIIRInternal(ptrFilterHistObj, ptrSensor, (uint32)ptrWidget->wdgtType);
 779:Generated_Source\PSoC4/CapSense_1_Filter.c **** }
 780:Generated_Source\PSoC4/CapSense_1_Filter.c **** 
 781:Generated_Source\PSoC4/CapSense_1_Filter.c **** 
 782:Generated_Source\PSoC4/CapSense_1_Filter.c **** /*******************************************************************************
 783:Generated_Source\PSoC4/CapSense_1_Filter.c **** * Function Name: CapSense_1_RunIIR
 784:Generated_Source\PSoC4/CapSense_1_Filter.c **** ****************************************************************************//**
 785:Generated_Source\PSoC4/CapSense_1_Filter.c **** *
 786:Generated_Source\PSoC4/CapSense_1_Filter.c **** * \brief
 787:Generated_Source\PSoC4/CapSense_1_Filter.c **** *  Executes the IIR filter algorithm on a sensor indicated by an input
 788:Generated_Source\PSoC4/CapSense_1_Filter.c **** *  parameter.
 789:Generated_Source\PSoC4/CapSense_1_Filter.c **** *
 790:Generated_Source\PSoC4/CapSense_1_Filter.c **** * \details
 791:Generated_Source\PSoC4/CapSense_1_Filter.c **** *  Executes the IIR filter algorithm on a sensor indicated by an input
 792:Generated_Source\PSoC4/CapSense_1_Filter.c **** *  parameter.
 793:Generated_Source\PSoC4/CapSense_1_Filter.c **** *
 794:Generated_Source\PSoC4/CapSense_1_Filter.c **** * \param widgetId
 795:Generated_Source\PSoC4/CapSense_1_Filter.c **** *  Specifies the ID number of the widget.
 796:Generated_Source\PSoC4/CapSense_1_Filter.c **** *
 797:Generated_Source\PSoC4/CapSense_1_Filter.c **** * \param sensorId
 798:Generated_Source\PSoC4/CapSense_1_Filter.c **** *  Specifies the ID number of the sensor in the widget.
 799:Generated_Source\PSoC4/CapSense_1_Filter.c **** *
 800:Generated_Source\PSoC4/CapSense_1_Filter.c **** *******************************************************************************/
 801:Generated_Source\PSoC4/CapSense_1_Filter.c **** void CapSense_1_RunIIR(uint32 widgetId, uint32 sensorId)
ARM GAS  C:\Users\bryan.lee\AppData\Local\Temp\cc6wSQv1.s 			page 23


 802:Generated_Source\PSoC4/CapSense_1_Filter.c **** {
 803:Generated_Source\PSoC4/CapSense_1_Filter.c ****     CapSense_1_FLASH_WD_STRUCT const *ptrWidget = &CapSense_1_dsFlash.wdgtArray[widgetId];
 804:Generated_Source\PSoC4/CapSense_1_Filter.c ****     CapSense_1_RAM_SNS_STRUCT *ptrSensor = NULL;
 805:Generated_Source\PSoC4/CapSense_1_Filter.c ****     CapSense_1_PTR_FILTER_VARIANT ptrFilterHistObj;
 806:Generated_Source\PSoC4/CapSense_1_Filter.c **** 
 807:Generated_Source\PSoC4/CapSense_1_Filter.c ****     /* Find pointer to specified sensor object */
 808:Generated_Source\PSoC4/CapSense_1_Filter.c ****     ptrSensor = ptrWidget->ptr2SnsRam;
 809:Generated_Source\PSoC4/CapSense_1_Filter.c ****     ptrSensor = &ptrSensor[sensorId];
 810:Generated_Source\PSoC4/CapSense_1_Filter.c **** 
 811:Generated_Source\PSoC4/CapSense_1_Filter.c ****     /* Find pointer to specified filter sensor object */
 812:Generated_Source\PSoC4/CapSense_1_Filter.c ****     ptrFilterHistObj.ptr = ptrWidget->ptr2FltrHistory;
 813:Generated_Source\PSoC4/CapSense_1_Filter.c **** 
 814:Generated_Source\PSoC4/CapSense_1_Filter.c ****     if ((CapSense_1_WD_TYPE_ENUM)ptrWidget->wdgtType != CapSense_1_WD_PROXIMITY_E)
 815:Generated_Source\PSoC4/CapSense_1_Filter.c ****     {
 816:Generated_Source\PSoC4/CapSense_1_Filter.c ****         #if (CapSense_1_REGULAR_SENSOR_EN)
 817:Generated_Source\PSoC4/CapSense_1_Filter.c ****             ptrFilterHistObj.ptrRegular = &ptrFilterHistObj.ptrRegular[sensorId];
 818:Generated_Source\PSoC4/CapSense_1_Filter.c ****         #endif /* (CapSense_1_REGULAR_SENSOR_EN) */
 819:Generated_Source\PSoC4/CapSense_1_Filter.c ****     }
 820:Generated_Source\PSoC4/CapSense_1_Filter.c ****     else
 821:Generated_Source\PSoC4/CapSense_1_Filter.c ****     {
 822:Generated_Source\PSoC4/CapSense_1_Filter.c ****         #if (CapSense_1_PROXIMITY_SENSOR_EN)
 823:Generated_Source\PSoC4/CapSense_1_Filter.c ****             ptrFilterHistObj.ptrProx = &ptrFilterHistObj.ptrProx[sensorId];
 824:Generated_Source\PSoC4/CapSense_1_Filter.c ****         #endif /* (CapSense_1_PROXIMITY_SENSOR_EN) */
 825:Generated_Source\PSoC4/CapSense_1_Filter.c ****     }
 826:Generated_Source\PSoC4/CapSense_1_Filter.c **** 
 827:Generated_Source\PSoC4/CapSense_1_Filter.c ****     CapSense_1_RunIIRInternal(ptrFilterHistObj, ptrSensor, (uint32)ptrWidget->wdgtType);
 828:Generated_Source\PSoC4/CapSense_1_Filter.c **** }
 829:Generated_Source\PSoC4/CapSense_1_Filter.c **** 
 830:Generated_Source\PSoC4/CapSense_1_Filter.c **** /*******************************************************************************
 831:Generated_Source\PSoC4/CapSense_1_Filter.c **** * Function Name: CapSense_1_InitializeIIRInternal
 832:Generated_Source\PSoC4/CapSense_1_Filter.c **** ****************************************************************************//**
 833:Generated_Source\PSoC4/CapSense_1_Filter.c **** *
 834:Generated_Source\PSoC4/CapSense_1_Filter.c **** * \brief
 835:Generated_Source\PSoC4/CapSense_1_Filter.c **** *  Initializes the IIR filter history.
 836:Generated_Source\PSoC4/CapSense_1_Filter.c **** *
 837:Generated_Source\PSoC4/CapSense_1_Filter.c **** * \details
 838:Generated_Source\PSoC4/CapSense_1_Filter.c **** *  Initializes the IIR filter history.
 839:Generated_Source\PSoC4/CapSense_1_Filter.c **** *
 840:Generated_Source\PSoC4/CapSense_1_Filter.c **** * \param ptrFilterHistObj
 841:Generated_Source\PSoC4/CapSense_1_Filter.c **** *  The pointer to the filter RAM object of the sensor.
 842:Generated_Source\PSoC4/CapSense_1_Filter.c **** *
 843:Generated_Source\PSoC4/CapSense_1_Filter.c **** * \param ptrSensorObj
 844:Generated_Source\PSoC4/CapSense_1_Filter.c **** *  The pointer to the sensor RAM object of the sensor.
 845:Generated_Source\PSoC4/CapSense_1_Filter.c **** *
 846:Generated_Source\PSoC4/CapSense_1_Filter.c **** * \param wdType
 847:Generated_Source\PSoC4/CapSense_1_Filter.c **** *  Specifies the type of a widget.
 848:Generated_Source\PSoC4/CapSense_1_Filter.c **** *
 849:Generated_Source\PSoC4/CapSense_1_Filter.c **** *******************************************************************************/
 850:Generated_Source\PSoC4/CapSense_1_Filter.c **** void CapSense_1_InitializeIIRInternal(CapSense_1_PTR_FILTER_VARIANT ptrFilterHistObj,
 851:Generated_Source\PSoC4/CapSense_1_Filter.c ****                                             CapSense_1_RAM_SNS_STRUCT *ptrSensorObj, uint32 wdType)
 852:Generated_Source\PSoC4/CapSense_1_Filter.c **** {
 853:Generated_Source\PSoC4/CapSense_1_Filter.c ****     uint32 freqChannel;
 854:Generated_Source\PSoC4/CapSense_1_Filter.c **** 
 855:Generated_Source\PSoC4/CapSense_1_Filter.c ****     for(freqChannel = CapSense_1_NUM_SCAN_FREQS; freqChannel-- > 0u;)
 856:Generated_Source\PSoC4/CapSense_1_Filter.c ****     {
 857:Generated_Source\PSoC4/CapSense_1_Filter.c ****         if ((CapSense_1_WD_TYPE_ENUM)wdType != CapSense_1_WD_PROXIMITY_E)
 858:Generated_Source\PSoC4/CapSense_1_Filter.c ****         {
ARM GAS  C:\Users\bryan.lee\AppData\Local\Temp\cc6wSQv1.s 			page 24


 859:Generated_Source\PSoC4/CapSense_1_Filter.c ****             #if (CapSense_1_REGULAR_SENSOR_EN && CapSense_1_REGULAR_RC_IIR_FILTER_EN)
 860:Generated_Source\PSoC4/CapSense_1_Filter.c ****                 #if (CapSense_1_REGULAR_IIR_RC_TYPE == CapSense_1_IIR_FILTER_PERFORMANCE)
 861:Generated_Source\PSoC4/CapSense_1_Filter.c ****                     ptrFilterHistObj.ptrRegular->regularChannel[freqChannel].iirHistory = ptrSensor
 862:Generated_Source\PSoC4/CapSense_1_Filter.c ****                     ptrFilterHistObj.ptrRegular->regularChannel[freqChannel].iirHistoryLow = 0u;
 863:Generated_Source\PSoC4/CapSense_1_Filter.c ****                 #else
 864:Generated_Source\PSoC4/CapSense_1_Filter.c ****                     ptrFilterHistObj.ptrRegular->regularChannel[freqChannel].iirHistory = ptrSensor
 865:Generated_Source\PSoC4/CapSense_1_Filter.c ****                 #endif /* (CapSense_1_REGULAR_IIR_RC_TYPE == CapSense_1_IIR_FILTER_PERFORMANCE) */
 866:Generated_Source\PSoC4/CapSense_1_Filter.c ****             #endif /* (CapSense_1_REGULAR_SENSOR_EN) */
 867:Generated_Source\PSoC4/CapSense_1_Filter.c ****         }
 868:Generated_Source\PSoC4/CapSense_1_Filter.c ****         else
 869:Generated_Source\PSoC4/CapSense_1_Filter.c ****         {
 870:Generated_Source\PSoC4/CapSense_1_Filter.c ****             #if (CapSense_1_PROXIMITY_SENSOR_EN && CapSense_1_PROX_RC_IIR_FILTER_EN)
 871:Generated_Source\PSoC4/CapSense_1_Filter.c ****                 #if (CapSense_1_PROX_IIR_RC_TYPE == CapSense_1_IIR_FILTER_PERFORMANCE)
 872:Generated_Source\PSoC4/CapSense_1_Filter.c ****                     ptrFilterHistObj.ptrProx->proxChannel[freqChannel].iirHistory = ptrSensorObj->r
 873:Generated_Source\PSoC4/CapSense_1_Filter.c ****                     ptrFilterHistObj.ptrProx->proxChannel[freqChannel].iirHistoryLow = 0u;
 874:Generated_Source\PSoC4/CapSense_1_Filter.c ****                 #else
 875:Generated_Source\PSoC4/CapSense_1_Filter.c ****                     ptrFilterHistObj.ptrProx->proxChannel[freqChannel].iirHistory = ptrSensorObj->r
 876:Generated_Source\PSoC4/CapSense_1_Filter.c ****                 #endif /* (CapSense_1_PROX_IIR_RC_TYPE == CapSense_1_IIR_FILTER_PERFORMANCE) */
 877:Generated_Source\PSoC4/CapSense_1_Filter.c ****             #endif /* (CapSense_1_PROX_SENSOR_EN) */
 878:Generated_Source\PSoC4/CapSense_1_Filter.c ****         }
 879:Generated_Source\PSoC4/CapSense_1_Filter.c ****     }
 880:Generated_Source\PSoC4/CapSense_1_Filter.c **** }
 881:Generated_Source\PSoC4/CapSense_1_Filter.c **** 
 882:Generated_Source\PSoC4/CapSense_1_Filter.c **** 
 883:Generated_Source\PSoC4/CapSense_1_Filter.c **** /*******************************************************************************
 884:Generated_Source\PSoC4/CapSense_1_Filter.c **** * Function Name: CapSense_1_RunIIRInternal
 885:Generated_Source\PSoC4/CapSense_1_Filter.c **** ****************************************************************************//**
 886:Generated_Source\PSoC4/CapSense_1_Filter.c **** *
 887:Generated_Source\PSoC4/CapSense_1_Filter.c **** * \brief
 888:Generated_Source\PSoC4/CapSense_1_Filter.c **** *  Run the IIR filter.
 889:Generated_Source\PSoC4/CapSense_1_Filter.c **** *
 890:Generated_Source\PSoC4/CapSense_1_Filter.c **** * \details
 891:Generated_Source\PSoC4/CapSense_1_Filter.c **** *  Run the IIR filter.
 892:Generated_Source\PSoC4/CapSense_1_Filter.c **** *
 893:Generated_Source\PSoC4/CapSense_1_Filter.c **** * \param ptrFilterHistObj
 894:Generated_Source\PSoC4/CapSense_1_Filter.c **** *  The pointer to the filter RAM object of the sensor.
 895:Generated_Source\PSoC4/CapSense_1_Filter.c **** *
 896:Generated_Source\PSoC4/CapSense_1_Filter.c **** * \param ptrSensorObj
 897:Generated_Source\PSoC4/CapSense_1_Filter.c **** *  The pointer to the sensor RAM object of the sensor.
 898:Generated_Source\PSoC4/CapSense_1_Filter.c **** *
 899:Generated_Source\PSoC4/CapSense_1_Filter.c **** * \param wdType
 900:Generated_Source\PSoC4/CapSense_1_Filter.c **** *  Specifies the type of a widget.
 901:Generated_Source\PSoC4/CapSense_1_Filter.c **** *
 902:Generated_Source\PSoC4/CapSense_1_Filter.c **** *******************************************************************************/
 903:Generated_Source\PSoC4/CapSense_1_Filter.c **** void CapSense_1_RunIIRInternal(CapSense_1_PTR_FILTER_VARIANT ptrFilterHistObj,
 904:Generated_Source\PSoC4/CapSense_1_Filter.c ****                                      CapSense_1_RAM_SNS_STRUCT *ptrSensorObj, uint32 wdType)
 905:Generated_Source\PSoC4/CapSense_1_Filter.c **** {
 906:Generated_Source\PSoC4/CapSense_1_Filter.c ****     uint32 freqChannel;
 907:Generated_Source\PSoC4/CapSense_1_Filter.c ****     uint32 temp;
 908:Generated_Source\PSoC4/CapSense_1_Filter.c **** 
 909:Generated_Source\PSoC4/CapSense_1_Filter.c ****     for(freqChannel = CapSense_1_NUM_SCAN_FREQS; freqChannel-- > 0u;)
 910:Generated_Source\PSoC4/CapSense_1_Filter.c ****     {
 911:Generated_Source\PSoC4/CapSense_1_Filter.c ****         if ((CapSense_1_WD_TYPE_ENUM)wdType != CapSense_1_WD_PROXIMITY_E)
 912:Generated_Source\PSoC4/CapSense_1_Filter.c ****         {
 913:Generated_Source\PSoC4/CapSense_1_Filter.c ****             #if (CapSense_1_REGULAR_SENSOR_EN && CapSense_1_REGULAR_RC_IIR_FILTER_EN)
 914:Generated_Source\PSoC4/CapSense_1_Filter.c ****                 #if (CapSense_1_REGULAR_IIR_RC_TYPE == CapSense_1_IIR_FILTER_PERFORMANCE)
 915:Generated_Source\PSoC4/CapSense_1_Filter.c ****                     temp = ((uint32)ptrFilterHistObj.ptrRegular->regularChannel[freqChannel].iirHis
ARM GAS  C:\Users\bryan.lee\AppData\Local\Temp\cc6wSQv1.s 			page 25


 916:Generated_Source\PSoC4/CapSense_1_Filter.c ****                     temp |= ptrFilterHistObj.ptrRegular->regularChannel[freqChannel].iirHistoryLow;
 917:Generated_Source\PSoC4/CapSense_1_Filter.c ****                     temp = CapSense_1_FtIIR1stOrder((uint32)ptrSensorObj->raw[freqChannel],
 918:Generated_Source\PSoC4/CapSense_1_Filter.c ****                                                         temp,
 919:Generated_Source\PSoC4/CapSense_1_Filter.c ****                                                         CapSense_1_REGULAR_IIR_RC_N,
 920:Generated_Source\PSoC4/CapSense_1_Filter.c ****                                                         CapSense_1_REGULAR_IIR_RC_SHIFT);
 921:Generated_Source\PSoC4/CapSense_1_Filter.c ****                     ptrFilterHistObj.ptrRegular->regularChannel[freqChannel].iirHistory = LO16(temp
 922:Generated_Source\PSoC4/CapSense_1_Filter.c ****                     ptrFilterHistObj.ptrRegular->regularChannel[freqChannel].iirHistoryLow = LO8(te
 923:Generated_Source\PSoC4/CapSense_1_Filter.c ****                     ptrSensorObj->raw[freqChannel] = LO16(temp >>CapSense_1_REGULAR_IIR_RC_SHIFT);
 924:Generated_Source\PSoC4/CapSense_1_Filter.c ****                 #else
 925:Generated_Source\PSoC4/CapSense_1_Filter.c ****                     temp =CapSense_1_FtIIR1stOrder((uint32)ptrSensorObj->raw[freqChannel],
 926:Generated_Source\PSoC4/CapSense_1_Filter.c ****                                                         (uint32)ptrFilterHistObj.ptrRegular->regula
 927:Generated_Source\PSoC4/CapSense_1_Filter.c ****                                                         CapSense_1_REGULAR_IIR_RC_N,
 928:Generated_Source\PSoC4/CapSense_1_Filter.c ****                                                         CapSense_1_REGULAR_IIR_RC_SHIFT);
 929:Generated_Source\PSoC4/CapSense_1_Filter.c ****                     ptrFilterHistObj.ptrRegular->regularChannel[freqChannel].iirHistory = LO16(temp
 930:Generated_Source\PSoC4/CapSense_1_Filter.c ****                     ptrSensorObj->raw[freqChannel] = LO16(temp >>CapSense_1_REGULAR_IIR_RC_SHIFT);
 931:Generated_Source\PSoC4/CapSense_1_Filter.c ****                 #endif /* (CapSense_1_REGULAR_IIR_RC_TYPE == CapSense_1_IIR_FILTER_PERFORMANCE) */
 932:Generated_Source\PSoC4/CapSense_1_Filter.c ****             #endif /* (CapSense_1_REGULAR_SENSOR_EN) */
 933:Generated_Source\PSoC4/CapSense_1_Filter.c ****         }
 934:Generated_Source\PSoC4/CapSense_1_Filter.c ****         else
 935:Generated_Source\PSoC4/CapSense_1_Filter.c ****         {
 936:Generated_Source\PSoC4/CapSense_1_Filter.c ****             #if (CapSense_1_PROXIMITY_SENSOR_EN && CapSense_1_PROX_RC_IIR_FILTER_EN)
 937:Generated_Source\PSoC4/CapSense_1_Filter.c ****                 #if (CapSense_1_PROX_IIR_RC_TYPE == CapSense_1_IIR_FILTER_PERFORMANCE)
 938:Generated_Source\PSoC4/CapSense_1_Filter.c ****                     temp =  ptrFilterHistObj.ptrProx->proxChannel[freqChannel].iirHistory << CapSen
 939:Generated_Source\PSoC4/CapSense_1_Filter.c ****                     temp |= ptrFilterHistObj.ptrProx->proxChannel[freqChannel].iirHistoryLow;
 940:Generated_Source\PSoC4/CapSense_1_Filter.c ****                     temp =CapSense_1_FtIIR1stOrder((uint32)ptrSensorObj->raw[freqChannel],
 941:Generated_Source\PSoC4/CapSense_1_Filter.c ****                                                         temp,
 942:Generated_Source\PSoC4/CapSense_1_Filter.c ****                                                         CapSense_1_PROX_IIR_RC_N,
 943:Generated_Source\PSoC4/CapSense_1_Filter.c ****                                                         CapSense_1_PROX_IIR_RC_SHIFT);
 944:Generated_Source\PSoC4/CapSense_1_Filter.c ****                     ptrFilterHistObj.ptrProx->proxChannel[freqChannel].iirHistory = LO16(temp >>Cap
 945:Generated_Source\PSoC4/CapSense_1_Filter.c ****                     ptrFilterHistObj.ptrProx->proxChannel[freqChannel].iirHistoryLow = LO8(temp);
 946:Generated_Source\PSoC4/CapSense_1_Filter.c ****                     ptrSensorObj->raw[freqChannel] = LO16(temp >>CapSense_1_PROX_IIR_RC_SHIFT);
 947:Generated_Source\PSoC4/CapSense_1_Filter.c ****                 #else
 948:Generated_Source\PSoC4/CapSense_1_Filter.c ****                     temp =CapSense_1_FtIIR1stOrder((uint32)ptrSensorObj->raw[freqChannel],
 949:Generated_Source\PSoC4/CapSense_1_Filter.c ****                                                         (uint32)ptrFilterHistObj.ptrProx->proxChann
 950:Generated_Source\PSoC4/CapSense_1_Filter.c ****                                                         CapSense_1_PROX_IIR_RC_N,
 951:Generated_Source\PSoC4/CapSense_1_Filter.c ****                                                         CapSense_1_PROX_IIR_RC_SHIFT);
 952:Generated_Source\PSoC4/CapSense_1_Filter.c ****                     ptrFilterHistObj.ptrProx->proxChannel[freqChannel].iirHistory = LO16(temp);
 953:Generated_Source\PSoC4/CapSense_1_Filter.c ****                     ptrSensorObj->raw[freqChannel] = LO16(temp >>CapSense_1_PROX_IIR_RC_SHIFT);
 954:Generated_Source\PSoC4/CapSense_1_Filter.c ****                 #endif /* (CapSense_1_PROX_IIR_RC_TYPE == CapSense_1_IIR_FILTER_PERFORMANCE) */
 955:Generated_Source\PSoC4/CapSense_1_Filter.c ****             #endif /* (CapSense_1_PROX_SENSOR_EN) */
 956:Generated_Source\PSoC4/CapSense_1_Filter.c ****         }
 957:Generated_Source\PSoC4/CapSense_1_Filter.c ****     }
 958:Generated_Source\PSoC4/CapSense_1_Filter.c **** }
 959:Generated_Source\PSoC4/CapSense_1_Filter.c **** #endif /* #if (CapSense_1_REGULAR_RC_IIR_FILTER_EN || CapSense_1_PROX_RC_IIR_FILTER_EN) */
 960:Generated_Source\PSoC4/CapSense_1_Filter.c **** 
 961:Generated_Source\PSoC4/CapSense_1_Filter.c **** 
 962:Generated_Source\PSoC4/CapSense_1_Filter.c **** #if (CapSense_1_REGULAR_RC_MEDIAN_FILTER_EN || CapSense_1_PROX_RC_MEDIAN_FILTER_EN)
 963:Generated_Source\PSoC4/CapSense_1_Filter.c **** 
 964:Generated_Source\PSoC4/CapSense_1_Filter.c **** /*******************************************************************************
 965:Generated_Source\PSoC4/CapSense_1_Filter.c **** * Function Name: CapSense_1_InitializeMedian
 966:Generated_Source\PSoC4/CapSense_1_Filter.c **** ****************************************************************************//**
 967:Generated_Source\PSoC4/CapSense_1_Filter.c **** *
 968:Generated_Source\PSoC4/CapSense_1_Filter.c **** * \brief
 969:Generated_Source\PSoC4/CapSense_1_Filter.c **** *  Initializes the Median filter history.
 970:Generated_Source\PSoC4/CapSense_1_Filter.c **** *
 971:Generated_Source\PSoC4/CapSense_1_Filter.c **** * \details
 972:Generated_Source\PSoC4/CapSense_1_Filter.c **** *  Initializes the Median filter history.
ARM GAS  C:\Users\bryan.lee\AppData\Local\Temp\cc6wSQv1.s 			page 26


 973:Generated_Source\PSoC4/CapSense_1_Filter.c **** *
 974:Generated_Source\PSoC4/CapSense_1_Filter.c **** * \param widgetId
 975:Generated_Source\PSoC4/CapSense_1_Filter.c **** *  Specifies the ID number of the widget.
 976:Generated_Source\PSoC4/CapSense_1_Filter.c **** *
 977:Generated_Source\PSoC4/CapSense_1_Filter.c **** * \param sensorId
 978:Generated_Source\PSoC4/CapSense_1_Filter.c **** *  Specifies the ID number of the sensor in the widget.
 979:Generated_Source\PSoC4/CapSense_1_Filter.c **** *
 980:Generated_Source\PSoC4/CapSense_1_Filter.c **** *******************************************************************************/
 981:Generated_Source\PSoC4/CapSense_1_Filter.c **** void CapSense_1_InitializeMedian(uint32 widgetId, uint32 sensorId)
 982:Generated_Source\PSoC4/CapSense_1_Filter.c **** {
 983:Generated_Source\PSoC4/CapSense_1_Filter.c ****     CapSense_1_FLASH_WD_STRUCT const *ptrWidget = &CapSense_1_dsFlash.wdgtArray[widgetId];
 984:Generated_Source\PSoC4/CapSense_1_Filter.c ****     CapSense_1_RAM_SNS_STRUCT *ptrSensor = NULL;
 985:Generated_Source\PSoC4/CapSense_1_Filter.c ****     CapSense_1_PTR_FILTER_VARIANT ptrFilterHistObj;
 986:Generated_Source\PSoC4/CapSense_1_Filter.c **** 
 987:Generated_Source\PSoC4/CapSense_1_Filter.c ****     /* Find pointer to specified sensor object */
 988:Generated_Source\PSoC4/CapSense_1_Filter.c ****     ptrSensor = ptrWidget->ptr2SnsRam;
 989:Generated_Source\PSoC4/CapSense_1_Filter.c ****     ptrSensor = &ptrSensor[sensorId];
 990:Generated_Source\PSoC4/CapSense_1_Filter.c **** 
 991:Generated_Source\PSoC4/CapSense_1_Filter.c ****     /* Find pointer to specified filter sensor object */
 992:Generated_Source\PSoC4/CapSense_1_Filter.c ****     ptrFilterHistObj.ptr = ptrWidget->ptr2FltrHistory;
 993:Generated_Source\PSoC4/CapSense_1_Filter.c **** 
 994:Generated_Source\PSoC4/CapSense_1_Filter.c ****     if ((CapSense_1_WD_TYPE_ENUM)ptrWidget->wdgtType != CapSense_1_WD_PROXIMITY_E)
 995:Generated_Source\PSoC4/CapSense_1_Filter.c ****     {
 996:Generated_Source\PSoC4/CapSense_1_Filter.c ****         #if (CapSense_1_REGULAR_SENSOR_EN)
 997:Generated_Source\PSoC4/CapSense_1_Filter.c ****             ptrFilterHistObj.ptrRegular = &ptrFilterHistObj.ptrRegular[sensorId];
 998:Generated_Source\PSoC4/CapSense_1_Filter.c ****         #endif /* (CapSense_1_REGULAR_SENSOR_EN) */
 999:Generated_Source\PSoC4/CapSense_1_Filter.c ****     }
1000:Generated_Source\PSoC4/CapSense_1_Filter.c ****     else
1001:Generated_Source\PSoC4/CapSense_1_Filter.c ****     {
1002:Generated_Source\PSoC4/CapSense_1_Filter.c ****         #if (CapSense_1_PROXIMITY_SENSOR_EN)
1003:Generated_Source\PSoC4/CapSense_1_Filter.c ****             ptrFilterHistObj.ptrProx = &ptrFilterHistObj.ptrProx[sensorId];
1004:Generated_Source\PSoC4/CapSense_1_Filter.c ****         #endif /* (CapSense_1_PROXIMITY_SENSOR_EN) */
1005:Generated_Source\PSoC4/CapSense_1_Filter.c ****     }
1006:Generated_Source\PSoC4/CapSense_1_Filter.c **** 
1007:Generated_Source\PSoC4/CapSense_1_Filter.c ****     CapSense_1_InitializeMedianInternal(ptrFilterHistObj, ptrSensor, (uint32)ptrWidget->wdgtType);
1008:Generated_Source\PSoC4/CapSense_1_Filter.c **** }
1009:Generated_Source\PSoC4/CapSense_1_Filter.c **** 
1010:Generated_Source\PSoC4/CapSense_1_Filter.c **** 
1011:Generated_Source\PSoC4/CapSense_1_Filter.c **** /*******************************************************************************
1012:Generated_Source\PSoC4/CapSense_1_Filter.c **** * Function Name: CapSense_1_RunMedian
1013:Generated_Source\PSoC4/CapSense_1_Filter.c **** ****************************************************************************//**
1014:Generated_Source\PSoC4/CapSense_1_Filter.c **** *
1015:Generated_Source\PSoC4/CapSense_1_Filter.c **** * \brief
1016:Generated_Source\PSoC4/CapSense_1_Filter.c **** *  Executes the Median filter algorithm on a sensor indicated by an input
1017:Generated_Source\PSoC4/CapSense_1_Filter.c **** *  parameter.
1018:Generated_Source\PSoC4/CapSense_1_Filter.c **** *
1019:Generated_Source\PSoC4/CapSense_1_Filter.c **** * \details
1020:Generated_Source\PSoC4/CapSense_1_Filter.c **** *  Executes the Median filter algorithm on a sensor indicated by an input
1021:Generated_Source\PSoC4/CapSense_1_Filter.c **** *  parameter.
1022:Generated_Source\PSoC4/CapSense_1_Filter.c **** *
1023:Generated_Source\PSoC4/CapSense_1_Filter.c **** * \param widgetId
1024:Generated_Source\PSoC4/CapSense_1_Filter.c **** *  Specifies the ID number of the widget.
1025:Generated_Source\PSoC4/CapSense_1_Filter.c **** *
1026:Generated_Source\PSoC4/CapSense_1_Filter.c **** * \param sensorId
1027:Generated_Source\PSoC4/CapSense_1_Filter.c **** *  Specifies the ID number of the sensor in the widget.
1028:Generated_Source\PSoC4/CapSense_1_Filter.c **** *
1029:Generated_Source\PSoC4/CapSense_1_Filter.c **** *******************************************************************************/
ARM GAS  C:\Users\bryan.lee\AppData\Local\Temp\cc6wSQv1.s 			page 27


1030:Generated_Source\PSoC4/CapSense_1_Filter.c **** void CapSense_1_RunMedian(uint32 widgetId, uint32 sensorId)
1031:Generated_Source\PSoC4/CapSense_1_Filter.c **** {
1032:Generated_Source\PSoC4/CapSense_1_Filter.c ****     CapSense_1_FLASH_WD_STRUCT const *ptrWidget = &CapSense_1_dsFlash.wdgtArray[widgetId];
1033:Generated_Source\PSoC4/CapSense_1_Filter.c ****     CapSense_1_RAM_SNS_STRUCT *ptrSensor = NULL;
1034:Generated_Source\PSoC4/CapSense_1_Filter.c ****     CapSense_1_PTR_FILTER_VARIANT ptrFilterHistObj;
1035:Generated_Source\PSoC4/CapSense_1_Filter.c **** 
1036:Generated_Source\PSoC4/CapSense_1_Filter.c ****     /* Find pointer to specified sensor object */
1037:Generated_Source\PSoC4/CapSense_1_Filter.c ****     ptrSensor = ptrWidget->ptr2SnsRam;
1038:Generated_Source\PSoC4/CapSense_1_Filter.c ****     ptrSensor = &ptrSensor[sensorId];
1039:Generated_Source\PSoC4/CapSense_1_Filter.c **** 
1040:Generated_Source\PSoC4/CapSense_1_Filter.c ****     /* Find pointer to specified filter sensor object */
1041:Generated_Source\PSoC4/CapSense_1_Filter.c ****     ptrFilterHistObj.ptr = ptrWidget->ptr2FltrHistory;
1042:Generated_Source\PSoC4/CapSense_1_Filter.c **** 
1043:Generated_Source\PSoC4/CapSense_1_Filter.c ****     if ((CapSense_1_WD_TYPE_ENUM)ptrWidget->wdgtType != CapSense_1_WD_PROXIMITY_E)
1044:Generated_Source\PSoC4/CapSense_1_Filter.c ****     {
1045:Generated_Source\PSoC4/CapSense_1_Filter.c ****         #if (CapSense_1_REGULAR_SENSOR_EN)
1046:Generated_Source\PSoC4/CapSense_1_Filter.c ****             ptrFilterHistObj.ptrRegular = &ptrFilterHistObj.ptrRegular[sensorId];
1047:Generated_Source\PSoC4/CapSense_1_Filter.c ****         #endif /* (CapSense_1_REGULAR_SENSOR_EN) */
1048:Generated_Source\PSoC4/CapSense_1_Filter.c ****     }
1049:Generated_Source\PSoC4/CapSense_1_Filter.c ****     else
1050:Generated_Source\PSoC4/CapSense_1_Filter.c ****     {
1051:Generated_Source\PSoC4/CapSense_1_Filter.c ****         #if (CapSense_1_PROXIMITY_SENSOR_EN)
1052:Generated_Source\PSoC4/CapSense_1_Filter.c ****             ptrFilterHistObj.ptrProx = &ptrFilterHistObj.ptrProx[sensorId];
1053:Generated_Source\PSoC4/CapSense_1_Filter.c ****         #endif /* (CapSense_1_PROXIMITY_SENSOR_EN) */
1054:Generated_Source\PSoC4/CapSense_1_Filter.c ****     }
1055:Generated_Source\PSoC4/CapSense_1_Filter.c **** 
1056:Generated_Source\PSoC4/CapSense_1_Filter.c ****     CapSense_1_RunMedianInternal(ptrFilterHistObj, ptrSensor, (uint32)ptrWidget->wdgtType);
1057:Generated_Source\PSoC4/CapSense_1_Filter.c **** }
1058:Generated_Source\PSoC4/CapSense_1_Filter.c **** 
1059:Generated_Source\PSoC4/CapSense_1_Filter.c **** 
1060:Generated_Source\PSoC4/CapSense_1_Filter.c **** /*******************************************************************************
1061:Generated_Source\PSoC4/CapSense_1_Filter.c **** * Function Name: CapSense_1_InitializeMedianInternal
1062:Generated_Source\PSoC4/CapSense_1_Filter.c **** ****************************************************************************//**
1063:Generated_Source\PSoC4/CapSense_1_Filter.c **** *
1064:Generated_Source\PSoC4/CapSense_1_Filter.c **** * \brief
1065:Generated_Source\PSoC4/CapSense_1_Filter.c **** *  Initializes the Median filter.
1066:Generated_Source\PSoC4/CapSense_1_Filter.c **** *
1067:Generated_Source\PSoC4/CapSense_1_Filter.c **** * \details
1068:Generated_Source\PSoC4/CapSense_1_Filter.c **** *  Initializes the Median filter.
1069:Generated_Source\PSoC4/CapSense_1_Filter.c **** *
1070:Generated_Source\PSoC4/CapSense_1_Filter.c **** * \param ptrFilterHistObj
1071:Generated_Source\PSoC4/CapSense_1_Filter.c **** *  The pointer to the filter RAM object of the sensor.
1072:Generated_Source\PSoC4/CapSense_1_Filter.c **** *
1073:Generated_Source\PSoC4/CapSense_1_Filter.c **** * \param ptrSensorObj
1074:Generated_Source\PSoC4/CapSense_1_Filter.c **** *  The pointer to the sensor RAM object of the sensor.
1075:Generated_Source\PSoC4/CapSense_1_Filter.c **** *
1076:Generated_Source\PSoC4/CapSense_1_Filter.c **** * \param wdType
1077:Generated_Source\PSoC4/CapSense_1_Filter.c **** *  Specifies the type of a widget.
1078:Generated_Source\PSoC4/CapSense_1_Filter.c **** *
1079:Generated_Source\PSoC4/CapSense_1_Filter.c **** *******************************************************************************/
1080:Generated_Source\PSoC4/CapSense_1_Filter.c **** void CapSense_1_InitializeMedianInternal(CapSense_1_PTR_FILTER_VARIANT ptrFilterHistObj,
1081:Generated_Source\PSoC4/CapSense_1_Filter.c ****                                                CapSense_1_RAM_SNS_STRUCT *ptrSensorObj, uint32 wdTy
1082:Generated_Source\PSoC4/CapSense_1_Filter.c **** {
1083:Generated_Source\PSoC4/CapSense_1_Filter.c ****     uint32 freqChannel;
1084:Generated_Source\PSoC4/CapSense_1_Filter.c **** 
1085:Generated_Source\PSoC4/CapSense_1_Filter.c ****     for(freqChannel = CapSense_1_NUM_SCAN_FREQS; freqChannel-- > 0u;)
1086:Generated_Source\PSoC4/CapSense_1_Filter.c ****     {
ARM GAS  C:\Users\bryan.lee\AppData\Local\Temp\cc6wSQv1.s 			page 28


1087:Generated_Source\PSoC4/CapSense_1_Filter.c ****         if ((CapSense_1_WD_TYPE_ENUM)wdType != CapSense_1_WD_PROXIMITY_E)
1088:Generated_Source\PSoC4/CapSense_1_Filter.c ****         {
1089:Generated_Source\PSoC4/CapSense_1_Filter.c ****             #if (CapSense_1_REGULAR_SENSOR_EN && CapSense_1_REGULAR_RC_MEDIAN_FILTER_EN)
1090:Generated_Source\PSoC4/CapSense_1_Filter.c ****                 ptrFilterHistObj.ptrRegular->regularChannel[freqChannel].medHistory[0u] = ptrSensor
1091:Generated_Source\PSoC4/CapSense_1_Filter.c ****                 ptrFilterHistObj.ptrRegular->regularChannel[freqChannel].medHistory[1u] = ptrSensor
1092:Generated_Source\PSoC4/CapSense_1_Filter.c ****             #endif /* (CapSense_1_REGULAR_SENSOR_EN) */
1093:Generated_Source\PSoC4/CapSense_1_Filter.c ****         }
1094:Generated_Source\PSoC4/CapSense_1_Filter.c ****         else
1095:Generated_Source\PSoC4/CapSense_1_Filter.c ****         {
1096:Generated_Source\PSoC4/CapSense_1_Filter.c ****             #if (CapSense_1_PROXIMITY_SENSOR_EN && CapSense_1_PROX_RC_MEDIAN_FILTER_EN)
1097:Generated_Source\PSoC4/CapSense_1_Filter.c ****                 ptrFilterHistObj.ptrProx->proxChannel[freqChannel].medHistory[0u] = ptrSensorObj->r
1098:Generated_Source\PSoC4/CapSense_1_Filter.c ****                 ptrFilterHistObj.ptrProx->proxChannel[freqChannel].medHistory[1u] = ptrSensorObj->r
1099:Generated_Source\PSoC4/CapSense_1_Filter.c ****             #endif /* (CapSense_1_PROXIMITY_SENSOR_EN) */
1100:Generated_Source\PSoC4/CapSense_1_Filter.c ****         }
1101:Generated_Source\PSoC4/CapSense_1_Filter.c ****     }
1102:Generated_Source\PSoC4/CapSense_1_Filter.c **** }
1103:Generated_Source\PSoC4/CapSense_1_Filter.c **** 
1104:Generated_Source\PSoC4/CapSense_1_Filter.c **** 
1105:Generated_Source\PSoC4/CapSense_1_Filter.c **** /*******************************************************************************
1106:Generated_Source\PSoC4/CapSense_1_Filter.c **** * Function Name: CapSense_1_RunMedianInternal
1107:Generated_Source\PSoC4/CapSense_1_Filter.c **** ****************************************************************************//**
1108:Generated_Source\PSoC4/CapSense_1_Filter.c **** *
1109:Generated_Source\PSoC4/CapSense_1_Filter.c **** * \brief
1110:Generated_Source\PSoC4/CapSense_1_Filter.c **** *  Runs the Median filter.
1111:Generated_Source\PSoC4/CapSense_1_Filter.c **** *
1112:Generated_Source\PSoC4/CapSense_1_Filter.c **** * \details
1113:Generated_Source\PSoC4/CapSense_1_Filter.c **** *  Runs the Median filter.
1114:Generated_Source\PSoC4/CapSense_1_Filter.c **** *
1115:Generated_Source\PSoC4/CapSense_1_Filter.c **** * \param ptrFilterHistObj
1116:Generated_Source\PSoC4/CapSense_1_Filter.c **** *  The pointer to the filter RAM object of the sensor.
1117:Generated_Source\PSoC4/CapSense_1_Filter.c **** *
1118:Generated_Source\PSoC4/CapSense_1_Filter.c **** * \param ptrSensorObj
1119:Generated_Source\PSoC4/CapSense_1_Filter.c **** *  The pointer to the sensor RAM object of the sensor.
1120:Generated_Source\PSoC4/CapSense_1_Filter.c **** *
1121:Generated_Source\PSoC4/CapSense_1_Filter.c **** * \param wdType
1122:Generated_Source\PSoC4/CapSense_1_Filter.c **** *  Specifies the type of a widget.
1123:Generated_Source\PSoC4/CapSense_1_Filter.c **** *
1124:Generated_Source\PSoC4/CapSense_1_Filter.c **** *******************************************************************************/
1125:Generated_Source\PSoC4/CapSense_1_Filter.c **** void CapSense_1_RunMedianInternal(CapSense_1_PTR_FILTER_VARIANT ptrFilterHistObj,
1126:Generated_Source\PSoC4/CapSense_1_Filter.c ****                                         CapSense_1_RAM_SNS_STRUCT *ptrSensorObj, uint32 wdType)
1127:Generated_Source\PSoC4/CapSense_1_Filter.c **** {
1128:Generated_Source\PSoC4/CapSense_1_Filter.c ****     uint32 freqChannel;
1129:Generated_Source\PSoC4/CapSense_1_Filter.c **** 
1130:Generated_Source\PSoC4/CapSense_1_Filter.c ****     #if ((CapSense_1_REGULAR_SENSOR_EN && CapSense_1_REGULAR_RC_MEDIAN_FILTER_EN) || \
1131:Generated_Source\PSoC4/CapSense_1_Filter.c ****          (CapSense_1_PROXIMITY_SENSOR_EN && CapSense_1_PROX_RC_MEDIAN_FILTER_EN))
1132:Generated_Source\PSoC4/CapSense_1_Filter.c ****         uint32 temp;
1133:Generated_Source\PSoC4/CapSense_1_Filter.c ****     #endif
1134:Generated_Source\PSoC4/CapSense_1_Filter.c **** 
1135:Generated_Source\PSoC4/CapSense_1_Filter.c ****     for(freqChannel = CapSense_1_NUM_SCAN_FREQS; freqChannel-- > 0u;)
1136:Generated_Source\PSoC4/CapSense_1_Filter.c ****     {
1137:Generated_Source\PSoC4/CapSense_1_Filter.c ****         if ((CapSense_1_WD_TYPE_ENUM)wdType != CapSense_1_WD_PROXIMITY_E)
1138:Generated_Source\PSoC4/CapSense_1_Filter.c ****         {
1139:Generated_Source\PSoC4/CapSense_1_Filter.c ****             #if (CapSense_1_REGULAR_SENSOR_EN && CapSense_1_REGULAR_RC_MEDIAN_FILTER_EN)
1140:Generated_Source\PSoC4/CapSense_1_Filter.c ****                 temp = CapSense_1_FtMedian((uint32)ptrSensorObj->raw[freqChannel],\
1141:Generated_Source\PSoC4/CapSense_1_Filter.c ****                                                  (uint32)ptrFilterHistObj.ptrRegular->regularChanne
1142:Generated_Source\PSoC4/CapSense_1_Filter.c ****                                                  (uint32)ptrFilterHistObj.ptrRegular->regularChanne
1143:Generated_Source\PSoC4/CapSense_1_Filter.c ****                 ptrFilterHistObj.ptrRegular->regularChannel[freqChannel].medHistory[1u] = \
ARM GAS  C:\Users\bryan.lee\AppData\Local\Temp\cc6wSQv1.s 			page 29


1144:Generated_Source\PSoC4/CapSense_1_Filter.c ****                 ptrFilterHistObj.ptrRegular->regularChannel[freqChannel].medHistory[0u];
1145:Generated_Source\PSoC4/CapSense_1_Filter.c ****                 ptrFilterHistObj.ptrRegular->regularChannel[freqChannel].medHistory[0u] = ptrSensor
1146:Generated_Source\PSoC4/CapSense_1_Filter.c ****                 ptrSensorObj->raw[freqChannel] = LO16(temp);
1147:Generated_Source\PSoC4/CapSense_1_Filter.c ****             #endif /* (CapSense_1_REGULAR_SENSOR_EN) */
1148:Generated_Source\PSoC4/CapSense_1_Filter.c ****         }
1149:Generated_Source\PSoC4/CapSense_1_Filter.c ****         else
1150:Generated_Source\PSoC4/CapSense_1_Filter.c ****         {
1151:Generated_Source\PSoC4/CapSense_1_Filter.c ****             #if (CapSense_1_PROXIMITY_SENSOR_EN && CapSense_1_PROX_RC_MEDIAN_FILTER_EN)
1152:Generated_Source\PSoC4/CapSense_1_Filter.c ****                 temp = CapSense_1_FtMedian((uint32)ptrSensorObj->raw[freqChannel],\
1153:Generated_Source\PSoC4/CapSense_1_Filter.c ****                                                  (uint32)ptrFilterHistObj.ptrProx->proxChannel[freq
1154:Generated_Source\PSoC4/CapSense_1_Filter.c ****                                                  (uint32)ptrFilterHistObj.ptrProx->proxChannel[freq
1155:Generated_Source\PSoC4/CapSense_1_Filter.c ****                 ptrFilterHistObj.ptrProx->proxChannel[freqChannel].medHistory[1u] = \
1156:Generated_Source\PSoC4/CapSense_1_Filter.c ****                 ptrFilterHistObj.ptrProx->proxChannel[freqChannel].medHistory[0u];
1157:Generated_Source\PSoC4/CapSense_1_Filter.c ****                 ptrFilterHistObj.ptrProx->proxChannel[freqChannel].medHistory[0u] = ptrSensorObj->r
1158:Generated_Source\PSoC4/CapSense_1_Filter.c ****                 ptrSensorObj->raw[freqChannel] = LO16(temp);
1159:Generated_Source\PSoC4/CapSense_1_Filter.c ****             #endif /* (CapSense_1_PROXIMITY_SENSOR_EN) */
1160:Generated_Source\PSoC4/CapSense_1_Filter.c ****         }
1161:Generated_Source\PSoC4/CapSense_1_Filter.c ****     }
1162:Generated_Source\PSoC4/CapSense_1_Filter.c **** }
1163:Generated_Source\PSoC4/CapSense_1_Filter.c **** #endif /* (CapSense_1_REGULAR_RC_MEDIAN_FILTER_EN || CapSense_1_PROX_RC_MEDIAN_FILTER_EN) */
1164:Generated_Source\PSoC4/CapSense_1_Filter.c **** 
1165:Generated_Source\PSoC4/CapSense_1_Filter.c **** 
1166:Generated_Source\PSoC4/CapSense_1_Filter.c **** #if (CapSense_1_REGULAR_RC_AVERAGE_FILTER_EN || CapSense_1_PROX_RC_AVERAGE_FILTER_EN)
1167:Generated_Source\PSoC4/CapSense_1_Filter.c **** 
1168:Generated_Source\PSoC4/CapSense_1_Filter.c **** /*******************************************************************************
1169:Generated_Source\PSoC4/CapSense_1_Filter.c **** * Function Name: CapSense_1_InitializeAverage
1170:Generated_Source\PSoC4/CapSense_1_Filter.c **** ****************************************************************************//**
1171:Generated_Source\PSoC4/CapSense_1_Filter.c **** *
1172:Generated_Source\PSoC4/CapSense_1_Filter.c **** * \brief
1173:Generated_Source\PSoC4/CapSense_1_Filter.c **** *  Initializes the average filter history.
1174:Generated_Source\PSoC4/CapSense_1_Filter.c **** *
1175:Generated_Source\PSoC4/CapSense_1_Filter.c **** * \details
1176:Generated_Source\PSoC4/CapSense_1_Filter.c **** *  Initializes the average filter history.
1177:Generated_Source\PSoC4/CapSense_1_Filter.c **** *
1178:Generated_Source\PSoC4/CapSense_1_Filter.c **** * \param widgetId
1179:Generated_Source\PSoC4/CapSense_1_Filter.c **** *  Specifies the ID number of the widget.
1180:Generated_Source\PSoC4/CapSense_1_Filter.c **** *
1181:Generated_Source\PSoC4/CapSense_1_Filter.c **** * \param sensorId
1182:Generated_Source\PSoC4/CapSense_1_Filter.c **** *  Specifies the ID number of the sensor in the widget.
1183:Generated_Source\PSoC4/CapSense_1_Filter.c **** *
1184:Generated_Source\PSoC4/CapSense_1_Filter.c **** *******************************************************************************/
1185:Generated_Source\PSoC4/CapSense_1_Filter.c **** void CapSense_1_InitializeAverage(uint32 widgetId, uint32 sensorId)
1186:Generated_Source\PSoC4/CapSense_1_Filter.c **** {
1187:Generated_Source\PSoC4/CapSense_1_Filter.c ****     CapSense_1_FLASH_WD_STRUCT const *ptrWidget = &CapSense_1_dsFlash.wdgtArray[widgetId];
1188:Generated_Source\PSoC4/CapSense_1_Filter.c ****     CapSense_1_RAM_SNS_STRUCT *ptrSensor = NULL;
1189:Generated_Source\PSoC4/CapSense_1_Filter.c ****     CapSense_1_PTR_FILTER_VARIANT ptrFilterHistObj;
1190:Generated_Source\PSoC4/CapSense_1_Filter.c **** 
1191:Generated_Source\PSoC4/CapSense_1_Filter.c ****     /* Find pointer to specified sensor object */
1192:Generated_Source\PSoC4/CapSense_1_Filter.c ****     ptrSensor = ptrWidget->ptr2SnsRam;
1193:Generated_Source\PSoC4/CapSense_1_Filter.c ****     ptrSensor = &ptrSensor[sensorId];
1194:Generated_Source\PSoC4/CapSense_1_Filter.c **** 
1195:Generated_Source\PSoC4/CapSense_1_Filter.c ****     /* Find pointer to specified filter sensor object */
1196:Generated_Source\PSoC4/CapSense_1_Filter.c ****     ptrFilterHistObj.ptr = ptrWidget->ptr2FltrHistory;
1197:Generated_Source\PSoC4/CapSense_1_Filter.c **** 
1198:Generated_Source\PSoC4/CapSense_1_Filter.c ****     if ((CapSense_1_WD_TYPE_ENUM)ptrWidget->wdgtType != CapSense_1_WD_PROXIMITY_E)
1199:Generated_Source\PSoC4/CapSense_1_Filter.c ****     {
1200:Generated_Source\PSoC4/CapSense_1_Filter.c ****         #if (CapSense_1_REGULAR_SENSOR_EN)
ARM GAS  C:\Users\bryan.lee\AppData\Local\Temp\cc6wSQv1.s 			page 30


1201:Generated_Source\PSoC4/CapSense_1_Filter.c ****             ptrFilterHistObj.ptrRegular = &ptrFilterHistObj.ptrRegular[sensorId];
1202:Generated_Source\PSoC4/CapSense_1_Filter.c ****         #endif /* (CapSense_1_REGULAR_SENSOR_EN) */
1203:Generated_Source\PSoC4/CapSense_1_Filter.c ****     }
1204:Generated_Source\PSoC4/CapSense_1_Filter.c ****     else
1205:Generated_Source\PSoC4/CapSense_1_Filter.c ****     {
1206:Generated_Source\PSoC4/CapSense_1_Filter.c ****         #if (CapSense_1_PROXIMITY_SENSOR_EN)
1207:Generated_Source\PSoC4/CapSense_1_Filter.c ****             ptrFilterHistObj.ptrProx = &ptrFilterHistObj.ptrProx[sensorId];
1208:Generated_Source\PSoC4/CapSense_1_Filter.c ****         #endif /* (CapSense_1_PROXIMITY_SENSOR_EN) */
1209:Generated_Source\PSoC4/CapSense_1_Filter.c ****     }
1210:Generated_Source\PSoC4/CapSense_1_Filter.c **** 
1211:Generated_Source\PSoC4/CapSense_1_Filter.c ****     CapSense_1_InitializeAverageInternal(ptrFilterHistObj, ptrSensor, (uint32)ptrWidget->wdgtType);
1212:Generated_Source\PSoC4/CapSense_1_Filter.c **** }
1213:Generated_Source\PSoC4/CapSense_1_Filter.c **** 
1214:Generated_Source\PSoC4/CapSense_1_Filter.c **** 
1215:Generated_Source\PSoC4/CapSense_1_Filter.c **** /*******************************************************************************
1216:Generated_Source\PSoC4/CapSense_1_Filter.c **** * Function Name: CapSense_1_RunAverage
1217:Generated_Source\PSoC4/CapSense_1_Filter.c **** ****************************************************************************//**
1218:Generated_Source\PSoC4/CapSense_1_Filter.c **** *
1219:Generated_Source\PSoC4/CapSense_1_Filter.c **** * \brief
1220:Generated_Source\PSoC4/CapSense_1_Filter.c **** *  Executes the average filter algorithm on a sensor indicated by an input
1221:Generated_Source\PSoC4/CapSense_1_Filter.c **** *  parameter.
1222:Generated_Source\PSoC4/CapSense_1_Filter.c **** *
1223:Generated_Source\PSoC4/CapSense_1_Filter.c **** * \details
1224:Generated_Source\PSoC4/CapSense_1_Filter.c **** *  Executes the average filter algorithm on a sensor indicated by an input
1225:Generated_Source\PSoC4/CapSense_1_Filter.c **** *  parameter.
1226:Generated_Source\PSoC4/CapSense_1_Filter.c **** *
1227:Generated_Source\PSoC4/CapSense_1_Filter.c **** * \param widgetId
1228:Generated_Source\PSoC4/CapSense_1_Filter.c **** *  Specifies the ID number of the widget.
1229:Generated_Source\PSoC4/CapSense_1_Filter.c **** *
1230:Generated_Source\PSoC4/CapSense_1_Filter.c **** * \param sensorId
1231:Generated_Source\PSoC4/CapSense_1_Filter.c **** *  Specifies the ID number of the sensor in the widget.
1232:Generated_Source\PSoC4/CapSense_1_Filter.c **** *
1233:Generated_Source\PSoC4/CapSense_1_Filter.c **** *******************************************************************************/
1234:Generated_Source\PSoC4/CapSense_1_Filter.c **** void CapSense_1_RunAverage(uint32 widgetId, uint32 sensorId)
1235:Generated_Source\PSoC4/CapSense_1_Filter.c **** {
1236:Generated_Source\PSoC4/CapSense_1_Filter.c ****     CapSense_1_FLASH_WD_STRUCT const *ptrWidget = &CapSense_1_dsFlash.wdgtArray[widgetId];
1237:Generated_Source\PSoC4/CapSense_1_Filter.c ****     CapSense_1_RAM_SNS_STRUCT *ptrSensor = NULL;
1238:Generated_Source\PSoC4/CapSense_1_Filter.c ****     CapSense_1_PTR_FILTER_VARIANT ptrFilterHistObj;
1239:Generated_Source\PSoC4/CapSense_1_Filter.c **** 
1240:Generated_Source\PSoC4/CapSense_1_Filter.c ****     /* Find pointer to specified sensor object */
1241:Generated_Source\PSoC4/CapSense_1_Filter.c ****     ptrSensor = ptrWidget->ptr2SnsRam;
1242:Generated_Source\PSoC4/CapSense_1_Filter.c ****     ptrSensor = &ptrSensor[sensorId];
1243:Generated_Source\PSoC4/CapSense_1_Filter.c **** 
1244:Generated_Source\PSoC4/CapSense_1_Filter.c ****     /* Find pointer to specified filter sensor object */
1245:Generated_Source\PSoC4/CapSense_1_Filter.c ****     ptrFilterHistObj.ptr = ptrWidget->ptr2FltrHistory;
1246:Generated_Source\PSoC4/CapSense_1_Filter.c **** 
1247:Generated_Source\PSoC4/CapSense_1_Filter.c ****     if ((CapSense_1_WD_TYPE_ENUM)ptrWidget->wdgtType != CapSense_1_WD_PROXIMITY_E)
1248:Generated_Source\PSoC4/CapSense_1_Filter.c ****     {
1249:Generated_Source\PSoC4/CapSense_1_Filter.c ****         #if (CapSense_1_REGULAR_SENSOR_EN)
1250:Generated_Source\PSoC4/CapSense_1_Filter.c ****             ptrFilterHistObj.ptrRegular = &ptrFilterHistObj.ptrRegular[sensorId];
1251:Generated_Source\PSoC4/CapSense_1_Filter.c ****         #endif /* (CapSense_1_REGULAR_SENSOR_EN) */
1252:Generated_Source\PSoC4/CapSense_1_Filter.c ****     }
1253:Generated_Source\PSoC4/CapSense_1_Filter.c ****     else
1254:Generated_Source\PSoC4/CapSense_1_Filter.c ****     {
1255:Generated_Source\PSoC4/CapSense_1_Filter.c ****         #if (CapSense_1_PROXIMITY_SENSOR_EN)
1256:Generated_Source\PSoC4/CapSense_1_Filter.c ****             ptrFilterHistObj.ptrProx = &ptrFilterHistObj.ptrProx[sensorId];
1257:Generated_Source\PSoC4/CapSense_1_Filter.c ****         #endif /* (CapSense_1_PROXIMITY_SENSOR_EN) */
ARM GAS  C:\Users\bryan.lee\AppData\Local\Temp\cc6wSQv1.s 			page 31


1258:Generated_Source\PSoC4/CapSense_1_Filter.c ****     }
1259:Generated_Source\PSoC4/CapSense_1_Filter.c **** 
1260:Generated_Source\PSoC4/CapSense_1_Filter.c ****     CapSense_1_RunAverageInternal(ptrFilterHistObj, ptrSensor, (uint32)ptrWidget->wdgtType);
1261:Generated_Source\PSoC4/CapSense_1_Filter.c **** }
1262:Generated_Source\PSoC4/CapSense_1_Filter.c **** 
1263:Generated_Source\PSoC4/CapSense_1_Filter.c **** 
1264:Generated_Source\PSoC4/CapSense_1_Filter.c **** /*******************************************************************************
1265:Generated_Source\PSoC4/CapSense_1_Filter.c **** * Function Name: CapSense_1_InitializeAverageInternal
1266:Generated_Source\PSoC4/CapSense_1_Filter.c **** ****************************************************************************//**
1267:Generated_Source\PSoC4/CapSense_1_Filter.c **** *
1268:Generated_Source\PSoC4/CapSense_1_Filter.c **** * \brief
1269:Generated_Source\PSoC4/CapSense_1_Filter.c **** *  Initializes the average filter.
1270:Generated_Source\PSoC4/CapSense_1_Filter.c **** *
1271:Generated_Source\PSoC4/CapSense_1_Filter.c **** * \details
1272:Generated_Source\PSoC4/CapSense_1_Filter.c **** *  Initializes the average filter.
1273:Generated_Source\PSoC4/CapSense_1_Filter.c **** *
1274:Generated_Source\PSoC4/CapSense_1_Filter.c **** * \param ptrFilterHistObj
1275:Generated_Source\PSoC4/CapSense_1_Filter.c **** *  The pointer to the filter RAM object of the sensor.
1276:Generated_Source\PSoC4/CapSense_1_Filter.c **** *
1277:Generated_Source\PSoC4/CapSense_1_Filter.c **** * \param ptrSensorObj
1278:Generated_Source\PSoC4/CapSense_1_Filter.c **** *  The pointer to the sensor RAM object of the sensor.
1279:Generated_Source\PSoC4/CapSense_1_Filter.c **** *
1280:Generated_Source\PSoC4/CapSense_1_Filter.c **** * \param wdType
1281:Generated_Source\PSoC4/CapSense_1_Filter.c **** *  Specifies the type of a widget.
1282:Generated_Source\PSoC4/CapSense_1_Filter.c **** *
1283:Generated_Source\PSoC4/CapSense_1_Filter.c **** *******************************************************************************/
1284:Generated_Source\PSoC4/CapSense_1_Filter.c **** void CapSense_1_InitializeAverageInternal(CapSense_1_PTR_FILTER_VARIANT ptrFilterHistObj,\
1285:Generated_Source\PSoC4/CapSense_1_Filter.c ****                                                   CapSense_1_RAM_SNS_STRUCT *ptrSensorObj, uint32 w
1286:Generated_Source\PSoC4/CapSense_1_Filter.c **** {
1287:Generated_Source\PSoC4/CapSense_1_Filter.c ****     uint32 freqChannel;
1288:Generated_Source\PSoC4/CapSense_1_Filter.c **** 
1289:Generated_Source\PSoC4/CapSense_1_Filter.c ****     for(freqChannel = CapSense_1_NUM_SCAN_FREQS; freqChannel-- > 0u;)
1290:Generated_Source\PSoC4/CapSense_1_Filter.c ****     {
1291:Generated_Source\PSoC4/CapSense_1_Filter.c ****         if ((CapSense_1_WD_TYPE_ENUM)wdType != CapSense_1_WD_PROXIMITY_E)
1292:Generated_Source\PSoC4/CapSense_1_Filter.c ****         {
1293:Generated_Source\PSoC4/CapSense_1_Filter.c ****             #if (CapSense_1_REGULAR_SENSOR_EN && CapSense_1_REGULAR_RC_AVERAGE_FILTER_EN)
1294:Generated_Source\PSoC4/CapSense_1_Filter.c ****                 ptrFilterHistObj.ptrRegular->regularChannel[freqChannel].avgHistory[0] = ptrSensorO
1295:Generated_Source\PSoC4/CapSense_1_Filter.c ****                 #if (CapSense_1_REGULAR_AVERAGE_LEN == CapSense_1_AVERAGE_FILTER_LEN_4)
1296:Generated_Source\PSoC4/CapSense_1_Filter.c ****                     ptrFilterHistObj.ptrRegular->regularChannel[freqChannel].avgHistory[1u] = ptrSe
1297:Generated_Source\PSoC4/CapSense_1_Filter.c ****                     ptrFilterHistObj.ptrRegular->regularChannel[freqChannel].avgHistory[2u] = ptrSe
1298:Generated_Source\PSoC4/CapSense_1_Filter.c ****                 #endif /* CapSense_1_REGULAR_AVERAGE_LEN == CapSense_1_AVERAGE_FILTER_LEN_4 */
1299:Generated_Source\PSoC4/CapSense_1_Filter.c ****             #endif /* (CapSense_1_REGULAR_SENSOR_EN) */
1300:Generated_Source\PSoC4/CapSense_1_Filter.c ****         }
1301:Generated_Source\PSoC4/CapSense_1_Filter.c ****         else
1302:Generated_Source\PSoC4/CapSense_1_Filter.c ****         {
1303:Generated_Source\PSoC4/CapSense_1_Filter.c ****             #if (CapSense_1_PROXIMITY_SENSOR_EN && CapSense_1_PROX_RC_AVERAGE_FILTER_EN)
1304:Generated_Source\PSoC4/CapSense_1_Filter.c ****                 ptrFilterHistObj.ptrProx->proxChannel[freqChannel].avgHistory[0] = ptrSensorObj->ra
1305:Generated_Source\PSoC4/CapSense_1_Filter.c ****                     #if (CapSense_1_PROX_AVERAGE_LEN == CapSense_1_AVERAGE_FILTER_LEN_4)
1306:Generated_Source\PSoC4/CapSense_1_Filter.c ****                         ptrFilterHistObj.ptrProx->proxChannel[freqChannel].avgHistory[1u] = ptrSens
1307:Generated_Source\PSoC4/CapSense_1_Filter.c ****                         ptrFilterHistObj.ptrProx->proxChannel[freqChannel].avgHistory[2u] = ptrSens
1308:Generated_Source\PSoC4/CapSense_1_Filter.c ****                     #endif /* CapSense_1_REGULAR_AVERAGE_LEN == CapSense_1_AVERAGE_FILTER_LEN_4 */
1309:Generated_Source\PSoC4/CapSense_1_Filter.c ****             #endif /* (CapSense_1_PROXIMITY_SENSOR_EN) */
1310:Generated_Source\PSoC4/CapSense_1_Filter.c ****         }
1311:Generated_Source\PSoC4/CapSense_1_Filter.c ****     }
1312:Generated_Source\PSoC4/CapSense_1_Filter.c **** }
1313:Generated_Source\PSoC4/CapSense_1_Filter.c **** 
1314:Generated_Source\PSoC4/CapSense_1_Filter.c **** 
ARM GAS  C:\Users\bryan.lee\AppData\Local\Temp\cc6wSQv1.s 			page 32


1315:Generated_Source\PSoC4/CapSense_1_Filter.c **** /*******************************************************************************
1316:Generated_Source\PSoC4/CapSense_1_Filter.c **** * Function Name: CapSense_1_RunAverageInternal
1317:Generated_Source\PSoC4/CapSense_1_Filter.c **** ****************************************************************************//**
1318:Generated_Source\PSoC4/CapSense_1_Filter.c **** *
1319:Generated_Source\PSoC4/CapSense_1_Filter.c **** * \brief
1320:Generated_Source\PSoC4/CapSense_1_Filter.c **** *  Runs the average filter.
1321:Generated_Source\PSoC4/CapSense_1_Filter.c **** *
1322:Generated_Source\PSoC4/CapSense_1_Filter.c **** * \details
1323:Generated_Source\PSoC4/CapSense_1_Filter.c **** *  Runs the average filter.
1324:Generated_Source\PSoC4/CapSense_1_Filter.c **** *
1325:Generated_Source\PSoC4/CapSense_1_Filter.c **** * \param ptrFilterHistObj
1326:Generated_Source\PSoC4/CapSense_1_Filter.c **** *  The pointer to the filter RAM object of the sensor.
1327:Generated_Source\PSoC4/CapSense_1_Filter.c **** *
1328:Generated_Source\PSoC4/CapSense_1_Filter.c **** * \param ptrSensorObj
1329:Generated_Source\PSoC4/CapSense_1_Filter.c **** *  The pointer to the sensor RAM object of the sensor.
1330:Generated_Source\PSoC4/CapSense_1_Filter.c **** *
1331:Generated_Source\PSoC4/CapSense_1_Filter.c **** * \param wdType
1332:Generated_Source\PSoC4/CapSense_1_Filter.c **** *  Specifies the type of a widget.
1333:Generated_Source\PSoC4/CapSense_1_Filter.c **** *
1334:Generated_Source\PSoC4/CapSense_1_Filter.c **** *******************************************************************************/
1335:Generated_Source\PSoC4/CapSense_1_Filter.c **** void CapSense_1_RunAverageInternal(CapSense_1_PTR_FILTER_VARIANT ptrFilterHistObj,\
1336:Generated_Source\PSoC4/CapSense_1_Filter.c ****                                            CapSense_1_RAM_SNS_STRUCT *ptrSensorObj, uint32 wdType)
1337:Generated_Source\PSoC4/CapSense_1_Filter.c **** {
1338:Generated_Source\PSoC4/CapSense_1_Filter.c ****     uint32 freqChannel;
1339:Generated_Source\PSoC4/CapSense_1_Filter.c ****     uint32 temp;
1340:Generated_Source\PSoC4/CapSense_1_Filter.c **** 
1341:Generated_Source\PSoC4/CapSense_1_Filter.c ****     for(freqChannel = CapSense_1_NUM_SCAN_FREQS; freqChannel-- > 0u;)
1342:Generated_Source\PSoC4/CapSense_1_Filter.c ****     {
1343:Generated_Source\PSoC4/CapSense_1_Filter.c ****         if ((CapSense_1_WD_TYPE_ENUM)wdType != CapSense_1_WD_PROXIMITY_E)
1344:Generated_Source\PSoC4/CapSense_1_Filter.c ****         {
1345:Generated_Source\PSoC4/CapSense_1_Filter.c ****             #if (CapSense_1_REGULAR_SENSOR_EN && CapSense_1_REGULAR_RC_AVERAGE_FILTER_EN)
1346:Generated_Source\PSoC4/CapSense_1_Filter.c ****                 #if (CapSense_1_REGULAR_AVERAGE_LEN == CapSense_1_AVERAGE_FILTER_LEN_2)
1347:Generated_Source\PSoC4/CapSense_1_Filter.c ****                     temp = ((uint32)ptrSensorObj->raw[freqChannel] +
1348:Generated_Source\PSoC4/CapSense_1_Filter.c ****                             (uint32)ptrFilterHistObj.ptrRegular->regularChannel[freqChannel].avgHis
1349:Generated_Source\PSoC4/CapSense_1_Filter.c ****                     ptrFilterHistObj.ptrRegular->regularChannel[freqChannel].avgHistory[0] = ptrSen
1350:Generated_Source\PSoC4/CapSense_1_Filter.c ****                     ptrSensorObj->raw[freqChannel] = LO16(temp);
1351:Generated_Source\PSoC4/CapSense_1_Filter.c ****                 #else
1352:Generated_Source\PSoC4/CapSense_1_Filter.c ****                     temp = ((uint32)ptrSensorObj->raw[freqChannel] +
1353:Generated_Source\PSoC4/CapSense_1_Filter.c ****                             (uint32)ptrFilterHistObj.ptrRegular->regularChannel[freqChannel].avgHis
1354:Generated_Source\PSoC4/CapSense_1_Filter.c ****                             (uint32)ptrFilterHistObj.ptrRegular->regularChannel[freqChannel].avgHis
1355:Generated_Source\PSoC4/CapSense_1_Filter.c ****                             (uint32)ptrFilterHistObj.ptrRegular->regularChannel[freqChannel].avgHis
1356:Generated_Source\PSoC4/CapSense_1_Filter.c **** 
1357:Generated_Source\PSoC4/CapSense_1_Filter.c ****                     ptrFilterHistObj.ptrRegular->regularChannel[freqChannel].avgHistory[2u] =
1358:Generated_Source\PSoC4/CapSense_1_Filter.c ****                     ptrFilterHistObj.ptrRegular->regularChannel[freqChannel].avgHistory[1u];
1359:Generated_Source\PSoC4/CapSense_1_Filter.c ****                     ptrFilterHistObj.ptrRegular->regularChannel[freqChannel].avgHistory[1u] =
1360:Generated_Source\PSoC4/CapSense_1_Filter.c ****                     ptrFilterHistObj.ptrRegular->regularChannel[freqChannel].avgHistory[0];
1361:Generated_Source\PSoC4/CapSense_1_Filter.c ****                     ptrFilterHistObj.ptrRegular->regularChannel[freqChannel].avgHistory[0] = ptrSen
1362:Generated_Source\PSoC4/CapSense_1_Filter.c ****                     ptrSensorObj->raw[freqChannel] = LO16(temp);
1363:Generated_Source\PSoC4/CapSense_1_Filter.c ****                 #endif /* CapSense_1_REGULAR_AVERAGE_LEN == CapSense_1_AVERAGE_FILTER_LEN_4 */
1364:Generated_Source\PSoC4/CapSense_1_Filter.c ****             #endif /* (CapSense_1_REGULAR_SENSOR_EN) */
1365:Generated_Source\PSoC4/CapSense_1_Filter.c ****         }
1366:Generated_Source\PSoC4/CapSense_1_Filter.c ****         else
1367:Generated_Source\PSoC4/CapSense_1_Filter.c ****         {
1368:Generated_Source\PSoC4/CapSense_1_Filter.c ****             #if (CapSense_1_PROXIMITY_SENSOR_EN && CapSense_1_PROX_RC_AVERAGE_FILTER_EN)
1369:Generated_Source\PSoC4/CapSense_1_Filter.c ****                 #if (CapSense_1_PROX_AVERAGE_LEN == CapSense_1_AVERAGE_FILTER_LEN_2)
1370:Generated_Source\PSoC4/CapSense_1_Filter.c ****                     temp = ((uint32)ptrSensorObj->raw[freqChannel] +
1371:Generated_Source\PSoC4/CapSense_1_Filter.c ****                             (uint32)ptrFilterHistObj.ptrProx->proxChannel[freqChannel].avgHistory[0
ARM GAS  C:\Users\bryan.lee\AppData\Local\Temp\cc6wSQv1.s 			page 33


1372:Generated_Source\PSoC4/CapSense_1_Filter.c ****                     ptrFilterHistObj.ptrProx->proxChannel[freqChannel].avgHistory[0] = ptrSensorObj
1373:Generated_Source\PSoC4/CapSense_1_Filter.c ****                     ptrSensorObj->raw[freqChannel] = LO16(temp);
1374:Generated_Source\PSoC4/CapSense_1_Filter.c ****                 #else
1375:Generated_Source\PSoC4/CapSense_1_Filter.c ****                     temp = ((uint32)ptrSensorObj->raw[freqChannel] +
1376:Generated_Source\PSoC4/CapSense_1_Filter.c ****                             (uint32)ptrFilterHistObj.ptrProx->proxChannel[freqChannel].avgHistory[0
1377:Generated_Source\PSoC4/CapSense_1_Filter.c ****                             (uint32)ptrFilterHistObj.ptrProx->proxChannel[freqChannel].avgHistory[1
1378:Generated_Source\PSoC4/CapSense_1_Filter.c ****                             (uint32)ptrFilterHistObj.ptrProx->proxChannel[freqChannel].avgHistory[2
1379:Generated_Source\PSoC4/CapSense_1_Filter.c **** 
1380:Generated_Source\PSoC4/CapSense_1_Filter.c ****                     ptrFilterHistObj.ptrProx->proxChannel[freqChannel].avgHistory[2u] =
1381:Generated_Source\PSoC4/CapSense_1_Filter.c ****                     ptrFilterHistObj.ptrProx->proxChannel[freqChannel].avgHistory[1u];
1382:Generated_Source\PSoC4/CapSense_1_Filter.c ****                     ptrFilterHistObj.ptrProx->proxChannel[freqChannel].avgHistory[1u] =
1383:Generated_Source\PSoC4/CapSense_1_Filter.c ****                     ptrFilterHistObj.ptrProx->proxChannel[freqChannel].avgHistory[0];
1384:Generated_Source\PSoC4/CapSense_1_Filter.c ****                     ptrFilterHistObj.ptrProx->proxChannel[freqChannel].avgHistory[0] = ptrSensorObj
1385:Generated_Source\PSoC4/CapSense_1_Filter.c ****                     ptrSensorObj->raw[freqChannel] = LO16(temp);
1386:Generated_Source\PSoC4/CapSense_1_Filter.c ****                 #endif /* CapSense_1_PROX_AVERAGE_LEN == CapSense_1_AVERAGE_FILTER_LEN_4 */
1387:Generated_Source\PSoC4/CapSense_1_Filter.c ****             #endif /* (CapSense_1_PROXIMITY_SENSOR_EN) */
1388:Generated_Source\PSoC4/CapSense_1_Filter.c ****         }
1389:Generated_Source\PSoC4/CapSense_1_Filter.c ****     }
1390:Generated_Source\PSoC4/CapSense_1_Filter.c **** }
1391:Generated_Source\PSoC4/CapSense_1_Filter.c **** #endif /* (CapSense_1_REGULAR_RC_AVERAGE_FILTER_EN || CapSense_1_PROX_RC_AVERAGE_FILTER_EN) */
1392:Generated_Source\PSoC4/CapSense_1_Filter.c **** 
1393:Generated_Source\PSoC4/CapSense_1_Filter.c **** #if (CapSense_1_ENABLE == CapSense_1_ALP_FILTER_EN)
1394:Generated_Source\PSoC4/CapSense_1_Filter.c **** /*******************************************************************************
1395:Generated_Source\PSoC4/CapSense_1_Filter.c **** * Function Name: CapSense_1_InitializeALP
1396:Generated_Source\PSoC4/CapSense_1_Filter.c **** ****************************************************************************//**
1397:Generated_Source\PSoC4/CapSense_1_Filter.c **** *
1398:Generated_Source\PSoC4/CapSense_1_Filter.c **** * \brief
1399:Generated_Source\PSoC4/CapSense_1_Filter.c **** *  Initializes the ALP filter history.
1400:Generated_Source\PSoC4/CapSense_1_Filter.c **** *
1401:Generated_Source\PSoC4/CapSense_1_Filter.c **** * \details
1402:Generated_Source\PSoC4/CapSense_1_Filter.c **** *  Initializes the ALP filter history.
1403:Generated_Source\PSoC4/CapSense_1_Filter.c **** *
1404:Generated_Source\PSoC4/CapSense_1_Filter.c **** * \param widgetId
1405:Generated_Source\PSoC4/CapSense_1_Filter.c **** *  Specifies the ID number of the widget.
1406:Generated_Source\PSoC4/CapSense_1_Filter.c **** *
1407:Generated_Source\PSoC4/CapSense_1_Filter.c **** * \param sensorId
1408:Generated_Source\PSoC4/CapSense_1_Filter.c **** *  Specifies the ID number of the sensor in the widget.
1409:Generated_Source\PSoC4/CapSense_1_Filter.c **** *
1410:Generated_Source\PSoC4/CapSense_1_Filter.c **** *******************************************************************************/
1411:Generated_Source\PSoC4/CapSense_1_Filter.c **** void CapSense_1_InitializeALP(uint32 widgetId, uint32 sensorId)
1412:Generated_Source\PSoC4/CapSense_1_Filter.c **** {
1413:Generated_Source\PSoC4/CapSense_1_Filter.c ****     CapSense_1_FLASH_WD_STRUCT const *ptrWidget = &CapSense_1_dsFlash.wdgtArray[widgetId];
1414:Generated_Source\PSoC4/CapSense_1_Filter.c ****     CapSense_1_RAM_SNS_STRUCT *ptrSensor = NULL;
1415:Generated_Source\PSoC4/CapSense_1_Filter.c ****     CapSense_1_PTR_FILTER_VARIANT ptrFilterHistObj;
1416:Generated_Source\PSoC4/CapSense_1_Filter.c **** 
1417:Generated_Source\PSoC4/CapSense_1_Filter.c ****     /* Find pointer to specified sensor object */
1418:Generated_Source\PSoC4/CapSense_1_Filter.c ****     ptrSensor = ptrWidget->ptr2SnsRam;
1419:Generated_Source\PSoC4/CapSense_1_Filter.c ****     ptrSensor = &ptrSensor[sensorId];
1420:Generated_Source\PSoC4/CapSense_1_Filter.c **** 
1421:Generated_Source\PSoC4/CapSense_1_Filter.c ****     /* Find pointer to specified filter sensor object */
1422:Generated_Source\PSoC4/CapSense_1_Filter.c ****     ptrFilterHistObj.ptr = ptrWidget->ptr2FltrHistory;
1423:Generated_Source\PSoC4/CapSense_1_Filter.c ****     ptrFilterHistObj.ptrAlp = &ptrFilterHistObj.ptrAlp[sensorId];
1424:Generated_Source\PSoC4/CapSense_1_Filter.c ****     CapSense_1_InitializeALPInternal(ptrFilterHistObj, ptrSensor, (uint32)ptrWidget->wdgtType);
1425:Generated_Source\PSoC4/CapSense_1_Filter.c **** }
1426:Generated_Source\PSoC4/CapSense_1_Filter.c **** 
1427:Generated_Source\PSoC4/CapSense_1_Filter.c **** 
1428:Generated_Source\PSoC4/CapSense_1_Filter.c **** /*******************************************************************************
ARM GAS  C:\Users\bryan.lee\AppData\Local\Temp\cc6wSQv1.s 			page 34


1429:Generated_Source\PSoC4/CapSense_1_Filter.c **** * Function Name: CapSense_1_RunALP
1430:Generated_Source\PSoC4/CapSense_1_Filter.c **** ****************************************************************************//**
1431:Generated_Source\PSoC4/CapSense_1_Filter.c **** *
1432:Generated_Source\PSoC4/CapSense_1_Filter.c **** * \brief
1433:Generated_Source\PSoC4/CapSense_1_Filter.c **** *  Executes the ALP filter algorithm on a sensor indicated by an input
1434:Generated_Source\PSoC4/CapSense_1_Filter.c **** *  parameter.
1435:Generated_Source\PSoC4/CapSense_1_Filter.c **** *
1436:Generated_Source\PSoC4/CapSense_1_Filter.c **** * \details
1437:Generated_Source\PSoC4/CapSense_1_Filter.c **** *  Executes the ALP filter algorithm on a sensor indicated by an input
1438:Generated_Source\PSoC4/CapSense_1_Filter.c **** *  parameter.
1439:Generated_Source\PSoC4/CapSense_1_Filter.c **** *
1440:Generated_Source\PSoC4/CapSense_1_Filter.c **** * \param widgetId
1441:Generated_Source\PSoC4/CapSense_1_Filter.c **** *  Specifies the ID number of the widget.
1442:Generated_Source\PSoC4/CapSense_1_Filter.c **** *
1443:Generated_Source\PSoC4/CapSense_1_Filter.c **** * \param sensorId
1444:Generated_Source\PSoC4/CapSense_1_Filter.c **** *  Specifies the ID number of the sensor in the widget.
1445:Generated_Source\PSoC4/CapSense_1_Filter.c **** *
1446:Generated_Source\PSoC4/CapSense_1_Filter.c **** *******************************************************************************/
1447:Generated_Source\PSoC4/CapSense_1_Filter.c **** void CapSense_1_RunALP(uint32 widgetId, uint32 sensorId)
1448:Generated_Source\PSoC4/CapSense_1_Filter.c **** {
1449:Generated_Source\PSoC4/CapSense_1_Filter.c ****     CapSense_1_FLASH_WD_STRUCT const *ptrWidget = &CapSense_1_dsFlash.wdgtArray[widgetId];
1450:Generated_Source\PSoC4/CapSense_1_Filter.c ****     CapSense_1_RAM_SNS_STRUCT *ptrSensor = NULL;
1451:Generated_Source\PSoC4/CapSense_1_Filter.c ****     CapSense_1_PTR_FILTER_VARIANT ptrFilterHistObj;
1452:Generated_Source\PSoC4/CapSense_1_Filter.c ****     ALP_FLTR_CONFIG_STRUCT alpFilterConfig;
1453:Generated_Source\PSoC4/CapSense_1_Filter.c ****     ALP_FLTR_CONFIG_STRUCT *ptrAlpFilterConfig = &alpFilterConfig;
1454:Generated_Source\PSoC4/CapSense_1_Filter.c ****     CapSense_1_RAM_WD_BASE_STRUCT *ptrRamWidget = ptrWidget->ptr2WdgtRam;
1455:Generated_Source\PSoC4/CapSense_1_Filter.c **** 
1456:Generated_Source\PSoC4/CapSense_1_Filter.c ****     /* Find pointer to specified sensor object */
1457:Generated_Source\PSoC4/CapSense_1_Filter.c ****     ptrSensor = ptrWidget->ptr2SnsRam;
1458:Generated_Source\PSoC4/CapSense_1_Filter.c ****     ptrSensor = &ptrSensor[sensorId];
1459:Generated_Source\PSoC4/CapSense_1_Filter.c **** 
1460:Generated_Source\PSoC4/CapSense_1_Filter.c ****     ptrAlpFilterConfig->configParam0 = ptrRamWidget->alpOnTh;
1461:Generated_Source\PSoC4/CapSense_1_Filter.c ****     ptrAlpFilterConfig->configParam1 = ptrRamWidget->alpOffTh;
1462:Generated_Source\PSoC4/CapSense_1_Filter.c ****     ptrAlpFilterConfig->configParam2 = ptrRamWidget->fingerTh;
1463:Generated_Source\PSoC4/CapSense_1_Filter.c ****     ptrAlpFilterConfig->configParam3 = ptrRamWidget->noiseTh;
1464:Generated_Source\PSoC4/CapSense_1_Filter.c ****     ptrAlpFilterConfig->configParam4 = ptrRamWidget->hysteresis;
1465:Generated_Source\PSoC4/CapSense_1_Filter.c **** 
1466:Generated_Source\PSoC4/CapSense_1_Filter.c ****     /* Find pointer to specified filter sensor object */
1467:Generated_Source\PSoC4/CapSense_1_Filter.c ****     ptrFilterHistObj.ptr = ptrWidget->ptr2FltrHistory;
1468:Generated_Source\PSoC4/CapSense_1_Filter.c ****     ptrFilterHistObj.ptrAlp = &ptrFilterHistObj.ptrAlp[sensorId];
1469:Generated_Source\PSoC4/CapSense_1_Filter.c **** 
1470:Generated_Source\PSoC4/CapSense_1_Filter.c ****     if ((CapSense_1_WD_TYPE_ENUM)ptrWidget->wdgtType != CapSense_1_WD_PROXIMITY_E)
1471:Generated_Source\PSoC4/CapSense_1_Filter.c ****     {
1472:Generated_Source\PSoC4/CapSense_1_Filter.c ****         #if (CapSense_1_REGULAR_SENSOR_EN)
1473:Generated_Source\PSoC4/CapSense_1_Filter.c ****             ptrAlpFilterConfig->configParam5 = CapSense_1_REGULAR_RC_ALP_FILTER_COEFF;
1474:Generated_Source\PSoC4/CapSense_1_Filter.c ****         #endif /* (CapSense_1_REGULAR_SENSOR_EN) */
1475:Generated_Source\PSoC4/CapSense_1_Filter.c ****     }
1476:Generated_Source\PSoC4/CapSense_1_Filter.c ****     else
1477:Generated_Source\PSoC4/CapSense_1_Filter.c ****     {
1478:Generated_Source\PSoC4/CapSense_1_Filter.c ****         #if (CapSense_1_PROXIMITY_SENSOR_EN)
1479:Generated_Source\PSoC4/CapSense_1_Filter.c ****             ptrAlpFilterConfig->configParam5 = CapSense_1_PROX_RC_ALP_FILTER_COEFF;
1480:Generated_Source\PSoC4/CapSense_1_Filter.c ****         #endif /* (CapSense_1_PROXIMITY_SENSOR_EN) */
1481:Generated_Source\PSoC4/CapSense_1_Filter.c ****     }
1482:Generated_Source\PSoC4/CapSense_1_Filter.c ****     CapSense_1_RunALPInternal(ptrFilterHistObj, ptrAlpFilterConfig, ptrSensor, (uint32)ptrWidget->w
1483:Generated_Source\PSoC4/CapSense_1_Filter.c **** }
1484:Generated_Source\PSoC4/CapSense_1_Filter.c **** 
1485:Generated_Source\PSoC4/CapSense_1_Filter.c **** 
ARM GAS  C:\Users\bryan.lee\AppData\Local\Temp\cc6wSQv1.s 			page 35


1486:Generated_Source\PSoC4/CapSense_1_Filter.c **** /*******************************************************************************
1487:Generated_Source\PSoC4/CapSense_1_Filter.c **** * Function Name: CapSense_1_InitializeALPInternal
1488:Generated_Source\PSoC4/CapSense_1_Filter.c **** ****************************************************************************//**
1489:Generated_Source\PSoC4/CapSense_1_Filter.c **** *
1490:Generated_Source\PSoC4/CapSense_1_Filter.c **** * \brief
1491:Generated_Source\PSoC4/CapSense_1_Filter.c **** *  Initializes the ALP filter.
1492:Generated_Source\PSoC4/CapSense_1_Filter.c **** *
1493:Generated_Source\PSoC4/CapSense_1_Filter.c **** * \details
1494:Generated_Source\PSoC4/CapSense_1_Filter.c **** *  Initializes the ALP filter.
1495:Generated_Source\PSoC4/CapSense_1_Filter.c **** *
1496:Generated_Source\PSoC4/CapSense_1_Filter.c **** * \param ptrFilterHistObj
1497:Generated_Source\PSoC4/CapSense_1_Filter.c **** *  The pointer to the filter RAM object of the sensor.
1498:Generated_Source\PSoC4/CapSense_1_Filter.c **** *
1499:Generated_Source\PSoC4/CapSense_1_Filter.c **** * \param ptrSensorObj
1500:Generated_Source\PSoC4/CapSense_1_Filter.c **** *  The pointer to the sensor RAM object of the sensor.
1501:Generated_Source\PSoC4/CapSense_1_Filter.c **** *
1502:Generated_Source\PSoC4/CapSense_1_Filter.c **** * \param wdType
1503:Generated_Source\PSoC4/CapSense_1_Filter.c **** *  Specifies the type of a widget.
1504:Generated_Source\PSoC4/CapSense_1_Filter.c **** *
1505:Generated_Source\PSoC4/CapSense_1_Filter.c **** *
1506:Generated_Source\PSoC4/CapSense_1_Filter.c **** *******************************************************************************/
1507:Generated_Source\PSoC4/CapSense_1_Filter.c **** void CapSense_1_InitializeALPInternal(CapSense_1_PTR_FILTER_VARIANT ptrFilterHistObj,
1508:Generated_Source\PSoC4/CapSense_1_Filter.c ****                                             CapSense_1_RAM_SNS_STRUCT *ptrSensorObj,
1509:Generated_Source\PSoC4/CapSense_1_Filter.c ****                                             uint32 wdType)
1510:Generated_Source\PSoC4/CapSense_1_Filter.c **** {
1511:Generated_Source\PSoC4/CapSense_1_Filter.c ****     uint32 freqChannel;
1512:Generated_Source\PSoC4/CapSense_1_Filter.c **** 
1513:Generated_Source\PSoC4/CapSense_1_Filter.c ****     for(freqChannel = CapSense_1_NUM_SCAN_FREQS; freqChannel-- > 0u;)
1514:Generated_Source\PSoC4/CapSense_1_Filter.c ****     {
1515:Generated_Source\PSoC4/CapSense_1_Filter.c ****         if ((CapSense_1_WD_TYPE_ENUM)wdType != CapSense_1_WD_PROXIMITY_E)
1516:Generated_Source\PSoC4/CapSense_1_Filter.c ****         {
1517:Generated_Source\PSoC4/CapSense_1_Filter.c ****             #if (CapSense_1_REGULAR_SENSOR_EN && CapSense_1_REGULAR_RC_ALP_FILTER_EN)
1518:Generated_Source\PSoC4/CapSense_1_Filter.c ****                 ALP_Initialize(&ptrFilterHistObj.ptrAlp->channel[freqChannel], &ptrSensorObj->raw[f
1519:Generated_Source\PSoC4/CapSense_1_Filter.c ****             #endif
1520:Generated_Source\PSoC4/CapSense_1_Filter.c ****         }
1521:Generated_Source\PSoC4/CapSense_1_Filter.c ****         else
1522:Generated_Source\PSoC4/CapSense_1_Filter.c ****         {
1523:Generated_Source\PSoC4/CapSense_1_Filter.c ****             #if (CapSense_1_PROXIMITY_SENSOR_EN && CapSense_1_PROX_RC_ALP_FILTER_EN)
1524:Generated_Source\PSoC4/CapSense_1_Filter.c ****                 ALP_Initialize(&ptrFilterHistObj.ptrAlp->channel[freqChannel], &ptrSensorObj->raw[f
1525:Generated_Source\PSoC4/CapSense_1_Filter.c ****             #endif
1526:Generated_Source\PSoC4/CapSense_1_Filter.c ****         }
1527:Generated_Source\PSoC4/CapSense_1_Filter.c ****     }
1528:Generated_Source\PSoC4/CapSense_1_Filter.c **** }
1529:Generated_Source\PSoC4/CapSense_1_Filter.c **** 
1530:Generated_Source\PSoC4/CapSense_1_Filter.c **** /*******************************************************************************
1531:Generated_Source\PSoC4/CapSense_1_Filter.c **** * Function Name: CapSense_1_ConfigRunALPInternal
1532:Generated_Source\PSoC4/CapSense_1_Filter.c **** ****************************************************************************//**
1533:Generated_Source\PSoC4/CapSense_1_Filter.c **** *
1534:Generated_Source\PSoC4/CapSense_1_Filter.c **** * \brief
1535:Generated_Source\PSoC4/CapSense_1_Filter.c **** *  Prepares ALP configuration structure and runs the filter.
1536:Generated_Source\PSoC4/CapSense_1_Filter.c **** *
1537:Generated_Source\PSoC4/CapSense_1_Filter.c **** * \details
1538:Generated_Source\PSoC4/CapSense_1_Filter.c **** *  Prepares ALP configuration structure and runs the filter.
1539:Generated_Source\PSoC4/CapSense_1_Filter.c **** *
1540:Generated_Source\PSoC4/CapSense_1_Filter.c **** * \param ptrFilterHistObj
1541:Generated_Source\PSoC4/CapSense_1_Filter.c **** *  The pointer to the filter RAM object of the sensor.
1542:Generated_Source\PSoC4/CapSense_1_Filter.c **** *
ARM GAS  C:\Users\bryan.lee\AppData\Local\Temp\cc6wSQv1.s 			page 36


1543:Generated_Source\PSoC4/CapSense_1_Filter.c **** * \param ptrRamWdgt
1544:Generated_Source\PSoC4/CapSense_1_Filter.c **** *  The pointer to the RAM widget object.
1545:Generated_Source\PSoC4/CapSense_1_Filter.c **** *
1546:Generated_Source\PSoC4/CapSense_1_Filter.c **** * \param ptrSensorObj
1547:Generated_Source\PSoC4/CapSense_1_Filter.c **** *  The pointer to the sensor RAM object of the sensor.
1548:Generated_Source\PSoC4/CapSense_1_Filter.c **** *
1549:Generated_Source\PSoC4/CapSense_1_Filter.c **** * \param wdType
1550:Generated_Source\PSoC4/CapSense_1_Filter.c **** *  Specifies the type of a widget.
1551:Generated_Source\PSoC4/CapSense_1_Filter.c **** *
1552:Generated_Source\PSoC4/CapSense_1_Filter.c **** *******************************************************************************/
1553:Generated_Source\PSoC4/CapSense_1_Filter.c **** void CapSense_1_ConfigRunALPInternal(CapSense_1_PTR_FILTER_VARIANT ptrFilterHistObj,
1554:Generated_Source\PSoC4/CapSense_1_Filter.c ****                                     CapSense_1_RAM_WD_BASE_STRUCT *ptrRamWdgt,
1555:Generated_Source\PSoC4/CapSense_1_Filter.c ****                                     CapSense_1_RAM_SNS_STRUCT *ptrSensorObj,
1556:Generated_Source\PSoC4/CapSense_1_Filter.c ****                                     uint32 wdType)
1557:Generated_Source\PSoC4/CapSense_1_Filter.c **** {
1558:Generated_Source\PSoC4/CapSense_1_Filter.c ****     ALP_FLTR_CONFIG_STRUCT alpFilterConfig;
1559:Generated_Source\PSoC4/CapSense_1_Filter.c **** 
1560:Generated_Source\PSoC4/CapSense_1_Filter.c ****     alpFilterConfig.configParam0 = ptrRamWdgt->alpOnTh;
1561:Generated_Source\PSoC4/CapSense_1_Filter.c ****     alpFilterConfig.configParam1 = ptrRamWdgt->alpOffTh;
1562:Generated_Source\PSoC4/CapSense_1_Filter.c ****     alpFilterConfig.configParam2 = ptrRamWdgt->fingerTh;
1563:Generated_Source\PSoC4/CapSense_1_Filter.c ****     alpFilterConfig.configParam3 = ptrRamWdgt->noiseTh;
1564:Generated_Source\PSoC4/CapSense_1_Filter.c ****     alpFilterConfig.configParam4 = ptrRamWdgt->hysteresis;
1565:Generated_Source\PSoC4/CapSense_1_Filter.c **** 
1566:Generated_Source\PSoC4/CapSense_1_Filter.c ****     CapSense_1_RunALPInternal(ptrFilterHistObj, &alpFilterConfig, ptrSensorObj, wdType);
1567:Generated_Source\PSoC4/CapSense_1_Filter.c **** }
1568:Generated_Source\PSoC4/CapSense_1_Filter.c **** 
1569:Generated_Source\PSoC4/CapSense_1_Filter.c **** /*******************************************************************************
1570:Generated_Source\PSoC4/CapSense_1_Filter.c **** * Function Name: CapSense_1_RunALPInternal
1571:Generated_Source\PSoC4/CapSense_1_Filter.c **** ****************************************************************************//**
1572:Generated_Source\PSoC4/CapSense_1_Filter.c **** *
1573:Generated_Source\PSoC4/CapSense_1_Filter.c **** * \brief
1574:Generated_Source\PSoC4/CapSense_1_Filter.c **** *  Runs the ALP filter.
1575:Generated_Source\PSoC4/CapSense_1_Filter.c **** *
1576:Generated_Source\PSoC4/CapSense_1_Filter.c **** * \details
1577:Generated_Source\PSoC4/CapSense_1_Filter.c **** *  Runs the ALP filter.
1578:Generated_Source\PSoC4/CapSense_1_Filter.c **** *
1579:Generated_Source\PSoC4/CapSense_1_Filter.c **** * \param ptrFilterHistObj
1580:Generated_Source\PSoC4/CapSense_1_Filter.c **** *  The pointer to the filter RAM object of the sensor.
1581:Generated_Source\PSoC4/CapSense_1_Filter.c **** *
1582:Generated_Source\PSoC4/CapSense_1_Filter.c **** * \param ptrAlpFilterConfig
1583:Generated_Source\PSoC4/CapSense_1_Filter.c **** *  The pointer to the filter configuration object of the sensor.
1584:Generated_Source\PSoC4/CapSense_1_Filter.c **** *
1585:Generated_Source\PSoC4/CapSense_1_Filter.c **** * \param ptrSensorObj
1586:Generated_Source\PSoC4/CapSense_1_Filter.c **** *  The pointer to the sensor RAM object of the sensor.
1587:Generated_Source\PSoC4/CapSense_1_Filter.c **** *
1588:Generated_Source\PSoC4/CapSense_1_Filter.c **** * \param wdType
1589:Generated_Source\PSoC4/CapSense_1_Filter.c **** *  Specifies the type of a widget.
1590:Generated_Source\PSoC4/CapSense_1_Filter.c **** *
1591:Generated_Source\PSoC4/CapSense_1_Filter.c **** *******************************************************************************/
1592:Generated_Source\PSoC4/CapSense_1_Filter.c **** void CapSense_1_RunALPInternal(CapSense_1_PTR_FILTER_VARIANT ptrFilterHistObj,
1593:Generated_Source\PSoC4/CapSense_1_Filter.c ****                                     ALP_FLTR_CONFIG_STRUCT *ptrAlpFilterConfig,
1594:Generated_Source\PSoC4/CapSense_1_Filter.c ****                                     CapSense_1_RAM_SNS_STRUCT *ptrSensorObj,
1595:Generated_Source\PSoC4/CapSense_1_Filter.c ****                                     uint32 wdType)
1596:Generated_Source\PSoC4/CapSense_1_Filter.c **** {
1597:Generated_Source\PSoC4/CapSense_1_Filter.c ****     uint32 freqChannel;
1598:Generated_Source\PSoC4/CapSense_1_Filter.c **** 
1599:Generated_Source\PSoC4/CapSense_1_Filter.c ****     for(freqChannel = CapSense_1_NUM_SCAN_FREQS; freqChannel-- > 0u;)
ARM GAS  C:\Users\bryan.lee\AppData\Local\Temp\cc6wSQv1.s 			page 37


1600:Generated_Source\PSoC4/CapSense_1_Filter.c ****     {
1601:Generated_Source\PSoC4/CapSense_1_Filter.c ****         if ((CapSense_1_WD_TYPE_ENUM)wdType != CapSense_1_WD_PROXIMITY_E)
1602:Generated_Source\PSoC4/CapSense_1_Filter.c ****         {
1603:Generated_Source\PSoC4/CapSense_1_Filter.c ****             #if (CapSense_1_REGULAR_SENSOR_EN && CapSense_1_REGULAR_RC_ALP_FILTER_EN)
1604:Generated_Source\PSoC4/CapSense_1_Filter.c ****                 ptrAlpFilterConfig->configParam5 = CapSense_1_REGULAR_RC_ALP_FILTER_COEFF;
1605:Generated_Source\PSoC4/CapSense_1_Filter.c ****                 ALP_Run(&ptrFilterHistObj.ptrAlp->channel[freqChannel], ptrAlpFilterConfig, &ptrSen
1606:Generated_Source\PSoC4/CapSense_1_Filter.c ****             #endif
1607:Generated_Source\PSoC4/CapSense_1_Filter.c ****         }
1608:Generated_Source\PSoC4/CapSense_1_Filter.c ****         else
1609:Generated_Source\PSoC4/CapSense_1_Filter.c ****         {
1610:Generated_Source\PSoC4/CapSense_1_Filter.c ****             #if (CapSense_1_PROXIMITY_SENSOR_EN && CapSense_1_PROX_RC_ALP_FILTER_EN)
1611:Generated_Source\PSoC4/CapSense_1_Filter.c ****                 ptrAlpFilterConfig->configParam5 = CapSense_1_PROX_RC_ALP_FILTER_COEFF;
1612:Generated_Source\PSoC4/CapSense_1_Filter.c ****                 ALP_Run(&ptrFilterHistObj.ptrAlp->channel[freqChannel], ptrAlpFilterConfig, &ptrSen
1613:Generated_Source\PSoC4/CapSense_1_Filter.c ****             #endif
1614:Generated_Source\PSoC4/CapSense_1_Filter.c ****         }
1615:Generated_Source\PSoC4/CapSense_1_Filter.c ****     }
1616:Generated_Source\PSoC4/CapSense_1_Filter.c **** }
1617:Generated_Source\PSoC4/CapSense_1_Filter.c **** #endif /* (CapSense_1_ENABLE == CapSense_1_ALP_FILTER_EN) */
1618:Generated_Source\PSoC4/CapSense_1_Filter.c **** 
1619:Generated_Source\PSoC4/CapSense_1_Filter.c **** #if (CapSense_1_ENABLE == CapSense_1_RC_FILTER_EN)
1620:Generated_Source\PSoC4/CapSense_1_Filter.c **** /*******************************************************************************
1621:Generated_Source\PSoC4/CapSense_1_Filter.c **** * Function Name: CapSense_1_FtRunEnabledFilters
1622:Generated_Source\PSoC4/CapSense_1_Filter.c **** ****************************************************************************//**
1623:Generated_Source\PSoC4/CapSense_1_Filter.c **** *
1624:Generated_Source\PSoC4/CapSense_1_Filter.c **** * \brief
1625:Generated_Source\PSoC4/CapSense_1_Filter.c **** *  Runs all enabled filters.
1626:Generated_Source\PSoC4/CapSense_1_Filter.c **** *
1627:Generated_Source\PSoC4/CapSense_1_Filter.c **** * \details
1628:Generated_Source\PSoC4/CapSense_1_Filter.c **** *  Runs all enabled filters.
1629:Generated_Source\PSoC4/CapSense_1_Filter.c **** *
1630:Generated_Source\PSoC4/CapSense_1_Filter.c **** * \param widgetId
1631:Generated_Source\PSoC4/CapSense_1_Filter.c **** *  Specifies the ID number of a widget to update the IIR filter history.
1632:Generated_Source\PSoC4/CapSense_1_Filter.c **** *
1633:Generated_Source\PSoC4/CapSense_1_Filter.c **** * \param sensorId
1634:Generated_Source\PSoC4/CapSense_1_Filter.c **** *  Specifies the ID number of a sensor in the widget to update the IIR
1635:Generated_Source\PSoC4/CapSense_1_Filter.c **** *  filter history.
1636:Generated_Source\PSoC4/CapSense_1_Filter.c **** *
1637:Generated_Source\PSoC4/CapSense_1_Filter.c **** *******************************************************************************/
1638:Generated_Source\PSoC4/CapSense_1_Filter.c **** void CapSense_1_FtRunEnabledFilters(uint32 widgetId, uint32 sensorId)
1639:Generated_Source\PSoC4/CapSense_1_Filter.c **** {
1640:Generated_Source\PSoC4/CapSense_1_Filter.c ****     CapSense_1_FLASH_WD_STRUCT const *ptrWidget = &CapSense_1_dsFlash.wdgtArray[widgetId];
1641:Generated_Source\PSoC4/CapSense_1_Filter.c ****     CapSense_1_RAM_SNS_STRUCT *ptrSensor = NULL;
1642:Generated_Source\PSoC4/CapSense_1_Filter.c ****     CapSense_1_PTR_FILTER_VARIANT ptrFilterHistObj;
1643:Generated_Source\PSoC4/CapSense_1_Filter.c **** 
1644:Generated_Source\PSoC4/CapSense_1_Filter.c ****     /* Find pointer to specified sensor object */
1645:Generated_Source\PSoC4/CapSense_1_Filter.c ****     ptrSensor = ptrWidget->ptr2SnsRam;
1646:Generated_Source\PSoC4/CapSense_1_Filter.c ****     ptrSensor = &ptrSensor[sensorId];
1647:Generated_Source\PSoC4/CapSense_1_Filter.c **** 
1648:Generated_Source\PSoC4/CapSense_1_Filter.c ****     /* Find pointer to specified filter sensor object */
1649:Generated_Source\PSoC4/CapSense_1_Filter.c ****     ptrFilterHistObj.ptr = ptrWidget->ptr2FltrHistory;
1650:Generated_Source\PSoC4/CapSense_1_Filter.c **** 
1651:Generated_Source\PSoC4/CapSense_1_Filter.c ****     if ((CapSense_1_WD_TYPE_ENUM)ptrWidget->wdgtType != CapSense_1_WD_PROXIMITY_E)
1652:Generated_Source\PSoC4/CapSense_1_Filter.c ****     {
1653:Generated_Source\PSoC4/CapSense_1_Filter.c ****         #if (0u != CapSense_1_REGULAR_RC_ALP_FILTER_EN)
1654:Generated_Source\PSoC4/CapSense_1_Filter.c ****             ptrFilterHistObj.ptr = &ptrFilterHistObj.ptrAlp[sensorId];
1655:Generated_Source\PSoC4/CapSense_1_Filter.c ****         #elif (0u != CapSense_1_REGULAR_RC_FILTER_EN)
1656:Generated_Source\PSoC4/CapSense_1_Filter.c ****             ptrFilterHistObj.ptr = &ptrFilterHistObj.ptrRegular[sensorId];
ARM GAS  C:\Users\bryan.lee\AppData\Local\Temp\cc6wSQv1.s 			page 38


1657:Generated_Source\PSoC4/CapSense_1_Filter.c ****         #endif
1658:Generated_Source\PSoC4/CapSense_1_Filter.c ****     }
1659:Generated_Source\PSoC4/CapSense_1_Filter.c ****     else
1660:Generated_Source\PSoC4/CapSense_1_Filter.c ****     {
1661:Generated_Source\PSoC4/CapSense_1_Filter.c ****         #if (0u != CapSense_1_PROX_RC_ALP_FILTER_EN)
1662:Generated_Source\PSoC4/CapSense_1_Filter.c ****             ptrFilterHistObj.ptr = &ptrFilterHistObj.ptrAlp[sensorId];
1663:Generated_Source\PSoC4/CapSense_1_Filter.c ****         #elif (0u != CapSense_1_PROX_RC_FILTER_EN)
1664:Generated_Source\PSoC4/CapSense_1_Filter.c ****             ptrFilterHistObj.ptr = &ptrFilterHistObj.ptrProx[sensorId];
1665:Generated_Source\PSoC4/CapSense_1_Filter.c ****         #endif
1666:Generated_Source\PSoC4/CapSense_1_Filter.c ****     }
1667:Generated_Source\PSoC4/CapSense_1_Filter.c **** 
1668:Generated_Source\PSoC4/CapSense_1_Filter.c ****     CapSense_1_FtRunEnabledFiltersInternal(ptrFilterHistObj, ptrSensor, (uint32)ptrWidget->wdgtType
1669:Generated_Source\PSoC4/CapSense_1_Filter.c ****     #if (CapSense_1_ALP_FILTER_EN)
1670:Generated_Source\PSoC4/CapSense_1_Filter.c ****         CapSense_1_ConfigRunALPInternal(ptrFilterHistObj, ptrWidget->ptr2WdgtRam, ptrSensor, (uint3
1671:Generated_Source\PSoC4/CapSense_1_Filter.c ****     #endif
1672:Generated_Source\PSoC4/CapSense_1_Filter.c **** }
1673:Generated_Source\PSoC4/CapSense_1_Filter.c **** 
1674:Generated_Source\PSoC4/CapSense_1_Filter.c **** 
1675:Generated_Source\PSoC4/CapSense_1_Filter.c **** /*******************************************************************************
1676:Generated_Source\PSoC4/CapSense_1_Filter.c **** * Function Name: CapSense_1_FtRunEnabledFiltersInternal
1677:Generated_Source\PSoC4/CapSense_1_Filter.c **** ****************************************************************************//**
1678:Generated_Source\PSoC4/CapSense_1_Filter.c **** *
1679:Generated_Source\PSoC4/CapSense_1_Filter.c **** * \brief
1680:Generated_Source\PSoC4/CapSense_1_Filter.c **** *  Runs all enabled filters.
1681:Generated_Source\PSoC4/CapSense_1_Filter.c **** *
1682:Generated_Source\PSoC4/CapSense_1_Filter.c **** * \details
1683:Generated_Source\PSoC4/CapSense_1_Filter.c **** *  Runs all enabled filters.
1684:Generated_Source\PSoC4/CapSense_1_Filter.c **** *
1685:Generated_Source\PSoC4/CapSense_1_Filter.c **** * \param ptrFilterHistObj
1686:Generated_Source\PSoC4/CapSense_1_Filter.c **** *  The pointer to the filter RAM object of the sensor.
1687:Generated_Source\PSoC4/CapSense_1_Filter.c **** *
1688:Generated_Source\PSoC4/CapSense_1_Filter.c **** * \param ptrSensorObj
1689:Generated_Source\PSoC4/CapSense_1_Filter.c **** *  The pointer to the sensor RAM object of the sensor.
1690:Generated_Source\PSoC4/CapSense_1_Filter.c **** *
1691:Generated_Source\PSoC4/CapSense_1_Filter.c **** * \param wdType
1692:Generated_Source\PSoC4/CapSense_1_Filter.c **** *  Specifies the type of a widget.
1693:Generated_Source\PSoC4/CapSense_1_Filter.c **** *
1694:Generated_Source\PSoC4/CapSense_1_Filter.c **** *******************************************************************************/
1695:Generated_Source\PSoC4/CapSense_1_Filter.c **** void CapSense_1_FtRunEnabledFiltersInternal(CapSense_1_PTR_FILTER_VARIANT ptrFilterHistObj,
1696:Generated_Source\PSoC4/CapSense_1_Filter.c ****                                                   CapSense_1_RAM_SNS_STRUCT *ptrSensorObj, uint32 w
1697:Generated_Source\PSoC4/CapSense_1_Filter.c **** {
1698:Generated_Source\PSoC4/CapSense_1_Filter.c ****     #if (CapSense_1_REGULAR_RC_MEDIAN_FILTER_EN || CapSense_1_PROX_RC_MEDIAN_FILTER_EN)
1699:Generated_Source\PSoC4/CapSense_1_Filter.c ****         CapSense_1_RunMedianInternal(ptrFilterHistObj, ptrSensorObj, wdType);
1700:Generated_Source\PSoC4/CapSense_1_Filter.c ****     #endif /* (CapSense_1_REGULAR_RC_MEDIAN_FILTER_EN || CapSense_1_PROX_RC_MEDIAN_FILTER_EN) */
1701:Generated_Source\PSoC4/CapSense_1_Filter.c **** 
1702:Generated_Source\PSoC4/CapSense_1_Filter.c ****     #if (CapSense_1_REGULAR_RC_IIR_FILTER_EN || CapSense_1_PROX_RC_IIR_FILTER_EN)
1703:Generated_Source\PSoC4/CapSense_1_Filter.c ****         CapSense_1_RunIIRInternal(ptrFilterHistObj, ptrSensorObj, wdType);
1704:Generated_Source\PSoC4/CapSense_1_Filter.c ****     #endif /* (CapSense_1_REGULAR_RC_IIR_FILTER_EN || CapSense_1_PROX_RC_IIR_FILTER_EN) */
1705:Generated_Source\PSoC4/CapSense_1_Filter.c **** 
1706:Generated_Source\PSoC4/CapSense_1_Filter.c ****     #if (CapSense_1_REGULAR_RC_AVERAGE_FILTER_EN || CapSense_1_PROX_RC_AVERAGE_FILTER_EN)
1707:Generated_Source\PSoC4/CapSense_1_Filter.c ****         CapSense_1_RunAverageInternal(ptrFilterHistObj, ptrSensorObj, wdType);
1708:Generated_Source\PSoC4/CapSense_1_Filter.c ****     #endif /* (CapSense_1_REGULAR_RC_AVERAGE_FILTER_EN || CapSense_1_PROX_RC_AVERAGE_FILTER_EN) */
1709:Generated_Source\PSoC4/CapSense_1_Filter.c **** }
1710:Generated_Source\PSoC4/CapSense_1_Filter.c **** #endif /* (CapSense_1_ENABLE == CapSense_1_RC_FILTER_EN) */
1711:Generated_Source\PSoC4/CapSense_1_Filter.c **** 
1712:Generated_Source\PSoC4/CapSense_1_Filter.c **** 
1713:Generated_Source\PSoC4/CapSense_1_Filter.c **** #if (0u != (CapSense_1_CSD_AUTOTUNE & CapSense_1_CSD_SS_TH_EN))
ARM GAS  C:\Users\bryan.lee\AppData\Local\Temp\cc6wSQv1.s 			page 39


1714:Generated_Source\PSoC4/CapSense_1_Filter.c **** /*******************************************************************************
1715:Generated_Source\PSoC4/CapSense_1_Filter.c **** * Function Name: CapSense_1_RunNoiseEnvelope
1716:Generated_Source\PSoC4/CapSense_1_Filter.c **** ****************************************************************************//**
1717:Generated_Source\PSoC4/CapSense_1_Filter.c **** *
1718:Generated_Source\PSoC4/CapSense_1_Filter.c **** * \brief
1719:Generated_Source\PSoC4/CapSense_1_Filter.c **** *  Executes the noise envelope  filter algorithm on a sensor indicated by
1720:Generated_Source\PSoC4/CapSense_1_Filter.c **** *  an input parameter to measure the pk-to-pk noise in the sensor raw count.
1721:Generated_Source\PSoC4/CapSense_1_Filter.c **** *
1722:Generated_Source\PSoC4/CapSense_1_Filter.c **** * \details
1723:Generated_Source\PSoC4/CapSense_1_Filter.c **** *  Executes the noise envelope  filter algorithm on a sensor indicated by
1724:Generated_Source\PSoC4/CapSense_1_Filter.c **** *  an input parameter to measure the pk-to-pk noise in the sensor raw count.
1725:Generated_Source\PSoC4/CapSense_1_Filter.c **** *
1726:Generated_Source\PSoC4/CapSense_1_Filter.c **** * \param widgetId
1727:Generated_Source\PSoC4/CapSense_1_Filter.c **** *  Specifies the ID number of the widget.
1728:Generated_Source\PSoC4/CapSense_1_Filter.c **** *
1729:Generated_Source\PSoC4/CapSense_1_Filter.c **** * \param sensorId
1730:Generated_Source\PSoC4/CapSense_1_Filter.c **** *  Specifies the ID number of the sensor in the widget.
1731:Generated_Source\PSoC4/CapSense_1_Filter.c **** *
1732:Generated_Source\PSoC4/CapSense_1_Filter.c **** *******************************************************************************/
1733:Generated_Source\PSoC4/CapSense_1_Filter.c **** void CapSense_1_RunNoiseEnvelope(uint32 widgetId, uint32 sensorId)
1734:Generated_Source\PSoC4/CapSense_1_Filter.c **** {
 419              		.loc 1 1734 0
 420              		.cfi_startproc
 421              		@ args = 0, pretend = 0, frame = 0
 422              		@ frame_needed = 0, uses_anonymous_args = 0
 423              	.LVL59:
 424 0000 70B5     		push	{r4, r5, r6, lr}
 425              		.cfi_def_cfa_offset 16
 426              		.cfi_offset 4, -16
 427              		.cfi_offset 5, -12
 428              		.cfi_offset 6, -8
 429              		.cfi_offset 14, -4
 430              	.LVL60:
1735:Generated_Source\PSoC4/CapSense_1_Filter.c ****     CapSense_1_FLASH_WD_STRUCT const *ptrWidget = &CapSense_1_dsFlash.wdgtArray[widgetId];
1736:Generated_Source\PSoC4/CapSense_1_Filter.c ****     CapSense_1_RAM_WD_BASE_STRUCT *ptrWidgetRam = ptrWidget->ptr2WdgtRam;
 431              		.loc 1 1736 0
 432 0002 4001     		lsls	r0, r0, #5
 433              	.LVL61:
 434 0004 084B     		ldr	r3, .L27
 435 0006 1818     		adds	r0, r3, r0
 436              	.LVL62:
 437 0008 4668     		ldr	r6, [r0, #4]
 438              	.LVL63:
1737:Generated_Source\PSoC4/CapSense_1_Filter.c ****     CapSense_1_RAM_SNS_STRUCT *ptrSensor = NULL;
1738:Generated_Source\PSoC4/CapSense_1_Filter.c ****     SMARTSENSE_CSD_NOISE_ENVELOPE_STRUCT *ptrNoiseEnvelope = NULL;
1739:Generated_Source\PSoC4/CapSense_1_Filter.c **** 
1740:Generated_Source\PSoC4/CapSense_1_Filter.c ****     /* Find pointer to specified sensor object */
1741:Generated_Source\PSoC4/CapSense_1_Filter.c ****     ptrSensor = ptrWidget->ptr2SnsRam;
 439              		.loc 1 1741 0
 440 000a 8568     		ldr	r5, [r0, #8]
 441              	.LVL64:
1742:Generated_Source\PSoC4/CapSense_1_Filter.c ****     ptrSensor = &ptrSensor[sensorId];
 442              		.loc 1 1742 0
 443 000c 8B00     		lsls	r3, r1, #2
 444 000e 5B18     		adds	r3, r3, r1
 445 0010 5C00     		lsls	r4, r3, #1
 446              	.LVL65:
ARM GAS  C:\Users\bryan.lee\AppData\Local\Temp\cc6wSQv1.s 			page 40


1743:Generated_Source\PSoC4/CapSense_1_Filter.c **** 
1744:Generated_Source\PSoC4/CapSense_1_Filter.c ****     /* Find pointer to specified filter sensor object */
1745:Generated_Source\PSoC4/CapSense_1_Filter.c ****     ptrNoiseEnvelope = ptrWidget->ptr2NoiseEnvlp;
 447              		.loc 1 1745 0
 448 0012 C369     		ldr	r3, [r0, #28]
 449              	.LVL66:
1746:Generated_Source\PSoC4/CapSense_1_Filter.c ****     ptrNoiseEnvelope = &ptrNoiseEnvelope[sensorId];
 450              		.loc 1 1746 0
 451 0014 4A00     		lsls	r2, r1, #1
 452 0016 5118     		adds	r1, r2, r1
 453              	.LVL67:
 454 0018 8A00     		lsls	r2, r1, #2
 455 001a 9A18     		adds	r2, r3, r2
 456              	.LVL68:
1747:Generated_Source\PSoC4/CapSense_1_Filter.c **** 
1748:Generated_Source\PSoC4/CapSense_1_Filter.c ****     SmartSense_RunNoiseEnvelope(ptrSensor->raw[0u], ptrWidgetRam->sigPFC, ptrNoiseEnvelope);
 457              		.loc 1 1748 0
 458 001c 318A     		ldrh	r1, [r6, #16]
 459 001e 285B     		ldrh	r0, [r5, r4]
 460              	.LVL69:
 461 0020 FFF7FEFF 		bl	SmartSense_RunNoiseEnvelope
 462              	.LVL70:
1749:Generated_Source\PSoC4/CapSense_1_Filter.c **** }
 463              		.loc 1 1749 0
 464              		@ sp needed
 465              	.LVL71:
 466              	.LVL72:
 467              	.LVL73:
 468 0024 70BD     		pop	{r4, r5, r6, pc}
 469              	.L28:
 470 0026 C046     		.align	2
 471              	.L27:
 472 0028 00000000 		.word	CapSense_1_dsFlash
 473              		.cfi_endproc
 474              	.LFE14:
 475              		.size	CapSense_1_RunNoiseEnvelope, .-CapSense_1_RunNoiseEnvelope
 476              		.section	.text.CapSense_1_InitializeNoiseEnvelope,"ax",%progbits
 477              		.align	2
 478              		.global	CapSense_1_InitializeNoiseEnvelope
 479              		.code	16
 480              		.thumb_func
 481              		.type	CapSense_1_InitializeNoiseEnvelope, %function
 482              	CapSense_1_InitializeNoiseEnvelope:
 483              	.LFB15:
1750:Generated_Source\PSoC4/CapSense_1_Filter.c **** 
1751:Generated_Source\PSoC4/CapSense_1_Filter.c **** 
1752:Generated_Source\PSoC4/CapSense_1_Filter.c **** /*******************************************************************************
1753:Generated_Source\PSoC4/CapSense_1_Filter.c **** * Function Name: CapSense_1_InitializeNoiseEnvelope
1754:Generated_Source\PSoC4/CapSense_1_Filter.c **** ****************************************************************************//**
1755:Generated_Source\PSoC4/CapSense_1_Filter.c **** *
1756:Generated_Source\PSoC4/CapSense_1_Filter.c **** * \brief
1757:Generated_Source\PSoC4/CapSense_1_Filter.c **** *  Initializes the noise-envelope filter
1758:Generated_Source\PSoC4/CapSense_1_Filter.c **** *
1759:Generated_Source\PSoC4/CapSense_1_Filter.c **** * \details
1760:Generated_Source\PSoC4/CapSense_1_Filter.c **** *  Initializes the noise-envelope filter
1761:Generated_Source\PSoC4/CapSense_1_Filter.c **** *
1762:Generated_Source\PSoC4/CapSense_1_Filter.c **** * \param widgetId
ARM GAS  C:\Users\bryan.lee\AppData\Local\Temp\cc6wSQv1.s 			page 41


1763:Generated_Source\PSoC4/CapSense_1_Filter.c **** *  Specifies the ID number of the widget.
1764:Generated_Source\PSoC4/CapSense_1_Filter.c **** *
1765:Generated_Source\PSoC4/CapSense_1_Filter.c **** * \param sensorId
1766:Generated_Source\PSoC4/CapSense_1_Filter.c **** *  Specifies the ID number of the sensor in the widget.
1767:Generated_Source\PSoC4/CapSense_1_Filter.c **** *
1768:Generated_Source\PSoC4/CapSense_1_Filter.c **** *******************************************************************************/
1769:Generated_Source\PSoC4/CapSense_1_Filter.c **** void CapSense_1_InitializeNoiseEnvelope(uint32 widgetId, uint32 sensorId)
1770:Generated_Source\PSoC4/CapSense_1_Filter.c **** {
 484              		.loc 1 1770 0
 485              		.cfi_startproc
 486              		@ args = 0, pretend = 0, frame = 0
 487              		@ frame_needed = 0, uses_anonymous_args = 0
 488              	.LVL74:
 489 0000 70B5     		push	{r4, r5, r6, lr}
 490              		.cfi_def_cfa_offset 16
 491              		.cfi_offset 4, -16
 492              		.cfi_offset 5, -12
 493              		.cfi_offset 6, -8
 494              		.cfi_offset 14, -4
 495              	.LVL75:
1771:Generated_Source\PSoC4/CapSense_1_Filter.c ****     CapSense_1_FLASH_WD_STRUCT const *ptrWidget = &CapSense_1_dsFlash.wdgtArray[widgetId];
1772:Generated_Source\PSoC4/CapSense_1_Filter.c ****     CapSense_1_RAM_WD_BASE_STRUCT *ptrWidgetRam = ptrWidget->ptr2WdgtRam;
 496              		.loc 1 1772 0
 497 0002 4001     		lsls	r0, r0, #5
 498              	.LVL76:
 499 0004 084B     		ldr	r3, .L30
 500 0006 1818     		adds	r0, r3, r0
 501              	.LVL77:
 502 0008 4668     		ldr	r6, [r0, #4]
 503              	.LVL78:
1773:Generated_Source\PSoC4/CapSense_1_Filter.c ****     CapSense_1_RAM_SNS_STRUCT *ptrSensor = NULL;
1774:Generated_Source\PSoC4/CapSense_1_Filter.c ****     SMARTSENSE_CSD_NOISE_ENVELOPE_STRUCT *ptrNoiseEnvelope = NULL;
1775:Generated_Source\PSoC4/CapSense_1_Filter.c **** 
1776:Generated_Source\PSoC4/CapSense_1_Filter.c ****     /* Find pointer to specified sensor object */
1777:Generated_Source\PSoC4/CapSense_1_Filter.c ****     ptrSensor = ptrWidget->ptr2SnsRam;
 504              		.loc 1 1777 0
 505 000a 8568     		ldr	r5, [r0, #8]
 506              	.LVL79:
1778:Generated_Source\PSoC4/CapSense_1_Filter.c ****     ptrSensor = &ptrSensor[sensorId];
 507              		.loc 1 1778 0
 508 000c 8B00     		lsls	r3, r1, #2
 509 000e 5B18     		adds	r3, r3, r1
 510 0010 5C00     		lsls	r4, r3, #1
 511              	.LVL80:
1779:Generated_Source\PSoC4/CapSense_1_Filter.c **** 
1780:Generated_Source\PSoC4/CapSense_1_Filter.c ****     /* Find pointer to specified filter sensor object */
1781:Generated_Source\PSoC4/CapSense_1_Filter.c ****     ptrNoiseEnvelope = ptrWidget->ptr2NoiseEnvlp;
 512              		.loc 1 1781 0
 513 0012 C369     		ldr	r3, [r0, #28]
 514              	.LVL81:
1782:Generated_Source\PSoC4/CapSense_1_Filter.c ****     ptrNoiseEnvelope = &ptrNoiseEnvelope[sensorId];
 515              		.loc 1 1782 0
 516 0014 4A00     		lsls	r2, r1, #1
 517 0016 5118     		adds	r1, r2, r1
 518              	.LVL82:
 519 0018 8A00     		lsls	r2, r1, #2
 520 001a 9A18     		adds	r2, r3, r2
ARM GAS  C:\Users\bryan.lee\AppData\Local\Temp\cc6wSQv1.s 			page 42


 521              	.LVL83:
1783:Generated_Source\PSoC4/CapSense_1_Filter.c **** 
1784:Generated_Source\PSoC4/CapSense_1_Filter.c ****     SmartSense_InitializeNoiseEnvelope(ptrSensor->raw[0u], ptrWidgetRam->sigPFC, ptrNoiseEnvelope);
 522              		.loc 1 1784 0
 523 001c 318A     		ldrh	r1, [r6, #16]
 524 001e 285B     		ldrh	r0, [r5, r4]
 525              	.LVL84:
 526 0020 FFF7FEFF 		bl	SmartSense_InitializeNoiseEnvelope
 527              	.LVL85:
1785:Generated_Source\PSoC4/CapSense_1_Filter.c **** }
 528              		.loc 1 1785 0
 529              		@ sp needed
 530              	.LVL86:
 531              	.LVL87:
 532              	.LVL88:
 533 0024 70BD     		pop	{r4, r5, r6, pc}
 534              	.L31:
 535 0026 C046     		.align	2
 536              	.L30:
 537 0028 00000000 		.word	CapSense_1_dsFlash
 538              		.cfi_endproc
 539              	.LFE15:
 540              		.size	CapSense_1_InitializeNoiseEnvelope, .-CapSense_1_InitializeNoiseEnvelope
 541              		.section	.text.CapSense_1_FtIIR1stOrder,"ax",%progbits
 542              		.align	2
 543              		.global	CapSense_1_FtIIR1stOrder
 544              		.code	16
 545              		.thumb_func
 546              		.type	CapSense_1_FtIIR1stOrder, %function
 547              	CapSense_1_FtIIR1stOrder:
 548              	.LFB16:
1786:Generated_Source\PSoC4/CapSense_1_Filter.c **** #endif /* (0u != (CapSense_1_CSD_AUTOTUNE & CapSense_1_CSD_SS_TH_EN)) */
1787:Generated_Source\PSoC4/CapSense_1_Filter.c **** 
1788:Generated_Source\PSoC4/CapSense_1_Filter.c **** 
1789:Generated_Source\PSoC4/CapSense_1_Filter.c **** #if (CapSense_1_POS_MEDIAN_FILTER_EN || CapSense_1_REGULAR_RC_MEDIAN_FILTER_EN || CapSense_1_PROX_R
1790:Generated_Source\PSoC4/CapSense_1_Filter.c **** /*******************************************************************************
1791:Generated_Source\PSoC4/CapSense_1_Filter.c **** * Function Name: CapSense_1_FtMedian
1792:Generated_Source\PSoC4/CapSense_1_Filter.c **** ****************************************************************************//**
1793:Generated_Source\PSoC4/CapSense_1_Filter.c **** *
1794:Generated_Source\PSoC4/CapSense_1_Filter.c **** * \brief
1795:Generated_Source\PSoC4/CapSense_1_Filter.c **** *  Return the median value from the three passed arguments.
1796:Generated_Source\PSoC4/CapSense_1_Filter.c **** *
1797:Generated_Source\PSoC4/CapSense_1_Filter.c **** * \details
1798:Generated_Source\PSoC4/CapSense_1_Filter.c **** *  Return the median value from the three passed arguments.
1799:Generated_Source\PSoC4/CapSense_1_Filter.c **** *
1800:Generated_Source\PSoC4/CapSense_1_Filter.c **** * \param x1
1801:Generated_Source\PSoC4/CapSense_1_Filter.c **** *  The first value to be compared.
1802:Generated_Source\PSoC4/CapSense_1_Filter.c **** *
1803:Generated_Source\PSoC4/CapSense_1_Filter.c **** * \param x2
1804:Generated_Source\PSoC4/CapSense_1_Filter.c **** *  The second value to be compared.
1805:Generated_Source\PSoC4/CapSense_1_Filter.c **** *
1806:Generated_Source\PSoC4/CapSense_1_Filter.c **** * \param x3
1807:Generated_Source\PSoC4/CapSense_1_Filter.c **** *  The third value to be compared.
1808:Generated_Source\PSoC4/CapSense_1_Filter.c **** *
1809:Generated_Source\PSoC4/CapSense_1_Filter.c **** * \return
1810:Generated_Source\PSoC4/CapSense_1_Filter.c **** *  Returns the median value of input arguments.
1811:Generated_Source\PSoC4/CapSense_1_Filter.c **** *
ARM GAS  C:\Users\bryan.lee\AppData\Local\Temp\cc6wSQv1.s 			page 43


1812:Generated_Source\PSoC4/CapSense_1_Filter.c **** *******************************************************************************/
1813:Generated_Source\PSoC4/CapSense_1_Filter.c **** uint32 CapSense_1_FtMedian(uint32 x1, uint32 x2, uint32 x3)
1814:Generated_Source\PSoC4/CapSense_1_Filter.c **** {
1815:Generated_Source\PSoC4/CapSense_1_Filter.c ****     uint32 tmp;
1816:Generated_Source\PSoC4/CapSense_1_Filter.c **** 
1817:Generated_Source\PSoC4/CapSense_1_Filter.c ****     if (x1 > x2)
1818:Generated_Source\PSoC4/CapSense_1_Filter.c ****     {
1819:Generated_Source\PSoC4/CapSense_1_Filter.c ****         tmp = x2;
1820:Generated_Source\PSoC4/CapSense_1_Filter.c ****         x2 = x1;
1821:Generated_Source\PSoC4/CapSense_1_Filter.c ****         x1 = tmp;
1822:Generated_Source\PSoC4/CapSense_1_Filter.c ****     }
1823:Generated_Source\PSoC4/CapSense_1_Filter.c **** 
1824:Generated_Source\PSoC4/CapSense_1_Filter.c ****     if (x2 > x3)
1825:Generated_Source\PSoC4/CapSense_1_Filter.c ****     {
1826:Generated_Source\PSoC4/CapSense_1_Filter.c ****         x2 = x3;
1827:Generated_Source\PSoC4/CapSense_1_Filter.c ****     }
1828:Generated_Source\PSoC4/CapSense_1_Filter.c **** 
1829:Generated_Source\PSoC4/CapSense_1_Filter.c ****     return ((x1 > x2) ? x1 : x2);
1830:Generated_Source\PSoC4/CapSense_1_Filter.c **** }
1831:Generated_Source\PSoC4/CapSense_1_Filter.c **** #endif /*CapSense_1_POS_MEDIAN_FILTER_EN || CapSense_1_REGULAR_RC_MEDIAN_FILTER_EN || CapSense_1_PR
1832:Generated_Source\PSoC4/CapSense_1_Filter.c **** 
1833:Generated_Source\PSoC4/CapSense_1_Filter.c **** 
1834:Generated_Source\PSoC4/CapSense_1_Filter.c **** /*******************************************************************************
1835:Generated_Source\PSoC4/CapSense_1_Filter.c **** * Function Name: CapSense_1_FtIIR1stOrder
1836:Generated_Source\PSoC4/CapSense_1_Filter.c **** ****************************************************************************//**
1837:Generated_Source\PSoC4/CapSense_1_Filter.c **** *
1838:Generated_Source\PSoC4/CapSense_1_Filter.c **** * \brief
1839:Generated_Source\PSoC4/CapSense_1_Filter.c **** *  Return the filtered data by the IIR 1-st order algorithm
1840:Generated_Source\PSoC4/CapSense_1_Filter.c **** *
1841:Generated_Source\PSoC4/CapSense_1_Filter.c **** * \details
1842:Generated_Source\PSoC4/CapSense_1_Filter.c **** *  Return the filtered data by the IIR 1-st order algorithm
1843:Generated_Source\PSoC4/CapSense_1_Filter.c **** *
1844:Generated_Source\PSoC4/CapSense_1_Filter.c **** * \param input
1845:Generated_Source\PSoC4/CapSense_1_Filter.c **** *  The data to be filtered.
1846:Generated_Source\PSoC4/CapSense_1_Filter.c **** *
1847:Generated_Source\PSoC4/CapSense_1_Filter.c **** * \param prevOutput
1848:Generated_Source\PSoC4/CapSense_1_Filter.c **** *  The previous filtered data.
1849:Generated_Source\PSoC4/CapSense_1_Filter.c **** *
1850:Generated_Source\PSoC4/CapSense_1_Filter.c **** * \param n
1851:Generated_Source\PSoC4/CapSense_1_Filter.c **** *  The IIR filter coefficient (n/256).
1852:Generated_Source\PSoC4/CapSense_1_Filter.c **** *
1853:Generated_Source\PSoC4/CapSense_1_Filter.c **** * \param shift
1854:Generated_Source\PSoC4/CapSense_1_Filter.c **** *  The parameter is used to shift input data to have free LSB
1855:Generated_Source\PSoC4/CapSense_1_Filter.c **** *  bits for a fraction storage of the filter output calculation.
1856:Generated_Source\PSoC4/CapSense_1_Filter.c **** *
1857:Generated_Source\PSoC4/CapSense_1_Filter.c **** * \return
1858:Generated_Source\PSoC4/CapSense_1_Filter.c **** *  Returns the filtered data.
1859:Generated_Source\PSoC4/CapSense_1_Filter.c **** *
1860:Generated_Source\PSoC4/CapSense_1_Filter.c **** *******************************************************************************/
1861:Generated_Source\PSoC4/CapSense_1_Filter.c **** uint32 CapSense_1_FtIIR1stOrder(uint32 input, uint32 prevOutput, uint32 n, uint32 shift)
1862:Generated_Source\PSoC4/CapSense_1_Filter.c **** {
 549              		.loc 1 1862 0
 550              		.cfi_startproc
 551              		@ args = 0, pretend = 0, frame = 0
 552              		@ frame_needed = 0, uses_anonymous_args = 0
 553              		@ link register save eliminated.
 554              	.LVL89:
ARM GAS  C:\Users\bryan.lee\AppData\Local\Temp\cc6wSQv1.s 			page 44


1863:Generated_Source\PSoC4/CapSense_1_Filter.c ****     uint32 filteredOutput;
1864:Generated_Source\PSoC4/CapSense_1_Filter.c **** 
1865:Generated_Source\PSoC4/CapSense_1_Filter.c ****     /*
1866:Generated_Source\PSoC4/CapSense_1_Filter.c ****     * n - IIR filter coefficient (n/256)
1867:Generated_Source\PSoC4/CapSense_1_Filter.c ****     * shift - Used to shift input data to have free LSB bits
1868:Generated_Source\PSoC4/CapSense_1_Filter.c ****     * for fraction storage of filter output calculation
1869:Generated_Source\PSoC4/CapSense_1_Filter.c ****     */
1870:Generated_Source\PSoC4/CapSense_1_Filter.c ****     filteredOutput = ((n * (input << shift)) + ((CapSense_1_IIR_COEFFICIENT_K - n) * prevOutput)) >
 555              		.loc 1 1870 0
 556 0000 9840     		lsls	r0, r0, r3
 557              	.LVL90:
 558 0002 5043     		muls	r0, r2
 559 0004 8023     		movs	r3, #128
 560              	.LVL91:
 561 0006 5B00     		lsls	r3, r3, #1
 562 0008 9A1A     		subs	r2, r3, r2
 563              	.LVL92:
 564 000a 5143     		muls	r1, r2
 565              	.LVL93:
 566 000c 4018     		adds	r0, r0, r1
 567 000e 000A     		lsrs	r0, r0, #8
 568              	.LVL94:
1871:Generated_Source\PSoC4/CapSense_1_Filter.c **** 
1872:Generated_Source\PSoC4/CapSense_1_Filter.c ****     /* Shift operation of output will be done in upper level API if needed */
1873:Generated_Source\PSoC4/CapSense_1_Filter.c ****     return filteredOutput;
1874:Generated_Source\PSoC4/CapSense_1_Filter.c **** }
 569              		.loc 1 1874 0
 570              		@ sp needed
 571 0010 7047     		bx	lr
 572              		.cfi_endproc
 573              	.LFE16:
 574              		.size	CapSense_1_FtIIR1stOrder, .-CapSense_1_FtIIR1stOrder
 575 0012 C046     		.section	.text.CapSense_1_FtUpdateBaseline,"ax",%progbits
 576              		.align	2
 577              		.global	CapSense_1_FtUpdateBaseline
 578              		.code	16
 579              		.thumb_func
 580              		.type	CapSense_1_FtUpdateBaseline, %function
 581              	CapSense_1_FtUpdateBaseline:
 582              	.LFB6:
 259:Generated_Source\PSoC4/CapSense_1_Filter.c ****     uint32 sign;
 583              		.loc 1 259 0
 584              		.cfi_startproc
 585              		@ args = 0, pretend = 0, frame = 8
 586              		@ frame_needed = 0, uses_anonymous_args = 0
 587              	.LVL95:
 588 0000 F0B5     		push	{r4, r5, r6, r7, lr}
 589              		.cfi_def_cfa_offset 20
 590              		.cfi_offset 4, -20
 591              		.cfi_offset 5, -16
 592              		.cfi_offset 6, -12
 593              		.cfi_offset 7, -8
 594              		.cfi_offset 14, -4
 595 0002 4746     		mov	r7, r8
 596 0004 80B4     		push	{r7}
 597              		.cfi_def_cfa_offset 24
 598              		.cfi_offset 8, -24
ARM GAS  C:\Users\bryan.lee\AppData\Local\Temp\cc6wSQv1.s 			page 45


 599 0006 82B0     		sub	sp, sp, #8
 600              		.cfi_def_cfa_offset 32
 601 0008 0700     		movs	r7, r0
 602 000a 0E00     		movs	r6, r1
 603 000c 0192     		str	r2, [sp, #4]
 604              	.LVL96:
 271:Generated_Source\PSoC4/CapSense_1_Filter.c ****     {
 605              		.loc 1 271 0
 606 000e 0123     		movs	r3, #1
 607 0010 3EE0     		b	.L34
 608              	.LVL97:
 609              	.L41:
 283:Generated_Source\PSoC4/CapSense_1_Filter.c ****         {
 610              		.loc 1 283 0
 611 0012 6300     		lsls	r3, r4, #1
 612 0014 985B     		ldrh	r0, [r3, r6]
 613 0016 F318     		adds	r3, r6, r3
 614 0018 5988     		ldrh	r1, [r3, #2]
 615 001a 8842     		cmp	r0, r1
 616 001c 05D3     		bcc	.L35
 285:Generated_Source\PSoC4/CapSense_1_Filter.c ****             sign = 1u;
 617              		.loc 1 285 0
 618 001e 431A     		subs	r3, r0, r1
 619              	.LVL98:
 287:Generated_Source\PSoC4/CapSense_1_Filter.c ****         }
 620              		.loc 1 287 0
 621 0020 3219     		adds	r2, r6, r4
 622 0022 0025     		movs	r5, #0
 623 0024 1572     		strb	r5, [r2, #8]
 286:Generated_Source\PSoC4/CapSense_1_Filter.c ****             ptrSensor->negBslnRstCnt[freqChannel] = 0u;
 624              		.loc 1 286 0
 625 0026 0122     		movs	r2, #1
 626 0028 01E0     		b	.L36
 627              	.LVL99:
 628              	.L35:
 291:Generated_Source\PSoC4/CapSense_1_Filter.c ****             sign = 0u;
 629              		.loc 1 291 0
 630 002a 0B1A     		subs	r3, r1, r0
 631              	.LVL100:
 292:Generated_Source\PSoC4/CapSense_1_Filter.c ****         }
 632              		.loc 1 292 0
 633 002c 0022     		movs	r2, #0
 634              	.LVL101:
 635              	.L36:
 296:Generated_Source\PSoC4/CapSense_1_Filter.c ****         {
 636              		.loc 1 296 0
 637 002e 002A     		cmp	r2, #0
 638 0030 11D1     		bne	.L37
 296:Generated_Source\PSoC4/CapSense_1_Filter.c ****         {
 639              		.loc 1 296 0 is_stmt 0 discriminator 1
 640 0032 7D79     		ldrb	r5, [r7, #5]
 641 0034 AB42     		cmp	r3, r5
 642 0036 0ED9     		bls	.L37
 298:Generated_Source\PSoC4/CapSense_1_Filter.c ****             {
 643              		.loc 1 298 0 is_stmt 1
 644 0038 3319     		adds	r3, r6, r4
 645              	.LVL102:
ARM GAS  C:\Users\bryan.lee\AppData\Local\Temp\cc6wSQv1.s 			page 46


 646 003a 1B7A     		ldrb	r3, [r3, #8]
 647 003c 3A7A     		ldrb	r2, [r7, #8]
 648              	.LVL103:
 649 003e 9342     		cmp	r3, r2
 650 0040 05D3     		bcc	.L38
 300:Generated_Source\PSoC4/CapSense_1_Filter.c ****             }
 651              		.loc 1 300 0
 652 0042 2200     		movs	r2, r4
 653 0044 0199     		ldr	r1, [sp, #4]
 654 0046 3000     		movs	r0, r6
 655 0048 FFF7FEFF 		bl	CapSense_1_FtInitializeBaselineChannel
 656              	.LVL104:
 657 004c 1FE0     		b	.L39
 658              	.L38:
 304:Generated_Source\PSoC4/CapSense_1_Filter.c ****             }
 659              		.loc 1 304 0
 660 004e 3219     		adds	r2, r6, r4
 661 0050 0133     		adds	r3, r3, #1
 662 0052 1372     		strb	r3, [r2, #8]
 663 0054 1BE0     		b	.L39
 664              	.LVL105:
 665              	.L37:
 311:Generated_Source\PSoC4/CapSense_1_Filter.c ****                     ((difference < (uint32) ptrWidgetRam->nNoiseTh) && (sign == 0u)))
 666              		.loc 1 311 0
 667 0056 3D79     		ldrb	r5, [r7, #4]
 668 0058 AB42     		cmp	r3, r5
 669 005a 04D9     		bls	.L40
 312:Generated_Source\PSoC4/CapSense_1_Filter.c ****                 {
 670              		.loc 1 312 0 discriminator 1
 671 005c 7D79     		ldrb	r5, [r7, #5]
 311:Generated_Source\PSoC4/CapSense_1_Filter.c ****                     ((difference < (uint32) ptrWidgetRam->nNoiseTh) && (sign == 0u)))
 672              		.loc 1 311 0 discriminator 1
 673 005e AB42     		cmp	r3, r5
 674 0060 15D2     		bcs	.L39
 312:Generated_Source\PSoC4/CapSense_1_Filter.c ****                 {
 675              		.loc 1 312 0
 676 0062 002A     		cmp	r2, #0
 677 0064 13D1     		bne	.L39
 678              	.L40:
 318:Generated_Source\PSoC4/CapSense_1_Filter.c ****                 {
 679              		.loc 1 318 0
 680 0066 FF23     		movs	r3, #255
 681              	.LVL106:
 682 0068 019A     		ldr	r2, [sp, #4]
 683              	.LVL107:
 684 006a 1340     		ands	r3, r2
 685 006c 062B     		cmp	r3, #6
 686 006e 0ED0     		beq	.L39
 322:Generated_Source\PSoC4/CapSense_1_Filter.c ****                             history |= ptrSensor->bslnExt[freqChannel];
 687              		.loc 1 322 0
 688 0070 0902     		lsls	r1, r1, #8
 689              	.LVL108:
 323:Generated_Source\PSoC4/CapSense_1_Filter.c ****                         #else
 690              		.loc 1 323 0
 691 0072 3319     		adds	r3, r6, r4
 692 0074 9846     		mov	r8, r3
 693 0076 1B79     		ldrb	r3, [r3, #4]
ARM GAS  C:\Users\bryan.lee\AppData\Local\Temp\cc6wSQv1.s 			page 47


 694 0078 1943     		orrs	r1, r3
 695              	.LVL109:
 334:Generated_Source\PSoC4/CapSense_1_Filter.c ****                                         (uint32)ptrSensor->raw[freqChannel],
 696              		.loc 1 334 0
 697 007a 0823     		movs	r3, #8
 698 007c 0122     		movs	r2, #1
 699 007e FFF7FEFF 		bl	CapSense_1_FtIIR1stOrder
 700              	.LVL110:
 340:Generated_Source\PSoC4/CapSense_1_Filter.c ****                             ptrSensor->bslnExt[freqChannel] = LO8(history);
 701              		.loc 1 340 0
 702 0082 020A     		lsrs	r2, r0, #8
 703 0084 6300     		lsls	r3, r4, #1
 704 0086 F318     		adds	r3, r6, r3
 705 0088 5A80     		strh	r2, [r3, #2]
 341:Generated_Source\PSoC4/CapSense_1_Filter.c ****                         #else
 706              		.loc 1 341 0
 707 008a 4346     		mov	r3, r8
 708 008c 1871     		strb	r0, [r3, #4]
 709              	.LVL111:
 710              	.L39:
 711 008e 2300     		movs	r3, r4
 712              	.LVL112:
 713              	.L34:
 271:Generated_Source\PSoC4/CapSense_1_Filter.c ****     {
 714              		.loc 1 271 0 discriminator 1
 715 0090 5C1E     		subs	r4, r3, #1
 716              	.LVL113:
 717 0092 002B     		cmp	r3, #0
 718 0094 BDD1     		bne	.L41
 398:Generated_Source\PSoC4/CapSense_1_Filter.c **** 
 719              		.loc 1 398 0
 720 0096 0020     		movs	r0, #0
 721 0098 02B0     		add	sp, sp, #8
 722              		@ sp needed
 723              	.LVL114:
 724              	.LVL115:
 725              	.LVL116:
 726 009a 04BC     		pop	{r2}
 727 009c 9046     		mov	r8, r2
 728 009e F0BD     		pop	{r4, r5, r6, r7, pc}
 729              		.cfi_endproc
 730              	.LFE6:
 731              		.size	CapSense_1_FtUpdateBaseline, .-CapSense_1_FtUpdateBaseline
 732              		.section	.text.CapSense_1_UpdateSensorBaseline,"ax",%progbits
 733              		.align	2
 734              		.global	CapSense_1_UpdateSensorBaseline
 735              		.code	16
 736              		.thumb_func
 737              		.type	CapSense_1_UpdateSensorBaseline, %function
 738              	CapSense_1_UpdateSensorBaseline:
 739              	.LFB5:
 201:Generated_Source\PSoC4/CapSense_1_Filter.c ****     uint32 result = CYRET_SUCCESS;
 740              		.loc 1 201 0
 741              		.cfi_startproc
 742              		@ args = 0, pretend = 0, frame = 0
 743              		@ frame_needed = 0, uses_anonymous_args = 0
 744              	.LVL117:
ARM GAS  C:\Users\bryan.lee\AppData\Local\Temp\cc6wSQv1.s 			page 48


 745 0000 10B5     		push	{r4, lr}
 746              		.cfi_def_cfa_offset 8
 747              		.cfi_offset 4, -8
 748              		.cfi_offset 14, -4
 749              	.LVL118:
 206:Generated_Source\PSoC4/CapSense_1_Filter.c **** 
 750              		.loc 1 206 0
 751 0002 4001     		lsls	r0, r0, #5
 752              	.LVL119:
 753 0004 064B     		ldr	r3, .L43
 754 0006 1B18     		adds	r3, r3, r0
 755              	.LVL120:
 756 0008 5868     		ldr	r0, [r3, #4]
 757              	.LVL121:
 210:Generated_Source\PSoC4/CapSense_1_Filter.c ****     result = CapSense_1_FtUpdateBaseline(ptrWidgetRam, ptrSensor, (uint32)ptrWidget->wdgtType);
 758              		.loc 1 210 0
 759 000a 8A00     		lsls	r2, r1, #2
 760 000c 5218     		adds	r2, r2, r1
 761 000e 5100     		lsls	r1, r2, #1
 762              	.LVL122:
 763 0010 9A68     		ldr	r2, [r3, #8]
 764 0012 9446     		mov	ip, r2
 765 0014 6144     		add	r1, r1, ip
 766              	.LVL123:
 211:Generated_Source\PSoC4/CapSense_1_Filter.c **** 
 767              		.loc 1 211 0
 768 0016 9A7E     		ldrb	r2, [r3, #26]
 769 0018 FFF7FEFF 		bl	CapSense_1_FtUpdateBaseline
 770              	.LVL124:
 222:Generated_Source\PSoC4/CapSense_1_Filter.c **** 
 771              		.loc 1 222 0
 772              		@ sp needed
 773 001c 10BD     		pop	{r4, pc}
 774              	.L44:
 775 001e C046     		.align	2
 776              	.L43:
 777 0020 00000000 		.word	CapSense_1_dsFlash
 778              		.cfi_endproc
 779              	.LFE5:
 780              		.size	CapSense_1_UpdateSensorBaseline, .-CapSense_1_UpdateSensorBaseline
 781              		.section	.text.CapSense_1_UpdateWidgetBaseline,"ax",%progbits
 782              		.align	2
 783              		.global	CapSense_1_UpdateWidgetBaseline
 784              		.code	16
 785              		.thumb_func
 786              		.type	CapSense_1_UpdateWidgetBaseline, %function
 787              	CapSense_1_UpdateWidgetBaseline:
 788              	.LFB4:
 144:Generated_Source\PSoC4/CapSense_1_Filter.c ****     uint32 sensorId;
 789              		.loc 1 144 0
 790              		.cfi_startproc
 791              		@ args = 0, pretend = 0, frame = 0
 792              		@ frame_needed = 0, uses_anonymous_args = 0
 793              	.LVL125:
 794 0000 70B5     		push	{r4, r5, r6, lr}
 795              		.cfi_def_cfa_offset 16
 796              		.cfi_offset 4, -16
ARM GAS  C:\Users\bryan.lee\AppData\Local\Temp\cc6wSQv1.s 			page 49


 797              		.cfi_offset 5, -12
 798              		.cfi_offset 6, -8
 799              		.cfi_offset 14, -4
 800 0002 0600     		movs	r6, r0
 801              	.LVL126:
 152:Generated_Source\PSoC4/CapSense_1_Filter.c **** 
 802              		.loc 1 152 0
 803 0004 4301     		lsls	r3, r0, #5
 804 0006 084A     		ldr	r2, .L48
 805 0008 D318     		adds	r3, r2, r3
 806              	.LVL127:
 807 000a 1B8B     		ldrh	r3, [r3, #24]
 808              	.LVL128:
 149:Generated_Source\PSoC4/CapSense_1_Filter.c **** 
 809              		.loc 1 149 0
 810 000c 0025     		movs	r5, #0
 154:Generated_Source\PSoC4/CapSense_1_Filter.c ****     {
 811              		.loc 1 154 0
 812 000e 05E0     		b	.L46
 813              	.LVL129:
 814              	.L47:
 156:Generated_Source\PSoC4/CapSense_1_Filter.c ****     }
 815              		.loc 1 156 0
 816 0010 2100     		movs	r1, r4
 817 0012 3000     		movs	r0, r6
 818 0014 FFF7FEFF 		bl	CapSense_1_UpdateSensorBaseline
 819              	.LVL130:
 820 0018 0543     		orrs	r5, r0
 821              	.LVL131:
 154:Generated_Source\PSoC4/CapSense_1_Filter.c ****     {
 822              		.loc 1 154 0
 823 001a 2300     		movs	r3, r4
 824              	.LVL132:
 825              	.L46:
 154:Generated_Source\PSoC4/CapSense_1_Filter.c ****     {
 826              		.loc 1 154 0 is_stmt 0 discriminator 1
 827 001c 5C1E     		subs	r4, r3, #1
 828              	.LVL133:
 829 001e 002B     		cmp	r3, #0
 830 0020 F6D1     		bne	.L47
 160:Generated_Source\PSoC4/CapSense_1_Filter.c **** 
 831              		.loc 1 160 0 is_stmt 1
 832 0022 2800     		movs	r0, r5
 833              		@ sp needed
 834              	.LVL134:
 835              	.LVL135:
 836              	.LVL136:
 837 0024 70BD     		pop	{r4, r5, r6, pc}
 838              	.L49:
 839 0026 C046     		.align	2
 840              	.L48:
 841 0028 00000000 		.word	CapSense_1_dsFlash
 842              		.cfi_endproc
 843              	.LFE4:
 844              		.size	CapSense_1_UpdateWidgetBaseline, .-CapSense_1_UpdateWidgetBaseline
 845              		.section	.text.CapSense_1_UpdateAllBaselines,"ax",%progbits
 846              		.align	2
ARM GAS  C:\Users\bryan.lee\AppData\Local\Temp\cc6wSQv1.s 			page 50


 847              		.global	CapSense_1_UpdateAllBaselines
 848              		.code	16
 849              		.thumb_func
 850              		.type	CapSense_1_UpdateAllBaselines, %function
 851              	CapSense_1_UpdateAllBaselines:
 852              	.LFB3:
  98:Generated_Source\PSoC4/CapSense_1_Filter.c ****     uint32 widgetId;
 853              		.loc 1 98 0
 854              		.cfi_startproc
 855              		@ args = 0, pretend = 0, frame = 0
 856              		@ frame_needed = 0, uses_anonymous_args = 0
 857 0000 70B5     		push	{r4, r5, r6, lr}
 858              		.cfi_def_cfa_offset 16
 859              		.cfi_offset 4, -16
 860              		.cfi_offset 5, -12
 861              		.cfi_offset 6, -8
 862              		.cfi_offset 14, -4
 863              	.LVL137:
 100:Generated_Source\PSoC4/CapSense_1_Filter.c **** 
 864              		.loc 1 100 0
 865 0002 0024     		movs	r4, #0
 102:Generated_Source\PSoC4/CapSense_1_Filter.c ****     {
 866              		.loc 1 102 0
 867 0004 0123     		movs	r3, #1
 868 0006 04E0     		b	.L51
 869              	.LVL138:
 870              	.L52:
 104:Generated_Source\PSoC4/CapSense_1_Filter.c ****     }
 871              		.loc 1 104 0
 872 0008 2800     		movs	r0, r5
 873 000a FFF7FEFF 		bl	CapSense_1_UpdateWidgetBaseline
 874              	.LVL139:
 875 000e 0443     		orrs	r4, r0
 876              	.LVL140:
 102:Generated_Source\PSoC4/CapSense_1_Filter.c ****     {
 877              		.loc 1 102 0
 878 0010 2B00     		movs	r3, r5
 879              	.LVL141:
 880              	.L51:
 102:Generated_Source\PSoC4/CapSense_1_Filter.c ****     {
 881              		.loc 1 102 0 is_stmt 0 discriminator 1
 882 0012 5D1E     		subs	r5, r3, #1
 883              	.LVL142:
 884 0014 002B     		cmp	r3, #0
 885 0016 F7D1     		bne	.L52
 108:Generated_Source\PSoC4/CapSense_1_Filter.c **** 
 886              		.loc 1 108 0 is_stmt 1
 887 0018 2000     		movs	r0, r4
 888              		@ sp needed
 889              	.LVL143:
 890              	.LVL144:
 891 001a 70BD     		pop	{r4, r5, r6, pc}
 892              		.cfi_endproc
 893              	.LFE3:
 894              		.size	CapSense_1_UpdateAllBaselines, .-CapSense_1_UpdateAllBaselines
 895              		.text
 896              	.Letext0:
ARM GAS  C:\Users\bryan.lee\AppData\Local\Temp\cc6wSQv1.s 			page 51


 897              		.file 2 "Generated_Source\\PSoC4\\cytypes.h"
 898              		.file 3 "Generated_Source\\PSoC4\\CapSense_1_Configuration.h"
 899              		.file 4 "Generated_Source\\PSoC4\\CapSense_1_SmartSense_LL.h"
 900              		.file 5 "Generated_Source\\PSoC4\\CapSense_1_Structure.h"