ARM GAS  C:\Users\bryan.lee\AppData\Local\Temp\ccgGTGls.s 			page 1


   1              		.syntax unified
   2              		.cpu cortex-m3
   3              		.fpu softvfp
   4              		.eabi_attribute 20, 1
   5              		.eabi_attribute 21, 1
   6              		.eabi_attribute 23, 3
   7              		.eabi_attribute 24, 1
   8              		.eabi_attribute 25, 1
   9              		.eabi_attribute 26, 1
  10              		.eabi_attribute 30, 6
  11              		.eabi_attribute 18, 4
  12              		.thumb
  13              		.file	"counterPolarC.c"
  20 0000 A5010000 		.text
  20      02006600 
  20      00000201 
  20      FB0E0D00 
  20      01010101 
  21              	.Ltext0:
  22              		.cfi_sections	.debug_frame
  23              		.global	counterPolarC_initVar
  24              		.bss
  25              		.type	counterPolarC_initVar, %object
  26              		.size	counterPolarC_initVar, 1
  27              	counterPolarC_initVar:
  28 0000 00       		.space	1
  29              		.section	.text.counterPolarC_Init,"ax",%progbits
  30              		.align	2
  31              		.global	counterPolarC_Init
  32              		.thumb
  33              		.thumb_func
  34              		.type	counterPolarC_Init, %function
  35              	counterPolarC_Init:
  36              	.LFB0:
  37              		.file 1 ".\\Generated_Source\\PSoC5\\counterPolarC.c"
   1:.\Generated_Source\PSoC5/counterPolarC.c **** /*******************************************************************************
   2:.\Generated_Source\PSoC5/counterPolarC.c **** * File Name: counterPolarC.c  
   3:.\Generated_Source\PSoC5/counterPolarC.c **** * Version 2.40
   4:.\Generated_Source\PSoC5/counterPolarC.c **** *
   5:.\Generated_Source\PSoC5/counterPolarC.c **** *  Description:
   6:.\Generated_Source\PSoC5/counterPolarC.c **** *     The Counter component consists of a 8, 16, 24 or 32-bit counter with
   7:.\Generated_Source\PSoC5/counterPolarC.c **** *     a selectable period between 2 and 2^Width - 1.  
   8:.\Generated_Source\PSoC5/counterPolarC.c **** *
   9:.\Generated_Source\PSoC5/counterPolarC.c **** *   Note:
  10:.\Generated_Source\PSoC5/counterPolarC.c **** *     None
  11:.\Generated_Source\PSoC5/counterPolarC.c **** *
  12:.\Generated_Source\PSoC5/counterPolarC.c **** *******************************************************************************
  13:.\Generated_Source\PSoC5/counterPolarC.c **** * Copyright 2008-2012, Cypress Semiconductor Corporation.  All rights reserved.
  14:.\Generated_Source\PSoC5/counterPolarC.c **** * You may use this file only in accordance with the license, terms, conditions, 
  15:.\Generated_Source\PSoC5/counterPolarC.c **** * disclaimers, and limitations in the end user license agreement accompanying 
  16:.\Generated_Source\PSoC5/counterPolarC.c **** * the software package with which this file was provided.
ARM GAS  C:\Users\bryan.lee\AppData\Local\Temp\ccgGTGls.s 			page 2


  17:.\Generated_Source\PSoC5/counterPolarC.c **** ********************************************************************************/
  18:.\Generated_Source\PSoC5/counterPolarC.c **** 
  19:.\Generated_Source\PSoC5/counterPolarC.c **** #include "counterPolarC.h"
  20:.\Generated_Source\PSoC5/counterPolarC.c **** 
  21:.\Generated_Source\PSoC5/counterPolarC.c **** uint8 counterPolarC_initVar = 0u;
  22:.\Generated_Source\PSoC5/counterPolarC.c **** 
  23:.\Generated_Source\PSoC5/counterPolarC.c **** 
  24:.\Generated_Source\PSoC5/counterPolarC.c **** /*******************************************************************************
  25:.\Generated_Source\PSoC5/counterPolarC.c **** * Function Name: counterPolarC_Init
  26:.\Generated_Source\PSoC5/counterPolarC.c **** ********************************************************************************
  27:.\Generated_Source\PSoC5/counterPolarC.c **** * Summary:
  28:.\Generated_Source\PSoC5/counterPolarC.c **** *     Initialize to the schematic state
  29:.\Generated_Source\PSoC5/counterPolarC.c **** * 
  30:.\Generated_Source\PSoC5/counterPolarC.c **** * Parameters:  
  31:.\Generated_Source\PSoC5/counterPolarC.c **** *  void  
  32:.\Generated_Source\PSoC5/counterPolarC.c **** *
  33:.\Generated_Source\PSoC5/counterPolarC.c **** * Return: 
  34:.\Generated_Source\PSoC5/counterPolarC.c **** *  void
  35:.\Generated_Source\PSoC5/counterPolarC.c **** *
  36:.\Generated_Source\PSoC5/counterPolarC.c **** *******************************************************************************/
  37:.\Generated_Source\PSoC5/counterPolarC.c **** void counterPolarC_Init(void) 
  38:.\Generated_Source\PSoC5/counterPolarC.c **** {
  38              		.loc 1 38 0
  39              		.cfi_startproc
  40              		@ args = 0, pretend = 0, frame = 8
  41              		@ frame_needed = 1, uses_anonymous_args = 0
  42 0000 80B5     		push	{r7, lr}
  43              	.LCFI0:
  44              		.cfi_def_cfa_offset 8
  45 0002 82B0     		sub	sp, sp, #8
  46              	.LCFI1:
  47              		.cfi_def_cfa_offset 16
  48 0004 00AF     		add	r7, sp, #0
  49              		.cfi_offset 14, -4
  50              		.cfi_offset 7, -8
  51              	.LCFI2:
  52              		.cfi_def_cfa_register 7
  39:.\Generated_Source\PSoC5/counterPolarC.c ****         #if (!counterPolarC_UsingFixedFunction && !counterPolarC_ControlRegRemoved)
  40:.\Generated_Source\PSoC5/counterPolarC.c ****             uint8 ctrl;
  41:.\Generated_Source\PSoC5/counterPolarC.c ****         #endif /* (!counterPolarC_UsingFixedFunction && !counterPolarC_ControlRegRemoved) */
  42:.\Generated_Source\PSoC5/counterPolarC.c ****         
  43:.\Generated_Source\PSoC5/counterPolarC.c ****         #if(!counterPolarC_UsingFixedFunction) 
  44:.\Generated_Source\PSoC5/counterPolarC.c ****             /* Interrupt State Backup for Critical Region*/
  45:.\Generated_Source\PSoC5/counterPolarC.c ****             uint8 counterPolarC_interruptState;
  46:.\Generated_Source\PSoC5/counterPolarC.c ****         #endif /* (!counterPolarC_UsingFixedFunction) */
  47:.\Generated_Source\PSoC5/counterPolarC.c ****         
  48:.\Generated_Source\PSoC5/counterPolarC.c ****         #if (counterPolarC_UsingFixedFunction)
  49:.\Generated_Source\PSoC5/counterPolarC.c ****             /* Clear all bits but the enable bit (if it's already set for Timer operation */
  50:.\Generated_Source\PSoC5/counterPolarC.c ****             counterPolarC_CONTROL &= counterPolarC_CTRL_ENABLE;
  51:.\Generated_Source\PSoC5/counterPolarC.c ****             
  52:.\Generated_Source\PSoC5/counterPolarC.c ****             /* Clear the mode bits for continuous run mode */
  53:.\Generated_Source\PSoC5/counterPolarC.c ****             #if (CY_PSOC5A)
  54:.\Generated_Source\PSoC5/counterPolarC.c ****                 counterPolarC_CONTROL2 &= ((uint8)(~counterPolarC_CTRL_MODE_MASK));
  55:.\Generated_Source\PSoC5/counterPolarC.c ****             #endif /* (CY_PSOC5A) */
  56:.\Generated_Source\PSoC5/counterPolarC.c ****             #if (CY_PSOC3 || CY_PSOC5LP)
  57:.\Generated_Source\PSoC5/counterPolarC.c ****                 counterPolarC_CONTROL3 &= ((uint8)(~counterPolarC_CTRL_MODE_MASK));                
  58:.\Generated_Source\PSoC5/counterPolarC.c ****             #endif /* (CY_PSOC3 || CY_PSOC5LP) */
ARM GAS  C:\Users\bryan.lee\AppData\Local\Temp\ccgGTGls.s 			page 3


  59:.\Generated_Source\PSoC5/counterPolarC.c ****             /* Check if One Shot mode is enabled i.e. RunMode !=0*/
  60:.\Generated_Source\PSoC5/counterPolarC.c ****             #if (counterPolarC_RunModeUsed != 0x0u)
  61:.\Generated_Source\PSoC5/counterPolarC.c ****                 /* Set 3rd bit of Control register to enable one shot mode */
  62:.\Generated_Source\PSoC5/counterPolarC.c ****                 counterPolarC_CONTROL |= counterPolarC_ONESHOT;
  63:.\Generated_Source\PSoC5/counterPolarC.c ****             #endif /* (counterPolarC_RunModeUsed != 0x0u) */
  64:.\Generated_Source\PSoC5/counterPolarC.c ****             
  65:.\Generated_Source\PSoC5/counterPolarC.c ****             /* Set the IRQ to use the status register interrupts */
  66:.\Generated_Source\PSoC5/counterPolarC.c ****             counterPolarC_CONTROL2 |= counterPolarC_CTRL2_IRQ_SEL;
  67:.\Generated_Source\PSoC5/counterPolarC.c ****             
  68:.\Generated_Source\PSoC5/counterPolarC.c ****             /* Clear and Set SYNCTC and SYNCCMP bits of RT1 register */
  69:.\Generated_Source\PSoC5/counterPolarC.c ****             counterPolarC_RT1 &= ((uint8)(~counterPolarC_RT1_MASK));
  70:.\Generated_Source\PSoC5/counterPolarC.c ****             counterPolarC_RT1 |= counterPolarC_SYNC;     
  71:.\Generated_Source\PSoC5/counterPolarC.c ****                     
  72:.\Generated_Source\PSoC5/counterPolarC.c ****             /*Enable DSI Sync all all inputs of the Timer*/
  73:.\Generated_Source\PSoC5/counterPolarC.c ****             counterPolarC_RT1 &= ((uint8)(~counterPolarC_SYNCDSI_MASK));
  74:.\Generated_Source\PSoC5/counterPolarC.c ****             counterPolarC_RT1 |= counterPolarC_SYNCDSI_EN;
  75:.\Generated_Source\PSoC5/counterPolarC.c **** 
  76:.\Generated_Source\PSoC5/counterPolarC.c ****         #else
  77:.\Generated_Source\PSoC5/counterPolarC.c ****             #if(!counterPolarC_ControlRegRemoved)
  78:.\Generated_Source\PSoC5/counterPolarC.c ****             /* Set the default compare mode defined in the parameter */
  79:.\Generated_Source\PSoC5/counterPolarC.c ****             ctrl = counterPolarC_CONTROL & ((uint8)(~counterPolarC_CTRL_CMPMODE_MASK));
  53              		.loc 1 79 0
  54 0006 46F27453 		movw	r3, #:lower16:1073767796
  55 000a C4F20003 		movt	r3, #:upper16:1073767796
  56 000e 1B78     		ldrb	r3, [r3, #0]
  57 0010 DBB2     		uxtb	r3, r3
  58 0012 23F00703 		bic	r3, r3, #7
  59 0016 BB71     		strb	r3, [r7, #6]
  80:.\Generated_Source\PSoC5/counterPolarC.c ****             counterPolarC_CONTROL = ctrl | counterPolarC_DEFAULT_COMPARE_MODE;
  60              		.loc 1 80 0
  61 0018 46F27453 		movw	r3, #:lower16:1073767796
  62 001c C4F20003 		movt	r3, #:upper16:1073767796
  63 0020 BA79     		ldrb	r2, [r7, #6]
  64 0022 1A70     		strb	r2, [r3, #0]
  81:.\Generated_Source\PSoC5/counterPolarC.c ****             
  82:.\Generated_Source\PSoC5/counterPolarC.c ****             /* Set the default capture mode defined in the parameter */
  83:.\Generated_Source\PSoC5/counterPolarC.c ****             ctrl = counterPolarC_CONTROL & ((uint8)(~counterPolarC_CTRL_CAPMODE_MASK));
  65              		.loc 1 83 0
  66 0024 46F27453 		movw	r3, #:lower16:1073767796
  67 0028 C4F20003 		movt	r3, #:upper16:1073767796
  68 002c 1B78     		ldrb	r3, [r3, #0]
  69 002e DBB2     		uxtb	r3, r3
  70 0030 23F00303 		bic	r3, r3, #3
  71 0034 BB71     		strb	r3, [r7, #6]
  84:.\Generated_Source\PSoC5/counterPolarC.c ****             
  85:.\Generated_Source\PSoC5/counterPolarC.c ****             #if( 0 != counterPolarC_CAPTURE_MODE_CONF)
  86:.\Generated_Source\PSoC5/counterPolarC.c ****                 counterPolarC_CONTROL = ctrl | counterPolarC_DEFAULT_CAPTURE_MODE;
  72              		.loc 1 86 0
  73 0036 46F27453 		movw	r3, #:lower16:1073767796
  74 003a C4F20003 		movt	r3, #:upper16:1073767796
  75 003e BA79     		ldrb	r2, [r7, #6]
  76 0040 42F00802 		orr	r2, r2, #8
  77 0044 D2B2     		uxtb	r2, r2
  78 0046 1A70     		strb	r2, [r3, #0]
  87:.\Generated_Source\PSoC5/counterPolarC.c ****             #else
  88:.\Generated_Source\PSoC5/counterPolarC.c ****                 counterPolarC_CONTROL = ctrl;
  89:.\Generated_Source\PSoC5/counterPolarC.c ****             #endif /* 0 != counterPolarC_CAPTURE_MODE */ 
ARM GAS  C:\Users\bryan.lee\AppData\Local\Temp\ccgGTGls.s 			page 4


  90:.\Generated_Source\PSoC5/counterPolarC.c ****             
  91:.\Generated_Source\PSoC5/counterPolarC.c ****             #endif /* (!counterPolarC_ControlRegRemoved) */
  92:.\Generated_Source\PSoC5/counterPolarC.c ****         #endif /* (counterPolarC_UsingFixedFunction) */
  93:.\Generated_Source\PSoC5/counterPolarC.c ****         
  94:.\Generated_Source\PSoC5/counterPolarC.c ****         /* Clear all data in the FIFO's */
  95:.\Generated_Source\PSoC5/counterPolarC.c ****         #if (!counterPolarC_UsingFixedFunction)
  96:.\Generated_Source\PSoC5/counterPolarC.c ****             counterPolarC_ClearFIFO();
  79              		.loc 1 96 0
  80 0048 FFF7FEFF 		bl	counterPolarC_ClearFIFO
  97:.\Generated_Source\PSoC5/counterPolarC.c ****         #endif /* (!counterPolarC_UsingFixedFunction) */
  98:.\Generated_Source\PSoC5/counterPolarC.c ****         
  99:.\Generated_Source\PSoC5/counterPolarC.c ****         /* Set Initial values from Configuration */
 100:.\Generated_Source\PSoC5/counterPolarC.c ****         counterPolarC_WritePeriod(counterPolarC_INIT_PERIOD_VALUE);
  81              		.loc 1 100 0
  82 004c 4FF0FF00 		mov	r0, #255
  83 0050 FFF7FEFF 		bl	counterPolarC_WritePeriod
 101:.\Generated_Source\PSoC5/counterPolarC.c ****         #if (!(counterPolarC_UsingFixedFunction && (CY_PSOC5A)))
 102:.\Generated_Source\PSoC5/counterPolarC.c ****             counterPolarC_WriteCounter(counterPolarC_INIT_COUNTER_VALUE);
  84              		.loc 1 102 0
  85 0054 4FF00000 		mov	r0, #0
  86 0058 FFF7FEFF 		bl	counterPolarC_WriteCounter
 103:.\Generated_Source\PSoC5/counterPolarC.c ****         #endif /* (!(counterPolarC_UsingFixedFunction && (CY_PSOC5A))) */
 104:.\Generated_Source\PSoC5/counterPolarC.c ****         counterPolarC_SetInterruptMode(counterPolarC_INIT_INTERRUPTS_MASK);
  87              		.loc 1 104 0
  88 005c 4FF00000 		mov	r0, #0
  89 0060 FFF7FEFF 		bl	counterPolarC_SetInterruptMode
 105:.\Generated_Source\PSoC5/counterPolarC.c ****         
 106:.\Generated_Source\PSoC5/counterPolarC.c ****         #if (!counterPolarC_UsingFixedFunction)
 107:.\Generated_Source\PSoC5/counterPolarC.c ****             /* Read the status register to clear the unwanted interrupts */
 108:.\Generated_Source\PSoC5/counterPolarC.c ****             (void)counterPolarC_ReadStatusRegister();
  90              		.loc 1 108 0
  91 0064 FFF7FEFF 		bl	counterPolarC_ReadStatusRegister
 109:.\Generated_Source\PSoC5/counterPolarC.c ****             /* Set the compare value (only available to non-fixed function implementation */
 110:.\Generated_Source\PSoC5/counterPolarC.c ****             counterPolarC_WriteCompare(counterPolarC_INIT_COMPARE_VALUE);
  92              		.loc 1 110 0
  93 0068 4FF0FF00 		mov	r0, #255
  94 006c FFF7FEFF 		bl	counterPolarC_WriteCompare
 111:.\Generated_Source\PSoC5/counterPolarC.c ****             /* Use the interrupt output of the status register for IRQ output */
 112:.\Generated_Source\PSoC5/counterPolarC.c ****             
 113:.\Generated_Source\PSoC5/counterPolarC.c ****             /* CyEnterCriticalRegion and CyExitCriticalRegion are used to mark following region cri
 114:.\Generated_Source\PSoC5/counterPolarC.c ****             /* Enter Critical Region*/
 115:.\Generated_Source\PSoC5/counterPolarC.c ****             counterPolarC_interruptState = CyEnterCriticalSection();
  95              		.loc 1 115 0
  96 0070 FFF7FEFF 		bl	CyEnterCriticalSection
  97 0074 0346     		mov	r3, r0
  98 0076 FB71     		strb	r3, [r7, #7]
 116:.\Generated_Source\PSoC5/counterPolarC.c ****             
 117:.\Generated_Source\PSoC5/counterPolarC.c ****             counterPolarC_STATUS_AUX_CTRL |= counterPolarC_STATUS_ACTL_INT_EN_MASK;
  99              		.loc 1 117 0
 100 0078 46F29553 		movw	r3, #:lower16:1073767829
 101 007c C4F20003 		movt	r3, #:upper16:1073767829
 102 0080 46F29552 		movw	r2, #:lower16:1073767829
 103 0084 C4F20002 		movt	r2, #:upper16:1073767829
 104 0088 1278     		ldrb	r2, [r2, #0]
 105 008a D2B2     		uxtb	r2, r2
 106 008c 42F01002 		orr	r2, r2, #16
 107 0090 D2B2     		uxtb	r2, r2
ARM GAS  C:\Users\bryan.lee\AppData\Local\Temp\ccgGTGls.s 			page 5


 108 0092 1A70     		strb	r2, [r3, #0]
 118:.\Generated_Source\PSoC5/counterPolarC.c ****             
 119:.\Generated_Source\PSoC5/counterPolarC.c ****             /* Exit Critical Region*/
 120:.\Generated_Source\PSoC5/counterPolarC.c ****             CyExitCriticalSection(counterPolarC_interruptState);
 109              		.loc 1 120 0
 110 0094 FB79     		ldrb	r3, [r7, #7]	@ zero_extendqisi2
 111 0096 1846     		mov	r0, r3
 112 0098 FFF7FEFF 		bl	CyExitCriticalSection
 121:.\Generated_Source\PSoC5/counterPolarC.c ****             
 122:.\Generated_Source\PSoC5/counterPolarC.c ****         #endif /* (!counterPolarC_UsingFixedFunction) */
 123:.\Generated_Source\PSoC5/counterPolarC.c **** }
 113              		.loc 1 123 0
 114 009c 07F10807 		add	r7, r7, #8
 115 00a0 BD46     		mov	sp, r7
 116 00a2 80BD     		pop	{r7, pc}
 117              		.cfi_endproc
 118              	.LFE0:
 119              		.size	counterPolarC_Init, .-counterPolarC_Init
 120              		.section	.text.counterPolarC_Enable,"ax",%progbits
 121              		.align	2
 122              		.global	counterPolarC_Enable
 123              		.thumb
 124              		.thumb_func
 125              		.type	counterPolarC_Enable, %function
 126              	counterPolarC_Enable:
 127              	.LFB1:
 124:.\Generated_Source\PSoC5/counterPolarC.c **** 
 125:.\Generated_Source\PSoC5/counterPolarC.c **** 
 126:.\Generated_Source\PSoC5/counterPolarC.c **** /*******************************************************************************
 127:.\Generated_Source\PSoC5/counterPolarC.c **** * Function Name: counterPolarC_Enable
 128:.\Generated_Source\PSoC5/counterPolarC.c **** ********************************************************************************
 129:.\Generated_Source\PSoC5/counterPolarC.c **** * Summary:
 130:.\Generated_Source\PSoC5/counterPolarC.c **** *     Enable the Counter
 131:.\Generated_Source\PSoC5/counterPolarC.c **** * 
 132:.\Generated_Source\PSoC5/counterPolarC.c **** * Parameters:  
 133:.\Generated_Source\PSoC5/counterPolarC.c **** *  void  
 134:.\Generated_Source\PSoC5/counterPolarC.c **** *
 135:.\Generated_Source\PSoC5/counterPolarC.c **** * Return: 
 136:.\Generated_Source\PSoC5/counterPolarC.c **** *  void
 137:.\Generated_Source\PSoC5/counterPolarC.c **** *
 138:.\Generated_Source\PSoC5/counterPolarC.c **** * Side Effects: 
 139:.\Generated_Source\PSoC5/counterPolarC.c **** *   If the Enable mode is set to Hardware only then this function has no effect 
 140:.\Generated_Source\PSoC5/counterPolarC.c **** *   on the operation of the counter.
 141:.\Generated_Source\PSoC5/counterPolarC.c **** *
 142:.\Generated_Source\PSoC5/counterPolarC.c **** *******************************************************************************/
 143:.\Generated_Source\PSoC5/counterPolarC.c **** void counterPolarC_Enable(void) 
 144:.\Generated_Source\PSoC5/counterPolarC.c **** {
 128              		.loc 1 144 0
 129              		.cfi_startproc
 130              		@ args = 0, pretend = 0, frame = 0
 131              		@ frame_needed = 1, uses_anonymous_args = 0
 132              		@ link register save eliminated.
 133 0000 80B4     		push	{r7}
 134              	.LCFI3:
 135              		.cfi_def_cfa_offset 4
 136 0002 00AF     		add	r7, sp, #0
 137              		.cfi_offset 7, -4
ARM GAS  C:\Users\bryan.lee\AppData\Local\Temp\ccgGTGls.s 			page 6


 138              	.LCFI4:
 139              		.cfi_def_cfa_register 7
 145:.\Generated_Source\PSoC5/counterPolarC.c ****     /* Globally Enable the Fixed Function Block chosen */
 146:.\Generated_Source\PSoC5/counterPolarC.c ****     #if (counterPolarC_UsingFixedFunction)
 147:.\Generated_Source\PSoC5/counterPolarC.c ****         counterPolarC_GLOBAL_ENABLE |= counterPolarC_BLOCK_EN_MASK;
 148:.\Generated_Source\PSoC5/counterPolarC.c ****         counterPolarC_GLOBAL_STBY_ENABLE |= counterPolarC_BLOCK_STBY_EN_MASK;
 149:.\Generated_Source\PSoC5/counterPolarC.c ****     #endif /* (counterPolarC_UsingFixedFunction) */  
 150:.\Generated_Source\PSoC5/counterPolarC.c ****         
 151:.\Generated_Source\PSoC5/counterPolarC.c ****     /* Enable the counter from the control register  */
 152:.\Generated_Source\PSoC5/counterPolarC.c ****     /* If Fixed Function then make sure Mode is set correctly */
 153:.\Generated_Source\PSoC5/counterPolarC.c ****     /* else make sure reset is clear */
 154:.\Generated_Source\PSoC5/counterPolarC.c ****     #if(!counterPolarC_ControlRegRemoved || counterPolarC_UsingFixedFunction)
 155:.\Generated_Source\PSoC5/counterPolarC.c ****         counterPolarC_CONTROL |= counterPolarC_CTRL_ENABLE;                
 140              		.loc 1 155 0
 141 0004 46F27453 		movw	r3, #:lower16:1073767796
 142 0008 C4F20003 		movt	r3, #:upper16:1073767796
 143 000c 46F27452 		movw	r2, #:lower16:1073767796
 144 0010 C4F20002 		movt	r2, #:upper16:1073767796
 145 0014 1278     		ldrb	r2, [r2, #0]
 146 0016 D2B2     		uxtb	r2, r2
 147 0018 6FEA4262 		mvn	r2, r2, lsl #25
 148 001c 6FEA5262 		mvn	r2, r2, lsr #25
 149 0020 D2B2     		uxtb	r2, r2
 150 0022 1A70     		strb	r2, [r3, #0]
 156:.\Generated_Source\PSoC5/counterPolarC.c ****     #endif /* (!counterPolarC_ControlRegRemoved || counterPolarC_UsingFixedFunction) */
 157:.\Generated_Source\PSoC5/counterPolarC.c ****     
 158:.\Generated_Source\PSoC5/counterPolarC.c **** }
 151              		.loc 1 158 0
 152 0024 BD46     		mov	sp, r7
 153 0026 80BC     		pop	{r7}
 154 0028 7047     		bx	lr
 155              		.cfi_endproc
 156              	.LFE1:
 157              		.size	counterPolarC_Enable, .-counterPolarC_Enable
 158 002a 00BF     		.section	.text.counterPolarC_Start,"ax",%progbits
 159              		.align	2
 160              		.global	counterPolarC_Start
 161              		.thumb
 162              		.thumb_func
 163              		.type	counterPolarC_Start, %function
 164              	counterPolarC_Start:
 165              	.LFB2:
 159:.\Generated_Source\PSoC5/counterPolarC.c **** 
 160:.\Generated_Source\PSoC5/counterPolarC.c **** 
 161:.\Generated_Source\PSoC5/counterPolarC.c **** /*******************************************************************************
 162:.\Generated_Source\PSoC5/counterPolarC.c **** * Function Name: counterPolarC_Start
 163:.\Generated_Source\PSoC5/counterPolarC.c **** ********************************************************************************
 164:.\Generated_Source\PSoC5/counterPolarC.c **** * Summary:
 165:.\Generated_Source\PSoC5/counterPolarC.c **** *  Enables the counter for operation 
 166:.\Generated_Source\PSoC5/counterPolarC.c **** *
 167:.\Generated_Source\PSoC5/counterPolarC.c **** * Parameters:  
 168:.\Generated_Source\PSoC5/counterPolarC.c **** *  void  
 169:.\Generated_Source\PSoC5/counterPolarC.c **** *
 170:.\Generated_Source\PSoC5/counterPolarC.c **** * Return: 
 171:.\Generated_Source\PSoC5/counterPolarC.c **** *  void
 172:.\Generated_Source\PSoC5/counterPolarC.c **** *
 173:.\Generated_Source\PSoC5/counterPolarC.c **** * Global variables:
ARM GAS  C:\Users\bryan.lee\AppData\Local\Temp\ccgGTGls.s 			page 7


 174:.\Generated_Source\PSoC5/counterPolarC.c **** *  counterPolarC_initVar: Is modified when this function is called for the  
 175:.\Generated_Source\PSoC5/counterPolarC.c **** *   first time. Is used to ensure that initialization happens only once.
 176:.\Generated_Source\PSoC5/counterPolarC.c **** *
 177:.\Generated_Source\PSoC5/counterPolarC.c **** *******************************************************************************/
 178:.\Generated_Source\PSoC5/counterPolarC.c **** void counterPolarC_Start(void) 
 179:.\Generated_Source\PSoC5/counterPolarC.c **** {
 166              		.loc 1 179 0
 167              		.cfi_startproc
 168              		@ args = 0, pretend = 0, frame = 0
 169              		@ frame_needed = 1, uses_anonymous_args = 0
 170 0000 80B5     		push	{r7, lr}
 171              	.LCFI5:
 172              		.cfi_def_cfa_offset 8
 173 0002 00AF     		add	r7, sp, #0
 174              		.cfi_offset 14, -4
 175              		.cfi_offset 7, -8
 176              	.LCFI6:
 177              		.cfi_def_cfa_register 7
 180:.\Generated_Source\PSoC5/counterPolarC.c ****     if(counterPolarC_initVar == 0u)
 178              		.loc 1 180 0
 179 0004 40F20003 		movw	r3, #:lower16:counterPolarC_initVar
 180 0008 C0F20003 		movt	r3, #:upper16:counterPolarC_initVar
 181 000c 1B78     		ldrb	r3, [r3, #0]	@ zero_extendqisi2
 182 000e 002B     		cmp	r3, #0
 183 0010 08D1     		bne	.L6
 181:.\Generated_Source\PSoC5/counterPolarC.c ****     {
 182:.\Generated_Source\PSoC5/counterPolarC.c ****         counterPolarC_Init();
 184              		.loc 1 182 0
 185 0012 FFF7FEFF 		bl	counterPolarC_Init
 183:.\Generated_Source\PSoC5/counterPolarC.c ****         
 184:.\Generated_Source\PSoC5/counterPolarC.c ****         counterPolarC_initVar = 1u; /* Clear this bit for Initialization */        
 186              		.loc 1 184 0
 187 0016 40F20003 		movw	r3, #:lower16:counterPolarC_initVar
 188 001a C0F20003 		movt	r3, #:upper16:counterPolarC_initVar
 189 001e 4FF00102 		mov	r2, #1
 190 0022 1A70     		strb	r2, [r3, #0]
 191              	.L6:
 185:.\Generated_Source\PSoC5/counterPolarC.c ****     }
 186:.\Generated_Source\PSoC5/counterPolarC.c ****     
 187:.\Generated_Source\PSoC5/counterPolarC.c ****     /* Enable the Counter */
 188:.\Generated_Source\PSoC5/counterPolarC.c ****     counterPolarC_Enable();        
 192              		.loc 1 188 0
 193 0024 FFF7FEFF 		bl	counterPolarC_Enable
 189:.\Generated_Source\PSoC5/counterPolarC.c **** }
 194              		.loc 1 189 0
 195 0028 80BD     		pop	{r7, pc}
 196              		.cfi_endproc
 197              	.LFE2:
 198              		.size	counterPolarC_Start, .-counterPolarC_Start
 199 002a 00BF     		.section	.text.counterPolarC_Stop,"ax",%progbits
 200              		.align	2
 201              		.global	counterPolarC_Stop
 202              		.thumb
 203              		.thumb_func
 204              		.type	counterPolarC_Stop, %function
 205              	counterPolarC_Stop:
 206              	.LFB3:
ARM GAS  C:\Users\bryan.lee\AppData\Local\Temp\ccgGTGls.s 			page 8


 190:.\Generated_Source\PSoC5/counterPolarC.c **** 
 191:.\Generated_Source\PSoC5/counterPolarC.c **** 
 192:.\Generated_Source\PSoC5/counterPolarC.c **** /*******************************************************************************
 193:.\Generated_Source\PSoC5/counterPolarC.c **** * Function Name: counterPolarC_Stop
 194:.\Generated_Source\PSoC5/counterPolarC.c **** ********************************************************************************
 195:.\Generated_Source\PSoC5/counterPolarC.c **** * Summary:
 196:.\Generated_Source\PSoC5/counterPolarC.c **** * Halts the counter, but does not change any modes or disable interrupts.
 197:.\Generated_Source\PSoC5/counterPolarC.c **** *
 198:.\Generated_Source\PSoC5/counterPolarC.c **** * Parameters:  
 199:.\Generated_Source\PSoC5/counterPolarC.c **** *  void  
 200:.\Generated_Source\PSoC5/counterPolarC.c **** *
 201:.\Generated_Source\PSoC5/counterPolarC.c **** * Return: 
 202:.\Generated_Source\PSoC5/counterPolarC.c **** *  void
 203:.\Generated_Source\PSoC5/counterPolarC.c **** *
 204:.\Generated_Source\PSoC5/counterPolarC.c **** * Side Effects: If the Enable mode is set to Hardware only then this function
 205:.\Generated_Source\PSoC5/counterPolarC.c **** *               has no effect on the operation of the counter.
 206:.\Generated_Source\PSoC5/counterPolarC.c **** *
 207:.\Generated_Source\PSoC5/counterPolarC.c **** *******************************************************************************/
 208:.\Generated_Source\PSoC5/counterPolarC.c **** void counterPolarC_Stop(void) 
 209:.\Generated_Source\PSoC5/counterPolarC.c **** {
 207              		.loc 1 209 0
 208              		.cfi_startproc
 209              		@ args = 0, pretend = 0, frame = 0
 210              		@ frame_needed = 1, uses_anonymous_args = 0
 211              		@ link register save eliminated.
 212 0000 80B4     		push	{r7}
 213              	.LCFI7:
 214              		.cfi_def_cfa_offset 4
 215 0002 00AF     		add	r7, sp, #0
 216              		.cfi_offset 7, -4
 217              	.LCFI8:
 218              		.cfi_def_cfa_register 7
 210:.\Generated_Source\PSoC5/counterPolarC.c ****     /* Disable Counter */
 211:.\Generated_Source\PSoC5/counterPolarC.c ****     #if(!counterPolarC_ControlRegRemoved || counterPolarC_UsingFixedFunction)
 212:.\Generated_Source\PSoC5/counterPolarC.c ****         counterPolarC_CONTROL &= ((uint8)(~counterPolarC_CTRL_ENABLE));        
 219              		.loc 1 212 0
 220 0004 46F27453 		movw	r3, #:lower16:1073767796
 221 0008 C4F20003 		movt	r3, #:upper16:1073767796
 222 000c 46F27452 		movw	r2, #:lower16:1073767796
 223 0010 C4F20002 		movt	r2, #:upper16:1073767796
 224 0014 1278     		ldrb	r2, [r2, #0]
 225 0016 D2B2     		uxtb	r2, r2
 226 0018 02F07F02 		and	r2, r2, #127
 227 001c 1A70     		strb	r2, [r3, #0]
 213:.\Generated_Source\PSoC5/counterPolarC.c ****     #endif /* (!counterPolarC_ControlRegRemoved || counterPolarC_UsingFixedFunction) */
 214:.\Generated_Source\PSoC5/counterPolarC.c ****     
 215:.\Generated_Source\PSoC5/counterPolarC.c ****     /* Globally disable the Fixed Function Block chosen */
 216:.\Generated_Source\PSoC5/counterPolarC.c ****     #if (counterPolarC_UsingFixedFunction)
 217:.\Generated_Source\PSoC5/counterPolarC.c ****         counterPolarC_GLOBAL_ENABLE &= ((uint8)(~counterPolarC_BLOCK_EN_MASK));
 218:.\Generated_Source\PSoC5/counterPolarC.c ****         counterPolarC_GLOBAL_STBY_ENABLE &= ((uint8)(~counterPolarC_BLOCK_STBY_EN_MASK));
 219:.\Generated_Source\PSoC5/counterPolarC.c ****     #endif /* (counterPolarC_UsingFixedFunction) */
 220:.\Generated_Source\PSoC5/counterPolarC.c **** }
 228              		.loc 1 220 0
 229 001e BD46     		mov	sp, r7
 230 0020 80BC     		pop	{r7}
 231 0022 7047     		bx	lr
 232              		.cfi_endproc
ARM GAS  C:\Users\bryan.lee\AppData\Local\Temp\ccgGTGls.s 			page 9


 233              	.LFE3:
 234              		.size	counterPolarC_Stop, .-counterPolarC_Stop
 235              		.section	.text.counterPolarC_SetInterruptMode,"ax",%progbits
 236              		.align	2
 237              		.global	counterPolarC_SetInterruptMode
 238              		.thumb
 239              		.thumb_func
 240              		.type	counterPolarC_SetInterruptMode, %function
 241              	counterPolarC_SetInterruptMode:
 242              	.LFB4:
 221:.\Generated_Source\PSoC5/counterPolarC.c **** 
 222:.\Generated_Source\PSoC5/counterPolarC.c **** 
 223:.\Generated_Source\PSoC5/counterPolarC.c **** /*******************************************************************************
 224:.\Generated_Source\PSoC5/counterPolarC.c **** * Function Name: counterPolarC_SetInterruptMode
 225:.\Generated_Source\PSoC5/counterPolarC.c **** ********************************************************************************
 226:.\Generated_Source\PSoC5/counterPolarC.c **** * Summary:
 227:.\Generated_Source\PSoC5/counterPolarC.c **** * Configures which interrupt sources are enabled to generate the final interrupt
 228:.\Generated_Source\PSoC5/counterPolarC.c **** *
 229:.\Generated_Source\PSoC5/counterPolarC.c **** * Parameters:  
 230:.\Generated_Source\PSoC5/counterPolarC.c **** *  InterruptsMask: This parameter is an or'd collection of the status bits
 231:.\Generated_Source\PSoC5/counterPolarC.c **** *                   which will be allowed to generate the counters interrupt.   
 232:.\Generated_Source\PSoC5/counterPolarC.c **** *
 233:.\Generated_Source\PSoC5/counterPolarC.c **** * Return: 
 234:.\Generated_Source\PSoC5/counterPolarC.c **** *  void
 235:.\Generated_Source\PSoC5/counterPolarC.c **** *
 236:.\Generated_Source\PSoC5/counterPolarC.c **** *******************************************************************************/
 237:.\Generated_Source\PSoC5/counterPolarC.c **** void counterPolarC_SetInterruptMode(uint8 interruptsMask) 
 238:.\Generated_Source\PSoC5/counterPolarC.c **** {
 243              		.loc 1 238 0
 244              		.cfi_startproc
 245              		@ args = 0, pretend = 0, frame = 8
 246              		@ frame_needed = 1, uses_anonymous_args = 0
 247              		@ link register save eliminated.
 248 0000 80B4     		push	{r7}
 249              	.LCFI9:
 250              		.cfi_def_cfa_offset 4
 251 0002 83B0     		sub	sp, sp, #12
 252              	.LCFI10:
 253              		.cfi_def_cfa_offset 16
 254 0004 00AF     		add	r7, sp, #0
 255              		.cfi_offset 7, -4
 256              	.LCFI11:
 257              		.cfi_def_cfa_register 7
 258 0006 0346     		mov	r3, r0
 259 0008 FB71     		strb	r3, [r7, #7]
 239:.\Generated_Source\PSoC5/counterPolarC.c ****     counterPolarC_STATUS_MASK = interruptsMask;
 260              		.loc 1 239 0
 261 000a 46F28553 		movw	r3, #:lower16:1073767813
 262 000e C4F20003 		movt	r3, #:upper16:1073767813
 263 0012 FA79     		ldrb	r2, [r7, #7]
 264 0014 1A70     		strb	r2, [r3, #0]
 240:.\Generated_Source\PSoC5/counterPolarC.c **** }
 265              		.loc 1 240 0
 266 0016 07F10C07 		add	r7, r7, #12
 267 001a BD46     		mov	sp, r7
 268 001c 80BC     		pop	{r7}
 269 001e 7047     		bx	lr
ARM GAS  C:\Users\bryan.lee\AppData\Local\Temp\ccgGTGls.s 			page 10


 270              		.cfi_endproc
 271              	.LFE4:
 272              		.size	counterPolarC_SetInterruptMode, .-counterPolarC_SetInterruptMode
 273              		.section	.text.counterPolarC_ReadStatusRegister,"ax",%progbits
 274              		.align	2
 275              		.global	counterPolarC_ReadStatusRegister
 276              		.thumb
 277              		.thumb_func
 278              		.type	counterPolarC_ReadStatusRegister, %function
 279              	counterPolarC_ReadStatusRegister:
 280              	.LFB5:
 241:.\Generated_Source\PSoC5/counterPolarC.c **** 
 242:.\Generated_Source\PSoC5/counterPolarC.c **** 
 243:.\Generated_Source\PSoC5/counterPolarC.c **** /*******************************************************************************
 244:.\Generated_Source\PSoC5/counterPolarC.c **** * Function Name: counterPolarC_ReadStatusRegister
 245:.\Generated_Source\PSoC5/counterPolarC.c **** ********************************************************************************
 246:.\Generated_Source\PSoC5/counterPolarC.c **** * Summary:
 247:.\Generated_Source\PSoC5/counterPolarC.c **** *   Reads the status register and returns it's state. This function should use
 248:.\Generated_Source\PSoC5/counterPolarC.c **** *       defined types for the bit-field information as the bits in this
 249:.\Generated_Source\PSoC5/counterPolarC.c **** *       register may be permuteable.
 250:.\Generated_Source\PSoC5/counterPolarC.c **** *
 251:.\Generated_Source\PSoC5/counterPolarC.c **** * Parameters:  
 252:.\Generated_Source\PSoC5/counterPolarC.c **** *  void
 253:.\Generated_Source\PSoC5/counterPolarC.c **** *
 254:.\Generated_Source\PSoC5/counterPolarC.c **** * Return: 
 255:.\Generated_Source\PSoC5/counterPolarC.c **** *  (uint8) The contents of the status register
 256:.\Generated_Source\PSoC5/counterPolarC.c **** *
 257:.\Generated_Source\PSoC5/counterPolarC.c **** * Side Effects:
 258:.\Generated_Source\PSoC5/counterPolarC.c **** *   Status register bits may be clear on read. 
 259:.\Generated_Source\PSoC5/counterPolarC.c **** *
 260:.\Generated_Source\PSoC5/counterPolarC.c **** *******************************************************************************/
 261:.\Generated_Source\PSoC5/counterPolarC.c **** uint8   counterPolarC_ReadStatusRegister(void) 
 262:.\Generated_Source\PSoC5/counterPolarC.c **** {
 281              		.loc 1 262 0
 282              		.cfi_startproc
 283              		@ args = 0, pretend = 0, frame = 0
 284              		@ frame_needed = 1, uses_anonymous_args = 0
 285              		@ link register save eliminated.
 286 0000 80B4     		push	{r7}
 287              	.LCFI12:
 288              		.cfi_def_cfa_offset 4
 289 0002 00AF     		add	r7, sp, #0
 290              		.cfi_offset 7, -4
 291              	.LCFI13:
 292              		.cfi_def_cfa_register 7
 263:.\Generated_Source\PSoC5/counterPolarC.c ****     return counterPolarC_STATUS;
 293              		.loc 1 263 0
 294 0004 46F26553 		movw	r3, #:lower16:1073767781
 295 0008 C4F20003 		movt	r3, #:upper16:1073767781
 296 000c 1B78     		ldrb	r3, [r3, #0]
 297 000e DBB2     		uxtb	r3, r3
 264:.\Generated_Source\PSoC5/counterPolarC.c **** }
 298              		.loc 1 264 0
 299 0010 1846     		mov	r0, r3
 300 0012 BD46     		mov	sp, r7
 301 0014 80BC     		pop	{r7}
 302 0016 7047     		bx	lr
ARM GAS  C:\Users\bryan.lee\AppData\Local\Temp\ccgGTGls.s 			page 11


 303              		.cfi_endproc
 304              	.LFE5:
 305              		.size	counterPolarC_ReadStatusRegister, .-counterPolarC_ReadStatusRegister
 306              		.section	.text.counterPolarC_ReadControlRegister,"ax",%progbits
 307              		.align	2
 308              		.global	counterPolarC_ReadControlRegister
 309              		.thumb
 310              		.thumb_func
 311              		.type	counterPolarC_ReadControlRegister, %function
 312              	counterPolarC_ReadControlRegister:
 313              	.LFB6:
 265:.\Generated_Source\PSoC5/counterPolarC.c **** 
 266:.\Generated_Source\PSoC5/counterPolarC.c **** 
 267:.\Generated_Source\PSoC5/counterPolarC.c **** #if(!counterPolarC_ControlRegRemoved)
 268:.\Generated_Source\PSoC5/counterPolarC.c **** /*******************************************************************************
 269:.\Generated_Source\PSoC5/counterPolarC.c **** * Function Name: counterPolarC_ReadControlRegister
 270:.\Generated_Source\PSoC5/counterPolarC.c **** ********************************************************************************
 271:.\Generated_Source\PSoC5/counterPolarC.c **** * Summary:
 272:.\Generated_Source\PSoC5/counterPolarC.c **** *   Reads the control register and returns it's state. This function should use
 273:.\Generated_Source\PSoC5/counterPolarC.c **** *       defined types for the bit-field information as the bits in this
 274:.\Generated_Source\PSoC5/counterPolarC.c **** *       register may be permuteable.
 275:.\Generated_Source\PSoC5/counterPolarC.c **** *
 276:.\Generated_Source\PSoC5/counterPolarC.c **** * Parameters:  
 277:.\Generated_Source\PSoC5/counterPolarC.c **** *  void
 278:.\Generated_Source\PSoC5/counterPolarC.c **** *
 279:.\Generated_Source\PSoC5/counterPolarC.c **** * Return: 
 280:.\Generated_Source\PSoC5/counterPolarC.c **** *  (uint8) The contents of the control register
 281:.\Generated_Source\PSoC5/counterPolarC.c **** *
 282:.\Generated_Source\PSoC5/counterPolarC.c **** *******************************************************************************/
 283:.\Generated_Source\PSoC5/counterPolarC.c **** uint8   counterPolarC_ReadControlRegister(void) 
 284:.\Generated_Source\PSoC5/counterPolarC.c **** {
 314              		.loc 1 284 0
 315              		.cfi_startproc
 316              		@ args = 0, pretend = 0, frame = 0
 317              		@ frame_needed = 1, uses_anonymous_args = 0
 318              		@ link register save eliminated.
 319 0000 80B4     		push	{r7}
 320              	.LCFI14:
 321              		.cfi_def_cfa_offset 4
 322 0002 00AF     		add	r7, sp, #0
 323              		.cfi_offset 7, -4
 324              	.LCFI15:
 325              		.cfi_def_cfa_register 7
 285:.\Generated_Source\PSoC5/counterPolarC.c ****     return counterPolarC_CONTROL;
 326              		.loc 1 285 0
 327 0004 46F27453 		movw	r3, #:lower16:1073767796
 328 0008 C4F20003 		movt	r3, #:upper16:1073767796
 329 000c 1B78     		ldrb	r3, [r3, #0]
 330 000e DBB2     		uxtb	r3, r3
 286:.\Generated_Source\PSoC5/counterPolarC.c **** }
 331              		.loc 1 286 0
 332 0010 1846     		mov	r0, r3
 333 0012 BD46     		mov	sp, r7
 334 0014 80BC     		pop	{r7}
 335 0016 7047     		bx	lr
 336              		.cfi_endproc
 337              	.LFE6:
ARM GAS  C:\Users\bryan.lee\AppData\Local\Temp\ccgGTGls.s 			page 12


 338              		.size	counterPolarC_ReadControlRegister, .-counterPolarC_ReadControlRegister
 339              		.section	.text.counterPolarC_WriteControlRegister,"ax",%progbits
 340              		.align	2
 341              		.global	counterPolarC_WriteControlRegister
 342              		.thumb
 343              		.thumb_func
 344              		.type	counterPolarC_WriteControlRegister, %function
 345              	counterPolarC_WriteControlRegister:
 346              	.LFB7:
 287:.\Generated_Source\PSoC5/counterPolarC.c **** 
 288:.\Generated_Source\PSoC5/counterPolarC.c **** 
 289:.\Generated_Source\PSoC5/counterPolarC.c **** /*******************************************************************************
 290:.\Generated_Source\PSoC5/counterPolarC.c **** * Function Name: counterPolarC_WriteControlRegister
 291:.\Generated_Source\PSoC5/counterPolarC.c **** ********************************************************************************
 292:.\Generated_Source\PSoC5/counterPolarC.c **** * Summary:
 293:.\Generated_Source\PSoC5/counterPolarC.c **** *   Sets the bit-field of the control register.  This function should use
 294:.\Generated_Source\PSoC5/counterPolarC.c **** *       defined types for the bit-field information as the bits in this
 295:.\Generated_Source\PSoC5/counterPolarC.c **** *       register may be permuteable.
 296:.\Generated_Source\PSoC5/counterPolarC.c **** *
 297:.\Generated_Source\PSoC5/counterPolarC.c **** * Parameters:  
 298:.\Generated_Source\PSoC5/counterPolarC.c **** *  void
 299:.\Generated_Source\PSoC5/counterPolarC.c **** *
 300:.\Generated_Source\PSoC5/counterPolarC.c **** * Return: 
 301:.\Generated_Source\PSoC5/counterPolarC.c **** *  (uint8) The contents of the control register
 302:.\Generated_Source\PSoC5/counterPolarC.c **** *
 303:.\Generated_Source\PSoC5/counterPolarC.c **** *******************************************************************************/
 304:.\Generated_Source\PSoC5/counterPolarC.c **** void    counterPolarC_WriteControlRegister(uint8 control) 
 305:.\Generated_Source\PSoC5/counterPolarC.c **** {
 347              		.loc 1 305 0
 348              		.cfi_startproc
 349              		@ args = 0, pretend = 0, frame = 8
 350              		@ frame_needed = 1, uses_anonymous_args = 0
 351              		@ link register save eliminated.
 352 0000 80B4     		push	{r7}
 353              	.LCFI16:
 354              		.cfi_def_cfa_offset 4
 355 0002 83B0     		sub	sp, sp, #12
 356              	.LCFI17:
 357              		.cfi_def_cfa_offset 16
 358 0004 00AF     		add	r7, sp, #0
 359              		.cfi_offset 7, -4
 360              	.LCFI18:
 361              		.cfi_def_cfa_register 7
 362 0006 0346     		mov	r3, r0
 363 0008 FB71     		strb	r3, [r7, #7]
 306:.\Generated_Source\PSoC5/counterPolarC.c ****     counterPolarC_CONTROL = control;
 364              		.loc 1 306 0
 365 000a 46F27453 		movw	r3, #:lower16:1073767796
 366 000e C4F20003 		movt	r3, #:upper16:1073767796
 367 0012 FA79     		ldrb	r2, [r7, #7]
 368 0014 1A70     		strb	r2, [r3, #0]
 307:.\Generated_Source\PSoC5/counterPolarC.c **** }
 369              		.loc 1 307 0
 370 0016 07F10C07 		add	r7, r7, #12
 371 001a BD46     		mov	sp, r7
 372 001c 80BC     		pop	{r7}
 373 001e 7047     		bx	lr
ARM GAS  C:\Users\bryan.lee\AppData\Local\Temp\ccgGTGls.s 			page 13


 374              		.cfi_endproc
 375              	.LFE7:
 376              		.size	counterPolarC_WriteControlRegister, .-counterPolarC_WriteControlRegister
 377              		.section	.text.counterPolarC_WriteCounter,"ax",%progbits
 378              		.align	2
 379              		.global	counterPolarC_WriteCounter
 380              		.thumb
 381              		.thumb_func
 382              		.type	counterPolarC_WriteCounter, %function
 383              	counterPolarC_WriteCounter:
 384              	.LFB8:
 308:.\Generated_Source\PSoC5/counterPolarC.c **** 
 309:.\Generated_Source\PSoC5/counterPolarC.c **** #endif  /* (!counterPolarC_ControlRegRemoved) */
 310:.\Generated_Source\PSoC5/counterPolarC.c **** 
 311:.\Generated_Source\PSoC5/counterPolarC.c **** 
 312:.\Generated_Source\PSoC5/counterPolarC.c **** #if (!(counterPolarC_UsingFixedFunction && (CY_PSOC5A)))
 313:.\Generated_Source\PSoC5/counterPolarC.c **** /*******************************************************************************
 314:.\Generated_Source\PSoC5/counterPolarC.c **** * Function Name: counterPolarC_WriteCounter
 315:.\Generated_Source\PSoC5/counterPolarC.c **** ********************************************************************************
 316:.\Generated_Source\PSoC5/counterPolarC.c **** * Summary:
 317:.\Generated_Source\PSoC5/counterPolarC.c **** *   This funtion is used to set the counter to a specific value
 318:.\Generated_Source\PSoC5/counterPolarC.c **** *
 319:.\Generated_Source\PSoC5/counterPolarC.c **** * Parameters:  
 320:.\Generated_Source\PSoC5/counterPolarC.c **** *  counter:  New counter value. 
 321:.\Generated_Source\PSoC5/counterPolarC.c **** *
 322:.\Generated_Source\PSoC5/counterPolarC.c **** * Return: 
 323:.\Generated_Source\PSoC5/counterPolarC.c **** *  void 
 324:.\Generated_Source\PSoC5/counterPolarC.c **** *
 325:.\Generated_Source\PSoC5/counterPolarC.c **** *******************************************************************************/
 326:.\Generated_Source\PSoC5/counterPolarC.c **** void counterPolarC_WriteCounter(uint8 counter) \
 327:.\Generated_Source\PSoC5/counterPolarC.c ****                                    
 328:.\Generated_Source\PSoC5/counterPolarC.c **** {
 385              		.loc 1 328 0
 386              		.cfi_startproc
 387              		@ args = 0, pretend = 0, frame = 8
 388              		@ frame_needed = 1, uses_anonymous_args = 0
 389              		@ link register save eliminated.
 390 0000 80B4     		push	{r7}
 391              	.LCFI19:
 392              		.cfi_def_cfa_offset 4
 393 0002 83B0     		sub	sp, sp, #12
 394              	.LCFI20:
 395              		.cfi_def_cfa_offset 16
 396 0004 00AF     		add	r7, sp, #0
 397              		.cfi_offset 7, -4
 398              	.LCFI21:
 399              		.cfi_def_cfa_register 7
 400 0006 0346     		mov	r3, r0
 401 0008 FB71     		strb	r3, [r7, #7]
 329:.\Generated_Source\PSoC5/counterPolarC.c ****     #if(counterPolarC_UsingFixedFunction)
 330:.\Generated_Source\PSoC5/counterPolarC.c ****         /* assert if block is already enabled */
 331:.\Generated_Source\PSoC5/counterPolarC.c ****         CYASSERT (0u == (counterPolarC_GLOBAL_ENABLE & counterPolarC_BLOCK_EN_MASK));
 332:.\Generated_Source\PSoC5/counterPolarC.c ****         /* If block is disabled, enable it and then write the counter */
 333:.\Generated_Source\PSoC5/counterPolarC.c ****         counterPolarC_GLOBAL_ENABLE |= counterPolarC_BLOCK_EN_MASK;
 334:.\Generated_Source\PSoC5/counterPolarC.c ****         CY_SET_REG16(counterPolarC_COUNTER_LSB_PTR, (uint16)counter);
 335:.\Generated_Source\PSoC5/counterPolarC.c ****         counterPolarC_GLOBAL_ENABLE &= ((uint8)(~counterPolarC_BLOCK_EN_MASK));
 336:.\Generated_Source\PSoC5/counterPolarC.c ****     #else
ARM GAS  C:\Users\bryan.lee\AppData\Local\Temp\ccgGTGls.s 			page 14


 337:.\Generated_Source\PSoC5/counterPolarC.c ****         CY_SET_REG8(counterPolarC_COUNTER_LSB_PTR, counter);
 402              		.loc 1 337 0
 403 000a 46F20553 		movw	r3, #:lower16:1073767685
 404 000e C4F20003 		movt	r3, #:upper16:1073767685
 405 0012 FA79     		ldrb	r2, [r7, #7]
 406 0014 1A70     		strb	r2, [r3, #0]
 338:.\Generated_Source\PSoC5/counterPolarC.c ****     #endif /* (counterPolarC_UsingFixedFunction) */
 339:.\Generated_Source\PSoC5/counterPolarC.c **** }
 407              		.loc 1 339 0
 408 0016 07F10C07 		add	r7, r7, #12
 409 001a BD46     		mov	sp, r7
 410 001c 80BC     		pop	{r7}
 411 001e 7047     		bx	lr
 412              		.cfi_endproc
 413              	.LFE8:
 414              		.size	counterPolarC_WriteCounter, .-counterPolarC_WriteCounter
 415              		.section	.text.counterPolarC_ReadCounter,"ax",%progbits
 416              		.align	2
 417              		.global	counterPolarC_ReadCounter
 418              		.thumb
 419              		.thumb_func
 420              		.type	counterPolarC_ReadCounter, %function
 421              	counterPolarC_ReadCounter:
 422              	.LFB9:
 340:.\Generated_Source\PSoC5/counterPolarC.c **** #endif /* (!(counterPolarC_UsingFixedFunction && (CY_PSOC5A))) */
 341:.\Generated_Source\PSoC5/counterPolarC.c **** 
 342:.\Generated_Source\PSoC5/counterPolarC.c **** 
 343:.\Generated_Source\PSoC5/counterPolarC.c **** /*******************************************************************************
 344:.\Generated_Source\PSoC5/counterPolarC.c **** * Function Name: counterPolarC_ReadCounter
 345:.\Generated_Source\PSoC5/counterPolarC.c **** ********************************************************************************
 346:.\Generated_Source\PSoC5/counterPolarC.c **** * Summary:
 347:.\Generated_Source\PSoC5/counterPolarC.c **** * Returns the current value of the counter.  It doesn't matter
 348:.\Generated_Source\PSoC5/counterPolarC.c **** * if the counter is enabled or running.
 349:.\Generated_Source\PSoC5/counterPolarC.c **** *
 350:.\Generated_Source\PSoC5/counterPolarC.c **** * Parameters:  
 351:.\Generated_Source\PSoC5/counterPolarC.c **** *  void:  
 352:.\Generated_Source\PSoC5/counterPolarC.c **** *
 353:.\Generated_Source\PSoC5/counterPolarC.c **** * Return: 
 354:.\Generated_Source\PSoC5/counterPolarC.c **** *  (uint8) The present value of the counter.
 355:.\Generated_Source\PSoC5/counterPolarC.c **** *
 356:.\Generated_Source\PSoC5/counterPolarC.c **** *******************************************************************************/
 357:.\Generated_Source\PSoC5/counterPolarC.c **** uint8 counterPolarC_ReadCounter(void) 
 358:.\Generated_Source\PSoC5/counterPolarC.c **** {
 423              		.loc 1 358 0
 424              		.cfi_startproc
 425              		@ args = 0, pretend = 0, frame = 0
 426              		@ frame_needed = 1, uses_anonymous_args = 0
 427              		@ link register save eliminated.
 428 0000 80B4     		push	{r7}
 429              	.LCFI22:
 430              		.cfi_def_cfa_offset 4
 431 0002 00AF     		add	r7, sp, #0
 432              		.cfi_offset 7, -4
 433              	.LCFI23:
 434              		.cfi_def_cfa_register 7
 359:.\Generated_Source\PSoC5/counterPolarC.c ****     /* Force capture by reading Accumulator */
 360:.\Generated_Source\PSoC5/counterPolarC.c ****     /* Must first do a software capture to be able to read the counter */
ARM GAS  C:\Users\bryan.lee\AppData\Local\Temp\ccgGTGls.s 			page 15


 361:.\Generated_Source\PSoC5/counterPolarC.c ****     /* It is up to the user code to make sure there isn't already captured data in the FIFO */
 362:.\Generated_Source\PSoC5/counterPolarC.c ****     #if(counterPolarC_UsingFixedFunction)
 363:.\Generated_Source\PSoC5/counterPolarC.c **** 		(void)CY_GET_REG16(counterPolarC_COUNTER_LSB_PTR);
 364:.\Generated_Source\PSoC5/counterPolarC.c **** 	#else
 365:.\Generated_Source\PSoC5/counterPolarC.c **** 		(void)CY_GET_REG8(counterPolarC_COUNTER_LSB_PTR_8BIT);
 435              		.loc 1 365 0
 436 0004 46F20553 		movw	r3, #:lower16:1073767685
 437 0008 C4F20003 		movt	r3, #:upper16:1073767685
 438 000c 1B78     		ldrb	r3, [r3, #0]
 366:.\Generated_Source\PSoC5/counterPolarC.c **** 	#endif/* (counterPolarC_UsingFixedFunction) */
 367:.\Generated_Source\PSoC5/counterPolarC.c ****     
 368:.\Generated_Source\PSoC5/counterPolarC.c ****     /* Read the data from the FIFO (or capture register for Fixed Function)*/
 369:.\Generated_Source\PSoC5/counterPolarC.c ****     #if(counterPolarC_UsingFixedFunction)
 370:.\Generated_Source\PSoC5/counterPolarC.c ****         return ((uint8)CY_GET_REG16(counterPolarC_STATICCOUNT_LSB_PTR));
 371:.\Generated_Source\PSoC5/counterPolarC.c ****     #else
 372:.\Generated_Source\PSoC5/counterPolarC.c ****         return (CY_GET_REG8(counterPolarC_STATICCOUNT_LSB_PTR));
 439              		.loc 1 372 0
 440 000e 46F24553 		movw	r3, #:lower16:1073767749
 441 0012 C4F20003 		movt	r3, #:upper16:1073767749
 442 0016 1B78     		ldrb	r3, [r3, #0]
 443 0018 DBB2     		uxtb	r3, r3
 373:.\Generated_Source\PSoC5/counterPolarC.c ****     #endif /* (counterPolarC_UsingFixedFunction) */
 374:.\Generated_Source\PSoC5/counterPolarC.c **** }
 444              		.loc 1 374 0
 445 001a 1846     		mov	r0, r3
 446 001c BD46     		mov	sp, r7
 447 001e 80BC     		pop	{r7}
 448 0020 7047     		bx	lr
 449              		.cfi_endproc
 450              	.LFE9:
 451              		.size	counterPolarC_ReadCounter, .-counterPolarC_ReadCounter
 452 0022 00BF     		.section	.text.counterPolarC_ReadCapture,"ax",%progbits
 453              		.align	2
 454              		.global	counterPolarC_ReadCapture
 455              		.thumb
 456              		.thumb_func
 457              		.type	counterPolarC_ReadCapture, %function
 458              	counterPolarC_ReadCapture:
 459              	.LFB10:
 375:.\Generated_Source\PSoC5/counterPolarC.c **** 
 376:.\Generated_Source\PSoC5/counterPolarC.c **** 
 377:.\Generated_Source\PSoC5/counterPolarC.c **** /*******************************************************************************
 378:.\Generated_Source\PSoC5/counterPolarC.c **** * Function Name: counterPolarC_ReadCapture
 379:.\Generated_Source\PSoC5/counterPolarC.c **** ********************************************************************************
 380:.\Generated_Source\PSoC5/counterPolarC.c **** * Summary:
 381:.\Generated_Source\PSoC5/counterPolarC.c **** *   This function returns the last value captured.
 382:.\Generated_Source\PSoC5/counterPolarC.c **** *
 383:.\Generated_Source\PSoC5/counterPolarC.c **** * Parameters:  
 384:.\Generated_Source\PSoC5/counterPolarC.c **** *  void
 385:.\Generated_Source\PSoC5/counterPolarC.c **** *
 386:.\Generated_Source\PSoC5/counterPolarC.c **** * Return: 
 387:.\Generated_Source\PSoC5/counterPolarC.c **** *  (uint8) Present Capture value.
 388:.\Generated_Source\PSoC5/counterPolarC.c **** *
 389:.\Generated_Source\PSoC5/counterPolarC.c **** *******************************************************************************/
 390:.\Generated_Source\PSoC5/counterPolarC.c **** uint8 counterPolarC_ReadCapture(void) 
 391:.\Generated_Source\PSoC5/counterPolarC.c **** {
 460              		.loc 1 391 0
ARM GAS  C:\Users\bryan.lee\AppData\Local\Temp\ccgGTGls.s 			page 16


 461              		.cfi_startproc
 462              		@ args = 0, pretend = 0, frame = 0
 463              		@ frame_needed = 1, uses_anonymous_args = 0
 464              		@ link register save eliminated.
 465 0000 80B4     		push	{r7}
 466              	.LCFI24:
 467              		.cfi_def_cfa_offset 4
 468 0002 00AF     		add	r7, sp, #0
 469              		.cfi_offset 7, -4
 470              	.LCFI25:
 471              		.cfi_def_cfa_register 7
 392:.\Generated_Source\PSoC5/counterPolarC.c ****     #if(counterPolarC_UsingFixedFunction)
 393:.\Generated_Source\PSoC5/counterPolarC.c ****         return ((uint8)CY_GET_REG16(counterPolarC_STATICCOUNT_LSB_PTR));
 394:.\Generated_Source\PSoC5/counterPolarC.c ****     #else
 395:.\Generated_Source\PSoC5/counterPolarC.c ****         return (CY_GET_REG8(counterPolarC_STATICCOUNT_LSB_PTR));
 472              		.loc 1 395 0
 473 0004 46F24553 		movw	r3, #:lower16:1073767749
 474 0008 C4F20003 		movt	r3, #:upper16:1073767749
 475 000c 1B78     		ldrb	r3, [r3, #0]
 476 000e DBB2     		uxtb	r3, r3
 396:.\Generated_Source\PSoC5/counterPolarC.c ****     #endif /* (counterPolarC_UsingFixedFunction) */
 397:.\Generated_Source\PSoC5/counterPolarC.c **** }
 477              		.loc 1 397 0
 478 0010 1846     		mov	r0, r3
 479 0012 BD46     		mov	sp, r7
 480 0014 80BC     		pop	{r7}
 481 0016 7047     		bx	lr
 482              		.cfi_endproc
 483              	.LFE10:
 484              		.size	counterPolarC_ReadCapture, .-counterPolarC_ReadCapture
 485              		.section	.text.counterPolarC_WritePeriod,"ax",%progbits
 486              		.align	2
 487              		.global	counterPolarC_WritePeriod
 488              		.thumb
 489              		.thumb_func
 490              		.type	counterPolarC_WritePeriod, %function
 491              	counterPolarC_WritePeriod:
 492              	.LFB11:
 398:.\Generated_Source\PSoC5/counterPolarC.c **** 
 399:.\Generated_Source\PSoC5/counterPolarC.c **** 
 400:.\Generated_Source\PSoC5/counterPolarC.c **** /*******************************************************************************
 401:.\Generated_Source\PSoC5/counterPolarC.c **** * Function Name: counterPolarC_WritePeriod
 402:.\Generated_Source\PSoC5/counterPolarC.c **** ********************************************************************************
 403:.\Generated_Source\PSoC5/counterPolarC.c **** * Summary:
 404:.\Generated_Source\PSoC5/counterPolarC.c **** * Changes the period of the counter.  The new period 
 405:.\Generated_Source\PSoC5/counterPolarC.c **** * will be loaded the next time terminal count is detected.
 406:.\Generated_Source\PSoC5/counterPolarC.c **** *
 407:.\Generated_Source\PSoC5/counterPolarC.c **** * Parameters:  
 408:.\Generated_Source\PSoC5/counterPolarC.c **** *  period: (uint8) A value of 0 will result in
 409:.\Generated_Source\PSoC5/counterPolarC.c **** *         the counter remaining at zero.  
 410:.\Generated_Source\PSoC5/counterPolarC.c **** *
 411:.\Generated_Source\PSoC5/counterPolarC.c **** * Return: 
 412:.\Generated_Source\PSoC5/counterPolarC.c **** *  void
 413:.\Generated_Source\PSoC5/counterPolarC.c **** *
 414:.\Generated_Source\PSoC5/counterPolarC.c **** *******************************************************************************/
 415:.\Generated_Source\PSoC5/counterPolarC.c **** void counterPolarC_WritePeriod(uint8 period) 
 416:.\Generated_Source\PSoC5/counterPolarC.c **** {
ARM GAS  C:\Users\bryan.lee\AppData\Local\Temp\ccgGTGls.s 			page 17


 493              		.loc 1 416 0
 494              		.cfi_startproc
 495              		@ args = 0, pretend = 0, frame = 8
 496              		@ frame_needed = 1, uses_anonymous_args = 0
 497              		@ link register save eliminated.
 498 0000 80B4     		push	{r7}
 499              	.LCFI26:
 500              		.cfi_def_cfa_offset 4
 501 0002 83B0     		sub	sp, sp, #12
 502              	.LCFI27:
 503              		.cfi_def_cfa_offset 16
 504 0004 00AF     		add	r7, sp, #0
 505              		.cfi_offset 7, -4
 506              	.LCFI28:
 507              		.cfi_def_cfa_register 7
 508 0006 0346     		mov	r3, r0
 509 0008 FB71     		strb	r3, [r7, #7]
 417:.\Generated_Source\PSoC5/counterPolarC.c ****     #if(counterPolarC_UsingFixedFunction)
 418:.\Generated_Source\PSoC5/counterPolarC.c ****         CY_SET_REG16(counterPolarC_PERIOD_LSB_PTR,(uint16)period);
 419:.\Generated_Source\PSoC5/counterPolarC.c ****     #else
 420:.\Generated_Source\PSoC5/counterPolarC.c ****         CY_SET_REG8(counterPolarC_PERIOD_LSB_PTR, period);
 510              		.loc 1 420 0
 511 000a 46F22553 		movw	r3, #:lower16:1073767717
 512 000e C4F20003 		movt	r3, #:upper16:1073767717
 513 0012 FA79     		ldrb	r2, [r7, #7]
 514 0014 1A70     		strb	r2, [r3, #0]
 421:.\Generated_Source\PSoC5/counterPolarC.c ****     #endif /* (counterPolarC_UsingFixedFunction) */
 422:.\Generated_Source\PSoC5/counterPolarC.c **** }
 515              		.loc 1 422 0
 516 0016 07F10C07 		add	r7, r7, #12
 517 001a BD46     		mov	sp, r7
 518 001c 80BC     		pop	{r7}
 519 001e 7047     		bx	lr
 520              		.cfi_endproc
 521              	.LFE11:
 522              		.size	counterPolarC_WritePeriod, .-counterPolarC_WritePeriod
 523              		.section	.text.counterPolarC_ReadPeriod,"ax",%progbits
 524              		.align	2
 525              		.global	counterPolarC_ReadPeriod
 526              		.thumb
 527              		.thumb_func
 528              		.type	counterPolarC_ReadPeriod, %function
 529              	counterPolarC_ReadPeriod:
 530              	.LFB12:
 423:.\Generated_Source\PSoC5/counterPolarC.c **** 
 424:.\Generated_Source\PSoC5/counterPolarC.c **** 
 425:.\Generated_Source\PSoC5/counterPolarC.c **** /*******************************************************************************
 426:.\Generated_Source\PSoC5/counterPolarC.c **** * Function Name: counterPolarC_ReadPeriod
 427:.\Generated_Source\PSoC5/counterPolarC.c **** ********************************************************************************
 428:.\Generated_Source\PSoC5/counterPolarC.c **** * Summary:
 429:.\Generated_Source\PSoC5/counterPolarC.c **** * Reads the current period value without affecting counter operation.
 430:.\Generated_Source\PSoC5/counterPolarC.c **** *
 431:.\Generated_Source\PSoC5/counterPolarC.c **** * Parameters:  
 432:.\Generated_Source\PSoC5/counterPolarC.c **** *  void:  
 433:.\Generated_Source\PSoC5/counterPolarC.c **** *
 434:.\Generated_Source\PSoC5/counterPolarC.c **** * Return: 
 435:.\Generated_Source\PSoC5/counterPolarC.c **** *  (uint8) Present period value.
ARM GAS  C:\Users\bryan.lee\AppData\Local\Temp\ccgGTGls.s 			page 18


 436:.\Generated_Source\PSoC5/counterPolarC.c **** *
 437:.\Generated_Source\PSoC5/counterPolarC.c **** *******************************************************************************/
 438:.\Generated_Source\PSoC5/counterPolarC.c **** uint8 counterPolarC_ReadPeriod(void) 
 439:.\Generated_Source\PSoC5/counterPolarC.c **** {
 531              		.loc 1 439 0
 532              		.cfi_startproc
 533              		@ args = 0, pretend = 0, frame = 0
 534              		@ frame_needed = 1, uses_anonymous_args = 0
 535              		@ link register save eliminated.
 536 0000 80B4     		push	{r7}
 537              	.LCFI29:
 538              		.cfi_def_cfa_offset 4
 539 0002 00AF     		add	r7, sp, #0
 540              		.cfi_offset 7, -4
 541              	.LCFI30:
 542              		.cfi_def_cfa_register 7
 440:.\Generated_Source\PSoC5/counterPolarC.c ****     #if(counterPolarC_UsingFixedFunction)
 441:.\Generated_Source\PSoC5/counterPolarC.c ****         return ((uint8)CY_GET_REG16(counterPolarC_PERIOD_LSB_PTR));
 442:.\Generated_Source\PSoC5/counterPolarC.c ****     #else
 443:.\Generated_Source\PSoC5/counterPolarC.c ****         return (CY_GET_REG8(counterPolarC_PERIOD_LSB_PTR));
 543              		.loc 1 443 0
 544 0004 46F22553 		movw	r3, #:lower16:1073767717
 545 0008 C4F20003 		movt	r3, #:upper16:1073767717
 546 000c 1B78     		ldrb	r3, [r3, #0]
 547 000e DBB2     		uxtb	r3, r3
 444:.\Generated_Source\PSoC5/counterPolarC.c ****     #endif /* (counterPolarC_UsingFixedFunction) */
 445:.\Generated_Source\PSoC5/counterPolarC.c **** }
 548              		.loc 1 445 0
 549 0010 1846     		mov	r0, r3
 550 0012 BD46     		mov	sp, r7
 551 0014 80BC     		pop	{r7}
 552 0016 7047     		bx	lr
 553              		.cfi_endproc
 554              	.LFE12:
 555              		.size	counterPolarC_ReadPeriod, .-counterPolarC_ReadPeriod
 556              		.section	.text.counterPolarC_WriteCompare,"ax",%progbits
 557              		.align	2
 558              		.global	counterPolarC_WriteCompare
 559              		.thumb
 560              		.thumb_func
 561              		.type	counterPolarC_WriteCompare, %function
 562              	counterPolarC_WriteCompare:
 563              	.LFB13:
 446:.\Generated_Source\PSoC5/counterPolarC.c **** 
 447:.\Generated_Source\PSoC5/counterPolarC.c **** 
 448:.\Generated_Source\PSoC5/counterPolarC.c **** #if (!counterPolarC_UsingFixedFunction)
 449:.\Generated_Source\PSoC5/counterPolarC.c **** /*******************************************************************************
 450:.\Generated_Source\PSoC5/counterPolarC.c **** * Function Name: counterPolarC_WriteCompare
 451:.\Generated_Source\PSoC5/counterPolarC.c **** ********************************************************************************
 452:.\Generated_Source\PSoC5/counterPolarC.c **** * Summary:
 453:.\Generated_Source\PSoC5/counterPolarC.c **** * Changes the compare value.  The compare output will 
 454:.\Generated_Source\PSoC5/counterPolarC.c **** * reflect the new value on the next UDB clock.  The compare output will be 
 455:.\Generated_Source\PSoC5/counterPolarC.c **** * driven high when the present counter value compares true based on the 
 456:.\Generated_Source\PSoC5/counterPolarC.c **** * configured compare mode setting. 
 457:.\Generated_Source\PSoC5/counterPolarC.c **** *
 458:.\Generated_Source\PSoC5/counterPolarC.c **** * Parameters:  
 459:.\Generated_Source\PSoC5/counterPolarC.c **** *  Compare:  New compare value. 
ARM GAS  C:\Users\bryan.lee\AppData\Local\Temp\ccgGTGls.s 			page 19


 460:.\Generated_Source\PSoC5/counterPolarC.c **** *
 461:.\Generated_Source\PSoC5/counterPolarC.c **** * Return: 
 462:.\Generated_Source\PSoC5/counterPolarC.c **** *  void
 463:.\Generated_Source\PSoC5/counterPolarC.c **** *
 464:.\Generated_Source\PSoC5/counterPolarC.c **** *******************************************************************************/
 465:.\Generated_Source\PSoC5/counterPolarC.c **** void counterPolarC_WriteCompare(uint8 compare) \
 466:.\Generated_Source\PSoC5/counterPolarC.c ****                                    
 467:.\Generated_Source\PSoC5/counterPolarC.c **** {
 564              		.loc 1 467 0
 565              		.cfi_startproc
 566              		@ args = 0, pretend = 0, frame = 8
 567              		@ frame_needed = 1, uses_anonymous_args = 0
 568              		@ link register save eliminated.
 569 0000 80B4     		push	{r7}
 570              	.LCFI31:
 571              		.cfi_def_cfa_offset 4
 572 0002 83B0     		sub	sp, sp, #12
 573              	.LCFI32:
 574              		.cfi_def_cfa_offset 16
 575 0004 00AF     		add	r7, sp, #0
 576              		.cfi_offset 7, -4
 577              	.LCFI33:
 578              		.cfi_def_cfa_register 7
 579 0006 0346     		mov	r3, r0
 580 0008 FB71     		strb	r3, [r7, #7]
 468:.\Generated_Source\PSoC5/counterPolarC.c ****     #if(counterPolarC_UsingFixedFunction)
 469:.\Generated_Source\PSoC5/counterPolarC.c ****         CY_SET_REG16(counterPolarC_COMPARE_LSB_PTR, (uint16)compare);
 470:.\Generated_Source\PSoC5/counterPolarC.c ****     #else
 471:.\Generated_Source\PSoC5/counterPolarC.c ****         CY_SET_REG8(counterPolarC_COMPARE_LSB_PTR, compare);
 581              		.loc 1 471 0
 582 000a 46F23553 		movw	r3, #:lower16:1073767733
 583 000e C4F20003 		movt	r3, #:upper16:1073767733
 584 0012 FA79     		ldrb	r2, [r7, #7]
 585 0014 1A70     		strb	r2, [r3, #0]
 472:.\Generated_Source\PSoC5/counterPolarC.c ****     #endif /* (counterPolarC_UsingFixedFunction) */
 473:.\Generated_Source\PSoC5/counterPolarC.c **** }
 586              		.loc 1 473 0
 587 0016 07F10C07 		add	r7, r7, #12
 588 001a BD46     		mov	sp, r7
 589 001c 80BC     		pop	{r7}
 590 001e 7047     		bx	lr
 591              		.cfi_endproc
 592              	.LFE13:
 593              		.size	counterPolarC_WriteCompare, .-counterPolarC_WriteCompare
 594              		.section	.text.counterPolarC_ReadCompare,"ax",%progbits
 595              		.align	2
 596              		.global	counterPolarC_ReadCompare
 597              		.thumb
 598              		.thumb_func
 599              		.type	counterPolarC_ReadCompare, %function
 600              	counterPolarC_ReadCompare:
 601              	.LFB14:
 474:.\Generated_Source\PSoC5/counterPolarC.c **** 
 475:.\Generated_Source\PSoC5/counterPolarC.c **** 
 476:.\Generated_Source\PSoC5/counterPolarC.c **** /*******************************************************************************
 477:.\Generated_Source\PSoC5/counterPolarC.c **** * Function Name: counterPolarC_ReadCompare
 478:.\Generated_Source\PSoC5/counterPolarC.c **** ********************************************************************************
ARM GAS  C:\Users\bryan.lee\AppData\Local\Temp\ccgGTGls.s 			page 20


 479:.\Generated_Source\PSoC5/counterPolarC.c **** * Summary:
 480:.\Generated_Source\PSoC5/counterPolarC.c **** * Returns the compare value.
 481:.\Generated_Source\PSoC5/counterPolarC.c **** *
 482:.\Generated_Source\PSoC5/counterPolarC.c **** * Parameters:  
 483:.\Generated_Source\PSoC5/counterPolarC.c **** *  void:
 484:.\Generated_Source\PSoC5/counterPolarC.c **** *
 485:.\Generated_Source\PSoC5/counterPolarC.c **** * Return: 
 486:.\Generated_Source\PSoC5/counterPolarC.c **** *  (uint8) Present compare value.
 487:.\Generated_Source\PSoC5/counterPolarC.c **** *
 488:.\Generated_Source\PSoC5/counterPolarC.c **** *******************************************************************************/
 489:.\Generated_Source\PSoC5/counterPolarC.c **** uint8 counterPolarC_ReadCompare(void) 
 490:.\Generated_Source\PSoC5/counterPolarC.c **** {
 602              		.loc 1 490 0
 603              		.cfi_startproc
 604              		@ args = 0, pretend = 0, frame = 0
 605              		@ frame_needed = 1, uses_anonymous_args = 0
 606              		@ link register save eliminated.
 607 0000 80B4     		push	{r7}
 608              	.LCFI34:
 609              		.cfi_def_cfa_offset 4
 610 0002 00AF     		add	r7, sp, #0
 611              		.cfi_offset 7, -4
 612              	.LCFI35:
 613              		.cfi_def_cfa_register 7
 491:.\Generated_Source\PSoC5/counterPolarC.c ****     return (CY_GET_REG8(counterPolarC_COMPARE_LSB_PTR));
 614              		.loc 1 491 0
 615 0004 46F23553 		movw	r3, #:lower16:1073767733
 616 0008 C4F20003 		movt	r3, #:upper16:1073767733
 617 000c 1B78     		ldrb	r3, [r3, #0]
 618 000e DBB2     		uxtb	r3, r3
 492:.\Generated_Source\PSoC5/counterPolarC.c **** }
 619              		.loc 1 492 0
 620 0010 1846     		mov	r0, r3
 621 0012 BD46     		mov	sp, r7
 622 0014 80BC     		pop	{r7}
 623 0016 7047     		bx	lr
 624              		.cfi_endproc
 625              	.LFE14:
 626              		.size	counterPolarC_ReadCompare, .-counterPolarC_ReadCompare
 627              		.section	.text.counterPolarC_ClearFIFO,"ax",%progbits
 628              		.align	2
 629              		.global	counterPolarC_ClearFIFO
 630              		.thumb
 631              		.thumb_func
 632              		.type	counterPolarC_ClearFIFO, %function
 633              	counterPolarC_ClearFIFO:
 634              	.LFB15:
 493:.\Generated_Source\PSoC5/counterPolarC.c **** 
 494:.\Generated_Source\PSoC5/counterPolarC.c **** 
 495:.\Generated_Source\PSoC5/counterPolarC.c **** #if (counterPolarC_COMPARE_MODE_SOFTWARE)
 496:.\Generated_Source\PSoC5/counterPolarC.c **** /*******************************************************************************
 497:.\Generated_Source\PSoC5/counterPolarC.c **** * Function Name: counterPolarC_SetCompareMode
 498:.\Generated_Source\PSoC5/counterPolarC.c **** ********************************************************************************
 499:.\Generated_Source\PSoC5/counterPolarC.c **** * Summary:
 500:.\Generated_Source\PSoC5/counterPolarC.c **** *  Sets the software controlled Compare Mode.
 501:.\Generated_Source\PSoC5/counterPolarC.c **** *
 502:.\Generated_Source\PSoC5/counterPolarC.c **** * Parameters:
ARM GAS  C:\Users\bryan.lee\AppData\Local\Temp\ccgGTGls.s 			page 21


 503:.\Generated_Source\PSoC5/counterPolarC.c **** *  compareMode:  Compare Mode Enumerated Type.
 504:.\Generated_Source\PSoC5/counterPolarC.c **** *
 505:.\Generated_Source\PSoC5/counterPolarC.c **** * Return:
 506:.\Generated_Source\PSoC5/counterPolarC.c **** *  void
 507:.\Generated_Source\PSoC5/counterPolarC.c **** *
 508:.\Generated_Source\PSoC5/counterPolarC.c **** *******************************************************************************/
 509:.\Generated_Source\PSoC5/counterPolarC.c **** void counterPolarC_SetCompareMode(uint8 compareMode) 
 510:.\Generated_Source\PSoC5/counterPolarC.c **** {
 511:.\Generated_Source\PSoC5/counterPolarC.c ****     /* Clear the compare mode bits in the control register */
 512:.\Generated_Source\PSoC5/counterPolarC.c ****     counterPolarC_CONTROL &= ((uint8)(~counterPolarC_CTRL_CMPMODE_MASK));
 513:.\Generated_Source\PSoC5/counterPolarC.c ****     
 514:.\Generated_Source\PSoC5/counterPolarC.c ****     /* Write the new setting */
 515:.\Generated_Source\PSoC5/counterPolarC.c ****     counterPolarC_CONTROL |= compareMode;
 516:.\Generated_Source\PSoC5/counterPolarC.c **** }
 517:.\Generated_Source\PSoC5/counterPolarC.c **** #endif  /* (counterPolarC_COMPARE_MODE_SOFTWARE) */
 518:.\Generated_Source\PSoC5/counterPolarC.c **** 
 519:.\Generated_Source\PSoC5/counterPolarC.c **** 
 520:.\Generated_Source\PSoC5/counterPolarC.c **** #if (counterPolarC_CAPTURE_MODE_SOFTWARE)
 521:.\Generated_Source\PSoC5/counterPolarC.c **** /*******************************************************************************
 522:.\Generated_Source\PSoC5/counterPolarC.c **** * Function Name: counterPolarC_SetCaptureMode
 523:.\Generated_Source\PSoC5/counterPolarC.c **** ********************************************************************************
 524:.\Generated_Source\PSoC5/counterPolarC.c **** * Summary:
 525:.\Generated_Source\PSoC5/counterPolarC.c **** *  Sets the software controlled Capture Mode.
 526:.\Generated_Source\PSoC5/counterPolarC.c **** *
 527:.\Generated_Source\PSoC5/counterPolarC.c **** * Parameters:
 528:.\Generated_Source\PSoC5/counterPolarC.c **** *  captureMode:  Capture Mode Enumerated Type.
 529:.\Generated_Source\PSoC5/counterPolarC.c **** *
 530:.\Generated_Source\PSoC5/counterPolarC.c **** * Return:
 531:.\Generated_Source\PSoC5/counterPolarC.c **** *  void
 532:.\Generated_Source\PSoC5/counterPolarC.c **** *
 533:.\Generated_Source\PSoC5/counterPolarC.c **** *******************************************************************************/
 534:.\Generated_Source\PSoC5/counterPolarC.c **** void counterPolarC_SetCaptureMode(uint8 captureMode) 
 535:.\Generated_Source\PSoC5/counterPolarC.c **** {
 536:.\Generated_Source\PSoC5/counterPolarC.c ****     /* Clear the capture mode bits in the control register */
 537:.\Generated_Source\PSoC5/counterPolarC.c ****     counterPolarC_CONTROL &= ((uint8)(~counterPolarC_CTRL_CAPMODE_MASK));
 538:.\Generated_Source\PSoC5/counterPolarC.c ****     
 539:.\Generated_Source\PSoC5/counterPolarC.c ****     /* Write the new setting */
 540:.\Generated_Source\PSoC5/counterPolarC.c ****     counterPolarC_CONTROL |= ((uint8)((uint8)captureMode << counterPolarC_CTRL_CAPMODE0_SHIFT));
 541:.\Generated_Source\PSoC5/counterPolarC.c **** }
 542:.\Generated_Source\PSoC5/counterPolarC.c **** #endif  /* (counterPolarC_CAPTURE_MODE_SOFTWARE) */
 543:.\Generated_Source\PSoC5/counterPolarC.c **** 
 544:.\Generated_Source\PSoC5/counterPolarC.c **** 
 545:.\Generated_Source\PSoC5/counterPolarC.c **** /*******************************************************************************
 546:.\Generated_Source\PSoC5/counterPolarC.c **** * Function Name: counterPolarC_ClearFIFO
 547:.\Generated_Source\PSoC5/counterPolarC.c **** ********************************************************************************
 548:.\Generated_Source\PSoC5/counterPolarC.c **** * Summary:
 549:.\Generated_Source\PSoC5/counterPolarC.c **** *   This function clears all capture data from the capture FIFO
 550:.\Generated_Source\PSoC5/counterPolarC.c **** *
 551:.\Generated_Source\PSoC5/counterPolarC.c **** * Parameters:  
 552:.\Generated_Source\PSoC5/counterPolarC.c **** *  void:
 553:.\Generated_Source\PSoC5/counterPolarC.c **** *
 554:.\Generated_Source\PSoC5/counterPolarC.c **** * Return: 
 555:.\Generated_Source\PSoC5/counterPolarC.c **** *  None
 556:.\Generated_Source\PSoC5/counterPolarC.c **** *
 557:.\Generated_Source\PSoC5/counterPolarC.c **** *******************************************************************************/
 558:.\Generated_Source\PSoC5/counterPolarC.c **** void counterPolarC_ClearFIFO(void) 
 559:.\Generated_Source\PSoC5/counterPolarC.c **** {
ARM GAS  C:\Users\bryan.lee\AppData\Local\Temp\ccgGTGls.s 			page 22


 635              		.loc 1 559 0
 636              		.cfi_startproc
 637              		@ args = 0, pretend = 0, frame = 0
 638              		@ frame_needed = 1, uses_anonymous_args = 0
 639 0000 80B5     		push	{r7, lr}
 640              	.LCFI36:
 641              		.cfi_def_cfa_offset 8
 642 0002 00AF     		add	r7, sp, #0
 643              		.cfi_offset 14, -4
 644              		.cfi_offset 7, -8
 645              	.LCFI37:
 646              		.cfi_def_cfa_register 7
 560:.\Generated_Source\PSoC5/counterPolarC.c **** 
 561:.\Generated_Source\PSoC5/counterPolarC.c ****     while(0u != (counterPolarC_ReadStatusRegister() & counterPolarC_STATUS_FIFONEMP))
 647              		.loc 1 561 0
 648 0004 01E0     		b	.L33
 649              	.L34:
 562:.\Generated_Source\PSoC5/counterPolarC.c ****     {
 563:.\Generated_Source\PSoC5/counterPolarC.c ****         (void)counterPolarC_ReadCapture();
 650              		.loc 1 563 0
 651 0006 FFF7FEFF 		bl	counterPolarC_ReadCapture
 652              	.L33:
 653              		.loc 1 561 0
 654 000a FFF7FEFF 		bl	counterPolarC_ReadStatusRegister
 655 000e 0346     		mov	r3, r0
 656 0010 03F04003 		and	r3, r3, #64
 657 0014 002B     		cmp	r3, #0
 658 0016 F6D1     		bne	.L34
 564:.\Generated_Source\PSoC5/counterPolarC.c ****     }
 565:.\Generated_Source\PSoC5/counterPolarC.c **** 
 566:.\Generated_Source\PSoC5/counterPolarC.c **** }
 659              		.loc 1 566 0
 660 0018 80BD     		pop	{r7, pc}
 661              		.cfi_endproc
 662              	.LFE15:
 663              		.size	counterPolarC_ClearFIFO, .-counterPolarC_ClearFIFO
 664 001a 00BF     		.text
 665              	.Letext0: