ARM GAS  C:\Users\bryan.lee\AppData\Local\Temp\ccmpUOJA.s 			page 1


   1              		.syntax unified
   2              		.cpu cortex-m3
   3              		.fpu softvfp
   4              		.eabi_attribute 20, 1
   5              		.eabi_attribute 21, 1
   6              		.eabi_attribute 23, 3
   7              		.eabi_attribute 24, 1
   8              		.eabi_attribute 25, 1
   9              		.eabi_attribute 26, 1
  10              		.eabi_attribute 30, 6
  11              		.eabi_attribute 18, 4
  12              		.thumb
  13              		.file	"counterPolarC_PM.c"
  20 0000 DC000000 		.text
  20      02007C00 
  20      00000201 
  20      FB0E0D00 
  20      01010101 
  21              	.Ltext0:
  22              		.cfi_sections	.debug_frame
  23              		.bss
  24              		.align	2
  25              	counterPolarC_backup:
  26 0000 00000000 		.space	6
  26      0000
  27 0006 0000     		.section	.text.counterPolarC_SaveConfig,"ax",%progbits
  28              		.align	2
  29              		.global	counterPolarC_SaveConfig
  30              		.thumb
  31              		.thumb_func
  32              		.type	counterPolarC_SaveConfig, %function
  33              	counterPolarC_SaveConfig:
  34              	.LFB0:
  35              		.file 1 ".\\Generated_Source\\PSoC5\\counterPolarC_PM.c"
   1:.\Generated_Source\PSoC5/counterPolarC_PM.c **** /*******************************************************************************
   2:.\Generated_Source\PSoC5/counterPolarC_PM.c **** * File Name: counterPolarC_PM.c  
   3:.\Generated_Source\PSoC5/counterPolarC_PM.c **** * Version 2.40
   4:.\Generated_Source\PSoC5/counterPolarC_PM.c **** *
   5:.\Generated_Source\PSoC5/counterPolarC_PM.c **** *  Description:
   6:.\Generated_Source\PSoC5/counterPolarC_PM.c **** *    This file provides the power management source code to API for the
   7:.\Generated_Source\PSoC5/counterPolarC_PM.c **** *    Counter.  
   8:.\Generated_Source\PSoC5/counterPolarC_PM.c **** *
   9:.\Generated_Source\PSoC5/counterPolarC_PM.c **** *   Note:
  10:.\Generated_Source\PSoC5/counterPolarC_PM.c **** *     None
  11:.\Generated_Source\PSoC5/counterPolarC_PM.c **** *
  12:.\Generated_Source\PSoC5/counterPolarC_PM.c **** *******************************************************************************
  13:.\Generated_Source\PSoC5/counterPolarC_PM.c **** * Copyright 2008-2012, Cypress Semiconductor Corporation.  All rights reserved.
  14:.\Generated_Source\PSoC5/counterPolarC_PM.c **** * You may use this file only in accordance with the license, terms, conditions, 
  15:.\Generated_Source\PSoC5/counterPolarC_PM.c **** * disclaimers, and limitations in the end user license agreement accompanying 
  16:.\Generated_Source\PSoC5/counterPolarC_PM.c **** * the software package with which this file was provided.
  17:.\Generated_Source\PSoC5/counterPolarC_PM.c **** ********************************************************************************/
ARM GAS  C:\Users\bryan.lee\AppData\Local\Temp\ccmpUOJA.s 			page 2


  18:.\Generated_Source\PSoC5/counterPolarC_PM.c **** 
  19:.\Generated_Source\PSoC5/counterPolarC_PM.c **** #include "counterPolarC.h"
  20:.\Generated_Source\PSoC5/counterPolarC_PM.c **** 
  21:.\Generated_Source\PSoC5/counterPolarC_PM.c **** static counterPolarC_backupStruct counterPolarC_backup;
  22:.\Generated_Source\PSoC5/counterPolarC_PM.c **** 
  23:.\Generated_Source\PSoC5/counterPolarC_PM.c **** 
  24:.\Generated_Source\PSoC5/counterPolarC_PM.c **** /*******************************************************************************
  25:.\Generated_Source\PSoC5/counterPolarC_PM.c **** * Function Name: counterPolarC_SaveConfig
  26:.\Generated_Source\PSoC5/counterPolarC_PM.c **** ********************************************************************************
  27:.\Generated_Source\PSoC5/counterPolarC_PM.c **** * Summary:
  28:.\Generated_Source\PSoC5/counterPolarC_PM.c **** *     Save the current user configuration
  29:.\Generated_Source\PSoC5/counterPolarC_PM.c **** *
  30:.\Generated_Source\PSoC5/counterPolarC_PM.c **** * Parameters:  
  31:.\Generated_Source\PSoC5/counterPolarC_PM.c **** *  void
  32:.\Generated_Source\PSoC5/counterPolarC_PM.c **** *
  33:.\Generated_Source\PSoC5/counterPolarC_PM.c **** * Return: 
  34:.\Generated_Source\PSoC5/counterPolarC_PM.c **** *  void
  35:.\Generated_Source\PSoC5/counterPolarC_PM.c **** *
  36:.\Generated_Source\PSoC5/counterPolarC_PM.c **** * Global variables:
  37:.\Generated_Source\PSoC5/counterPolarC_PM.c **** *  counterPolarC_backup:  Variables of this global structure are modified to 
  38:.\Generated_Source\PSoC5/counterPolarC_PM.c **** *  store the values of non retention configuration registers when Sleep() API is 
  39:.\Generated_Source\PSoC5/counterPolarC_PM.c **** *  called.
  40:.\Generated_Source\PSoC5/counterPolarC_PM.c **** *
  41:.\Generated_Source\PSoC5/counterPolarC_PM.c **** *******************************************************************************/
  42:.\Generated_Source\PSoC5/counterPolarC_PM.c **** void counterPolarC_SaveConfig(void) 
  43:.\Generated_Source\PSoC5/counterPolarC_PM.c **** {
  36              		.loc 1 43 0
  37              		.cfi_startproc
  38              		@ args = 0, pretend = 0, frame = 0
  39              		@ frame_needed = 1, uses_anonymous_args = 0
  40 0000 80B5     		push	{r7, lr}
  41              	.LCFI0:
  42              		.cfi_def_cfa_offset 8
  43 0002 00AF     		add	r7, sp, #0
  44              		.cfi_offset 14, -4
  45              		.cfi_offset 7, -8
  46              	.LCFI1:
  47              		.cfi_def_cfa_register 7
  44:.\Generated_Source\PSoC5/counterPolarC_PM.c ****     #if (!counterPolarC_UsingFixedFunction)
  45:.\Generated_Source\PSoC5/counterPolarC_PM.c **** 
  46:.\Generated_Source\PSoC5/counterPolarC_PM.c ****         counterPolarC_backup.CounterUdb = counterPolarC_ReadCounter();
  48              		.loc 1 46 0
  49 0004 FFF7FEFF 		bl	counterPolarC_ReadCounter
  50 0008 0346     		mov	r3, r0
  51 000a 1A46     		mov	r2, r3
  52 000c 40F20003 		movw	r3, #:lower16:counterPolarC_backup
  53 0010 C0F20003 		movt	r3, #:upper16:counterPolarC_backup
  54 0014 5A70     		strb	r2, [r3, #1]
  47:.\Generated_Source\PSoC5/counterPolarC_PM.c **** 
  48:.\Generated_Source\PSoC5/counterPolarC_PM.c ****         #if (CY_UDB_V0)
  49:.\Generated_Source\PSoC5/counterPolarC_PM.c ****             counterPolarC_backup.CounterPeriod = counterPolarC_ReadPeriod();
  55              		.loc 1 49 0
  56 0016 FFF7FEFF 		bl	counterPolarC_ReadPeriod
  57 001a 0346     		mov	r3, r0
  58 001c 1A46     		mov	r2, r3
  59 001e 40F20003 		movw	r3, #:lower16:counterPolarC_backup
  60 0022 C0F20003 		movt	r3, #:upper16:counterPolarC_backup
ARM GAS  C:\Users\bryan.lee\AppData\Local\Temp\ccmpUOJA.s 			page 3


  61 0026 9A70     		strb	r2, [r3, #2]
  50:.\Generated_Source\PSoC5/counterPolarC_PM.c ****             counterPolarC_backup.CompareValue = counterPolarC_ReadCompare();
  62              		.loc 1 50 0
  63 0028 FFF7FEFF 		bl	counterPolarC_ReadCompare
  64 002c 0346     		mov	r3, r0
  65 002e 1A46     		mov	r2, r3
  66 0030 40F20003 		movw	r3, #:lower16:counterPolarC_backup
  67 0034 C0F20003 		movt	r3, #:upper16:counterPolarC_backup
  68 0038 DA70     		strb	r2, [r3, #3]
  51:.\Generated_Source\PSoC5/counterPolarC_PM.c ****             counterPolarC_backup.InterruptMaskValue = counterPolarC_STATUS_MASK;
  69              		.loc 1 51 0
  70 003a 46F28553 		movw	r3, #:lower16:1073767813
  71 003e C4F20003 		movt	r3, #:upper16:1073767813
  72 0042 1B78     		ldrb	r3, [r3, #0]
  73 0044 DAB2     		uxtb	r2, r3
  74 0046 40F20003 		movw	r3, #:lower16:counterPolarC_backup
  75 004a C0F20003 		movt	r3, #:upper16:counterPolarC_backup
  76 004e 1A71     		strb	r2, [r3, #4]
  52:.\Generated_Source\PSoC5/counterPolarC_PM.c ****         #endif /* CY_UDB_V0 */
  53:.\Generated_Source\PSoC5/counterPolarC_PM.c **** 
  54:.\Generated_Source\PSoC5/counterPolarC_PM.c ****         #if(!counterPolarC_ControlRegRemoved)
  55:.\Generated_Source\PSoC5/counterPolarC_PM.c ****             counterPolarC_backup.CounterControlRegister = counterPolarC_ReadControlRegister();
  77              		.loc 1 55 0
  78 0050 FFF7FEFF 		bl	counterPolarC_ReadControlRegister
  79 0054 0346     		mov	r3, r0
  80 0056 1A46     		mov	r2, r3
  81 0058 40F20003 		movw	r3, #:lower16:counterPolarC_backup
  82 005c C0F20003 		movt	r3, #:upper16:counterPolarC_backup
  83 0060 5A71     		strb	r2, [r3, #5]
  56:.\Generated_Source\PSoC5/counterPolarC_PM.c ****         #endif /* (!counterPolarC_ControlRegRemoved) */
  57:.\Generated_Source\PSoC5/counterPolarC_PM.c **** 
  58:.\Generated_Source\PSoC5/counterPolarC_PM.c ****     #endif /* (!counterPolarC_UsingFixedFunction) */
  59:.\Generated_Source\PSoC5/counterPolarC_PM.c **** }
  84              		.loc 1 59 0
  85 0062 80BD     		pop	{r7, pc}
  86              		.cfi_endproc
  87              	.LFE0:
  88              		.size	counterPolarC_SaveConfig, .-counterPolarC_SaveConfig
  89              		.section	.text.counterPolarC_RestoreConfig,"ax",%progbits
  90              		.align	2
  91              		.global	counterPolarC_RestoreConfig
  92              		.thumb
  93              		.thumb_func
  94              		.type	counterPolarC_RestoreConfig, %function
  95              	counterPolarC_RestoreConfig:
  96              	.LFB1:
  60:.\Generated_Source\PSoC5/counterPolarC_PM.c **** 
  61:.\Generated_Source\PSoC5/counterPolarC_PM.c **** 
  62:.\Generated_Source\PSoC5/counterPolarC_PM.c **** /*******************************************************************************
  63:.\Generated_Source\PSoC5/counterPolarC_PM.c **** * Function Name: counterPolarC_RestoreConfig
  64:.\Generated_Source\PSoC5/counterPolarC_PM.c **** ********************************************************************************
  65:.\Generated_Source\PSoC5/counterPolarC_PM.c **** *
  66:.\Generated_Source\PSoC5/counterPolarC_PM.c **** * Summary:
  67:.\Generated_Source\PSoC5/counterPolarC_PM.c **** *  Restores the current user configuration.
  68:.\Generated_Source\PSoC5/counterPolarC_PM.c **** *
  69:.\Generated_Source\PSoC5/counterPolarC_PM.c **** * Parameters:  
  70:.\Generated_Source\PSoC5/counterPolarC_PM.c **** *  void
ARM GAS  C:\Users\bryan.lee\AppData\Local\Temp\ccmpUOJA.s 			page 4


  71:.\Generated_Source\PSoC5/counterPolarC_PM.c **** *
  72:.\Generated_Source\PSoC5/counterPolarC_PM.c **** * Return: 
  73:.\Generated_Source\PSoC5/counterPolarC_PM.c **** *  void
  74:.\Generated_Source\PSoC5/counterPolarC_PM.c **** *
  75:.\Generated_Source\PSoC5/counterPolarC_PM.c **** * Global variables:
  76:.\Generated_Source\PSoC5/counterPolarC_PM.c **** *  counterPolarC_backup:  Variables of this global structure are used to 
  77:.\Generated_Source\PSoC5/counterPolarC_PM.c **** *  restore the values of non retention registers on wakeup from sleep mode.
  78:.\Generated_Source\PSoC5/counterPolarC_PM.c **** *
  79:.\Generated_Source\PSoC5/counterPolarC_PM.c **** *******************************************************************************/
  80:.\Generated_Source\PSoC5/counterPolarC_PM.c **** void counterPolarC_RestoreConfig(void) 
  81:.\Generated_Source\PSoC5/counterPolarC_PM.c **** {      
  97              		.loc 1 81 0
  98              		.cfi_startproc
  99              		@ args = 0, pretend = 0, frame = 8
 100              		@ frame_needed = 1, uses_anonymous_args = 0
 101 0000 80B5     		push	{r7, lr}
 102              	.LCFI2:
 103              		.cfi_def_cfa_offset 8
 104 0002 82B0     		sub	sp, sp, #8
 105              	.LCFI3:
 106              		.cfi_def_cfa_offset 16
 107 0004 00AF     		add	r7, sp, #0
 108              		.cfi_offset 14, -4
 109              		.cfi_offset 7, -8
 110              	.LCFI4:
 111              		.cfi_def_cfa_register 7
  82:.\Generated_Source\PSoC5/counterPolarC_PM.c ****     #if (!counterPolarC_UsingFixedFunction)
  83:.\Generated_Source\PSoC5/counterPolarC_PM.c **** 
  84:.\Generated_Source\PSoC5/counterPolarC_PM.c ****         #if (CY_UDB_V0)
  85:.\Generated_Source\PSoC5/counterPolarC_PM.c ****             uint8 counterPolarC_interruptState;
  86:.\Generated_Source\PSoC5/counterPolarC_PM.c ****         #endif  /* (CY_UDB_V0) */
  87:.\Generated_Source\PSoC5/counterPolarC_PM.c **** 
  88:.\Generated_Source\PSoC5/counterPolarC_PM.c ****        counterPolarC_WriteCounter(counterPolarC_backup.CounterUdb);
 112              		.loc 1 88 0
 113 0006 40F20003 		movw	r3, #:lower16:counterPolarC_backup
 114 000a C0F20003 		movt	r3, #:upper16:counterPolarC_backup
 115 000e 5B78     		ldrb	r3, [r3, #1]	@ zero_extendqisi2
 116 0010 1846     		mov	r0, r3
 117 0012 FFF7FEFF 		bl	counterPolarC_WriteCounter
  89:.\Generated_Source\PSoC5/counterPolarC_PM.c **** 
  90:.\Generated_Source\PSoC5/counterPolarC_PM.c ****         #if (CY_UDB_V0)
  91:.\Generated_Source\PSoC5/counterPolarC_PM.c ****             counterPolarC_WritePeriod(counterPolarC_backup.CounterPeriod);
 118              		.loc 1 91 0
 119 0016 40F20003 		movw	r3, #:lower16:counterPolarC_backup
 120 001a C0F20003 		movt	r3, #:upper16:counterPolarC_backup
 121 001e 9B78     		ldrb	r3, [r3, #2]	@ zero_extendqisi2
 122 0020 1846     		mov	r0, r3
 123 0022 FFF7FEFF 		bl	counterPolarC_WritePeriod
  92:.\Generated_Source\PSoC5/counterPolarC_PM.c ****             counterPolarC_WriteCompare(counterPolarC_backup.CompareValue);
 124              		.loc 1 92 0
 125 0026 40F20003 		movw	r3, #:lower16:counterPolarC_backup
 126 002a C0F20003 		movt	r3, #:upper16:counterPolarC_backup
 127 002e DB78     		ldrb	r3, [r3, #3]	@ zero_extendqisi2
 128 0030 1846     		mov	r0, r3
 129 0032 FFF7FEFF 		bl	counterPolarC_WriteCompare
  93:.\Generated_Source\PSoC5/counterPolarC_PM.c **** 
  94:.\Generated_Source\PSoC5/counterPolarC_PM.c ****             counterPolarC_interruptState = CyEnterCriticalSection();
ARM GAS  C:\Users\bryan.lee\AppData\Local\Temp\ccmpUOJA.s 			page 5


 130              		.loc 1 94 0
 131 0036 FFF7FEFF 		bl	CyEnterCriticalSection
 132 003a 0346     		mov	r3, r0
 133 003c FB71     		strb	r3, [r7, #7]
  95:.\Generated_Source\PSoC5/counterPolarC_PM.c ****             counterPolarC_STATUS_AUX_CTRL |= counterPolarC_STATUS_ACTL_INT_EN_MASK;
 134              		.loc 1 95 0
 135 003e 46F29553 		movw	r3, #:lower16:1073767829
 136 0042 C4F20003 		movt	r3, #:upper16:1073767829
 137 0046 46F29552 		movw	r2, #:lower16:1073767829
 138 004a C4F20002 		movt	r2, #:upper16:1073767829
 139 004e 1278     		ldrb	r2, [r2, #0]
 140 0050 D2B2     		uxtb	r2, r2
 141 0052 42F01002 		orr	r2, r2, #16
 142 0056 D2B2     		uxtb	r2, r2
 143 0058 1A70     		strb	r2, [r3, #0]
  96:.\Generated_Source\PSoC5/counterPolarC_PM.c ****             CyExitCriticalSection(counterPolarC_interruptState);
 144              		.loc 1 96 0
 145 005a FB79     		ldrb	r3, [r7, #7]	@ zero_extendqisi2
 146 005c 1846     		mov	r0, r3
 147 005e FFF7FEFF 		bl	CyExitCriticalSection
  97:.\Generated_Source\PSoC5/counterPolarC_PM.c **** 
  98:.\Generated_Source\PSoC5/counterPolarC_PM.c ****             counterPolarC_STATUS_MASK = counterPolarC_backup.InterruptMaskValue;
 148              		.loc 1 98 0
 149 0062 46F28553 		movw	r3, #:lower16:1073767813
 150 0066 C4F20003 		movt	r3, #:upper16:1073767813
 151 006a 40F20002 		movw	r2, #:lower16:counterPolarC_backup
 152 006e C0F20002 		movt	r2, #:upper16:counterPolarC_backup
 153 0072 1279     		ldrb	r2, [r2, #4]	@ zero_extendqisi2
 154 0074 1A70     		strb	r2, [r3, #0]
  99:.\Generated_Source\PSoC5/counterPolarC_PM.c ****         #endif  /* (CY_UDB_V0) */
 100:.\Generated_Source\PSoC5/counterPolarC_PM.c **** 
 101:.\Generated_Source\PSoC5/counterPolarC_PM.c ****         #if(!counterPolarC_ControlRegRemoved)
 102:.\Generated_Source\PSoC5/counterPolarC_PM.c ****             counterPolarC_WriteControlRegister(counterPolarC_backup.CounterControlRegister);
 155              		.loc 1 102 0
 156 0076 40F20003 		movw	r3, #:lower16:counterPolarC_backup
 157 007a C0F20003 		movt	r3, #:upper16:counterPolarC_backup
 158 007e 5B79     		ldrb	r3, [r3, #5]	@ zero_extendqisi2
 159 0080 1846     		mov	r0, r3
 160 0082 FFF7FEFF 		bl	counterPolarC_WriteControlRegister
 103:.\Generated_Source\PSoC5/counterPolarC_PM.c ****         #endif /* (!counterPolarC_ControlRegRemoved) */
 104:.\Generated_Source\PSoC5/counterPolarC_PM.c **** 
 105:.\Generated_Source\PSoC5/counterPolarC_PM.c ****     #endif /* (!counterPolarC_UsingFixedFunction) */
 106:.\Generated_Source\PSoC5/counterPolarC_PM.c **** }
 161              		.loc 1 106 0
 162 0086 07F10807 		add	r7, r7, #8
 163 008a BD46     		mov	sp, r7
 164 008c 80BD     		pop	{r7, pc}
 165              		.cfi_endproc
 166              	.LFE1:
 167              		.size	counterPolarC_RestoreConfig, .-counterPolarC_RestoreConfig
 168 008e 00BF     		.section	.text.counterPolarC_Sleep,"ax",%progbits
 169              		.align	2
 170              		.global	counterPolarC_Sleep
 171              		.thumb
 172              		.thumb_func
 173              		.type	counterPolarC_Sleep, %function
 174              	counterPolarC_Sleep:
ARM GAS  C:\Users\bryan.lee\AppData\Local\Temp\ccmpUOJA.s 			page 6


 175              	.LFB2:
 107:.\Generated_Source\PSoC5/counterPolarC_PM.c **** 
 108:.\Generated_Source\PSoC5/counterPolarC_PM.c **** 
 109:.\Generated_Source\PSoC5/counterPolarC_PM.c **** /*******************************************************************************
 110:.\Generated_Source\PSoC5/counterPolarC_PM.c **** * Function Name: counterPolarC_Sleep
 111:.\Generated_Source\PSoC5/counterPolarC_PM.c **** ********************************************************************************
 112:.\Generated_Source\PSoC5/counterPolarC_PM.c **** * Summary:
 113:.\Generated_Source\PSoC5/counterPolarC_PM.c **** *     Stop and Save the user configuration
 114:.\Generated_Source\PSoC5/counterPolarC_PM.c **** *
 115:.\Generated_Source\PSoC5/counterPolarC_PM.c **** * Parameters:  
 116:.\Generated_Source\PSoC5/counterPolarC_PM.c **** *  void
 117:.\Generated_Source\PSoC5/counterPolarC_PM.c **** *
 118:.\Generated_Source\PSoC5/counterPolarC_PM.c **** * Return: 
 119:.\Generated_Source\PSoC5/counterPolarC_PM.c **** *  void
 120:.\Generated_Source\PSoC5/counterPolarC_PM.c **** *
 121:.\Generated_Source\PSoC5/counterPolarC_PM.c **** * Global variables:
 122:.\Generated_Source\PSoC5/counterPolarC_PM.c **** *  counterPolarC_backup.enableState:  Is modified depending on the enable 
 123:.\Generated_Source\PSoC5/counterPolarC_PM.c **** *  state of the block before entering sleep mode.
 124:.\Generated_Source\PSoC5/counterPolarC_PM.c **** *
 125:.\Generated_Source\PSoC5/counterPolarC_PM.c **** *******************************************************************************/
 126:.\Generated_Source\PSoC5/counterPolarC_PM.c **** void counterPolarC_Sleep(void) 
 127:.\Generated_Source\PSoC5/counterPolarC_PM.c **** {
 176              		.loc 1 127 0
 177              		.cfi_startproc
 178              		@ args = 0, pretend = 0, frame = 0
 179              		@ frame_needed = 1, uses_anonymous_args = 0
 180 0000 80B5     		push	{r7, lr}
 181              	.LCFI5:
 182              		.cfi_def_cfa_offset 8
 183 0002 00AF     		add	r7, sp, #0
 184              		.cfi_offset 14, -4
 185              		.cfi_offset 7, -8
 186              	.LCFI6:
 187              		.cfi_def_cfa_register 7
 128:.\Generated_Source\PSoC5/counterPolarC_PM.c ****     #if(!counterPolarC_ControlRegRemoved)
 129:.\Generated_Source\PSoC5/counterPolarC_PM.c ****         /* Save Counter's enable state */
 130:.\Generated_Source\PSoC5/counterPolarC_PM.c ****         if(counterPolarC_CTRL_ENABLE == (counterPolarC_CONTROL & counterPolarC_CTRL_ENABLE))
 188              		.loc 1 130 0
 189 0004 46F27453 		movw	r3, #:lower16:1073767796
 190 0008 C4F20003 		movt	r3, #:upper16:1073767796
 191 000c 1B78     		ldrb	r3, [r3, #0]
 192 000e DBB2     		uxtb	r3, r3
 193 0010 5BB2     		sxtb	r3, r3
 194 0012 002B     		cmp	r3, #0
 195 0014 07DA     		bge	.L6
 131:.\Generated_Source\PSoC5/counterPolarC_PM.c ****         {
 132:.\Generated_Source\PSoC5/counterPolarC_PM.c ****             /* Counter is enabled */
 133:.\Generated_Source\PSoC5/counterPolarC_PM.c ****             counterPolarC_backup.CounterEnableState = 1u;
 196              		.loc 1 133 0
 197 0016 40F20003 		movw	r3, #:lower16:counterPolarC_backup
 198 001a C0F20003 		movt	r3, #:upper16:counterPolarC_backup
 199 001e 4FF00102 		mov	r2, #1
 200 0022 1A70     		strb	r2, [r3, #0]
 201 0024 06E0     		b	.L7
 202              	.L6:
 134:.\Generated_Source\PSoC5/counterPolarC_PM.c ****         }
 135:.\Generated_Source\PSoC5/counterPolarC_PM.c ****         else
ARM GAS  C:\Users\bryan.lee\AppData\Local\Temp\ccmpUOJA.s 			page 7


 136:.\Generated_Source\PSoC5/counterPolarC_PM.c ****         {
 137:.\Generated_Source\PSoC5/counterPolarC_PM.c ****             /* Counter is disabled */
 138:.\Generated_Source\PSoC5/counterPolarC_PM.c ****             counterPolarC_backup.CounterEnableState = 0u;
 203              		.loc 1 138 0
 204 0026 40F20003 		movw	r3, #:lower16:counterPolarC_backup
 205 002a C0F20003 		movt	r3, #:upper16:counterPolarC_backup
 206 002e 4FF00002 		mov	r2, #0
 207 0032 1A70     		strb	r2, [r3, #0]
 208              	.L7:
 139:.\Generated_Source\PSoC5/counterPolarC_PM.c ****         }
 140:.\Generated_Source\PSoC5/counterPolarC_PM.c ****     #else
 141:.\Generated_Source\PSoC5/counterPolarC_PM.c ****         counterPolarC_backup.CounterEnableState = 1u;
 142:.\Generated_Source\PSoC5/counterPolarC_PM.c ****         if(counterPolarC_backup.CounterEnableState != 0u)
 143:.\Generated_Source\PSoC5/counterPolarC_PM.c ****         {
 144:.\Generated_Source\PSoC5/counterPolarC_PM.c ****             counterPolarC_backup.CounterEnableState = 0u;
 145:.\Generated_Source\PSoC5/counterPolarC_PM.c ****         }
 146:.\Generated_Source\PSoC5/counterPolarC_PM.c ****     #endif /* (!counterPolarC_ControlRegRemoved) */
 147:.\Generated_Source\PSoC5/counterPolarC_PM.c ****     
 148:.\Generated_Source\PSoC5/counterPolarC_PM.c ****     counterPolarC_Stop();
 209              		.loc 1 148 0
 210 0034 FFF7FEFF 		bl	counterPolarC_Stop
 149:.\Generated_Source\PSoC5/counterPolarC_PM.c ****     counterPolarC_SaveConfig();
 211              		.loc 1 149 0
 212 0038 FFF7FEFF 		bl	counterPolarC_SaveConfig
 150:.\Generated_Source\PSoC5/counterPolarC_PM.c **** }
 213              		.loc 1 150 0
 214 003c 80BD     		pop	{r7, pc}
 215              		.cfi_endproc
 216              	.LFE2:
 217              		.size	counterPolarC_Sleep, .-counterPolarC_Sleep
 218 003e 00BF     		.section	.text.counterPolarC_Wakeup,"ax",%progbits
 219              		.align	2
 220              		.global	counterPolarC_Wakeup
 221              		.thumb
 222              		.thumb_func
 223              		.type	counterPolarC_Wakeup, %function
 224              	counterPolarC_Wakeup:
 225              	.LFB3:
 151:.\Generated_Source\PSoC5/counterPolarC_PM.c **** 
 152:.\Generated_Source\PSoC5/counterPolarC_PM.c **** 
 153:.\Generated_Source\PSoC5/counterPolarC_PM.c **** /*******************************************************************************
 154:.\Generated_Source\PSoC5/counterPolarC_PM.c **** * Function Name: counterPolarC_Wakeup
 155:.\Generated_Source\PSoC5/counterPolarC_PM.c **** ********************************************************************************
 156:.\Generated_Source\PSoC5/counterPolarC_PM.c **** *
 157:.\Generated_Source\PSoC5/counterPolarC_PM.c **** * Summary:
 158:.\Generated_Source\PSoC5/counterPolarC_PM.c **** *  Restores and enables the user configuration
 159:.\Generated_Source\PSoC5/counterPolarC_PM.c **** *  
 160:.\Generated_Source\PSoC5/counterPolarC_PM.c **** * Parameters:  
 161:.\Generated_Source\PSoC5/counterPolarC_PM.c **** *  void
 162:.\Generated_Source\PSoC5/counterPolarC_PM.c **** *
 163:.\Generated_Source\PSoC5/counterPolarC_PM.c **** * Return: 
 164:.\Generated_Source\PSoC5/counterPolarC_PM.c **** *  void
 165:.\Generated_Source\PSoC5/counterPolarC_PM.c **** *
 166:.\Generated_Source\PSoC5/counterPolarC_PM.c **** * Global variables:
 167:.\Generated_Source\PSoC5/counterPolarC_PM.c **** *  counterPolarC_backup.enableState:  Is used to restore the enable state of 
 168:.\Generated_Source\PSoC5/counterPolarC_PM.c **** *  block on wakeup from sleep mode.
 169:.\Generated_Source\PSoC5/counterPolarC_PM.c **** *
ARM GAS  C:\Users\bryan.lee\AppData\Local\Temp\ccmpUOJA.s 			page 8


 170:.\Generated_Source\PSoC5/counterPolarC_PM.c **** *******************************************************************************/
 171:.\Generated_Source\PSoC5/counterPolarC_PM.c **** void counterPolarC_Wakeup(void) 
 172:.\Generated_Source\PSoC5/counterPolarC_PM.c **** {
 226              		.loc 1 172 0
 227              		.cfi_startproc
 228              		@ args = 0, pretend = 0, frame = 0
 229              		@ frame_needed = 1, uses_anonymous_args = 0
 230 0000 80B5     		push	{r7, lr}
 231              	.LCFI7:
 232              		.cfi_def_cfa_offset 8
 233 0002 00AF     		add	r7, sp, #0
 234              		.cfi_offset 14, -4
 235              		.cfi_offset 7, -8
 236              	.LCFI8:
 237              		.cfi_def_cfa_register 7
 173:.\Generated_Source\PSoC5/counterPolarC_PM.c ****     counterPolarC_RestoreConfig();
 238              		.loc 1 173 0
 239 0004 FFF7FEFF 		bl	counterPolarC_RestoreConfig
 174:.\Generated_Source\PSoC5/counterPolarC_PM.c ****     #if(!counterPolarC_ControlRegRemoved)
 175:.\Generated_Source\PSoC5/counterPolarC_PM.c ****         if(counterPolarC_backup.CounterEnableState == 1u)
 240              		.loc 1 175 0
 241 0008 40F20003 		movw	r3, #:lower16:counterPolarC_backup
 242 000c C0F20003 		movt	r3, #:upper16:counterPolarC_backup
 243 0010 1B78     		ldrb	r3, [r3, #0]	@ zero_extendqisi2
 244 0012 012B     		cmp	r3, #1
 245 0014 01D1     		bne	.L11
 176:.\Generated_Source\PSoC5/counterPolarC_PM.c ****         {
 177:.\Generated_Source\PSoC5/counterPolarC_PM.c ****             /* Enable Counter's operation */
 178:.\Generated_Source\PSoC5/counterPolarC_PM.c ****             counterPolarC_Enable();
 246              		.loc 1 178 0
 247 0016 FFF7FEFF 		bl	counterPolarC_Enable
 248              	.L11:
 179:.\Generated_Source\PSoC5/counterPolarC_PM.c ****         } /* Do nothing if Counter was disabled before */    
 180:.\Generated_Source\PSoC5/counterPolarC_PM.c ****     #endif /* (!counterPolarC_ControlRegRemoved) */
 181:.\Generated_Source\PSoC5/counterPolarC_PM.c ****     
 182:.\Generated_Source\PSoC5/counterPolarC_PM.c **** }
 249              		.loc 1 182 0
 250 001a 80BD     		pop	{r7, pc}
 251              		.cfi_endproc
 252              	.LFE3:
 253              		.size	counterPolarC_Wakeup, .-counterPolarC_Wakeup
 254              		.text
 255              	.Letext0: