ARM GAS  C:\Users\bryan.lee\AppData\Local\Temp\ccveiHVe.s 			page 1


   1              		.syntax unified
   2              		.cpu cortex-m3
   3              		.fpu softvfp
   4              		.eabi_attribute 20, 1
   5              		.eabi_attribute 21, 1
   6              		.eabi_attribute 23, 3
   7              		.eabi_attribute 24, 1
   8              		.eabi_attribute 25, 1
   9              		.eabi_attribute 26, 1
  10              		.eabi_attribute 30, 6
  11              		.eabi_attribute 18, 4
  12              		.thumb
  13              		.file	"main.c"
  20 0000 D0000000 		.text
  20      02005300 
  20      00000201 
  20      FB0E0D00 
  20      01010101 
  21              	.Ltext0:
  22              		.cfi_sections	.debug_frame
  23              		.comm	pinDMK,4,4
  24              		.comm	CaptureFlag,4,4
  25              		.comm	statusButtonRead,1,1
  26              		.comm	Polar_C_Pulse_Count,1,1
  27              		.comm	Polar_S_Pulse_Count,1,1
  28              		.comm	ANTplus_Pulse_Count,1,1
  29              		.comm	ShiftData,255,4
  30              		.section	.text.InitializeHardware,"ax",%progbits
  31              		.align	2
  32              		.global	InitializeHardware
  33              		.thumb
  34              		.thumb_func
  35              		.type	InitializeHardware, %function
  36              	InitializeHardware:
  37              	.LFB29:
  38              		.file 1 ".\\main.c"
   1:.\main.c      **** /* ========================================
   2:.\main.c      ****  *
   3:.\main.c      ****  * Copyright YOUR COMPANY, THE YEAR
   4:.\main.c      ****  * All Rights Reserved
   5:.\main.c      ****  * UNPUBLISHED, LICENSED SOFTWARE.
   6:.\main.c      ****  *
   7:.\main.c      ****  * CONFIDENTIAL AND PROPRIETARY INFORMATION
   8:.\main.c      ****  * WHICH IS THE PROPERTY OF your company.
   9:.\main.c      ****  *
  10:.\main.c      ****  * ========================================
  11:.\main.c      **** */
  12:.\main.c      **** #include <device.h>
  13:.\main.c      **** 
  14:.\main.c      **** #define forever 1
  15:.\main.c      **** 
ARM GAS  C:\Users\bryan.lee\AppData\Local\Temp\ccveiHVe.s 			page 2


  16:.\main.c      **** CY_ISR_PROTO(StoreISR);
  17:.\main.c      **** CY_ISR(PulseCapture);
  18:.\main.c      **** 
  19:.\main.c      **** 
  20:.\main.c      **** 
  21:.\main.c      **** int pinDMK;
  22:.\main.c      **** int CaptureFlag;
  23:.\main.c      **** uint8 statusButtonRead; //0xFF starting point
  24:.\main.c      **** uint8 Polar_C_Pulse_Count;
  25:.\main.c      **** uint8 Polar_S_Pulse_Count;
  26:.\main.c      **** uint8 ANTplus_Pulse_Count;
  27:.\main.c      **** uint8 ShiftData[255];
  28:.\main.c      **** 
  29:.\main.c      **** 
  30:.\main.c      **** 
  31:.\main.c      **** void InitializeHardware()
  32:.\main.c      **** {
  39              		.loc 1 32 0
  40              		.cfi_startproc
  41              		@ args = 0, pretend = 0, frame = 0
  42              		@ frame_needed = 1, uses_anonymous_args = 0
  43 0000 80B5     		push	{r7, lr}
  44              	.LCFI0:
  45              		.cfi_def_cfa_offset 8
  46 0002 00AF     		add	r7, sp, #0
  47              		.cfi_offset 14, -4
  48              		.cfi_offset 7, -8
  49              	.LCFI1:
  50              		.cfi_def_cfa_register 7
  33:.\main.c      **** 	CyGlobalIntEnable;                                   //ISR
  51              		.loc 1 33 0
  52              	@ 33 ".\main.c" 1
  53 0004 62B6     		CPSIE   i
  54              	@ 0 "" 2
  34:.\main.c      **** 	isrStoreInt_StartEx(StoreISR);
  55              		.loc 1 34 0
  56              		.thumb
  57 0006 40F20000 		movw	r0, #:lower16:StoreISR
  58 000a C0F20000 		movt	r0, #:upper16:StoreISR
  59 000e FFF7FEFF 		bl	isrStoreInt_StartEx
  35:.\main.c      ****     isrPulseCapture_StartEx(PulseCapture);
  60              		.loc 1 35 0
  61 0012 40F20000 		movw	r0, #:lower16:PulseCapture
  62 0016 C0F20000 		movt	r0, #:upper16:PulseCapture
  63 001a FFF7FEFF 		bl	isrPulseCapture_StartEx
  36:.\main.c      ****     
  37:.\main.c      ****     
  38:.\main.c      ****     lcdDisplay_Start();
  64              		.loc 1 38 0
  65 001e FFF7FEFF 		bl	lcdDisplay_Start
  39:.\main.c      ****     lcdDisplay_ClearDisplay();
  66              		.loc 1 39 0
  67 0022 4FF00100 		mov	r0, #1
  68 0026 FFF7FEFF 		bl	lcdDisplay_WriteControl
  40:.\main.c      ****     pgaPolarC_Start();                                   //Polar Chest Pulse buffer
  69              		.loc 1 40 0
  70 002a FFF7FEFF 		bl	pgaPolarC_Start
ARM GAS  C:\Users\bryan.lee\AppData\Local\Temp\ccveiHVe.s 			page 3


  41:.\main.c      ****     counterPolarC_Start();
  71              		.loc 1 41 0
  72 002e FFF7FEFF 		bl	counterPolarC_Start
  42:.\main.c      ****     pgaPolarS_Start();                                   //Polar Hand Pulse buffer
  73              		.loc 1 42 0
  74 0032 FFF7FEFF 		bl	pgaPolarS_Start
  43:.\main.c      ****     counterPolarS_Start();
  75              		.loc 1 43 0
  76 0036 FFF7FEFF 		bl	counterPolarS_Start
  44:.\main.c      ****     pgaANTPlus_Start();                                  //ANT+ Chest Pulse buffer
  77              		.loc 1 44 0
  78 003a FFF7FEFF 		bl	pgaANTPlus_Start
  45:.\main.c      ****     counterANTPlus_Start();
  79              		.loc 1 45 0
  80 003e FFF7FEFF 		bl	counterANTPlus_Start
  46:.\main.c      ****     PWMPulseCapture_Start();                             //Capture Clock
  81              		.loc 1 46 0
  82 0042 FFF7FEFF 		bl	PWMPulseCapture_Start
  47:.\main.c      **** 	counterShift_Start();                                //Membrane Button Read components
  83              		.loc 1 47 0
  84 0046 FFF7FEFF 		bl	counterShift_Start
  48:.\main.c      ****     shiftregSender_Start();
  85              		.loc 1 48 0
  86 004a FFF7FEFF 		bl	shiftregSender_Start
  49:.\main.c      ****     shiftregSender_WriteData(0x00);
  87              		.loc 1 49 0
  88 004e 4FF00000 		mov	r0, #0
  89 0052 FFF7FEFF 		bl	shiftregSender_WriteData
  50:.\main.c      ****     CyDelay(250);
  90              		.loc 1 50 0
  91 0056 4FF0FA00 		mov	r0, #250
  92 005a FFF7FEFF 		bl	CyDelay
  51:.\main.c      ****     shiftregReceiver_Start();	 
  93              		.loc 1 51 0
  94 005e FFF7FEFF 		bl	shiftregReceiver_Start
  52:.\main.c      **** }
  95              		.loc 1 52 0
  96 0062 80BD     		pop	{r7, pc}
  97              		.cfi_endproc
  98              	.LFE29:
  99              		.size	InitializeHardware, .-InitializeHardware
 100              		.section	.rodata
 101              		.align	2
 102              	.LC0:
 103 0000 42455441 		.ascii	"BETA\000"
 103      00
 104 0005 000000   		.align	2
 105              	.LC1:
 106 0008 444D4B3A 		.ascii	"DMK:\000"
 106      00
 107 000d 000000   		.align	2
 108              	.LC2:
 109 0010 42757474 		.ascii	"Buttons:\000"
 109      6F6E733A 
 109      00
 110 0019 000000   		.align	2
 111              	.LC3:
ARM GAS  C:\Users\bryan.lee\AppData\Local\Temp\ccveiHVe.s 			page 4


 112 001c 50756C73 		.ascii	"Pulse:\000"
 112      653A00
 113 0023 00       		.align	2
 114              	.LC4:
 115 0024 4F4E2000 		.ascii	"ON \000"
 116              		.align	2
 117              	.LC5:
 118 0028 4F464600 		.ascii	"OFF\000"
 119              		.align	2
 120              	.LC6:
 121 002c 43686573 		.ascii	"Chest\000"
 121      7400
 122 0032 0000     		.section	.text.main,"ax",%progbits
 123              		.align	2
 124              		.global	main
 125              		.thumb
 126              		.thumb_func
 127              		.type	main, %function
 128              	main:
 129              	.LFB30:
  53:.\main.c      **** //***********************************************************************************
  54:.\main.c      **** 
  55:.\main.c      **** void main()
  56:.\main.c      **** {
 130              		.loc 1 56 0
 131              		.cfi_startproc
 132              		@ args = 0, pretend = 0, frame = 8
 133              		@ frame_needed = 1, uses_anonymous_args = 0
 134 0000 80B5     		push	{r7, lr}
 135              	.LCFI2:
 136              		.cfi_def_cfa_offset 8
 137 0002 82B0     		sub	sp, sp, #8
 138              	.LCFI3:
 139              		.cfi_def_cfa_offset 16
 140 0004 00AF     		add	r7, sp, #0
 141              		.cfi_offset 14, -4
 142              		.cfi_offset 7, -8
 143              	.LCFI4:
 144              		.cfi_def_cfa_register 7
  57:.\main.c      ****     //uint8 ii = 0x00;      //Calibration
  58:.\main.c      ****     uint8 Status;
  59:.\main.c      **** 	InitializeHardware();
 145              		.loc 1 59 0
 146 0006 FFF7FEFF 		bl	InitializeHardware
  60:.\main.c      ****     clockShift_SetDivider(128);
 147              		.loc 1 60 0
 148 000a 4FF08000 		mov	r0, #128
 149 000e 4FF00101 		mov	r1, #1
 150 0012 FFF7FEFF 		bl	clockShift_SetDividerRegister
  61:.\main.c      ****     lcdDisplay_Position(0,8);
 151              		.loc 1 61 0
 152 0016 4FF00000 		mov	r0, #0
 153 001a 4FF00801 		mov	r1, #8
 154 001e FFF7FEFF 		bl	lcdDisplay_Position
  62:.\main.c      ****     lcdDisplay_PrintString("BETA");
 155              		.loc 1 62 0
 156 0022 40F20000 		movw	r0, #:lower16:.LC0
ARM GAS  C:\Users\bryan.lee\AppData\Local\Temp\ccveiHVe.s 			page 5


 157 0026 C0F20000 		movt	r0, #:upper16:.LC0
 158 002a FFF7FEFF 		bl	lcdDisplay_PrintString
  63:.\main.c      ****     lcdDisplay_Position(1,0);
 159              		.loc 1 63 0
 160 002e 4FF00100 		mov	r0, #1
 161 0032 4FF00001 		mov	r1, #0
 162 0036 FFF7FEFF 		bl	lcdDisplay_Position
  64:.\main.c      ****     lcdDisplay_PrintString("DMK:");
 163              		.loc 1 64 0
 164 003a 40F20000 		movw	r0, #:lower16:.LC1
 165 003e C0F20000 		movt	r0, #:upper16:.LC1
 166 0042 FFF7FEFF 		bl	lcdDisplay_PrintString
  65:.\main.c      ****     lcdDisplay_Position(2,0);
 167              		.loc 1 65 0
 168 0046 4FF00200 		mov	r0, #2
 169 004a 4FF00001 		mov	r1, #0
 170 004e FFF7FEFF 		bl	lcdDisplay_Position
  66:.\main.c      ****     lcdDisplay_PrintString("Buttons:");
 171              		.loc 1 66 0
 172 0052 40F20000 		movw	r0, #:lower16:.LC2
 173 0056 C0F20000 		movt	r0, #:upper16:.LC2
 174 005a FFF7FEFF 		bl	lcdDisplay_PrintString
  67:.\main.c      ****     lcdDisplay_Position(3,0);
 175              		.loc 1 67 0
 176 005e 4FF00300 		mov	r0, #3
 177 0062 4FF00001 		mov	r1, #0
 178 0066 FFF7FEFF 		bl	lcdDisplay_Position
  68:.\main.c      ****     lcdDisplay_PrintString("Pulse:");
 179              		.loc 1 68 0
 180 006a 40F20000 		movw	r0, #:lower16:.LC3
 181 006e C0F20000 		movt	r0, #:upper16:.LC3
 182 0072 FFF7FEFF 		bl	lcdDisplay_PrintString
 183 0076 00E0     		b	.L7
 184              	.L9:
  69:.\main.c      ****     
  70:.\main.c      ****     
  71:.\main.c      ****     for(;;)
  72:.\main.c      ****     {
  73:.\main.c      ****         if (pinDMK_Read() == 0)                     //DMK function
  74:.\main.c      ****         {
  75:.\main.c      ****             lcdDisplay_Position(1,5);
  76:.\main.c      ****             lcdDisplay_PrintString("ON ");
  77:.\main.c      ****         }
  78:.\main.c      ****         else
  79:.\main.c      ****         {
  80:.\main.c      ****             lcdDisplay_Position(1,5);
  81:.\main.c      ****             lcdDisplay_PrintString("OFF");
  82:.\main.c      ****         }
  83:.\main.c      ****         if (CaptureFlag = 1)
  84:.\main.c      ****        {
  85:.\main.c      ****             CaptureFlag = 0;
  86:.\main.c      ****             
  87:.\main.c      ****             Polar_C_Pulse_Count = counterPolarC_ReadCapture();
  88:.\main.c      ****             lcdDisplay_Position (3,7);
  89:.\main.c      ****             lcdDisplay_PrintString("Chest");
  90:.\main.c      ****             
  91:.\main.c      ****             
ARM GAS  C:\Users\bryan.lee\AppData\Local\Temp\ccveiHVe.s 			page 6


  92:.\main.c      ****             /*Polar_S_Pulse_Count = counterPolarS_ReadCapture();
  93:.\main.c      ****             lcdDisplay_Position (3,7);
  94:.\main.c      ****             lcdDisplay_PrintString("Hand");
  95:.\main.c      ****             
  96:.\main.c      ****             
  97:.\main.c      ****             ANTplus_Pulse_Count = counterANTPlus_ReadCapture();
  98:.\main.c      ****             lcdDisplay_Position (3,7);
  99:.\main.c      ****             lcdDisplay_PrintString("ANTplus");*/
 100:.\main.c      ****                         
 101:.\main.c      ****         }
 102:.\main.c      ****         
 103:.\main.c      ****         
 104:.\main.c      ****         
 105:.\main.c      ****         statusButton_Read();  //Button Hex strings...Left1:FE, Left2:FD, Rigth1:FB, and Right2:F7
 106:.\main.c      ****         {
 107:.\main.c      ****             /*lcdDisplay_Position(2,9);  //Button Hex Strings...InclineD:FE, InclineU:FD, Run:FB, S
 108:.\main.c      ****             lcdDisplay_PrintInt8(statusButton_Read());*/
 109:.\main.c      ****             shiftregReceiver_WriteRegValue(statusButton_Read());//Writes to the Shift Register
 110:.\main.c      ****         }
 111:.\main.c      ****     	
 112:.\main.c      **** 		if(!((Status = shiftregSender_GetFIFOStatus(shiftregSender_IN_FIFO)) == shiftregSender_RET_FIFO_F
 113:.\main.c      **** 		{
 114:.\main.c      **** 			/*shiftregSender_WriteData(++ii);//FOR CALIBRATION ONLY. WILL COUNT UP FROM 0X00 TO 0XFF.*/
 115:.\main.c      ****             {
 116:.\main.c      ****                 lcdDisplay_Position(2,9);
 117:.\main.c      ****                 lcdDisplay_PrintInt8(shiftregReceiver_ReadData());
 118:.\main.c      ****             }
 119:.\main.c      **** 		}
 120:.\main.c      ****            
 121:.\main.c      ****       }      
 185              		.loc 1 121 0
 186 0078 00BF     		nop
 187              	.L7:
 188              		.loc 1 73 0
 189 007a FFF7FEFF 		bl	pinDMK_Read
 190 007e 0346     		mov	r3, r0
 191 0080 002B     		cmp	r3, #0
 192 0082 0CD1     		bne	.L4
 193              		.loc 1 75 0
 194 0084 4FF00100 		mov	r0, #1
 195 0088 4FF00501 		mov	r1, #5
 196 008c FFF7FEFF 		bl	lcdDisplay_Position
 197              		.loc 1 76 0
 198 0090 40F20000 		movw	r0, #:lower16:.LC4
 199 0094 C0F20000 		movt	r0, #:upper16:.LC4
 200 0098 FFF7FEFF 		bl	lcdDisplay_PrintString
 201 009c 0BE0     		b	.L5
 202              	.L4:
 203              		.loc 1 80 0
 204 009e 4FF00100 		mov	r0, #1
 205 00a2 4FF00501 		mov	r1, #5
 206 00a6 FFF7FEFF 		bl	lcdDisplay_Position
 207              		.loc 1 81 0
 208 00aa 40F20000 		movw	r0, #:lower16:.LC5
 209 00ae C0F20000 		movt	r0, #:upper16:.LC5
 210 00b2 FFF7FEFF 		bl	lcdDisplay_PrintString
 211              	.L5:
ARM GAS  C:\Users\bryan.lee\AppData\Local\Temp\ccveiHVe.s 			page 7


 212              		.loc 1 83 0
 213 00b6 40F20003 		movw	r3, #:lower16:CaptureFlag
 214 00ba C0F20003 		movt	r3, #:upper16:CaptureFlag
 215 00be 4FF00102 		mov	r2, #1
 216 00c2 1A60     		str	r2, [r3, #0]
 217              		.loc 1 85 0
 218 00c4 40F20003 		movw	r3, #:lower16:CaptureFlag
 219 00c8 C0F20003 		movt	r3, #:upper16:CaptureFlag
 220 00cc 4FF00002 		mov	r2, #0
 221 00d0 1A60     		str	r2, [r3, #0]
 222              		.loc 1 87 0
 223 00d2 FFF7FEFF 		bl	counterPolarC_ReadCapture
 224 00d6 0346     		mov	r3, r0
 225 00d8 1A46     		mov	r2, r3
 226 00da 40F20003 		movw	r3, #:lower16:Polar_C_Pulse_Count
 227 00de C0F20003 		movt	r3, #:upper16:Polar_C_Pulse_Count
 228 00e2 1A70     		strb	r2, [r3, #0]
 229              		.loc 1 88 0
 230 00e4 4FF00300 		mov	r0, #3
 231 00e8 4FF00701 		mov	r1, #7
 232 00ec FFF7FEFF 		bl	lcdDisplay_Position
 233              		.loc 1 89 0
 234 00f0 40F20000 		movw	r0, #:lower16:.LC6
 235 00f4 C0F20000 		movt	r0, #:upper16:.LC6
 236 00f8 FFF7FEFF 		bl	lcdDisplay_PrintString
 237              		.loc 1 105 0
 238 00fc FFF7FEFF 		bl	statusButton_Read
 239              		.loc 1 109 0
 240 0100 FFF7FEFF 		bl	statusButton_Read
 241 0104 0346     		mov	r3, r0
 242 0106 1846     		mov	r0, r3
 243 0108 FFF7FEFF 		bl	shiftregReceiver_WriteRegValue
 244              		.loc 1 112 0
 245 010c 4FF00100 		mov	r0, #1
 246 0110 FFF7FEFF 		bl	shiftregSender_GetFIFOStatus
 247 0114 0346     		mov	r3, r0
 248 0116 FB71     		strb	r3, [r7, #7]
 249 0118 FB79     		ldrb	r3, [r7, #7]	@ zero_extendqisi2
 250 011a 002B     		cmp	r3, #0
 251 011c ACD0     		beq	.L9
 252              		.loc 1 116 0
 253 011e 4FF00200 		mov	r0, #2
 254 0122 4FF00901 		mov	r1, #9
 255 0126 FFF7FEFF 		bl	lcdDisplay_Position
 256              		.loc 1 117 0
 257 012a FFF7FEFF 		bl	shiftregReceiver_ReadData
 258 012e 0346     		mov	r3, r0
 259 0130 1846     		mov	r0, r3
 260 0132 FFF7FEFF 		bl	lcdDisplay_PrintInt8
 261              		.loc 1 121 0
 262 0136 A0E7     		b	.L7
 263              		.cfi_endproc
 264              	.LFE30:
 265              		.size	main, .-main
 266              		.section	.text.StoreISR,"ax",%progbits
 267              		.align	2
 268              		.global	StoreISR
ARM GAS  C:\Users\bryan.lee\AppData\Local\Temp\ccveiHVe.s 			page 8


 269              		.thumb
 270              		.thumb_func
 271              		.type	StoreISR, %function
 272              	StoreISR:
 273              	.LFB31:
 122:.\main.c      **** }
 123:.\main.c      **** /*END OF FILE */
 124:.\main.c      **** 
 125:.\main.c      **** 
 126:.\main.c      **** /************************************************************************************/
 127:.\main.c      **** CY_ISR(StoreISR)
 128:.\main.c      **** {
 274              		.loc 1 128 0
 275              		.cfi_startproc
 276              		@ args = 0, pretend = 0, frame = 8
 277              		@ frame_needed = 1, uses_anonymous_args = 0
 278 0000 80B5     		push	{r7, lr}
 279              	.LCFI5:
 280              		.cfi_def_cfa_offset 8
 281 0002 82B0     		sub	sp, sp, #8
 282              	.LCFI6:
 283              		.cfi_def_cfa_offset 16
 284 0004 00AF     		add	r7, sp, #0
 285              		.cfi_offset 14, -4
 286              		.cfi_offset 7, -8
 287              	.LCFI7:
 288              		.cfi_def_cfa_register 7
 129:.\main.c      **** uint8 Status;
 130:.\main.c      **** 	while((Status = shiftregReceiver_GetFIFOStatus(shiftregReceiver_OUT_FIFO)) == shiftregReceiver_RET
 289              		.loc 1 130 0
 290 0006 01E0     		b	.L11
 291              	.L12:
 131:.\main.c      **** 	{
 132:.\main.c      **** 		shiftregReceiver_ReadData();   
 292              		.loc 1 132 0
 293 0008 FFF7FEFF 		bl	shiftregReceiver_ReadData
 294              	.L11:
 295              		.loc 1 130 0
 296 000c 4FF00200 		mov	r0, #2
 297 0010 FFF7FEFF 		bl	shiftregReceiver_GetFIFOStatus
 298 0014 0346     		mov	r3, r0
 299 0016 FB71     		strb	r3, [r7, #7]
 300 0018 FB79     		ldrb	r3, [r7, #7]	@ zero_extendqisi2
 301 001a 012B     		cmp	r3, #1
 302 001c F4D0     		beq	.L12
 133:.\main.c      **** 	}
 134:.\main.c      **** }
 303              		.loc 1 134 0
 304 001e 07F10807 		add	r7, r7, #8
 305 0022 BD46     		mov	sp, r7
 306 0024 80BD     		pop	{r7, pc}
 307              		.cfi_endproc
 308              	.LFE31:
 309              		.size	StoreISR, .-StoreISR
 310 0026 00BF     		.section	.text.PulseCapture,"ax",%progbits
 311              		.align	2
 312              		.global	PulseCapture
ARM GAS  C:\Users\bryan.lee\AppData\Local\Temp\ccveiHVe.s 			page 9


 313              		.thumb
 314              		.thumb_func
 315              		.type	PulseCapture, %function
 316              	PulseCapture:
 317              	.LFB32:
 135:.\main.c      **** 
 136:.\main.c      **** /**********************************************************************************/
 137:.\main.c      **** CY_ISR(PulseCapture)
 138:.\main.c      **** {
 318              		.loc 1 138 0
 319              		.cfi_startproc
 320              		@ args = 0, pretend = 0, frame = 0
 321              		@ frame_needed = 1, uses_anonymous_args = 0
 322              		@ link register save eliminated.
 323 0000 80B4     		push	{r7}
 324              	.LCFI8:
 325              		.cfi_def_cfa_offset 4
 326 0002 00AF     		add	r7, sp, #0
 327              		.cfi_offset 7, -4
 328              	.LCFI9:
 329              		.cfi_def_cfa_register 7
 139:.\main.c      ****     CaptureFlag = 1;
 330              		.loc 1 139 0
 331 0004 40F20003 		movw	r3, #:lower16:CaptureFlag
 332 0008 C0F20003 		movt	r3, #:upper16:CaptureFlag
 333 000c 4FF00102 		mov	r2, #1
 334 0010 1A60     		str	r2, [r3, #0]
 140:.\main.c      **** }...
 335              		.loc 1 140 0
 336 0012 BD46     		mov	sp, r7
 337 0014 80BC     		pop	{r7}
 338 0016 7047     		bx	lr
 339              		.cfi_endproc
 340              	.LFE32:
 341              		.size	PulseCapture, .-PulseCapture
 342              		.text
 343              	.Letext0: