ARM GAS  C:\Users\Bryan.Lee\AppData\Local\Temp\cc6u4NKt.s 			page 1


   1              		.syntax unified
   2              		.cpu cortex-m3
   3              		.fpu softvfp
   4              		.eabi_attribute 20, 1
   5              		.eabi_attribute 21, 1
   6              		.eabi_attribute 23, 3
   7              		.eabi_attribute 24, 1
   8              		.eabi_attribute 25, 1
   9              		.eabi_attribute 26, 1
  10              		.eabi_attribute 30, 6
  11              		.eabi_attribute 18, 4
  12              		.thumb
  13              		.file	"Receiver_PM.c"
  20 0000 C9000000 		.text
  20      02007200 
  20      00000201 
  20      FB0E0D00 
  20      01010101 
  21              	.Ltext0:
  22              		.cfi_sections	.debug_frame
  23              		.bss
  24              		.align	2
  25              	Receiver_backup:
  26 0000 00000000 		.space	4
  27              		.section	.text.Receiver_SaveConfig,"ax",%progbits
  28              		.align	2
  29              		.global	Receiver_SaveConfig
  30              		.thumb
  31              		.thumb_func
  32              		.type	Receiver_SaveConfig, %function
  33              	Receiver_SaveConfig:
  34              	.LFB0:
  35              		.file 1 ".\\Generated_Source\\PSoC5\\Receiver_PM.c"
   1:.\Generated_Source\PSoC5/Receiver_PM.c **** /*******************************************************************************
   2:.\Generated_Source\PSoC5/Receiver_PM.c **** * File Name: Receiver_PM.c
   3:.\Generated_Source\PSoC5/Receiver_PM.c **** * Version 2.10
   4:.\Generated_Source\PSoC5/Receiver_PM.c **** *
   5:.\Generated_Source\PSoC5/Receiver_PM.c **** * Description:
   6:.\Generated_Source\PSoC5/Receiver_PM.c **** *  This file provides the API source code for sleep mode support for Shift 
   7:.\Generated_Source\PSoC5/Receiver_PM.c **** *  Register component.
   8:.\Generated_Source\PSoC5/Receiver_PM.c **** *
   9:.\Generated_Source\PSoC5/Receiver_PM.c **** * Note:
  10:.\Generated_Source\PSoC5/Receiver_PM.c **** *
  11:.\Generated_Source\PSoC5/Receiver_PM.c **** ********************************************************************************
  12:.\Generated_Source\PSoC5/Receiver_PM.c **** * Copyright 2008-2012, Cypress Semiconductor Corporation.  All rights reserved.
  13:.\Generated_Source\PSoC5/Receiver_PM.c **** * You may use this file only in accordance with the license, terms, conditions,
  14:.\Generated_Source\PSoC5/Receiver_PM.c **** * disclaimers, and limitations in the end user license agreement accompanying
  15:.\Generated_Source\PSoC5/Receiver_PM.c **** * the software package with which this file was provided.
  16:.\Generated_Source\PSoC5/Receiver_PM.c **** *******************************************************************************/
  17:.\Generated_Source\PSoC5/Receiver_PM.c **** 
  18:.\Generated_Source\PSoC5/Receiver_PM.c **** #include "Receiver.h"
ARM GAS  C:\Users\Bryan.Lee\AppData\Local\Temp\cc6u4NKt.s 			page 2


  19:.\Generated_Source\PSoC5/Receiver_PM.c **** 
  20:.\Generated_Source\PSoC5/Receiver_PM.c **** 
  21:.\Generated_Source\PSoC5/Receiver_PM.c **** static Receiver_BACKUP_STRUCT Receiver_backup = \
  22:.\Generated_Source\PSoC5/Receiver_PM.c **** {
  23:.\Generated_Source\PSoC5/Receiver_PM.c ****     /* enable state - disabled */
  24:.\Generated_Source\PSoC5/Receiver_PM.c ****     0u
  25:.\Generated_Source\PSoC5/Receiver_PM.c **** };
  26:.\Generated_Source\PSoC5/Receiver_PM.c **** 
  27:.\Generated_Source\PSoC5/Receiver_PM.c **** 
  28:.\Generated_Source\PSoC5/Receiver_PM.c **** /*******************************************************************************
  29:.\Generated_Source\PSoC5/Receiver_PM.c **** * Function Name: Receiver_SaveConfig
  30:.\Generated_Source\PSoC5/Receiver_PM.c **** ********************************************************************************
  31:.\Generated_Source\PSoC5/Receiver_PM.c **** *
  32:.\Generated_Source\PSoC5/Receiver_PM.c **** * Summary:
  33:.\Generated_Source\PSoC5/Receiver_PM.c **** *  Saves Shift Register configuration.
  34:.\Generated_Source\PSoC5/Receiver_PM.c **** *
  35:.\Generated_Source\PSoC5/Receiver_PM.c **** * Parameters:
  36:.\Generated_Source\PSoC5/Receiver_PM.c **** *  None.
  37:.\Generated_Source\PSoC5/Receiver_PM.c **** *
  38:.\Generated_Source\PSoC5/Receiver_PM.c **** * Return:
  39:.\Generated_Source\PSoC5/Receiver_PM.c **** *  None.
  40:.\Generated_Source\PSoC5/Receiver_PM.c **** *
  41:.\Generated_Source\PSoC5/Receiver_PM.c **** * Reentrant:
  42:.\Generated_Source\PSoC5/Receiver_PM.c **** *  No.
  43:.\Generated_Source\PSoC5/Receiver_PM.c **** *
  44:.\Generated_Source\PSoC5/Receiver_PM.c **** *******************************************************************************/
  45:.\Generated_Source\PSoC5/Receiver_PM.c **** void Receiver_SaveConfig(void) 
  46:.\Generated_Source\PSoC5/Receiver_PM.c **** {
  36              		.loc 1 46 0
  37              		.cfi_startproc
  38              		@ args = 0, pretend = 0, frame = 0
  39              		@ frame_needed = 1, uses_anonymous_args = 0
  40              		@ link register save eliminated.
  41 0000 80B4     		push	{r7}
  42              	.LCFI0:
  43              		.cfi_def_cfa_offset 4
  44 0002 00AF     		add	r7, sp, #0
  45              		.cfi_offset 7, -4
  46              	.LCFI1:
  47              		.cfi_def_cfa_register 7
  47:.\Generated_Source\PSoC5/Receiver_PM.c ****     /* Store A0, A1 and Status Mask registers */
  48:.\Generated_Source\PSoC5/Receiver_PM.c ****     #if (CY_UDB_V0)
  49:.\Generated_Source\PSoC5/Receiver_PM.c ****        Receiver_backup.saveSrA0Reg   = CY_GET_REG8(Receiver_SHIFT_REG_LSB_PTR);
  48              		.loc 1 49 0
  49 0004 46F20D43 		movw	r3, #:lower16:1073767437
  50 0008 C4F20003 		movt	r3, #:upper16:1073767437
  51 000c 1B78     		ldrb	r3, [r3, #0]
  52 000e DAB2     		uxtb	r2, r3
  53 0010 40F20003 		movw	r3, #:lower16:Receiver_backup
  54 0014 C0F20003 		movt	r3, #:upper16:Receiver_backup
  55 0018 5A70     		strb	r2, [r3, #1]
  50:.\Generated_Source\PSoC5/Receiver_PM.c ****        Receiver_backup.saveSrA1Reg   = CY_GET_REG8(Receiver_SHIFT_REG_VALUE_LSB_PTR);
  56              		.loc 1 50 0
  57 001a 46F21D43 		movw	r3, #:lower16:1073767453
  58 001e C4F20003 		movt	r3, #:upper16:1073767453
  59 0022 1B78     		ldrb	r3, [r3, #0]
  60 0024 DAB2     		uxtb	r2, r3
ARM GAS  C:\Users\Bryan.Lee\AppData\Local\Temp\cc6u4NKt.s 			page 3


  61 0026 40F20003 		movw	r3, #:lower16:Receiver_backup
  62 002a C0F20003 		movt	r3, #:upper16:Receiver_backup
  63 002e 9A70     		strb	r2, [r3, #2]
  51:.\Generated_Source\PSoC5/Receiver_PM.c ****        Receiver_backup.saveSrIntMask = Receiver_SR_STATUS_MASK;
  64              		.loc 1 51 0
  65 0030 46F28D43 		movw	r3, #:lower16:1073767565
  66 0034 C4F20003 		movt	r3, #:upper16:1073767565
  67 0038 1B78     		ldrb	r3, [r3, #0]
  68 003a DAB2     		uxtb	r2, r3
  69 003c 40F20003 		movw	r3, #:lower16:Receiver_backup
  70 0040 C0F20003 		movt	r3, #:upper16:Receiver_backup
  71 0044 DA70     		strb	r2, [r3, #3]
  52:.\Generated_Source\PSoC5/Receiver_PM.c **** 
  53:.\Generated_Source\PSoC5/Receiver_PM.c ****     #else
  54:.\Generated_Source\PSoC5/Receiver_PM.c ****     /* Store A0, A1 only (not need to save Status Mask register  in ES3 silicon) */
  55:.\Generated_Source\PSoC5/Receiver_PM.c ****        Receiver_backup.saveSrA0Reg   = CY_GET_REG8(Receiver_SHIFT_REG_LSB_PTR);
  56:.\Generated_Source\PSoC5/Receiver_PM.c ****        Receiver_backup.saveSrA1Reg   = CY_GET_REG8(Receiver_SHIFT_REG_VALUE_LSB_PTR);
  57:.\Generated_Source\PSoC5/Receiver_PM.c **** 
  58:.\Generated_Source\PSoC5/Receiver_PM.c ****     #endif /* CY_UDB_V0 */
  59:.\Generated_Source\PSoC5/Receiver_PM.c **** }
  72              		.loc 1 59 0
  73 0046 BD46     		mov	sp, r7
  74 0048 80BC     		pop	{r7}
  75 004a 7047     		bx	lr
  76              		.cfi_endproc
  77              	.LFE0:
  78              		.size	Receiver_SaveConfig, .-Receiver_SaveConfig
  79              		.section	.text.Receiver_RestoreConfig,"ax",%progbits
  80              		.align	2
  81              		.global	Receiver_RestoreConfig
  82              		.thumb
  83              		.thumb_func
  84              		.type	Receiver_RestoreConfig, %function
  85              	Receiver_RestoreConfig:
  86              	.LFB1:
  60:.\Generated_Source\PSoC5/Receiver_PM.c **** 
  61:.\Generated_Source\PSoC5/Receiver_PM.c **** 
  62:.\Generated_Source\PSoC5/Receiver_PM.c **** /*******************************************************************************
  63:.\Generated_Source\PSoC5/Receiver_PM.c **** * Function Name: Receiver_RestoreConfig
  64:.\Generated_Source\PSoC5/Receiver_PM.c **** ********************************************************************************
  65:.\Generated_Source\PSoC5/Receiver_PM.c **** *
  66:.\Generated_Source\PSoC5/Receiver_PM.c **** * Summary:
  67:.\Generated_Source\PSoC5/Receiver_PM.c **** *  Restores Shift Register configuration.
  68:.\Generated_Source\PSoC5/Receiver_PM.c **** *
  69:.\Generated_Source\PSoC5/Receiver_PM.c **** * Parameters:
  70:.\Generated_Source\PSoC5/Receiver_PM.c **** *  None.
  71:.\Generated_Source\PSoC5/Receiver_PM.c **** *
  72:.\Generated_Source\PSoC5/Receiver_PM.c **** * Return:
  73:.\Generated_Source\PSoC5/Receiver_PM.c **** *  None.
  74:.\Generated_Source\PSoC5/Receiver_PM.c **** *
  75:.\Generated_Source\PSoC5/Receiver_PM.c **** *******************************************************************************/
  76:.\Generated_Source\PSoC5/Receiver_PM.c **** void Receiver_RestoreConfig(void) 
  77:.\Generated_Source\PSoC5/Receiver_PM.c **** {
  87              		.loc 1 77 0
  88              		.cfi_startproc
  89              		@ args = 0, pretend = 0, frame = 0
  90              		@ frame_needed = 1, uses_anonymous_args = 0
ARM GAS  C:\Users\Bryan.Lee\AppData\Local\Temp\cc6u4NKt.s 			page 4


  91              		@ link register save eliminated.
  92 0000 80B4     		push	{r7}
  93              	.LCFI2:
  94              		.cfi_def_cfa_offset 4
  95 0002 00AF     		add	r7, sp, #0
  96              		.cfi_offset 7, -4
  97              	.LCFI3:
  98              		.cfi_def_cfa_register 7
  78:.\Generated_Source\PSoC5/Receiver_PM.c ****     /* Restore tha data, saved by SaveConfig()function */
  79:.\Generated_Source\PSoC5/Receiver_PM.c ****     #if (CY_UDB_V0)
  80:.\Generated_Source\PSoC5/Receiver_PM.c ****         CY_SET_REG8(Receiver_SHIFT_REG_LSB_PTR, Receiver_backup.saveSrA0Reg);
  99              		.loc 1 80 0
 100 0004 46F20D43 		movw	r3, #:lower16:1073767437
 101 0008 C4F20003 		movt	r3, #:upper16:1073767437
 102 000c 40F20002 		movw	r2, #:lower16:Receiver_backup
 103 0010 C0F20002 		movt	r2, #:upper16:Receiver_backup
 104 0014 5278     		ldrb	r2, [r2, #1]	@ zero_extendqisi2
 105 0016 1A70     		strb	r2, [r3, #0]
  81:.\Generated_Source\PSoC5/Receiver_PM.c ****             CY_SET_REG8(Receiver_SHIFT_REG_VALUE_LSB_PTR, Receiver_backup.saveSrA1Reg);
 106              		.loc 1 81 0
 107 0018 46F21D43 		movw	r3, #:lower16:1073767453
 108 001c C4F20003 		movt	r3, #:upper16:1073767453
 109 0020 40F20002 		movw	r2, #:lower16:Receiver_backup
 110 0024 C0F20002 		movt	r2, #:upper16:Receiver_backup
 111 0028 9278     		ldrb	r2, [r2, #2]	@ zero_extendqisi2
 112 002a 1A70     		strb	r2, [r3, #0]
  82:.\Generated_Source\PSoC5/Receiver_PM.c ****             Receiver_SR_STATUS_MASK = Receiver_backup.saveSrIntMask;
 113              		.loc 1 82 0
 114 002c 46F28D43 		movw	r3, #:lower16:1073767565
 115 0030 C4F20003 		movt	r3, #:upper16:1073767565
 116 0034 40F20002 		movw	r2, #:lower16:Receiver_backup
 117 0038 C0F20002 		movt	r2, #:upper16:Receiver_backup
 118 003c D278     		ldrb	r2, [r2, #3]	@ zero_extendqisi2
 119 003e 1A70     		strb	r2, [r3, #0]
  83:.\Generated_Source\PSoC5/Receiver_PM.c ****     #else
  84:.\Generated_Source\PSoC5/Receiver_PM.c ****             CY_SET_REG8(Receiver_SHIFT_REG_LSB_PTR, Receiver_backup.saveSrA0Reg);
  85:.\Generated_Source\PSoC5/Receiver_PM.c ****             CY_SET_REG8(Receiver_SHIFT_REG_VALUE_LSB_PTR, Receiver_backup.saveSrA1Reg);
  86:.\Generated_Source\PSoC5/Receiver_PM.c **** 
  87:.\Generated_Source\PSoC5/Receiver_PM.c ****     #endif /* CY_UDB_V0 */
  88:.\Generated_Source\PSoC5/Receiver_PM.c **** }
 120              		.loc 1 88 0
 121 0040 BD46     		mov	sp, r7
 122 0042 80BC     		pop	{r7}
 123 0044 7047     		bx	lr
 124              		.cfi_endproc
 125              	.LFE1:
 126              		.size	Receiver_RestoreConfig, .-Receiver_RestoreConfig
 127 0046 00BF     		.section	.text.Receiver_Sleep,"ax",%progbits
 128              		.align	2
 129              		.global	Receiver_Sleep
 130              		.thumb
 131              		.thumb_func
 132              		.type	Receiver_Sleep, %function
 133              	Receiver_Sleep:
 134              	.LFB2:
  89:.\Generated_Source\PSoC5/Receiver_PM.c **** 
  90:.\Generated_Source\PSoC5/Receiver_PM.c **** 
ARM GAS  C:\Users\Bryan.Lee\AppData\Local\Temp\cc6u4NKt.s 			page 5


  91:.\Generated_Source\PSoC5/Receiver_PM.c **** /*******************************************************************************
  92:.\Generated_Source\PSoC5/Receiver_PM.c **** * Function Name: Receiver_Sleep
  93:.\Generated_Source\PSoC5/Receiver_PM.c **** ********************************************************************************
  94:.\Generated_Source\PSoC5/Receiver_PM.c **** *
  95:.\Generated_Source\PSoC5/Receiver_PM.c **** * Summary:
  96:.\Generated_Source\PSoC5/Receiver_PM.c **** *  Prepare the component to enter a Sleep mode.
  97:.\Generated_Source\PSoC5/Receiver_PM.c **** *
  98:.\Generated_Source\PSoC5/Receiver_PM.c **** * Parameters:
  99:.\Generated_Source\PSoC5/Receiver_PM.c **** *  None.
 100:.\Generated_Source\PSoC5/Receiver_PM.c **** *
 101:.\Generated_Source\PSoC5/Receiver_PM.c **** * Return:
 102:.\Generated_Source\PSoC5/Receiver_PM.c **** *  None.
 103:.\Generated_Source\PSoC5/Receiver_PM.c **** *
 104:.\Generated_Source\PSoC5/Receiver_PM.c **** * Reentrant:
 105:.\Generated_Source\PSoC5/Receiver_PM.c **** *  No. 
 106:.\Generated_Source\PSoC5/Receiver_PM.c **** *
 107:.\Generated_Source\PSoC5/Receiver_PM.c **** *******************************************************************************/
 108:.\Generated_Source\PSoC5/Receiver_PM.c **** void Receiver_Sleep(void) 
 109:.\Generated_Source\PSoC5/Receiver_PM.c **** {
 135              		.loc 1 109 0
 136              		.cfi_startproc
 137              		@ args = 0, pretend = 0, frame = 0
 138              		@ frame_needed = 1, uses_anonymous_args = 0
 139 0000 80B5     		push	{r7, lr}
 140              	.LCFI4:
 141              		.cfi_def_cfa_offset 8
 142 0002 00AF     		add	r7, sp, #0
 143              		.cfi_offset 14, -4
 144              		.cfi_offset 7, -8
 145              	.LCFI5:
 146              		.cfi_def_cfa_register 7
 110:.\Generated_Source\PSoC5/Receiver_PM.c ****     if((Receiver_SR_CONTROL & Receiver_CLK_EN) == Receiver_CLK_EN)
 147              		.loc 1 110 0
 148 0004 46F27D43 		movw	r3, #:lower16:1073767549
 149 0008 C4F20003 		movt	r3, #:upper16:1073767549
 150 000c 1B78     		ldrb	r3, [r3, #0]
 151 000e DBB2     		uxtb	r3, r3
 152 0010 03F00103 		and	r3, r3, #1
 153 0014 DBB2     		uxtb	r3, r3
 154 0016 002B     		cmp	r3, #0
 155 0018 07D0     		beq	.L6
 111:.\Generated_Source\PSoC5/Receiver_PM.c ****     {
 112:.\Generated_Source\PSoC5/Receiver_PM.c ****         Receiver_backup.enableState = 1u;
 156              		.loc 1 112 0
 157 001a 40F20003 		movw	r3, #:lower16:Receiver_backup
 158 001e C0F20003 		movt	r3, #:upper16:Receiver_backup
 159 0022 4FF00102 		mov	r2, #1
 160 0026 1A70     		strb	r2, [r3, #0]
 161 0028 06E0     		b	.L7
 162              	.L6:
 113:.\Generated_Source\PSoC5/Receiver_PM.c ****     }
 114:.\Generated_Source\PSoC5/Receiver_PM.c ****     else
 115:.\Generated_Source\PSoC5/Receiver_PM.c ****     {
 116:.\Generated_Source\PSoC5/Receiver_PM.c ****         Receiver_backup.enableState = 0u;
 163              		.loc 1 116 0
 164 002a 40F20003 		movw	r3, #:lower16:Receiver_backup
 165 002e C0F20003 		movt	r3, #:upper16:Receiver_backup
ARM GAS  C:\Users\Bryan.Lee\AppData\Local\Temp\cc6u4NKt.s 			page 6


 166 0032 4FF00002 		mov	r2, #0
 167 0036 1A70     		strb	r2, [r3, #0]
 168              	.L7:
 117:.\Generated_Source\PSoC5/Receiver_PM.c ****     }
 118:.\Generated_Source\PSoC5/Receiver_PM.c ****     
 119:.\Generated_Source\PSoC5/Receiver_PM.c ****     Receiver_Stop();
 169              		.loc 1 119 0
 170 0038 FFF7FEFF 		bl	Receiver_Stop
 120:.\Generated_Source\PSoC5/Receiver_PM.c ****     Receiver_SaveConfig();
 171              		.loc 1 120 0
 172 003c FFF7FEFF 		bl	Receiver_SaveConfig
 121:.\Generated_Source\PSoC5/Receiver_PM.c **** }
 173              		.loc 1 121 0
 174 0040 80BD     		pop	{r7, pc}
 175              		.cfi_endproc
 176              	.LFE2:
 177              		.size	Receiver_Sleep, .-Receiver_Sleep
 178 0042 00BF     		.section	.text.Receiver_Wakeup,"ax",%progbits
 179              		.align	2
 180              		.global	Receiver_Wakeup
 181              		.thumb
 182              		.thumb_func
 183              		.type	Receiver_Wakeup, %function
 184              	Receiver_Wakeup:
 185              	.LFB3:
 122:.\Generated_Source\PSoC5/Receiver_PM.c **** 
 123:.\Generated_Source\PSoC5/Receiver_PM.c **** 
 124:.\Generated_Source\PSoC5/Receiver_PM.c **** /*******************************************************************************
 125:.\Generated_Source\PSoC5/Receiver_PM.c **** * Function Name: Receiver_Wakeup
 126:.\Generated_Source\PSoC5/Receiver_PM.c **** ********************************************************************************
 127:.\Generated_Source\PSoC5/Receiver_PM.c **** *
 128:.\Generated_Source\PSoC5/Receiver_PM.c **** * Summary:
 129:.\Generated_Source\PSoC5/Receiver_PM.c **** *  Restores and enables the user configuration.
 130:.\Generated_Source\PSoC5/Receiver_PM.c **** *
 131:.\Generated_Source\PSoC5/Receiver_PM.c **** * Parameters:
 132:.\Generated_Source\PSoC5/Receiver_PM.c **** *  None.
 133:.\Generated_Source\PSoC5/Receiver_PM.c **** *
 134:.\Generated_Source\PSoC5/Receiver_PM.c **** * Return:
 135:.\Generated_Source\PSoC5/Receiver_PM.c **** *  None.
 136:.\Generated_Source\PSoC5/Receiver_PM.c **** *
 137:.\Generated_Source\PSoC5/Receiver_PM.c **** *******************************************************************************/
 138:.\Generated_Source\PSoC5/Receiver_PM.c **** void Receiver_Wakeup(void) 
 139:.\Generated_Source\PSoC5/Receiver_PM.c **** {
 186              		.loc 1 139 0
 187              		.cfi_startproc
 188              		@ args = 0, pretend = 0, frame = 0
 189              		@ frame_needed = 1, uses_anonymous_args = 0
 190 0000 80B5     		push	{r7, lr}
 191              	.LCFI6:
 192              		.cfi_def_cfa_offset 8
 193 0002 00AF     		add	r7, sp, #0
 194              		.cfi_offset 14, -4
 195              		.cfi_offset 7, -8
 196              	.LCFI7:
 197              		.cfi_def_cfa_register 7
 140:.\Generated_Source\PSoC5/Receiver_PM.c ****     Receiver_RestoreConfig();
 198              		.loc 1 140 0
ARM GAS  C:\Users\Bryan.Lee\AppData\Local\Temp\cc6u4NKt.s 			page 7


 199 0004 FFF7FEFF 		bl	Receiver_RestoreConfig
 141:.\Generated_Source\PSoC5/Receiver_PM.c ****     
 142:.\Generated_Source\PSoC5/Receiver_PM.c ****     if(Receiver_backup.enableState == 1u)
 200              		.loc 1 142 0
 201 0008 40F20003 		movw	r3, #:lower16:Receiver_backup
 202 000c C0F20003 		movt	r3, #:upper16:Receiver_backup
 203 0010 1B78     		ldrb	r3, [r3, #0]	@ zero_extendqisi2
 204 0012 012B     		cmp	r3, #1
 205 0014 01D1     		bne	.L11
 143:.\Generated_Source\PSoC5/Receiver_PM.c ****     {
 144:.\Generated_Source\PSoC5/Receiver_PM.c ****         Receiver_Enable();   
 206              		.loc 1 144 0
 207 0016 FFF7FEFF 		bl	Receiver_Enable
 208              	.L11:
 145:.\Generated_Source\PSoC5/Receiver_PM.c ****     }
 146:.\Generated_Source\PSoC5/Receiver_PM.c **** }
 209              		.loc 1 146 0
 210 001a 80BD     		pop	{r7, pc}
 211              		.cfi_endproc
 212              	.LFE3:
 213              		.size	Receiver_Wakeup, .-Receiver_Wakeup
 214              		.text
 215              	.Letext0: