ARM GAS  C:\Users\Bryan\AppData\Local\Temp\ccckzTjf.s 			page 1


   1              		.cpu cortex-m0
   2              		.fpu softvfp
   3              		.eabi_attribute 20, 1
   4              		.eabi_attribute 21, 1
   5              		.eabi_attribute 23, 3
   6              		.eabi_attribute 24, 1
   7              		.eabi_attribute 25, 1
   8              		.eabi_attribute 26, 1
   9              		.eabi_attribute 30, 1
  10              		.eabi_attribute 34, 0
  11              		.eabi_attribute 18, 4
  12              		.code	16
  13              		.file	"ADC_SAR_Seq_1.c"
  14              		.text
  15              	.Ltext0:
  16              		.cfi_sections	.debug_frame
  17              		.section	.text.ADC_SAR_Seq_1_Init,"ax",%progbits
  18              		.align	2
  19              		.global	ADC_SAR_Seq_1_Init
  20              		.code	16
  21              		.thumb_func
  22              		.type	ADC_SAR_Seq_1_Init, %function
  23              	ADC_SAR_Seq_1_Init:
  24              	.LFB1:
  25              		.file 1 ".\\Generated_Source\\PSoC4\\ADC_SAR_Seq_1.c"
   1:.\Generated_Source\PSoC4/ADC_SAR_Seq_1.c **** /*******************************************************************************
   2:.\Generated_Source\PSoC4/ADC_SAR_Seq_1.c **** * File Name: ADC_SAR_Seq_1.c
   3:.\Generated_Source\PSoC4/ADC_SAR_Seq_1.c **** * Version 2.40
   4:.\Generated_Source\PSoC4/ADC_SAR_Seq_1.c **** *
   5:.\Generated_Source\PSoC4/ADC_SAR_Seq_1.c **** * Description:
   6:.\Generated_Source\PSoC4/ADC_SAR_Seq_1.c **** *  This file provides the source code to the API for the Sequencing Successive
   7:.\Generated_Source\PSoC4/ADC_SAR_Seq_1.c **** *  Approximation ADC Component Component.
   8:.\Generated_Source\PSoC4/ADC_SAR_Seq_1.c **** *
   9:.\Generated_Source\PSoC4/ADC_SAR_Seq_1.c **** * Note:
  10:.\Generated_Source\PSoC4/ADC_SAR_Seq_1.c **** *
  11:.\Generated_Source\PSoC4/ADC_SAR_Seq_1.c **** ********************************************************************************
  12:.\Generated_Source\PSoC4/ADC_SAR_Seq_1.c **** * Copyright 2008-2015, Cypress Semiconductor Corporation.  All rights reserved.
  13:.\Generated_Source\PSoC4/ADC_SAR_Seq_1.c **** * You may use this file only in accordance with the license, terms, conditions,
  14:.\Generated_Source\PSoC4/ADC_SAR_Seq_1.c **** * disclaimers, and limitations in the end user license agreement accompanying
  15:.\Generated_Source\PSoC4/ADC_SAR_Seq_1.c **** * the software package with which this file was provided.
  16:.\Generated_Source\PSoC4/ADC_SAR_Seq_1.c **** *******************************************************************************/
  17:.\Generated_Source\PSoC4/ADC_SAR_Seq_1.c **** 
  18:.\Generated_Source\PSoC4/ADC_SAR_Seq_1.c **** #include "ADC_SAR_Seq_1.h"
  19:.\Generated_Source\PSoC4/ADC_SAR_Seq_1.c **** 
  20:.\Generated_Source\PSoC4/ADC_SAR_Seq_1.c **** 
  21:.\Generated_Source\PSoC4/ADC_SAR_Seq_1.c **** /***************************************
  22:.\Generated_Source\PSoC4/ADC_SAR_Seq_1.c **** * Global data allocation
  23:.\Generated_Source\PSoC4/ADC_SAR_Seq_1.c **** ***************************************/
  24:.\Generated_Source\PSoC4/ADC_SAR_Seq_1.c **** uint8 ADC_SAR_Seq_1_initVar = 0u;
  25:.\Generated_Source\PSoC4/ADC_SAR_Seq_1.c **** volatile int16 ADC_SAR_Seq_1_offset[ADC_SAR_Seq_1_TOTAL_CHANNELS_NUM];
  26:.\Generated_Source\PSoC4/ADC_SAR_Seq_1.c **** volatile int32 ADC_SAR_Seq_1_countsPer10Volt[ADC_SAR_Seq_1_TOTAL_CHANNELS_NUM];   /* Gain compensat
  27:.\Generated_Source\PSoC4/ADC_SAR_Seq_1.c **** 
  28:.\Generated_Source\PSoC4/ADC_SAR_Seq_1.c **** 
  29:.\Generated_Source\PSoC4/ADC_SAR_Seq_1.c **** /***************************************
  30:.\Generated_Source\PSoC4/ADC_SAR_Seq_1.c **** * Local data allocation
  31:.\Generated_Source\PSoC4/ADC_SAR_Seq_1.c **** ***************************************/
  32:.\Generated_Source\PSoC4/ADC_SAR_Seq_1.c **** /* Channels configuration generated by customiser */
ARM GAS  C:\Users\Bryan\AppData\Local\Temp\ccckzTjf.s 			page 2


  33:.\Generated_Source\PSoC4/ADC_SAR_Seq_1.c **** static const uint32 CYCODE ADC_SAR_Seq_1_channelsConfig[] = { 0x00000100u };
  34:.\Generated_Source\PSoC4/ADC_SAR_Seq_1.c **** 
  35:.\Generated_Source\PSoC4/ADC_SAR_Seq_1.c **** 
  36:.\Generated_Source\PSoC4/ADC_SAR_Seq_1.c **** /*******************************************************************************
  37:.\Generated_Source\PSoC4/ADC_SAR_Seq_1.c **** * Function Name: ADC_SAR_Seq_1_Start
  38:.\Generated_Source\PSoC4/ADC_SAR_Seq_1.c **** ********************************************************************************
  39:.\Generated_Source\PSoC4/ADC_SAR_Seq_1.c **** *
  40:.\Generated_Source\PSoC4/ADC_SAR_Seq_1.c **** * Summary:
  41:.\Generated_Source\PSoC4/ADC_SAR_Seq_1.c **** *  Performs all required initialization for this component
  42:.\Generated_Source\PSoC4/ADC_SAR_Seq_1.c **** *  and enables the power. The power will be set to the appropriate
  43:.\Generated_Source\PSoC4/ADC_SAR_Seq_1.c **** *  power based on the clock frequency.
  44:.\Generated_Source\PSoC4/ADC_SAR_Seq_1.c **** *
  45:.\Generated_Source\PSoC4/ADC_SAR_Seq_1.c **** * Parameters:
  46:.\Generated_Source\PSoC4/ADC_SAR_Seq_1.c **** *  None.
  47:.\Generated_Source\PSoC4/ADC_SAR_Seq_1.c **** *
  48:.\Generated_Source\PSoC4/ADC_SAR_Seq_1.c **** * Return:
  49:.\Generated_Source\PSoC4/ADC_SAR_Seq_1.c **** *  None.
  50:.\Generated_Source\PSoC4/ADC_SAR_Seq_1.c **** *
  51:.\Generated_Source\PSoC4/ADC_SAR_Seq_1.c **** * Global variables:
  52:.\Generated_Source\PSoC4/ADC_SAR_Seq_1.c **** *  The ADC_SAR_Seq_1_initVar variable is used to indicate when/if initial
  53:.\Generated_Source\PSoC4/ADC_SAR_Seq_1.c **** *  configuration of this component has happened. The variable is initialized to
  54:.\Generated_Source\PSoC4/ADC_SAR_Seq_1.c **** *  zero and set to 1 the first time ADC_Start() is called. This allows for
  55:.\Generated_Source\PSoC4/ADC_SAR_Seq_1.c **** *  component Re-Start without re-initialization in all subsequent calls to the
  56:.\Generated_Source\PSoC4/ADC_SAR_Seq_1.c **** *  ADC_SAR_Seq_1_Start() routine.
  57:.\Generated_Source\PSoC4/ADC_SAR_Seq_1.c **** *  If re-initialization of the component is required the variable should be set
  58:.\Generated_Source\PSoC4/ADC_SAR_Seq_1.c **** *  to zero before call of ADC_SAR_Seq_1_Start() routine, or the user may call
  59:.\Generated_Source\PSoC4/ADC_SAR_Seq_1.c **** *  ADC_SAR_Seq_1_Init() and ADC_SAR_Seq_1_Enable() as done in the
  60:.\Generated_Source\PSoC4/ADC_SAR_Seq_1.c **** *  ADC_SAR_Seq_1_Start() routine.
  61:.\Generated_Source\PSoC4/ADC_SAR_Seq_1.c **** *
  62:.\Generated_Source\PSoC4/ADC_SAR_Seq_1.c **** *******************************************************************************/
  63:.\Generated_Source\PSoC4/ADC_SAR_Seq_1.c **** void ADC_SAR_Seq_1_Start(void)
  64:.\Generated_Source\PSoC4/ADC_SAR_Seq_1.c **** {
  65:.\Generated_Source\PSoC4/ADC_SAR_Seq_1.c ****     /* If not Initialized then initialize all required hardware and software */
  66:.\Generated_Source\PSoC4/ADC_SAR_Seq_1.c ****     if(ADC_SAR_Seq_1_initVar == 0u)
  67:.\Generated_Source\PSoC4/ADC_SAR_Seq_1.c ****     {
  68:.\Generated_Source\PSoC4/ADC_SAR_Seq_1.c ****         ADC_SAR_Seq_1_Init();
  69:.\Generated_Source\PSoC4/ADC_SAR_Seq_1.c ****         ADC_SAR_Seq_1_initVar = 1u;
  70:.\Generated_Source\PSoC4/ADC_SAR_Seq_1.c ****     }
  71:.\Generated_Source\PSoC4/ADC_SAR_Seq_1.c ****     ADC_SAR_Seq_1_Enable();
  72:.\Generated_Source\PSoC4/ADC_SAR_Seq_1.c **** }
  73:.\Generated_Source\PSoC4/ADC_SAR_Seq_1.c **** 
  74:.\Generated_Source\PSoC4/ADC_SAR_Seq_1.c **** 
  75:.\Generated_Source\PSoC4/ADC_SAR_Seq_1.c **** /*******************************************************************************
  76:.\Generated_Source\PSoC4/ADC_SAR_Seq_1.c **** * Function Name: ADC_SAR_Seq_1_Init
  77:.\Generated_Source\PSoC4/ADC_SAR_Seq_1.c **** ********************************************************************************
  78:.\Generated_Source\PSoC4/ADC_SAR_Seq_1.c **** *
  79:.\Generated_Source\PSoC4/ADC_SAR_Seq_1.c **** * Summary:
  80:.\Generated_Source\PSoC4/ADC_SAR_Seq_1.c **** *  Initialize component's parameters to the parameters set by user in the
  81:.\Generated_Source\PSoC4/ADC_SAR_Seq_1.c **** *  customizer of the component placed onto schematic. Usually called in
  82:.\Generated_Source\PSoC4/ADC_SAR_Seq_1.c **** *  ADC_SAR_Seq_1_Start().
  83:.\Generated_Source\PSoC4/ADC_SAR_Seq_1.c **** *
  84:.\Generated_Source\PSoC4/ADC_SAR_Seq_1.c **** * Parameters:
  85:.\Generated_Source\PSoC4/ADC_SAR_Seq_1.c **** *  None.
  86:.\Generated_Source\PSoC4/ADC_SAR_Seq_1.c **** *
  87:.\Generated_Source\PSoC4/ADC_SAR_Seq_1.c **** * Return:
  88:.\Generated_Source\PSoC4/ADC_SAR_Seq_1.c **** *  None.
  89:.\Generated_Source\PSoC4/ADC_SAR_Seq_1.c **** *
ARM GAS  C:\Users\Bryan\AppData\Local\Temp\ccckzTjf.s 			page 3


  90:.\Generated_Source\PSoC4/ADC_SAR_Seq_1.c **** * Global variables:
  91:.\Generated_Source\PSoC4/ADC_SAR_Seq_1.c **** *  The ADC_SAR_Seq_1_offset variable is initialized.
  92:.\Generated_Source\PSoC4/ADC_SAR_Seq_1.c **** *
  93:.\Generated_Source\PSoC4/ADC_SAR_Seq_1.c **** *******************************************************************************/
  94:.\Generated_Source\PSoC4/ADC_SAR_Seq_1.c **** void ADC_SAR_Seq_1_Init(void)
  95:.\Generated_Source\PSoC4/ADC_SAR_Seq_1.c **** {
  26              		.loc 1 95 0
  27              		.cfi_startproc
  28 0000 08B5     		push	{r3, lr}
  29              		.cfi_def_cfa_offset 8
  30              		.cfi_offset 3, -8
  31              		.cfi_offset 14, -4
  96:.\Generated_Source\PSoC4/ADC_SAR_Seq_1.c ****     uint32 chNum;
  97:.\Generated_Source\PSoC4/ADC_SAR_Seq_1.c ****     uint32 tmpRegVal;
  98:.\Generated_Source\PSoC4/ADC_SAR_Seq_1.c ****     int32 counts;
  99:.\Generated_Source\PSoC4/ADC_SAR_Seq_1.c **** 
 100:.\Generated_Source\PSoC4/ADC_SAR_Seq_1.c ****     #if(ADC_SAR_Seq_1_TOTAL_CHANNELS_NUM > 1u)
 101:.\Generated_Source\PSoC4/ADC_SAR_Seq_1.c ****         static const uint8 CYCODE ADC_SAR_Seq_1_InputsPlacement[] =
 102:.\Generated_Source\PSoC4/ADC_SAR_Seq_1.c ****         {
 103:.\Generated_Source\PSoC4/ADC_SAR_Seq_1.c ****             (uint8)(ADC_SAR_Seq_1_cy_psoc4_sarmux_8__CH_0_PORT << 4u) |
 104:.\Generated_Source\PSoC4/ADC_SAR_Seq_1.c ****             (uint8)ADC_SAR_Seq_1_cy_psoc4_sarmux_8__CH_0_PIN
 105:.\Generated_Source\PSoC4/ADC_SAR_Seq_1.c ****             ,(uint8)(ADC_SAR_Seq_1_cy_psoc4_sarmux_8__CH_1_PORT << 4u) |
 106:.\Generated_Source\PSoC4/ADC_SAR_Seq_1.c ****              (uint8)ADC_SAR_Seq_1_cy_psoc4_sarmux_8__CH_1_PIN
 107:.\Generated_Source\PSoC4/ADC_SAR_Seq_1.c ****             #if(ADC_SAR_Seq_1_TOTAL_CHANNELS_NUM > 2u)
 108:.\Generated_Source\PSoC4/ADC_SAR_Seq_1.c ****                 ,(uint8)(ADC_SAR_Seq_1_cy_psoc4_sarmux_8__CH_2_PORT << 4u) |
 109:.\Generated_Source\PSoC4/ADC_SAR_Seq_1.c ****                  (uint8)ADC_SAR_Seq_1_cy_psoc4_sarmux_8__CH_2_PIN
 110:.\Generated_Source\PSoC4/ADC_SAR_Seq_1.c ****             #endif /* End ADC_SAR_Seq_1_TOTAL_CHANNELS_NUM > 2u */
 111:.\Generated_Source\PSoC4/ADC_SAR_Seq_1.c ****             #if(ADC_SAR_Seq_1_TOTAL_CHANNELS_NUM > 3u)
 112:.\Generated_Source\PSoC4/ADC_SAR_Seq_1.c ****                 ,(uint8)(ADC_SAR_Seq_1_cy_psoc4_sarmux_8__CH_3_PORT << 4u) |
 113:.\Generated_Source\PSoC4/ADC_SAR_Seq_1.c ****                  (uint8)ADC_SAR_Seq_1_cy_psoc4_sarmux_8__CH_3_PIN
 114:.\Generated_Source\PSoC4/ADC_SAR_Seq_1.c ****             #endif /* End ADC_SAR_Seq_1_TOTAL_CHANNELS_NUM > 3u */
 115:.\Generated_Source\PSoC4/ADC_SAR_Seq_1.c ****             #if(ADC_SAR_Seq_1_TOTAL_CHANNELS_NUM > 4u)
 116:.\Generated_Source\PSoC4/ADC_SAR_Seq_1.c ****                 ,(uint8)(ADC_SAR_Seq_1_cy_psoc4_sarmux_8__CH_4_PORT << 4u) |
 117:.\Generated_Source\PSoC4/ADC_SAR_Seq_1.c ****                  (uint8)ADC_SAR_Seq_1_cy_psoc4_sarmux_8__CH_4_PIN
 118:.\Generated_Source\PSoC4/ADC_SAR_Seq_1.c ****             #endif /* End ADC_SAR_Seq_1_TOTAL_CHANNELS_NUM > 4u */
 119:.\Generated_Source\PSoC4/ADC_SAR_Seq_1.c ****             #if(ADC_SAR_Seq_1_TOTAL_CHANNELS_NUM > 5u)
 120:.\Generated_Source\PSoC4/ADC_SAR_Seq_1.c ****                 ,(uint8)(ADC_SAR_Seq_1_cy_psoc4_sarmux_8__CH_5_PORT << 4u) |
 121:.\Generated_Source\PSoC4/ADC_SAR_Seq_1.c ****                  (uint8)ADC_SAR_Seq_1_cy_psoc4_sarmux_8__CH_5_PIN
 122:.\Generated_Source\PSoC4/ADC_SAR_Seq_1.c ****             #endif /* End ADC_SAR_Seq_1_TOTAL_CHANNELS_NUM > 5u */
 123:.\Generated_Source\PSoC4/ADC_SAR_Seq_1.c ****             #if(ADC_SAR_Seq_1_TOTAL_CHANNELS_NUM > 6u)
 124:.\Generated_Source\PSoC4/ADC_SAR_Seq_1.c ****                 ,(uint8)(ADC_SAR_Seq_1_cy_psoc4_sarmux_8__CH_6_PORT << 4u) |
 125:.\Generated_Source\PSoC4/ADC_SAR_Seq_1.c ****                  (uint8)ADC_SAR_Seq_1_cy_psoc4_sarmux_8__CH_6_PIN
 126:.\Generated_Source\PSoC4/ADC_SAR_Seq_1.c ****             #endif /* End ADC_SAR_Seq_1_TOTAL_CHANNELS_NUM > 6u */
 127:.\Generated_Source\PSoC4/ADC_SAR_Seq_1.c ****             #if(ADC_SAR_Seq_1_TOTAL_CHANNELS_NUM > 7u)
 128:.\Generated_Source\PSoC4/ADC_SAR_Seq_1.c ****                 ,(uint8)(ADC_SAR_Seq_1_cy_psoc4_sarmux_8__CH_7_PORT << 4u) |
 129:.\Generated_Source\PSoC4/ADC_SAR_Seq_1.c ****                  (uint8)ADC_SAR_Seq_1_cy_psoc4_sarmux_8__CH_7_PIN
 130:.\Generated_Source\PSoC4/ADC_SAR_Seq_1.c ****             #endif /* End ADC_SAR_Seq_1_TOTAL_CHANNELS_NUM > 7u */
 131:.\Generated_Source\PSoC4/ADC_SAR_Seq_1.c ****             #if(ADC_SAR_Seq_1_TOTAL_CHANNELS_NUM > 8u)
 132:.\Generated_Source\PSoC4/ADC_SAR_Seq_1.c ****                 ,(uint8)(ADC_SAR_Seq_1_cy_psoc4_sarmux_8__CH_8_PORT << 4u) |
 133:.\Generated_Source\PSoC4/ADC_SAR_Seq_1.c ****                  (uint8)ADC_SAR_Seq_1_cy_psoc4_sarmux_8__CH_8_PIN
 134:.\Generated_Source\PSoC4/ADC_SAR_Seq_1.c ****             #endif /* End ADC_SAR_Seq_1_TOTAL_CHANNELS_NUM > 8u */
 135:.\Generated_Source\PSoC4/ADC_SAR_Seq_1.c ****             #if(ADC_SAR_Seq_1_TOTAL_CHANNELS_NUM > 9u)
 136:.\Generated_Source\PSoC4/ADC_SAR_Seq_1.c ****                 ,(uint8)(ADC_SAR_Seq_1_cy_psoc4_sarmux_8__CH_9_PORT << 4u) |
 137:.\Generated_Source\PSoC4/ADC_SAR_Seq_1.c ****                  (uint8)ADC_SAR_Seq_1_cy_psoc4_sarmux_8__CH_9_PIN
 138:.\Generated_Source\PSoC4/ADC_SAR_Seq_1.c ****             #endif /* End ADC_SAR_Seq_1_TOTAL_CHANNELS_NUM > 9u */
 139:.\Generated_Source\PSoC4/ADC_SAR_Seq_1.c ****             #if(ADC_SAR_Seq_1_TOTAL_CHANNELS_NUM > 10u)
 140:.\Generated_Source\PSoC4/ADC_SAR_Seq_1.c ****                 ,(uint8)(ADC_SAR_Seq_1_cy_psoc4_sarmux_8__CH_10_PORT << 4u) |
ARM GAS  C:\Users\Bryan\AppData\Local\Temp\ccckzTjf.s 			page 4


 141:.\Generated_Source\PSoC4/ADC_SAR_Seq_1.c ****                  (uint8)ADC_SAR_Seq_1_cy_psoc4_sarmux_8__CH_10_PIN
 142:.\Generated_Source\PSoC4/ADC_SAR_Seq_1.c ****             #endif /* End ADC_SAR_Seq_1_TOTAL_CHANNELS_NUM > 10u */
 143:.\Generated_Source\PSoC4/ADC_SAR_Seq_1.c ****             #if(ADC_SAR_Seq_1_TOTAL_CHANNELS_NUM > 11u)
 144:.\Generated_Source\PSoC4/ADC_SAR_Seq_1.c ****                 ,(uint8)(ADC_SAR_Seq_1_cy_psoc4_sarmux_8__CH_11_PORT << 4u) |
 145:.\Generated_Source\PSoC4/ADC_SAR_Seq_1.c ****                  (uint8)ADC_SAR_Seq_1_cy_psoc4_sarmux_8__CH_11_PIN
 146:.\Generated_Source\PSoC4/ADC_SAR_Seq_1.c ****             #endif /* End ADC_SAR_Seq_1_TOTAL_CHANNELS_NUM > 11u */
 147:.\Generated_Source\PSoC4/ADC_SAR_Seq_1.c ****             #if(ADC_SAR_Seq_1_TOTAL_CHANNELS_NUM > 12u)
 148:.\Generated_Source\PSoC4/ADC_SAR_Seq_1.c ****                 ,(uint8)(ADC_SAR_Seq_1_cy_psoc4_sarmux_8__CH_12_PORT << 4u) |
 149:.\Generated_Source\PSoC4/ADC_SAR_Seq_1.c ****                  (uint8)ADC_SAR_Seq_1_cy_psoc4_sarmux_8__CH_12_PIN
 150:.\Generated_Source\PSoC4/ADC_SAR_Seq_1.c ****             #endif /* End ADC_SAR_Seq_1_TOTAL_CHANNELS_NUM > 12u */
 151:.\Generated_Source\PSoC4/ADC_SAR_Seq_1.c ****             #if(ADC_SAR_Seq_1_TOTAL_CHANNELS_NUM > 13u)
 152:.\Generated_Source\PSoC4/ADC_SAR_Seq_1.c ****                 ,(uint8)(ADC_SAR_Seq_1_cy_psoc4_sarmux_8__CH_13_PORT << 4u) |
 153:.\Generated_Source\PSoC4/ADC_SAR_Seq_1.c ****                  (uint8)ADC_SAR_Seq_1_cy_psoc4_sarmux_8__CH_13_PIN
 154:.\Generated_Source\PSoC4/ADC_SAR_Seq_1.c ****             #endif /* End ADC_SAR_Seq_1_TOTAL_CHANNELS_NUM > 13u */
 155:.\Generated_Source\PSoC4/ADC_SAR_Seq_1.c ****             #if(ADC_SAR_Seq_1_TOTAL_CHANNELS_NUM > 14u)
 156:.\Generated_Source\PSoC4/ADC_SAR_Seq_1.c ****                 ,(uint8)(ADC_SAR_Seq_1_cy_psoc4_sarmux_8__CH_14_PORT << 4u) |
 157:.\Generated_Source\PSoC4/ADC_SAR_Seq_1.c ****                  (uint8)ADC_SAR_Seq_1_cy_psoc4_sarmux_8__CH_14_PIN
 158:.\Generated_Source\PSoC4/ADC_SAR_Seq_1.c ****             #endif /* End ADC_SAR_Seq_1_TOTAL_CHANNELS_NUM > 14u */
 159:.\Generated_Source\PSoC4/ADC_SAR_Seq_1.c ****             #if(ADC_SAR_Seq_1_TOTAL_CHANNELS_NUM > 15u)
 160:.\Generated_Source\PSoC4/ADC_SAR_Seq_1.c ****                 ,(uint8)(ADC_SAR_Seq_1_cy_psoc4_sarmux_8__CH_15_PORT << 4u) |
 161:.\Generated_Source\PSoC4/ADC_SAR_Seq_1.c ****                  (uint8)ADC_SAR_Seq_1_cy_psoc4_sarmux_8__CH_15_PIN
 162:.\Generated_Source\PSoC4/ADC_SAR_Seq_1.c ****             #endif /* End ADC_SAR_Seq_1_TOTAL_CHANNELS_NUM > 15u */
 163:.\Generated_Source\PSoC4/ADC_SAR_Seq_1.c ****             #if(ADC_SAR_Seq_1_TOTAL_CHANNELS_NUM > 16u)
 164:.\Generated_Source\PSoC4/ADC_SAR_Seq_1.c ****                 ,(uint8)(ADC_SAR_Seq_1_cy_psoc4_sarmux_8__CH_16_PORT << 4u) |
 165:.\Generated_Source\PSoC4/ADC_SAR_Seq_1.c ****                  (uint8)ADC_SAR_Seq_1_cy_psoc4_sarmux_8__CH_16_PIN
 166:.\Generated_Source\PSoC4/ADC_SAR_Seq_1.c ****             #endif /* End ADC_SAR_Seq_1_TOTAL_CHANNELS_NUM > 16u */
 167:.\Generated_Source\PSoC4/ADC_SAR_Seq_1.c ****         };
 168:.\Generated_Source\PSoC4/ADC_SAR_Seq_1.c ****     #endif /* End ADC_SAR_Seq_1_TOTAL_CHANNELS_NUM > 1u */
 169:.\Generated_Source\PSoC4/ADC_SAR_Seq_1.c **** 
 170:.\Generated_Source\PSoC4/ADC_SAR_Seq_1.c ****     #if(ADC_SAR_Seq_1_IRQ_REMOVE == 0u)
 171:.\Generated_Source\PSoC4/ADC_SAR_Seq_1.c ****         /* Start and set interrupt vector */
 172:.\Generated_Source\PSoC4/ADC_SAR_Seq_1.c ****         CyIntSetPriority(ADC_SAR_Seq_1_INTC_NUMBER, ADC_SAR_Seq_1_INTC_PRIOR_NUMBER);
  32              		.loc 1 172 0
  33 0002 0E20     		mov	r0, #14
  34 0004 0321     		mov	r1, #3
  35 0006 FFF7FEFF 		bl	CyIntSetPriority
  36              	.LVL0:
 173:.\Generated_Source\PSoC4/ADC_SAR_Seq_1.c ****         (void)CyIntSetVector(ADC_SAR_Seq_1_INTC_NUMBER, &ADC_SAR_Seq_1_ISR);
  37              		.loc 1 173 0
  38 000a 0E20     		mov	r0, #14
  39 000c 2149     		ldr	r1, .L6
  40 000e FFF7FEFF 		bl	CyIntSetVector
  41              	.LVL1:
 174:.\Generated_Source\PSoC4/ADC_SAR_Seq_1.c ****     #endif   /* End ADC_SAR_Seq_1_IRQ_REMOVE */
 175:.\Generated_Source\PSoC4/ADC_SAR_Seq_1.c **** 
 176:.\Generated_Source\PSoC4/ADC_SAR_Seq_1.c ****     /* Init SAR and MUX registers */
 177:.\Generated_Source\PSoC4/ADC_SAR_Seq_1.c ****     ADC_SAR_Seq_1_SAR_CHAN_EN_REG = ADC_SAR_Seq_1_DEFAULT_EN_CHANNELS;
  42              		.loc 1 177 0
  43 0012 0122     		mov	r2, #1
  44 0014 204B     		ldr	r3, .L6+4
  45 0016 1A60     		str	r2, [r3]
 178:.\Generated_Source\PSoC4/ADC_SAR_Seq_1.c ****     ADC_SAR_Seq_1_SAR_CTRL_REG |= ADC_SAR_Seq_1_DEFAULT_CTRL_REG_CFG | 
 179:.\Generated_Source\PSoC4/ADC_SAR_Seq_1.c ****         /* Enable the SAR internal pump when global pump is enabled */
 180:.\Generated_Source\PSoC4/ADC_SAR_Seq_1.c ****         (((ADC_SAR_Seq_1_PUMP_CTRL_REG & ADC_SAR_Seq_1_PUMP_CTRL_ENABLED) != 0u) ? 
  46              		.loc 1 180 0
  47 0018 204B     		ldr	r3, .L6+8
  48 001a 1B68     		ldr	r3, [r3]
ARM GAS  C:\Users\Bryan\AppData\Local\Temp\ccckzTjf.s 			page 5


 178:.\Generated_Source\PSoC4/ADC_SAR_Seq_1.c ****     ADC_SAR_Seq_1_SAR_CTRL_REG |= ADC_SAR_Seq_1_DEFAULT_CTRL_REG_CFG | 
  49              		.loc 1 178 0
  50 001c 002B     		cmp	r3, #0
  51 001e 01DA     		bge	.L5
  52 0020 1F49     		ldr	r1, .L6+12
  53 0022 00E0     		b	.L2
  54              	.L5:
  55 0024 1F49     		ldr	r1, .L6+16
  56              	.L2:
 178:.\Generated_Source\PSoC4/ADC_SAR_Seq_1.c ****     ADC_SAR_Seq_1_SAR_CTRL_REG |= ADC_SAR_Seq_1_DEFAULT_CTRL_REG_CFG | 
  57              		.loc 1 178 0 is_stmt 0 discriminator 4
  58 0026 204A     		ldr	r2, .L6+20
  59 0028 1368     		ldr	r3, [r2]
  60 002a 0B43     		orr	r3, r1
  61 002c 1360     		str	r3, [r2]
 181:.\Generated_Source\PSoC4/ADC_SAR_Seq_1.c ****         ADC_SAR_Seq_1_BOOSTPUMP_EN : 0u);
 182:.\Generated_Source\PSoC4/ADC_SAR_Seq_1.c ****     ADC_SAR_Seq_1_SAR_SAMPLE_CTRL_REG = ADC_SAR_Seq_1_DEFAULT_SAMPLE_CTRL_REG_CFG;
  62              		.loc 1 182 0 is_stmt 1 discriminator 4
  63 002e 1F4A     		ldr	r2, .L6+24
  64 0030 1F4B     		ldr	r3, .L6+28
  65 0032 1A60     		str	r2, [r3]
 183:.\Generated_Source\PSoC4/ADC_SAR_Seq_1.c ****     ADC_SAR_Seq_1_SAR_RANGE_THRES_REG = ADC_SAR_Seq_1_DEFAULT_RANGE_THRES_REG_CFG;
  66              		.loc 1 183 0 discriminator 4
  67 0034 1F4A     		ldr	r2, .L6+32
  68 0036 204B     		ldr	r3, .L6+36
  69 0038 1A60     		str	r2, [r3]
 184:.\Generated_Source\PSoC4/ADC_SAR_Seq_1.c ****     ADC_SAR_Seq_1_SAR_RANGE_COND_REG  = ADC_SAR_Seq_1_COMPARE_MODE;
  70              		.loc 1 184 0 discriminator 4
  71 003a 0023     		mov	r3, #0
  72 003c 1F4A     		ldr	r2, .L6+40
  73 003e 1360     		str	r3, [r2]
 185:.\Generated_Source\PSoC4/ADC_SAR_Seq_1.c ****     ADC_SAR_Seq_1_SAR_SAMPLE_TIME01_REG = ADC_SAR_Seq_1_DEFAULT_SAMPLE_TIME01_REG_CFG;
  74              		.loc 1 185 0 discriminator 4
  75 0040 1F4A     		ldr	r2, .L6+44
  76 0042 2049     		ldr	r1, .L6+48
  77 0044 0A60     		str	r2, [r1]
 186:.\Generated_Source\PSoC4/ADC_SAR_Seq_1.c ****     ADC_SAR_Seq_1_SAR_SAMPLE_TIME23_REG = ADC_SAR_Seq_1_DEFAULT_SAMPLE_TIME23_REG_CFG;
  78              		.loc 1 186 0 discriminator 4
  79 0046 2049     		ldr	r1, .L6+52
  80 0048 0A60     		str	r2, [r1]
 187:.\Generated_Source\PSoC4/ADC_SAR_Seq_1.c ****     
 188:.\Generated_Source\PSoC4/ADC_SAR_Seq_1.c ****     /* Connect Vm to VSSA when even one channel is single-ended or multiple channels configured */
 189:.\Generated_Source\PSoC4/ADC_SAR_Seq_1.c ****     #if(ADC_SAR_Seq_1_DEFAULT_MUX_SWITCH0 != 0u)
 190:.\Generated_Source\PSoC4/ADC_SAR_Seq_1.c ****         ADC_SAR_Seq_1_MUX_SWITCH0_REG |= ADC_SAR_Seq_1_DEFAULT_MUX_SWITCH0;
 191:.\Generated_Source\PSoC4/ADC_SAR_Seq_1.c ****         /* Set MUX_HW_CTRL_VSSA in MUX_SWITCH_HW_CTRL when multiple channels enabled */
 192:.\Generated_Source\PSoC4/ADC_SAR_Seq_1.c ****         #if(ADC_SAR_Seq_1_TOTAL_CHANNELS_NUM > 1u)
 193:.\Generated_Source\PSoC4/ADC_SAR_Seq_1.c ****             ADC_SAR_Seq_1_MUX_SWITCH_HW_CTRL_REG |= ADC_SAR_Seq_1_DEFAULT_MUX_SWITCH0;
 194:.\Generated_Source\PSoC4/ADC_SAR_Seq_1.c ****         #endif /* ADC_SAR_Seq_1_TOTAL_CHANNELS_NUM > 1u */
 195:.\Generated_Source\PSoC4/ADC_SAR_Seq_1.c ****     #endif /*ADC_SAR_Seq_1_CHANNELS_MODE !=0 */
 196:.\Generated_Source\PSoC4/ADC_SAR_Seq_1.c **** 
 197:.\Generated_Source\PSoC4/ADC_SAR_Seq_1.c ****     ADC_SAR_Seq_1_SAR_SATURATE_INTR_MASK_REG = 0u;
  81              		.loc 1 197 0 discriminator 4
  82 004a 204A     		ldr	r2, .L6+56
  83 004c 1360     		str	r3, [r2]
 198:.\Generated_Source\PSoC4/ADC_SAR_Seq_1.c ****     ADC_SAR_Seq_1_SAR_RANGE_INTR_MASK_REG = 0u;
  84              		.loc 1 198 0 discriminator 4
  85 004e 204A     		ldr	r2, .L6+60
ARM GAS  C:\Users\Bryan\AppData\Local\Temp\ccckzTjf.s 			page 6


  86 0050 1360     		str	r3, [r2]
 199:.\Generated_Source\PSoC4/ADC_SAR_Seq_1.c ****     ADC_SAR_Seq_1_SAR_INTR_MASK_REG = ADC_SAR_Seq_1_SAR_INTR_MASK;
  87              		.loc 1 199 0 discriminator 4
  88 0052 0133     		add	r3, r3, #1
  89 0054 1F4A     		ldr	r2, .L6+64
  90 0056 1360     		str	r3, [r2]
 200:.\Generated_Source\PSoC4/ADC_SAR_Seq_1.c **** 
 201:.\Generated_Source\PSoC4/ADC_SAR_Seq_1.c ****     #if(ADC_SAR_Seq_1_CY_SAR_IP_VER == ADC_SAR_Seq_1_CY_SAR_IP_VER0)
 202:.\Generated_Source\PSoC4/ADC_SAR_Seq_1.c ****         ADC_SAR_Seq_1_ANA_TRIM_REG = ADC_SAR_Seq_1_TRIM_COEF;
  91              		.loc 1 202 0 discriminator 4
  92 0058 0221     		mov	r1, #2
  93 005a 1F4A     		ldr	r2, .L6+68
  94 005c 1160     		str	r1, [r2]
 203:.\Generated_Source\PSoC4/ADC_SAR_Seq_1.c ****     #endif /* (ADC_SAR_Seq_1_CY_SAR_IP_VER == ADC_SAR_Seq_1_CY_SAR_IP_VER0) */
 204:.\Generated_Source\PSoC4/ADC_SAR_Seq_1.c **** 
 205:.\Generated_Source\PSoC4/ADC_SAR_Seq_1.c ****     /* Read and modify default configuration based on characterization */
 206:.\Generated_Source\PSoC4/ADC_SAR_Seq_1.c ****     tmpRegVal = ADC_SAR_Seq_1_SAR_DFT_CTRL_REG;
  95              		.loc 1 206 0 discriminator 4
  96 005e 1F49     		ldr	r1, .L6+72
  97 0060 0868     		ldr	r0, [r1]
  98              	.LVL2:
 207:.\Generated_Source\PSoC4/ADC_SAR_Seq_1.c ****     tmpRegVal &= (uint32)~ADC_SAR_Seq_1_DCEN;
  99              		.loc 1 207 0 discriminator 4
 100 0062 1F4A     		ldr	r2, .L6+76
 101 0064 0240     		and	r2, r0
 102              	.LVL3:
 208:.\Generated_Source\PSoC4/ADC_SAR_Seq_1.c ****     
 209:.\Generated_Source\PSoC4/ADC_SAR_Seq_1.c ****     #if(ADC_SAR_Seq_1_CY_SAR_IP_VER == ADC_SAR_Seq_1_CY_SAR_IP_VER0)
 210:.\Generated_Source\PSoC4/ADC_SAR_Seq_1.c ****         #if(ADC_SAR_Seq_1_NOMINAL_CLOCK_FREQ > (ADC_SAR_Seq_1_MAX_FREQUENCY / 2))
 211:.\Generated_Source\PSoC4/ADC_SAR_Seq_1.c ****             tmpRegVal |= ADC_SAR_Seq_1_SEL_CSEL_DFT_CHAR;
 212:.\Generated_Source\PSoC4/ADC_SAR_Seq_1.c ****         #else  /* clock speed < 9 Mhz */
 213:.\Generated_Source\PSoC4/ADC_SAR_Seq_1.c ****             tmpRegVal |= ADC_SAR_Seq_1_DLY_INC;
 103              		.loc 1 213 0 discriminator 4
 104 0066 1343     		orr	r3, r2
 105              	.LVL4:
 214:.\Generated_Source\PSoC4/ADC_SAR_Seq_1.c ****         #endif /* clock speed > 9 Mhz */
 215:.\Generated_Source\PSoC4/ADC_SAR_Seq_1.c ****     #else
 216:.\Generated_Source\PSoC4/ADC_SAR_Seq_1.c ****         #if ((ADC_SAR_Seq_1_DEFAULT_VREF_SEL == ADC_SAR_Seq_1__INTERNAL1024) || \
 217:.\Generated_Source\PSoC4/ADC_SAR_Seq_1.c ****              (ADC_SAR_Seq_1_DEFAULT_VREF_SEL == ADC_SAR_Seq_1__INTERNALVREF))
 218:.\Generated_Source\PSoC4/ADC_SAR_Seq_1.c ****             tmpRegVal |= ADC_SAR_Seq_1_DLY_INC;
 219:.\Generated_Source\PSoC4/ADC_SAR_Seq_1.c ****         #else
 220:.\Generated_Source\PSoC4/ADC_SAR_Seq_1.c ****             tmpRegVal |= ADC_SAR_Seq_1_DCEN;
 221:.\Generated_Source\PSoC4/ADC_SAR_Seq_1.c ****             tmpRegVal &= (uint32)~ADC_SAR_Seq_1_DLY_INC;
 222:.\Generated_Source\PSoC4/ADC_SAR_Seq_1.c ****         #endif /* ((ADC_SAR_Seq_1_DEFAULT_VREF_SEL == ADC_SAR_Seq_1__INTERNAL1024) || \
 223:.\Generated_Source\PSoC4/ADC_SAR_Seq_1.c ****                    (ADC_SAR_Seq_1_DEFAULT_VREF_SEL == ADC_SAR_Seq_1__INTERNALVREF)) */
 224:.\Generated_Source\PSoC4/ADC_SAR_Seq_1.c ****     #endif /* (ADC_SAR_Seq_1_CY_SAR_IP_VER == ADC_SAR_Seq_1_CY_SAR_IP_VER0) */
 225:.\Generated_Source\PSoC4/ADC_SAR_Seq_1.c ****     
 226:.\Generated_Source\PSoC4/ADC_SAR_Seq_1.c ****     ADC_SAR_Seq_1_SAR_DFT_CTRL_REG = tmpRegVal;
 106              		.loc 1 226 0 discriminator 4
 107 0068 0B60     		str	r3, [r1]
 108              	.LVL5:
 227:.\Generated_Source\PSoC4/ADC_SAR_Seq_1.c **** 
 228:.\Generated_Source\PSoC4/ADC_SAR_Seq_1.c ****     #if(ADC_SAR_Seq_1_MAX_RESOLUTION != ADC_SAR_Seq_1_RESOLUTION_12)
 229:.\Generated_Source\PSoC4/ADC_SAR_Seq_1.c ****         ADC_SAR_Seq_1_WOUNDING_REG = ADC_SAR_Seq_1_ALT_WOUNDING;
 230:.\Generated_Source\PSoC4/ADC_SAR_Seq_1.c ****     #endif /* ADC_SAR_Seq_1_MAX_RESOLUTION != ADC_SAR_Seq_1_RESOLUTION_12 */
 231:.\Generated_Source\PSoC4/ADC_SAR_Seq_1.c **** 
 232:.\Generated_Source\PSoC4/ADC_SAR_Seq_1.c ****     for(chNum = 0u; chNum < ADC_SAR_Seq_1_TOTAL_CHANNELS_NUM; chNum++)
ARM GAS  C:\Users\Bryan\AppData\Local\Temp\ccckzTjf.s 			page 7


 109              		.loc 1 232 0 discriminator 4
 110 006a 0023     		mov	r3, #0
 111              	.LVL6:
 112 006c 0FE0     		b	.L3
 113              	.LVL7:
 114              	.L4:
 233:.\Generated_Source\PSoC4/ADC_SAR_Seq_1.c ****     {
 234:.\Generated_Source\PSoC4/ADC_SAR_Seq_1.c ****         tmpRegVal = (ADC_SAR_Seq_1_channelsConfig[chNum] & ADC_SAR_Seq_1_CHANNEL_CONFIG_MASK);
 235:.\Generated_Source\PSoC4/ADC_SAR_Seq_1.c ****         #if(ADC_SAR_Seq_1_TOTAL_CHANNELS_NUM > 1u)
 236:.\Generated_Source\PSoC4/ADC_SAR_Seq_1.c ****             tmpRegVal |= ADC_SAR_Seq_1_InputsPlacement[chNum];
 237:.\Generated_Source\PSoC4/ADC_SAR_Seq_1.c ****         #endif /* End ADC_SAR_Seq_1_TOTAL_CHANNELS_NUM > 1u */
 238:.\Generated_Source\PSoC4/ADC_SAR_Seq_1.c ****         
 239:.\Generated_Source\PSoC4/ADC_SAR_Seq_1.c ****         
 240:.\Generated_Source\PSoC4/ADC_SAR_Seq_1.c ****         /* When the part is limited to 10-bit then the SUB_RESOLUTION bit
 241:.\Generated_Source\PSoC4/ADC_SAR_Seq_1.c ****         *  will be ignored and the RESOLUTION bit selects between 10-bit
 242:.\Generated_Source\PSoC4/ADC_SAR_Seq_1.c ****         *  (0) and 8-bit (1) resolution.
 243:.\Generated_Source\PSoC4/ADC_SAR_Seq_1.c ****         */
 244:.\Generated_Source\PSoC4/ADC_SAR_Seq_1.c ****         #if((ADC_SAR_Seq_1_MAX_RESOLUTION != ADC_SAR_Seq_1_RESOLUTION_12) && \
 245:.\Generated_Source\PSoC4/ADC_SAR_Seq_1.c ****             (ADC_SAR_Seq_1_ALT_WOUNDING == ADC_SAR_Seq_1_WOUNDING_10BIT))
 246:.\Generated_Source\PSoC4/ADC_SAR_Seq_1.c ****             tmpRegVal &= (uint32)(~ADC_SAR_Seq_1_ALT_RESOLUTION_ON);
 247:.\Generated_Source\PSoC4/ADC_SAR_Seq_1.c ****         #endif /* ADC_SAR_Seq_1_MAX_RESOLUTION != ADC_SAR_Seq_1_RESOLUTION_12 */
 248:.\Generated_Source\PSoC4/ADC_SAR_Seq_1.c **** 
 249:.\Generated_Source\PSoC4/ADC_SAR_Seq_1.c ****         #if(ADC_SAR_Seq_1_INJ_CHANNEL_ENABLED)
 250:.\Generated_Source\PSoC4/ADC_SAR_Seq_1.c ****         if(chNum < ADC_SAR_Seq_1_SEQUENCED_CHANNELS_NUM)
 251:.\Generated_Source\PSoC4/ADC_SAR_Seq_1.c ****         #endif /* ADC_SAR_Seq_1_INJ_CHANNEL_ENABLED */
 252:.\Generated_Source\PSoC4/ADC_SAR_Seq_1.c ****         {
 253:.\Generated_Source\PSoC4/ADC_SAR_Seq_1.c ****             CY_SET_REG32((reg32 *)(ADC_SAR_Seq_1_SAR_CHAN_CONFIG_IND + (uint32)(chNum << 2)), tmpRe
 115              		.loc 1 253 0
 116 006e 9A00     		lsl	r2, r3, #2
 117 0070 1C49     		ldr	r1, .L6+80
 118 0072 8C46     		mov	ip, r1
 119 0074 6244     		add	r2, r2, ip
 120 0076 8021     		mov	r1, #128
 121 0078 4900     		lsl	r1, r1, #1
 122 007a 1160     		str	r1, [r2]
 123              	.LVL8:
 254:.\Generated_Source\PSoC4/ADC_SAR_Seq_1.c **** 
 255:.\Generated_Source\PSoC4/ADC_SAR_Seq_1.c ****             if((ADC_SAR_Seq_1_channelsConfig[chNum] & ADC_SAR_Seq_1_IS_SATURATE_EN_MASK) != 0u)
 256:.\Generated_Source\PSoC4/ADC_SAR_Seq_1.c ****             {
 257:.\Generated_Source\PSoC4/ADC_SAR_Seq_1.c ****                 ADC_SAR_Seq_1_SAR_SATURATE_INTR_MASK_REG |= (uint16)((uint16)1 << chNum);
 258:.\Generated_Source\PSoC4/ADC_SAR_Seq_1.c ****             }
 259:.\Generated_Source\PSoC4/ADC_SAR_Seq_1.c **** 
 260:.\Generated_Source\PSoC4/ADC_SAR_Seq_1.c ****             if((ADC_SAR_Seq_1_channelsConfig[chNum] & ADC_SAR_Seq_1_IS_RANGE_CTRL_EN_MASK) != 0u)
 261:.\Generated_Source\PSoC4/ADC_SAR_Seq_1.c ****             {
 262:.\Generated_Source\PSoC4/ADC_SAR_Seq_1.c ****                 ADC_SAR_Seq_1_SAR_RANGE_INTR_MASK_REG |= (uint16)((uint16)1 << chNum);
 263:.\Generated_Source\PSoC4/ADC_SAR_Seq_1.c ****             }
 264:.\Generated_Source\PSoC4/ADC_SAR_Seq_1.c ****         }
 265:.\Generated_Source\PSoC4/ADC_SAR_Seq_1.c ****         #if(ADC_SAR_Seq_1_INJ_CHANNEL_ENABLED)
 266:.\Generated_Source\PSoC4/ADC_SAR_Seq_1.c ****             else
 267:.\Generated_Source\PSoC4/ADC_SAR_Seq_1.c ****             {
 268:.\Generated_Source\PSoC4/ADC_SAR_Seq_1.c ****                 CY_SET_REG32(ADC_SAR_Seq_1_SAR_INJ_CHAN_CONFIG_PTR, tmpRegVal | ADC_SAR_Seq_1_INJ_T
 269:.\Generated_Source\PSoC4/ADC_SAR_Seq_1.c **** 
 270:.\Generated_Source\PSoC4/ADC_SAR_Seq_1.c ****                 if((ADC_SAR_Seq_1_channelsConfig[chNum] & ADC_SAR_Seq_1_IS_SATURATE_EN_MASK) != 0u)
 271:.\Generated_Source\PSoC4/ADC_SAR_Seq_1.c ****                 {
 272:.\Generated_Source\PSoC4/ADC_SAR_Seq_1.c ****                     ADC_SAR_Seq_1_SAR_INTR_MASK_REG |= ADC_SAR_Seq_1_INJ_SATURATE_MASK;
 273:.\Generated_Source\PSoC4/ADC_SAR_Seq_1.c ****                 }
 274:.\Generated_Source\PSoC4/ADC_SAR_Seq_1.c **** 
ARM GAS  C:\Users\Bryan\AppData\Local\Temp\ccckzTjf.s 			page 8


 275:.\Generated_Source\PSoC4/ADC_SAR_Seq_1.c ****                 if((ADC_SAR_Seq_1_channelsConfig[chNum] & ADC_SAR_Seq_1_IS_RANGE_CTRL_EN_MASK) != 0
 276:.\Generated_Source\PSoC4/ADC_SAR_Seq_1.c ****                 {
 277:.\Generated_Source\PSoC4/ADC_SAR_Seq_1.c ****                     ADC_SAR_Seq_1_SAR_INTR_MASK_REG |= ADC_SAR_Seq_1_INJ_RANGE_MASK;
 278:.\Generated_Source\PSoC4/ADC_SAR_Seq_1.c ****                 }
 279:.\Generated_Source\PSoC4/ADC_SAR_Seq_1.c ****             }
 280:.\Generated_Source\PSoC4/ADC_SAR_Seq_1.c ****         #endif /* ADC_SAR_Seq_1_INJ_CHANNEL_ENABLED */
 281:.\Generated_Source\PSoC4/ADC_SAR_Seq_1.c **** 
 282:.\Generated_Source\PSoC4/ADC_SAR_Seq_1.c ****         if((ADC_SAR_Seq_1_channelsConfig[chNum] & ADC_SAR_Seq_1_ALT_RESOLUTION_ON) != 0u)
 283:.\Generated_Source\PSoC4/ADC_SAR_Seq_1.c ****         {
 284:.\Generated_Source\PSoC4/ADC_SAR_Seq_1.c ****                counts = (int32)ADC_SAR_Seq_1_DEFAULT_MAX_WRK_ALT;
 285:.\Generated_Source\PSoC4/ADC_SAR_Seq_1.c ****         }
 286:.\Generated_Source\PSoC4/ADC_SAR_Seq_1.c ****         else
 287:.\Generated_Source\PSoC4/ADC_SAR_Seq_1.c ****         {
 288:.\Generated_Source\PSoC4/ADC_SAR_Seq_1.c ****                counts = (int32)ADC_SAR_Seq_1_SAR_WRK_MAX_12BIT;
 289:.\Generated_Source\PSoC4/ADC_SAR_Seq_1.c ****         }
 290:.\Generated_Source\PSoC4/ADC_SAR_Seq_1.c **** 
 291:.\Generated_Source\PSoC4/ADC_SAR_Seq_1.c ****         if((ADC_SAR_Seq_1_channelsConfig[chNum] & ADC_SAR_Seq_1_DIFFERENTIAL_EN) == 0u)
 292:.\Generated_Source\PSoC4/ADC_SAR_Seq_1.c ****         {
 293:.\Generated_Source\PSoC4/ADC_SAR_Seq_1.c ****             #if((ADC_SAR_Seq_1_DEFAULT_SE_RESULT_FORMAT_SEL == ADC_SAR_Seq_1__FSIGNED) && \
 294:.\Generated_Source\PSoC4/ADC_SAR_Seq_1.c ****                 (ADC_SAR_Seq_1_DEFAULT_NEG_INPUT_SEL == ADC_SAR_Seq_1__VREF))
 295:.\Generated_Source\PSoC4/ADC_SAR_Seq_1.c ****                 /* Set offset to the minus half scale to convert results to unsigned format */
 296:.\Generated_Source\PSoC4/ADC_SAR_Seq_1.c ****                 ADC_SAR_Seq_1_offset[chNum] = (int16)(counts / -2);
 297:.\Generated_Source\PSoC4/ADC_SAR_Seq_1.c ****             #else
 298:.\Generated_Source\PSoC4/ADC_SAR_Seq_1.c ****                 ADC_SAR_Seq_1_offset[chNum] = 0;
 299:.\Generated_Source\PSoC4/ADC_SAR_Seq_1.c ****             #endif /* end DEFAULT_SE_RESULT_FORMAT_SEL == ADC_SAR_Seq_1__FSIGNED */
 300:.\Generated_Source\PSoC4/ADC_SAR_Seq_1.c ****         }
 301:.\Generated_Source\PSoC4/ADC_SAR_Seq_1.c ****         else    /* Differential channel */
 302:.\Generated_Source\PSoC4/ADC_SAR_Seq_1.c ****         {
 303:.\Generated_Source\PSoC4/ADC_SAR_Seq_1.c ****             #if(ADC_SAR_Seq_1_DEFAULT_DIFF_RESULT_FORMAT_SEL == ADC_SAR_Seq_1__FUNSIGNED)
 304:.\Generated_Source\PSoC4/ADC_SAR_Seq_1.c ****                 /* Set offset to the half scale to convert results to signed format */
 305:.\Generated_Source\PSoC4/ADC_SAR_Seq_1.c ****                 ADC_SAR_Seq_1_offset[chNum] = (int16)(counts / 2);
 306:.\Generated_Source\PSoC4/ADC_SAR_Seq_1.c ****             #else
 307:.\Generated_Source\PSoC4/ADC_SAR_Seq_1.c ****                 ADC_SAR_Seq_1_offset[chNum] = 0;
 124              		.loc 1 307 0
 125 007c 5900     		lsl	r1, r3, #1
 126 007e 0020     		mov	r0, #0
 127 0080 194A     		ldr	r2, .L6+84
 128 0082 8852     		strh	r0, [r1, r2]
 308:.\Generated_Source\PSoC4/ADC_SAR_Seq_1.c ****             #endif /* end ADC_SAR_Seq_1_DEFAULT_DIFF_RESULT_FORMAT_SEL == ADC_SAR_Seq_1__FUNSIGNED 
 309:.\Generated_Source\PSoC4/ADC_SAR_Seq_1.c ****         }
 310:.\Generated_Source\PSoC4/ADC_SAR_Seq_1.c ****         /* Calculate gain in counts per 10 volts with rounding */
 311:.\Generated_Source\PSoC4/ADC_SAR_Seq_1.c ****         ADC_SAR_Seq_1_countsPer10Volt[chNum] = (int16)(((counts * ADC_SAR_Seq_1_10MV_COUNTS) +
 129              		.loc 1 311 0
 130 0084 9900     		lsl	r1, r3, #2
 131 0086 1948     		ldr	r0, .L6+88
 132 0088 194A     		ldr	r2, .L6+92
 133 008a 8850     		str	r0, [r1, r2]
 232:.\Generated_Source\PSoC4/ADC_SAR_Seq_1.c ****     {
 134              		.loc 1 232 0
 135 008c 0133     		add	r3, r3, #1
 136              	.LVL9:
 137              	.L3:
 232:.\Generated_Source\PSoC4/ADC_SAR_Seq_1.c ****     {
 138              		.loc 1 232 0 is_stmt 0 discriminator 1
 139 008e 002B     		cmp	r3, #0
 140 0090 EDD0     		beq	.L4
 312:.\Generated_Source\PSoC4/ADC_SAR_Seq_1.c ****                             ADC_SAR_Seq_1_DEFAULT_VREF_MV_VALUE) / (ADC_SAR_Seq_1_DEFAULT_VREF_MV_V
ARM GAS  C:\Users\Bryan\AppData\Local\Temp\ccckzTjf.s 			page 9


 313:.\Generated_Source\PSoC4/ADC_SAR_Seq_1.c ****     }
 314:.\Generated_Source\PSoC4/ADC_SAR_Seq_1.c **** }
 141              		.loc 1 314 0 is_stmt 1
 142              		@ sp needed
 143 0092 08BD     		pop	{r3, pc}
 144              	.L7:
 145              		.align	2
 146              	.L6:
 147 0094 00000000 		.word	ADC_SAR_Seq_1_ISR
 148 0098 20001A40 		.word	1075445792
 149 009c 80031A40 		.word	1075446656
 150 00a0 70021051 		.word	1360003696
 151 00a4 70020051 		.word	1358955120
 152 00a8 00001A40 		.word	1075445760
 153 00ac 8C000080 		.word	-2147483508
 154 00b0 04001A40 		.word	1075445764
 155 00b4 0000FF07 		.word	134152192
 156 00b8 18001A40 		.word	1075445784
 157 00bc 1C001A40 		.word	1075445788
 158 00c0 04000400 		.word	262148
 159 00c4 10001A40 		.word	1075445776
 160 00c8 14001A40 		.word	1075445780
 161 00cc 28021A40 		.word	1075446312
 162 00d0 38021A40 		.word	1075446328
 163 00d4 18021A40 		.word	1075446296
 164 00d8 000F1A40 		.word	1075449600
 165 00dc 30001A40 		.word	1075445808
 166 00e0 FFFFFFDF 		.word	-536870913
 167 00e4 80001A40 		.word	1075445888
 168 00e8 00000000 		.word	ADC_SAR_Seq_1_offset
 169 00ec 3E180000 		.word	6206
 170 00f0 00000000 		.word	ADC_SAR_Seq_1_countsPer10Volt
 171              		.cfi_endproc
 172              	.LFE1:
 173              		.size	ADC_SAR_Seq_1_Init, .-ADC_SAR_Seq_1_Init
 174              		.section	.text.ADC_SAR_Seq_1_Enable,"ax",%progbits
 175              		.align	2
 176              		.global	ADC_SAR_Seq_1_Enable
 177              		.code	16
 178              		.thumb_func
 179              		.type	ADC_SAR_Seq_1_Enable, %function
 180              	ADC_SAR_Seq_1_Enable:
 181              	.LFB2:
 315:.\Generated_Source\PSoC4/ADC_SAR_Seq_1.c **** 
 316:.\Generated_Source\PSoC4/ADC_SAR_Seq_1.c **** /*******************************************************************************
 317:.\Generated_Source\PSoC4/ADC_SAR_Seq_1.c **** * Function Name: ADC_SAR_1_Enable
 318:.\Generated_Source\PSoC4/ADC_SAR_Seq_1.c **** ********************************************************************************
 319:.\Generated_Source\PSoC4/ADC_SAR_Seq_1.c **** *
 320:.\Generated_Source\PSoC4/ADC_SAR_Seq_1.c **** * Summary:
 321:.\Generated_Source\PSoC4/ADC_SAR_Seq_1.c **** *  Enables the clock and analog power for SAR ADC.
 322:.\Generated_Source\PSoC4/ADC_SAR_Seq_1.c **** *
 323:.\Generated_Source\PSoC4/ADC_SAR_Seq_1.c **** * Parameters:
 324:.\Generated_Source\PSoC4/ADC_SAR_Seq_1.c **** *  None.
 325:.\Generated_Source\PSoC4/ADC_SAR_Seq_1.c **** *
 326:.\Generated_Source\PSoC4/ADC_SAR_Seq_1.c **** * Return:
 327:.\Generated_Source\PSoC4/ADC_SAR_Seq_1.c **** *  None.
 328:.\Generated_Source\PSoC4/ADC_SAR_Seq_1.c **** *
ARM GAS  C:\Users\Bryan\AppData\Local\Temp\ccckzTjf.s 			page 10


 329:.\Generated_Source\PSoC4/ADC_SAR_Seq_1.c **** *******************************************************************************/
 330:.\Generated_Source\PSoC4/ADC_SAR_Seq_1.c **** void ADC_SAR_Seq_1_Enable(void)
 331:.\Generated_Source\PSoC4/ADC_SAR_Seq_1.c **** {
 182              		.loc 1 331 0
 183              		.cfi_startproc
 184 0000 08B5     		push	{r3, lr}
 185              		.cfi_def_cfa_offset 8
 186              		.cfi_offset 3, -8
 187              		.cfi_offset 14, -4
 332:.\Generated_Source\PSoC4/ADC_SAR_Seq_1.c ****     if (0u == (ADC_SAR_Seq_1_SAR_CTRL_REG & ADC_SAR_Seq_1_ENABLE))
 188              		.loc 1 332 0
 189 0002 074B     		ldr	r3, .L10
 190 0004 1B68     		ldr	r3, [r3]
 191 0006 002B     		cmp	r3, #0
 192 0008 08DB     		blt	.L8
 333:.\Generated_Source\PSoC4/ADC_SAR_Seq_1.c ****     {
 334:.\Generated_Source\PSoC4/ADC_SAR_Seq_1.c ****         #if(ADC_SAR_Seq_1_CY_SAR_IP_VER != ADC_SAR_Seq_1_CY_SAR_IP_VER0)
 335:.\Generated_Source\PSoC4/ADC_SAR_Seq_1.c **** 
 336:.\Generated_Source\PSoC4/ADC_SAR_Seq_1.c ****             while (0u != (ADC_SAR_Seq_1_SAR_STATUS_REG & ADC_SAR_Seq_1_STATUS_BUSY))
 337:.\Generated_Source\PSoC4/ADC_SAR_Seq_1.c ****             {
 338:.\Generated_Source\PSoC4/ADC_SAR_Seq_1.c ****                 /* wait for SAR to go idle to avoid deadlock */
 339:.\Generated_Source\PSoC4/ADC_SAR_Seq_1.c ****             }
 340:.\Generated_Source\PSoC4/ADC_SAR_Seq_1.c ****         #endif /* (ADC_SAR_Seq_1_CY_SAR_IP_VER != ADC_SAR_Seq_1_CY_SAR_IP_VER0) */
 341:.\Generated_Source\PSoC4/ADC_SAR_Seq_1.c ****         
 342:.\Generated_Source\PSoC4/ADC_SAR_Seq_1.c ****         ADC_SAR_Seq_1_SAR_CTRL_REG |= ADC_SAR_Seq_1_ENABLE;
 193              		.loc 1 342 0
 194 000a 054A     		ldr	r2, .L10
 195 000c 1368     		ldr	r3, [r2]
 196 000e 8021     		mov	r1, #128
 197 0010 0906     		lsl	r1, r1, #24
 198 0012 0B43     		orr	r3, r1
 199 0014 1360     		str	r3, [r2]
 343:.\Generated_Source\PSoC4/ADC_SAR_Seq_1.c ****         
 344:.\Generated_Source\PSoC4/ADC_SAR_Seq_1.c ****         /* The block is ready to use 10 us after the enable signal is set high. */
 345:.\Generated_Source\PSoC4/ADC_SAR_Seq_1.c ****         CyDelayUs(ADC_SAR_Seq_1_10US_DELAY);         
 200              		.loc 1 345 0
 201 0016 0A20     		mov	r0, #10
 202 0018 FFF7FEFF 		bl	CyDelayUs
 203              	.LVL10:
 204              	.L8:
 346:.\Generated_Source\PSoC4/ADC_SAR_Seq_1.c ****     }
 347:.\Generated_Source\PSoC4/ADC_SAR_Seq_1.c **** }
 205              		.loc 1 347 0
 206              		@ sp needed
 207 001c 08BD     		pop	{r3, pc}
 208              	.L11:
 209 001e C046     		.align	2
 210              	.L10:
 211 0020 00001A40 		.word	1075445760
 212              		.cfi_endproc
 213              	.LFE2:
 214              		.size	ADC_SAR_Seq_1_Enable, .-ADC_SAR_Seq_1_Enable
 215              		.section	.text.ADC_SAR_Seq_1_Start,"ax",%progbits
 216              		.align	2
 217              		.global	ADC_SAR_Seq_1_Start
 218              		.code	16
 219              		.thumb_func
ARM GAS  C:\Users\Bryan\AppData\Local\Temp\ccckzTjf.s 			page 11


 220              		.type	ADC_SAR_Seq_1_Start, %function
 221              	ADC_SAR_Seq_1_Start:
 222              	.LFB0:
  64:.\Generated_Source\PSoC4/ADC_SAR_Seq_1.c ****     /* If not Initialized then initialize all required hardware and software */
 223              		.loc 1 64 0
 224              		.cfi_startproc
 225 0000 08B5     		push	{r3, lr}
 226              		.cfi_def_cfa_offset 8
 227              		.cfi_offset 3, -8
 228              		.cfi_offset 14, -4
  66:.\Generated_Source\PSoC4/ADC_SAR_Seq_1.c ****     {
 229              		.loc 1 66 0
 230 0002 064B     		ldr	r3, .L14
 231 0004 1B78     		ldrb	r3, [r3]
 232 0006 002B     		cmp	r3, #0
 233 0008 04D1     		bne	.L13
  68:.\Generated_Source\PSoC4/ADC_SAR_Seq_1.c ****         ADC_SAR_Seq_1_initVar = 1u;
 234              		.loc 1 68 0
 235 000a FFF7FEFF 		bl	ADC_SAR_Seq_1_Init
 236              	.LVL11:
  69:.\Generated_Source\PSoC4/ADC_SAR_Seq_1.c ****     }
 237              		.loc 1 69 0
 238 000e 0122     		mov	r2, #1
 239 0010 024B     		ldr	r3, .L14
 240 0012 1A70     		strb	r2, [r3]
 241              	.L13:
  71:.\Generated_Source\PSoC4/ADC_SAR_Seq_1.c **** }
 242              		.loc 1 71 0
 243 0014 FFF7FEFF 		bl	ADC_SAR_Seq_1_Enable
 244              	.LVL12:
  72:.\Generated_Source\PSoC4/ADC_SAR_Seq_1.c **** 
 245              		.loc 1 72 0
 246              		@ sp needed
 247 0018 08BD     		pop	{r3, pc}
 248              	.L15:
 249 001a C046     		.align	2
 250              	.L14:
 251 001c 00000000 		.word	.LANCHOR0
 252              		.cfi_endproc
 253              	.LFE0:
 254              		.size	ADC_SAR_Seq_1_Start, .-ADC_SAR_Seq_1_Start
 255              		.section	.text.ADC_SAR_Seq_1_Stop,"ax",%progbits
 256              		.align	2
 257              		.global	ADC_SAR_Seq_1_Stop
 258              		.code	16
 259              		.thumb_func
 260              		.type	ADC_SAR_Seq_1_Stop, %function
 261              	ADC_SAR_Seq_1_Stop:
 262              	.LFB3:
 348:.\Generated_Source\PSoC4/ADC_SAR_Seq_1.c **** 
 349:.\Generated_Source\PSoC4/ADC_SAR_Seq_1.c **** 
 350:.\Generated_Source\PSoC4/ADC_SAR_Seq_1.c **** /*******************************************************************************
 351:.\Generated_Source\PSoC4/ADC_SAR_Seq_1.c **** * Function Name: ADC_SAR_Seq_1_Stop
 352:.\Generated_Source\PSoC4/ADC_SAR_Seq_1.c **** ********************************************************************************
 353:.\Generated_Source\PSoC4/ADC_SAR_Seq_1.c **** *
 354:.\Generated_Source\PSoC4/ADC_SAR_Seq_1.c **** * Summary:
 355:.\Generated_Source\PSoC4/ADC_SAR_Seq_1.c **** *  This function stops ADC conversions and puts the ADC into its lowest power
ARM GAS  C:\Users\Bryan\AppData\Local\Temp\ccckzTjf.s 			page 12


 356:.\Generated_Source\PSoC4/ADC_SAR_Seq_1.c **** *  mode.
 357:.\Generated_Source\PSoC4/ADC_SAR_Seq_1.c **** *
 358:.\Generated_Source\PSoC4/ADC_SAR_Seq_1.c **** * Parameters:
 359:.\Generated_Source\PSoC4/ADC_SAR_Seq_1.c **** *  None.
 360:.\Generated_Source\PSoC4/ADC_SAR_Seq_1.c **** *
 361:.\Generated_Source\PSoC4/ADC_SAR_Seq_1.c **** * Return:
 362:.\Generated_Source\PSoC4/ADC_SAR_Seq_1.c **** *  None.
 363:.\Generated_Source\PSoC4/ADC_SAR_Seq_1.c **** *
 364:.\Generated_Source\PSoC4/ADC_SAR_Seq_1.c **** *******************************************************************************/
 365:.\Generated_Source\PSoC4/ADC_SAR_Seq_1.c **** void ADC_SAR_Seq_1_Stop(void)
 366:.\Generated_Source\PSoC4/ADC_SAR_Seq_1.c **** {
 263              		.loc 1 366 0
 264              		.cfi_startproc
 367:.\Generated_Source\PSoC4/ADC_SAR_Seq_1.c ****     ADC_SAR_Seq_1_SAR_CTRL_REG &= (uint32)~ADC_SAR_Seq_1_ENABLE;
 265              		.loc 1 367 0
 266 0000 024A     		ldr	r2, .L17
 267 0002 1368     		ldr	r3, [r2]
 268 0004 5B00     		lsl	r3, r3, #1
 269 0006 5B08     		lsr	r3, r3, #1
 270 0008 1360     		str	r3, [r2]
 368:.\Generated_Source\PSoC4/ADC_SAR_Seq_1.c **** }
 271              		.loc 1 368 0
 272              		@ sp needed
 273 000a 7047     		bx	lr
 274              	.L18:
 275              		.align	2
 276              	.L17:
 277 000c 00001A40 		.word	1075445760
 278              		.cfi_endproc
 279              	.LFE3:
 280              		.size	ADC_SAR_Seq_1_Stop, .-ADC_SAR_Seq_1_Stop
 281              		.section	.text.ADC_SAR_Seq_1_StartConvert,"ax",%progbits
 282              		.align	2
 283              		.global	ADC_SAR_Seq_1_StartConvert
 284              		.code	16
 285              		.thumb_func
 286              		.type	ADC_SAR_Seq_1_StartConvert, %function
 287              	ADC_SAR_Seq_1_StartConvert:
 288              	.LFB4:
 369:.\Generated_Source\PSoC4/ADC_SAR_Seq_1.c **** 
 370:.\Generated_Source\PSoC4/ADC_SAR_Seq_1.c **** 
 371:.\Generated_Source\PSoC4/ADC_SAR_Seq_1.c **** /*******************************************************************************
 372:.\Generated_Source\PSoC4/ADC_SAR_Seq_1.c **** * Function Name: ADC_SAR_Seq_1_StartConvert
 373:.\Generated_Source\PSoC4/ADC_SAR_Seq_1.c **** ********************************************************************************
 374:.\Generated_Source\PSoC4/ADC_SAR_Seq_1.c **** *
 375:.\Generated_Source\PSoC4/ADC_SAR_Seq_1.c **** * Summary:
 376:.\Generated_Source\PSoC4/ADC_SAR_Seq_1.c **** *  Description:
 377:.\Generated_Source\PSoC4/ADC_SAR_Seq_1.c **** *  For free running mode, this API starts the conversion process and it
 378:.\Generated_Source\PSoC4/ADC_SAR_Seq_1.c **** *  runs continuously.
 379:.\Generated_Source\PSoC4/ADC_SAR_Seq_1.c **** *
 380:.\Generated_Source\PSoC4/ADC_SAR_Seq_1.c **** *  In a triggered mode, this routine triggers every conversion by
 381:.\Generated_Source\PSoC4/ADC_SAR_Seq_1.c **** *  writing into the FW_TRIGGER bit in SAR_START_CTRL reg. In triggered mode,
 382:.\Generated_Source\PSoC4/ADC_SAR_Seq_1.c **** *  every conversion has to start by this API.
 383:.\Generated_Source\PSoC4/ADC_SAR_Seq_1.c **** *
 384:.\Generated_Source\PSoC4/ADC_SAR_Seq_1.c **** * Parameters:
 385:.\Generated_Source\PSoC4/ADC_SAR_Seq_1.c **** *  None.
 386:.\Generated_Source\PSoC4/ADC_SAR_Seq_1.c **** *
ARM GAS  C:\Users\Bryan\AppData\Local\Temp\ccckzTjf.s 			page 13


 387:.\Generated_Source\PSoC4/ADC_SAR_Seq_1.c **** * Return:
 388:.\Generated_Source\PSoC4/ADC_SAR_Seq_1.c **** *  None.
 389:.\Generated_Source\PSoC4/ADC_SAR_Seq_1.c **** *
 390:.\Generated_Source\PSoC4/ADC_SAR_Seq_1.c **** *******************************************************************************/
 391:.\Generated_Source\PSoC4/ADC_SAR_Seq_1.c **** void ADC_SAR_Seq_1_StartConvert(void)
 392:.\Generated_Source\PSoC4/ADC_SAR_Seq_1.c **** {
 289              		.loc 1 392 0
 290              		.cfi_startproc
 393:.\Generated_Source\PSoC4/ADC_SAR_Seq_1.c ****     #if(ADC_SAR_Seq_1_DEFAULT_SAMPLE_MODE_SEL == ADC_SAR_Seq_1__FREERUNNING)
 394:.\Generated_Source\PSoC4/ADC_SAR_Seq_1.c ****         ADC_SAR_Seq_1_SAR_SAMPLE_CTRL_REG |= ADC_SAR_Seq_1_CONTINUOUS_EN;
 291              		.loc 1 394 0
 292 0000 034A     		ldr	r2, .L20
 293 0002 1368     		ldr	r3, [r2]
 294 0004 8021     		mov	r1, #128
 295 0006 4902     		lsl	r1, r1, #9
 296 0008 0B43     		orr	r3, r1
 297 000a 1360     		str	r3, [r2]
 395:.\Generated_Source\PSoC4/ADC_SAR_Seq_1.c ****     #else /* Firmware trigger */
 396:.\Generated_Source\PSoC4/ADC_SAR_Seq_1.c ****         ADC_SAR_Seq_1_SAR_START_CTRL_REG = ADC_SAR_Seq_1_FW_TRIGGER;
 397:.\Generated_Source\PSoC4/ADC_SAR_Seq_1.c ****     #endif /* End ADC_SAR_Seq_1_DEFAULT_SAMPLE_MODE == ADC_SAR_Seq_1__FREERUNNING */
 398:.\Generated_Source\PSoC4/ADC_SAR_Seq_1.c **** 
 399:.\Generated_Source\PSoC4/ADC_SAR_Seq_1.c **** }
 298              		.loc 1 399 0
 299              		@ sp needed
 300 000c 7047     		bx	lr
 301              	.L21:
 302 000e C046     		.align	2
 303              	.L20:
 304 0010 04001A40 		.word	1075445764
 305              		.cfi_endproc
 306              	.LFE4:
 307              		.size	ADC_SAR_Seq_1_StartConvert, .-ADC_SAR_Seq_1_StartConvert
 308              		.section	.text.ADC_SAR_Seq_1_StopConvert,"ax",%progbits
 309              		.align	2
 310              		.global	ADC_SAR_Seq_1_StopConvert
 311              		.code	16
 312              		.thumb_func
 313              		.type	ADC_SAR_Seq_1_StopConvert, %function
 314              	ADC_SAR_Seq_1_StopConvert:
 315              	.LFB5:
 400:.\Generated_Source\PSoC4/ADC_SAR_Seq_1.c **** 
 401:.\Generated_Source\PSoC4/ADC_SAR_Seq_1.c **** 
 402:.\Generated_Source\PSoC4/ADC_SAR_Seq_1.c **** /*******************************************************************************
 403:.\Generated_Source\PSoC4/ADC_SAR_Seq_1.c **** * Function Name: ADC_SAR_Seq_1_StopConvert
 404:.\Generated_Source\PSoC4/ADC_SAR_Seq_1.c **** ********************************************************************************
 405:.\Generated_Source\PSoC4/ADC_SAR_Seq_1.c **** *
 406:.\Generated_Source\PSoC4/ADC_SAR_Seq_1.c **** * Summary:
 407:.\Generated_Source\PSoC4/ADC_SAR_Seq_1.c **** *  Forces the ADC to stop all conversions.
 408:.\Generated_Source\PSoC4/ADC_SAR_Seq_1.c **** *
 409:.\Generated_Source\PSoC4/ADC_SAR_Seq_1.c **** * Parameters:
 410:.\Generated_Source\PSoC4/ADC_SAR_Seq_1.c **** *  None.
 411:.\Generated_Source\PSoC4/ADC_SAR_Seq_1.c **** *
 412:.\Generated_Source\PSoC4/ADC_SAR_Seq_1.c **** * Return:
 413:.\Generated_Source\PSoC4/ADC_SAR_Seq_1.c **** *  None.
 414:.\Generated_Source\PSoC4/ADC_SAR_Seq_1.c **** *
 415:.\Generated_Source\PSoC4/ADC_SAR_Seq_1.c **** *******************************************************************************/
 416:.\Generated_Source\PSoC4/ADC_SAR_Seq_1.c **** void ADC_SAR_Seq_1_StopConvert(void)
ARM GAS  C:\Users\Bryan\AppData\Local\Temp\ccckzTjf.s 			page 14


 417:.\Generated_Source\PSoC4/ADC_SAR_Seq_1.c **** {
 316              		.loc 1 417 0
 317              		.cfi_startproc
 418:.\Generated_Source\PSoC4/ADC_SAR_Seq_1.c ****     #if(ADC_SAR_Seq_1_DEFAULT_SAMPLE_MODE_SEL == ADC_SAR_Seq_1__FREERUNNING)
 419:.\Generated_Source\PSoC4/ADC_SAR_Seq_1.c ****         ADC_SAR_Seq_1_SAR_SAMPLE_CTRL_REG &= (uint32)(~ADC_SAR_Seq_1_CONTINUOUS_EN);
 318              		.loc 1 419 0
 319 0000 024A     		ldr	r2, .L23
 320 0002 1168     		ldr	r1, [r2]
 321 0004 024B     		ldr	r3, .L23+4
 322 0006 0B40     		and	r3, r1
 323 0008 1360     		str	r3, [r2]
 420:.\Generated_Source\PSoC4/ADC_SAR_Seq_1.c ****     #endif /* ADC_SAR_Seq_1_DEFAULT_SAMPLE_MODE == ADC_SAR_Seq_1__FREERUNNING */
 421:.\Generated_Source\PSoC4/ADC_SAR_Seq_1.c **** }
 324              		.loc 1 421 0
 325              		@ sp needed
 326 000a 7047     		bx	lr
 327              	.L24:
 328              		.align	2
 329              	.L23:
 330 000c 04001A40 		.word	1075445764
 331 0010 FFFFFEFF 		.word	-65537
 332              		.cfi_endproc
 333              	.LFE5:
 334              		.size	ADC_SAR_Seq_1_StopConvert, .-ADC_SAR_Seq_1_StopConvert
 335              		.section	.text.ADC_SAR_Seq_1_IsEndConversion,"ax",%progbits
 336              		.align	2
 337              		.global	ADC_SAR_Seq_1_IsEndConversion
 338              		.code	16
 339              		.thumb_func
 340              		.type	ADC_SAR_Seq_1_IsEndConversion, %function
 341              	ADC_SAR_Seq_1_IsEndConversion:
 342              	.LFB6:
 422:.\Generated_Source\PSoC4/ADC_SAR_Seq_1.c **** 
 423:.\Generated_Source\PSoC4/ADC_SAR_Seq_1.c **** 
 424:.\Generated_Source\PSoC4/ADC_SAR_Seq_1.c **** /*******************************************************************************
 425:.\Generated_Source\PSoC4/ADC_SAR_Seq_1.c **** * Function Name: ADC_SAR_Seq_1_IsEndConversion
 426:.\Generated_Source\PSoC4/ADC_SAR_Seq_1.c **** ********************************************************************************
 427:.\Generated_Source\PSoC4/ADC_SAR_Seq_1.c **** *
 428:.\Generated_Source\PSoC4/ADC_SAR_Seq_1.c **** * Summary:
 429:.\Generated_Source\PSoC4/ADC_SAR_Seq_1.c **** *  Description: Checks for ADC end of conversion for the case one
 430:.\Generated_Source\PSoC4/ADC_SAR_Seq_1.c **** *  channel and end of scan for the case of multiple channels. It acts
 431:.\Generated_Source\PSoC4/ADC_SAR_Seq_1.c **** *  as a software version of the EOC. This function provides the
 432:.\Generated_Source\PSoC4/ADC_SAR_Seq_1.c **** *  programmer with two options. In one mode this function
 433:.\Generated_Source\PSoC4/ADC_SAR_Seq_1.c **** *  immediately returns with the conversion status. In the other mode,
 434:.\Generated_Source\PSoC4/ADC_SAR_Seq_1.c **** *  the function does not return (blocking) until the conversion has
 435:.\Generated_Source\PSoC4/ADC_SAR_Seq_1.c **** *  completed.
 436:.\Generated_Source\PSoC4/ADC_SAR_Seq_1.c **** *
 437:.\Generated_Source\PSoC4/ADC_SAR_Seq_1.c **** * Parameters:
 438:.\Generated_Source\PSoC4/ADC_SAR_Seq_1.c **** *  ADC_RETURN_STATUS        -> Immediately returns conversion result status
 439:.\Generated_Source\PSoC4/ADC_SAR_Seq_1.c **** *  ADC_WAIT_FOR_RESULT      -> Does not return until ADC complete
 440:.\Generated_Source\PSoC4/ADC_SAR_Seq_1.c **** *  ADC_RETURN_STATUS_INJ    -> Immediately returns conversion result status
 441:.\Generated_Source\PSoC4/ADC_SAR_Seq_1.c **** *                              for injection channel
 442:.\Generated_Source\PSoC4/ADC_SAR_Seq_1.c **** *  ADC_WAIT_FOR_RESULT_INJ  -> Does not return until ADC completes injection
 443:.\Generated_Source\PSoC4/ADC_SAR_Seq_1.c **** *                              channel conversion
 444:.\Generated_Source\PSoC4/ADC_SAR_Seq_1.c **** *
 445:.\Generated_Source\PSoC4/ADC_SAR_Seq_1.c **** * Return:
 446:.\Generated_Source\PSoC4/ADC_SAR_Seq_1.c **** *  If a non-zero value is returned, the last conversion or scan has completed.
ARM GAS  C:\Users\Bryan\AppData\Local\Temp\ccckzTjf.s 			page 15


 447:.\Generated_Source\PSoC4/ADC_SAR_Seq_1.c **** *  If the returned value is zero, the ADC is still in the process of a scan.
 448:.\Generated_Source\PSoC4/ADC_SAR_Seq_1.c **** *
 449:.\Generated_Source\PSoC4/ADC_SAR_Seq_1.c **** *******************************************************************************/
 450:.\Generated_Source\PSoC4/ADC_SAR_Seq_1.c **** uint32 ADC_SAR_Seq_1_IsEndConversion(uint32 retMode)
 451:.\Generated_Source\PSoC4/ADC_SAR_Seq_1.c **** {
 343              		.loc 1 451 0
 344              		.cfi_startproc
 345              	.LVL13:
 346 0000 021C     		mov	r2, r0
 347              	.LVL14:
 452:.\Generated_Source\PSoC4/ADC_SAR_Seq_1.c ****     uint32 status = 0u;
 453:.\Generated_Source\PSoC4/ADC_SAR_Seq_1.c **** 
 454:.\Generated_Source\PSoC4/ADC_SAR_Seq_1.c ****     if((retMode & (ADC_SAR_Seq_1_RETURN_STATUS | ADC_SAR_Seq_1_WAIT_FOR_RESULT)) != 0u)
 348              		.loc 1 454 0
 349 0002 8307     		lsl	r3, r0, #30
 350 0004 0CD0     		beq	.L29
 351              	.LVL15:
 352              	.L28:
 455:.\Generated_Source\PSoC4/ADC_SAR_Seq_1.c ****     {
 456:.\Generated_Source\PSoC4/ADC_SAR_Seq_1.c ****         do
 457:.\Generated_Source\PSoC4/ADC_SAR_Seq_1.c ****         {
 458:.\Generated_Source\PSoC4/ADC_SAR_Seq_1.c ****             status = ADC_SAR_Seq_1_SAR_INTR_REG & ADC_SAR_Seq_1_EOS_MASK;
 353              		.loc 1 458 0 discriminator 2
 354 0006 074B     		ldr	r3, .L30
 355 0008 1B68     		ldr	r3, [r3]
 356 000a 0120     		mov	r0, #1
 357 000c 1840     		and	r0, r3
 358              	.LVL16:
 459:.\Generated_Source\PSoC4/ADC_SAR_Seq_1.c ****         }while((status == 0u) && ((retMode & ADC_SAR_Seq_1_WAIT_FOR_RESULT) != 0u));
 359              		.loc 1 459 0 discriminator 2
 360 000e 01D1     		bne	.L27
 361              		.loc 1 459 0 is_stmt 0 discriminator 1
 362 0010 9307     		lsl	r3, r2, #30
 363 0012 F8D4     		bmi	.L28
 364              	.L27:
 460:.\Generated_Source\PSoC4/ADC_SAR_Seq_1.c **** 
 461:.\Generated_Source\PSoC4/ADC_SAR_Seq_1.c ****         if(status != 0u)
 365              		.loc 1 461 0 is_stmt 1
 366 0014 0028     		cmp	r0, #0
 367 0016 04D0     		beq	.L26
 462:.\Generated_Source\PSoC4/ADC_SAR_Seq_1.c ****         {
 463:.\Generated_Source\PSoC4/ADC_SAR_Seq_1.c ****             /* Clear EOS bit */
 464:.\Generated_Source\PSoC4/ADC_SAR_Seq_1.c ****             ADC_SAR_Seq_1_SAR_INTR_REG = ADC_SAR_Seq_1_EOS_MASK;
 368              		.loc 1 464 0
 369 0018 0122     		mov	r2, #1
 370              	.LVL17:
 371 001a 024B     		ldr	r3, .L30
 372 001c 1A60     		str	r2, [r3]
 373 001e 00E0     		b	.L26
 374              	.LVL18:
 375              	.L29:
 452:.\Generated_Source\PSoC4/ADC_SAR_Seq_1.c **** 
 376              		.loc 1 452 0
 377 0020 0020     		mov	r0, #0
 378              	.LVL19:
 379              	.L26:
 465:.\Generated_Source\PSoC4/ADC_SAR_Seq_1.c ****         }
ARM GAS  C:\Users\Bryan\AppData\Local\Temp\ccckzTjf.s 			page 16


 466:.\Generated_Source\PSoC4/ADC_SAR_Seq_1.c ****     }
 467:.\Generated_Source\PSoC4/ADC_SAR_Seq_1.c **** 
 468:.\Generated_Source\PSoC4/ADC_SAR_Seq_1.c ****     #if(ADC_SAR_Seq_1_INJ_CHANNEL_ENABLED)
 469:.\Generated_Source\PSoC4/ADC_SAR_Seq_1.c ****         if((retMode & (ADC_SAR_Seq_1_RETURN_STATUS_INJ | ADC_SAR_Seq_1_WAIT_FOR_RESULT_INJ)) != 0u)
 470:.\Generated_Source\PSoC4/ADC_SAR_Seq_1.c ****         {
 471:.\Generated_Source\PSoC4/ADC_SAR_Seq_1.c ****             do
 472:.\Generated_Source\PSoC4/ADC_SAR_Seq_1.c ****             {
 473:.\Generated_Source\PSoC4/ADC_SAR_Seq_1.c ****                 status |= ADC_SAR_Seq_1_SAR_INTR_REG & ADC_SAR_Seq_1_INJ_EOC_MASK;
 474:.\Generated_Source\PSoC4/ADC_SAR_Seq_1.c ****             }while(((status & ADC_SAR_Seq_1_INJ_EOC_MASK) == 0u) &&
 475:.\Generated_Source\PSoC4/ADC_SAR_Seq_1.c ****                    ((retMode & ADC_SAR_Seq_1_WAIT_FOR_RESULT_INJ) != 0u));
 476:.\Generated_Source\PSoC4/ADC_SAR_Seq_1.c **** 
 477:.\Generated_Source\PSoC4/ADC_SAR_Seq_1.c ****             if((status & ADC_SAR_Seq_1_INJ_EOC_MASK) != 0u)
 478:.\Generated_Source\PSoC4/ADC_SAR_Seq_1.c ****             {
 479:.\Generated_Source\PSoC4/ADC_SAR_Seq_1.c ****                 /* Clear Injection EOS bit */
 480:.\Generated_Source\PSoC4/ADC_SAR_Seq_1.c ****                 ADC_SAR_Seq_1_SAR_INTR_REG = ADC_SAR_Seq_1_INJ_EOC_MASK;
 481:.\Generated_Source\PSoC4/ADC_SAR_Seq_1.c ****             }
 482:.\Generated_Source\PSoC4/ADC_SAR_Seq_1.c ****         }
 483:.\Generated_Source\PSoC4/ADC_SAR_Seq_1.c ****     #endif /* ADC_SAR_Seq_1_INJ_CHANNEL_ENABLED */
 484:.\Generated_Source\PSoC4/ADC_SAR_Seq_1.c **** 
 485:.\Generated_Source\PSoC4/ADC_SAR_Seq_1.c ****     return (status);
 486:.\Generated_Source\PSoC4/ADC_SAR_Seq_1.c **** }
 380              		.loc 1 486 0
 381              		@ sp needed
 382 0022 7047     		bx	lr
 383              	.L31:
 384              		.align	2
 385              	.L30:
 386 0024 10021A40 		.word	1075446288
 387              		.cfi_endproc
 388              	.LFE6:
 389              		.size	ADC_SAR_Seq_1_IsEndConversion, .-ADC_SAR_Seq_1_IsEndConversion
 390              		.section	.text.ADC_SAR_Seq_1_GetResult16,"ax",%progbits
 391              		.align	2
 392              		.global	ADC_SAR_Seq_1_GetResult16
 393              		.code	16
 394              		.thumb_func
 395              		.type	ADC_SAR_Seq_1_GetResult16, %function
 396              	ADC_SAR_Seq_1_GetResult16:
 397              	.LFB7:
 487:.\Generated_Source\PSoC4/ADC_SAR_Seq_1.c **** 
 488:.\Generated_Source\PSoC4/ADC_SAR_Seq_1.c **** 
 489:.\Generated_Source\PSoC4/ADC_SAR_Seq_1.c **** /*******************************************************************************
 490:.\Generated_Source\PSoC4/ADC_SAR_Seq_1.c **** * Function Name: ADC_SAR_Seq_1_GetResult16
 491:.\Generated_Source\PSoC4/ADC_SAR_Seq_1.c **** ********************************************************************************
 492:.\Generated_Source\PSoC4/ADC_SAR_Seq_1.c **** *
 493:.\Generated_Source\PSoC4/ADC_SAR_Seq_1.c **** * Summary:
 494:.\Generated_Source\PSoC4/ADC_SAR_Seq_1.c **** *  Gets the data available in the SAR DATA register.
 495:.\Generated_Source\PSoC4/ADC_SAR_Seq_1.c **** *
 496:.\Generated_Source\PSoC4/ADC_SAR_Seq_1.c **** * Parameters:
 497:.\Generated_Source\PSoC4/ADC_SAR_Seq_1.c **** *  chan: The ADC channel in which to return the result. The first channel
 498:.\Generated_Source\PSoC4/ADC_SAR_Seq_1.c **** *  is 0 and the injection channel if enabled is the number of valid channels.
 499:.\Generated_Source\PSoC4/ADC_SAR_Seq_1.c **** *
 500:.\Generated_Source\PSoC4/ADC_SAR_Seq_1.c **** * Return:
 501:.\Generated_Source\PSoC4/ADC_SAR_Seq_1.c **** *  Returns converted data as a signed 16-bit integer
 502:.\Generated_Source\PSoC4/ADC_SAR_Seq_1.c **** *
 503:.\Generated_Source\PSoC4/ADC_SAR_Seq_1.c **** *******************************************************************************/
 504:.\Generated_Source\PSoC4/ADC_SAR_Seq_1.c **** int16 ADC_SAR_Seq_1_GetResult16(uint32 chan)
ARM GAS  C:\Users\Bryan\AppData\Local\Temp\ccckzTjf.s 			page 17


 505:.\Generated_Source\PSoC4/ADC_SAR_Seq_1.c **** {
 398              		.loc 1 505 0
 399              		.cfi_startproc
 400              	.LVL20:
 401 0000 10B5     		push	{r4, lr}
 402              		.cfi_def_cfa_offset 8
 403              		.cfi_offset 4, -8
 404              		.cfi_offset 14, -4
 405 0002 041E     		sub	r4, r0, #0
 506:.\Generated_Source\PSoC4/ADC_SAR_Seq_1.c ****     uint32 result;
 507:.\Generated_Source\PSoC4/ADC_SAR_Seq_1.c **** 
 508:.\Generated_Source\PSoC4/ADC_SAR_Seq_1.c ****     /* Halt CPU in debug mode if channel is out of valid range */
 509:.\Generated_Source\PSoC4/ADC_SAR_Seq_1.c ****     CYASSERT(chan < ADC_SAR_Seq_1_TOTAL_CHANNELS_NUM);
 406              		.loc 1 509 0
 407 0004 02D0     		beq	.L33
 408              		.loc 1 509 0 is_stmt 0 discriminator 1
 409 0006 0020     		mov	r0, #0
 410              	.LVL21:
 411 0008 FFF7FEFF 		bl	CyHalt
 412              	.LVL22:
 413              	.L33:
 510:.\Generated_Source\PSoC4/ADC_SAR_Seq_1.c **** 
 511:.\Generated_Source\PSoC4/ADC_SAR_Seq_1.c ****     if(chan < ADC_SAR_Seq_1_SEQUENCED_CHANNELS_NUM)
 414              		.loc 1 511 0 is_stmt 1
 415 000c 002C     		cmp	r4, #0
 416 000e 07D1     		bne	.L35
 512:.\Generated_Source\PSoC4/ADC_SAR_Seq_1.c ****     {
 513:.\Generated_Source\PSoC4/ADC_SAR_Seq_1.c ****         result = CY_GET_REG32((reg32 *)(ADC_SAR_Seq_1_SAR_CHAN_RESULT_IND + (uint32)(chan << 2u))) 
 417              		.loc 1 513 0
 418 0010 A400     		lsl	r4, r4, #2
 419              	.LVL23:
 420 0012 054B     		ldr	r3, .L36
 421 0014 9C46     		mov	ip, r3
 422 0016 6444     		add	r4, r4, ip
 423 0018 2068     		ldr	r0, [r4]
 424 001a 0004     		lsl	r0, r0, #16
 425 001c 000C     		lsr	r0, r0, #16
 426              	.LVL24:
 427 001e 00E0     		b	.L34
 428              	.LVL25:
 429              	.L35:
 514:.\Generated_Source\PSoC4/ADC_SAR_Seq_1.c ****                 ADC_SAR_Seq_1_RESULT_MASK;
 515:.\Generated_Source\PSoC4/ADC_SAR_Seq_1.c ****     }
 516:.\Generated_Source\PSoC4/ADC_SAR_Seq_1.c ****     else
 517:.\Generated_Source\PSoC4/ADC_SAR_Seq_1.c ****     {
 518:.\Generated_Source\PSoC4/ADC_SAR_Seq_1.c ****         #if(ADC_SAR_Seq_1_INJ_CHANNEL_ENABLED)
 519:.\Generated_Source\PSoC4/ADC_SAR_Seq_1.c ****             result = ADC_SAR_Seq_1_SAR_INJ_RESULT_REG & ADC_SAR_Seq_1_RESULT_MASK;
 520:.\Generated_Source\PSoC4/ADC_SAR_Seq_1.c ****         #else
 521:.\Generated_Source\PSoC4/ADC_SAR_Seq_1.c ****             result = 0u;
 430              		.loc 1 521 0
 431 0020 0020     		mov	r0, #0
 432              	.LVL26:
 433              	.L34:
 522:.\Generated_Source\PSoC4/ADC_SAR_Seq_1.c ****         #endif /* ADC_SAR_Seq_1_INJ_CHANNEL_ENABLED */
 523:.\Generated_Source\PSoC4/ADC_SAR_Seq_1.c ****     }
 524:.\Generated_Source\PSoC4/ADC_SAR_Seq_1.c **** 
 525:.\Generated_Source\PSoC4/ADC_SAR_Seq_1.c ****     return ( (int16)result );
ARM GAS  C:\Users\Bryan\AppData\Local\Temp\ccckzTjf.s 			page 18


 434              		.loc 1 525 0
 435 0022 00B2     		sxth	r0, r0
 436              	.LVL27:
 526:.\Generated_Source\PSoC4/ADC_SAR_Seq_1.c **** }
 437              		.loc 1 526 0
 438              		@ sp needed
 439 0024 10BD     		pop	{r4, pc}
 440              	.L37:
 441 0026 C046     		.align	2
 442              	.L36:
 443 0028 80011A40 		.word	1075446144
 444              		.cfi_endproc
 445              	.LFE7:
 446              		.size	ADC_SAR_Seq_1_GetResult16, .-ADC_SAR_Seq_1_GetResult16
 447              		.section	.text.ADC_SAR_Seq_1_SetChanMask,"ax",%progbits
 448              		.align	2
 449              		.global	ADC_SAR_Seq_1_SetChanMask
 450              		.code	16
 451              		.thumb_func
 452              		.type	ADC_SAR_Seq_1_SetChanMask, %function
 453              	ADC_SAR_Seq_1_SetChanMask:
 454              	.LFB8:
 527:.\Generated_Source\PSoC4/ADC_SAR_Seq_1.c **** 
 528:.\Generated_Source\PSoC4/ADC_SAR_Seq_1.c **** 
 529:.\Generated_Source\PSoC4/ADC_SAR_Seq_1.c **** /*******************************************************************************
 530:.\Generated_Source\PSoC4/ADC_SAR_Seq_1.c **** * Function Name: ADC_SAR_Seq_1_SetChanMask
 531:.\Generated_Source\PSoC4/ADC_SAR_Seq_1.c **** ********************************************************************************
 532:.\Generated_Source\PSoC4/ADC_SAR_Seq_1.c **** *
 533:.\Generated_Source\PSoC4/ADC_SAR_Seq_1.c **** * Summary:
 534:.\Generated_Source\PSoC4/ADC_SAR_Seq_1.c **** *  Sets the channel enable mask.
 535:.\Generated_Source\PSoC4/ADC_SAR_Seq_1.c **** *
 536:.\Generated_Source\PSoC4/ADC_SAR_Seq_1.c **** * Parameters:
 537:.\Generated_Source\PSoC4/ADC_SAR_Seq_1.c **** *  mask: Sets which channels that will be
 538:.\Generated_Source\PSoC4/ADC_SAR_Seq_1.c **** *  scanned. Setting bits for channels that do not exist will have no
 539:.\Generated_Source\PSoC4/ADC_SAR_Seq_1.c **** *  effect. For example, if only 6 channels were enabled, setting a
 540:.\Generated_Source\PSoC4/ADC_SAR_Seq_1.c **** *  mask of 0x0103 would only enable the last two channels (0 and 1).
 541:.\Generated_Source\PSoC4/ADC_SAR_Seq_1.c **** *  This API will not enable the injection channel.
 542:.\Generated_Source\PSoC4/ADC_SAR_Seq_1.c **** *  Examples: If the component is setup to sequence through 8
 543:.\Generated_Source\PSoC4/ADC_SAR_Seq_1.c **** *  channels, a mask of 0x000F would enable channels 0, 1, 2, and 3.
 544:.\Generated_Source\PSoC4/ADC_SAR_Seq_1.c **** *
 545:.\Generated_Source\PSoC4/ADC_SAR_Seq_1.c **** * Return:
 546:.\Generated_Source\PSoC4/ADC_SAR_Seq_1.c **** *  None.
 547:.\Generated_Source\PSoC4/ADC_SAR_Seq_1.c **** *
 548:.\Generated_Source\PSoC4/ADC_SAR_Seq_1.c **** *******************************************************************************/
 549:.\Generated_Source\PSoC4/ADC_SAR_Seq_1.c **** void ADC_SAR_Seq_1_SetChanMask(uint32 mask)
 550:.\Generated_Source\PSoC4/ADC_SAR_Seq_1.c **** {
 455              		.loc 1 550 0
 456              		.cfi_startproc
 457              	.LVL28:
 551:.\Generated_Source\PSoC4/ADC_SAR_Seq_1.c ****     ADC_SAR_Seq_1_SAR_CHAN_EN_REG = mask & ADC_SAR_Seq_1_MAX_CHANNELS_EN_MASK;
 458              		.loc 1 551 0
 459 0000 0123     		mov	r3, #1
 460 0002 1840     		and	r0, r3
 461              	.LVL29:
 462 0004 014B     		ldr	r3, .L39
 463 0006 1860     		str	r0, [r3]
 552:.\Generated_Source\PSoC4/ADC_SAR_Seq_1.c **** }
ARM GAS  C:\Users\Bryan\AppData\Local\Temp\ccckzTjf.s 			page 19


 464              		.loc 1 552 0
 465              		@ sp needed
 466 0008 7047     		bx	lr
 467              	.L40:
 468 000a C046     		.align	2
 469              	.L39:
 470 000c 20001A40 		.word	1075445792
 471              		.cfi_endproc
 472              	.LFE8:
 473              		.size	ADC_SAR_Seq_1_SetChanMask, .-ADC_SAR_Seq_1_SetChanMask
 474              		.section	.text.ADC_SAR_Seq_1_SetLowLimit,"ax",%progbits
 475              		.align	2
 476              		.global	ADC_SAR_Seq_1_SetLowLimit
 477              		.code	16
 478              		.thumb_func
 479              		.type	ADC_SAR_Seq_1_SetLowLimit, %function
 480              	ADC_SAR_Seq_1_SetLowLimit:
 481              	.LFB9:
 553:.\Generated_Source\PSoC4/ADC_SAR_Seq_1.c **** 
 554:.\Generated_Source\PSoC4/ADC_SAR_Seq_1.c **** #if(ADC_SAR_Seq_1_INJ_CHANNEL_ENABLED)
 555:.\Generated_Source\PSoC4/ADC_SAR_Seq_1.c **** 
 556:.\Generated_Source\PSoC4/ADC_SAR_Seq_1.c **** 
 557:.\Generated_Source\PSoC4/ADC_SAR_Seq_1.c ****     /*******************************************************************************
 558:.\Generated_Source\PSoC4/ADC_SAR_Seq_1.c ****     * Function Name: ADC_SAR_Seq_1_EnableInjection
 559:.\Generated_Source\PSoC4/ADC_SAR_Seq_1.c ****     ********************************************************************************
 560:.\Generated_Source\PSoC4/ADC_SAR_Seq_1.c ****     *
 561:.\Generated_Source\PSoC4/ADC_SAR_Seq_1.c ****     * Summary:
 562:.\Generated_Source\PSoC4/ADC_SAR_Seq_1.c ****     *  Enables the injection channel for the next scan only.
 563:.\Generated_Source\PSoC4/ADC_SAR_Seq_1.c ****     *
 564:.\Generated_Source\PSoC4/ADC_SAR_Seq_1.c ****     * Parameters:
 565:.\Generated_Source\PSoC4/ADC_SAR_Seq_1.c ****     *  None.
 566:.\Generated_Source\PSoC4/ADC_SAR_Seq_1.c ****     *
 567:.\Generated_Source\PSoC4/ADC_SAR_Seq_1.c ****     * Return:
 568:.\Generated_Source\PSoC4/ADC_SAR_Seq_1.c ****     *  None.
 569:.\Generated_Source\PSoC4/ADC_SAR_Seq_1.c ****     *
 570:.\Generated_Source\PSoC4/ADC_SAR_Seq_1.c ****     *******************************************************************************/
 571:.\Generated_Source\PSoC4/ADC_SAR_Seq_1.c ****     void ADC_SAR_Seq_1_EnableInjection(void)
 572:.\Generated_Source\PSoC4/ADC_SAR_Seq_1.c ****     {
 573:.\Generated_Source\PSoC4/ADC_SAR_Seq_1.c ****         ADC_SAR_Seq_1_SAR_INJ_CHAN_CONFIG_REG |= ADC_SAR_Seq_1_INJ_CHAN_EN;
 574:.\Generated_Source\PSoC4/ADC_SAR_Seq_1.c ****     }
 575:.\Generated_Source\PSoC4/ADC_SAR_Seq_1.c **** 
 576:.\Generated_Source\PSoC4/ADC_SAR_Seq_1.c **** #endif /* ADC_SAR_Seq_1_INJ_CHANNEL_ENABLED */
 577:.\Generated_Source\PSoC4/ADC_SAR_Seq_1.c **** 
 578:.\Generated_Source\PSoC4/ADC_SAR_Seq_1.c **** 
 579:.\Generated_Source\PSoC4/ADC_SAR_Seq_1.c **** /*******************************************************************************
 580:.\Generated_Source\PSoC4/ADC_SAR_Seq_1.c **** * Function Name: ADC_SAR_Seq_1_SetLowLimit
 581:.\Generated_Source\PSoC4/ADC_SAR_Seq_1.c **** ********************************************************************************
 582:.\Generated_Source\PSoC4/ADC_SAR_Seq_1.c **** *
 583:.\Generated_Source\PSoC4/ADC_SAR_Seq_1.c **** * Summary:
 584:.\Generated_Source\PSoC4/ADC_SAR_Seq_1.c **** *  Sets the low limit parameter for a limit condition.
 585:.\Generated_Source\PSoC4/ADC_SAR_Seq_1.c **** *
 586:.\Generated_Source\PSoC4/ADC_SAR_Seq_1.c **** * Parameters:
 587:.\Generated_Source\PSoC4/ADC_SAR_Seq_1.c **** *  lowLimit: The low limit for a limit condition.
 588:.\Generated_Source\PSoC4/ADC_SAR_Seq_1.c **** *
 589:.\Generated_Source\PSoC4/ADC_SAR_Seq_1.c **** * Return:
 590:.\Generated_Source\PSoC4/ADC_SAR_Seq_1.c **** *  None.
 591:.\Generated_Source\PSoC4/ADC_SAR_Seq_1.c **** *
ARM GAS  C:\Users\Bryan\AppData\Local\Temp\ccckzTjf.s 			page 20


 592:.\Generated_Source\PSoC4/ADC_SAR_Seq_1.c **** *******************************************************************************/
 593:.\Generated_Source\PSoC4/ADC_SAR_Seq_1.c **** void ADC_SAR_Seq_1_SetLowLimit(uint32 lowLimit)
 594:.\Generated_Source\PSoC4/ADC_SAR_Seq_1.c **** {
 482              		.loc 1 594 0
 483              		.cfi_startproc
 484              	.LVL30:
 595:.\Generated_Source\PSoC4/ADC_SAR_Seq_1.c ****     ADC_SAR_Seq_1_SAR_RANGE_THRES_REG &= (uint32)(~ADC_SAR_Seq_1_RANGE_LOW_MASK);
 485              		.loc 1 595 0
 486 0000 054A     		ldr	r2, .L42
 487 0002 1368     		ldr	r3, [r2]
 488 0004 1B0C     		lsr	r3, r3, #16
 489 0006 1B04     		lsl	r3, r3, #16
 490 0008 1360     		str	r3, [r2]
 596:.\Generated_Source\PSoC4/ADC_SAR_Seq_1.c ****     ADC_SAR_Seq_1_SAR_RANGE_THRES_REG |= lowLimit & ADC_SAR_Seq_1_RANGE_LOW_MASK;
 491              		.loc 1 596 0
 492 000a 1368     		ldr	r3, [r2]
 493 000c 0004     		lsl	r0, r0, #16
 494              	.LVL31:
 495 000e 000C     		lsr	r0, r0, #16
 496 0010 1843     		orr	r0, r3
 497 0012 1060     		str	r0, [r2]
 597:.\Generated_Source\PSoC4/ADC_SAR_Seq_1.c **** }
 498              		.loc 1 597 0
 499              		@ sp needed
 500 0014 7047     		bx	lr
 501              	.L43:
 502 0016 C046     		.align	2
 503              	.L42:
 504 0018 18001A40 		.word	1075445784
 505              		.cfi_endproc
 506              	.LFE9:
 507              		.size	ADC_SAR_Seq_1_SetLowLimit, .-ADC_SAR_Seq_1_SetLowLimit
 508              		.section	.text.ADC_SAR_Seq_1_SetHighLimit,"ax",%progbits
 509              		.align	2
 510              		.global	ADC_SAR_Seq_1_SetHighLimit
 511              		.code	16
 512              		.thumb_func
 513              		.type	ADC_SAR_Seq_1_SetHighLimit, %function
 514              	ADC_SAR_Seq_1_SetHighLimit:
 515              	.LFB10:
 598:.\Generated_Source\PSoC4/ADC_SAR_Seq_1.c **** 
 599:.\Generated_Source\PSoC4/ADC_SAR_Seq_1.c **** 
 600:.\Generated_Source\PSoC4/ADC_SAR_Seq_1.c **** /*******************************************************************************
 601:.\Generated_Source\PSoC4/ADC_SAR_Seq_1.c **** * Function Name: ADC_SAR_Seq_1_SetHighLimit
 602:.\Generated_Source\PSoC4/ADC_SAR_Seq_1.c **** ********************************************************************************
 603:.\Generated_Source\PSoC4/ADC_SAR_Seq_1.c **** *
 604:.\Generated_Source\PSoC4/ADC_SAR_Seq_1.c **** * Summary:
 605:.\Generated_Source\PSoC4/ADC_SAR_Seq_1.c **** *  Sets the low limit parameter for a limit condition.
 606:.\Generated_Source\PSoC4/ADC_SAR_Seq_1.c **** *
 607:.\Generated_Source\PSoC4/ADC_SAR_Seq_1.c **** * Parameters:
 608:.\Generated_Source\PSoC4/ADC_SAR_Seq_1.c **** *  highLimit: The high limit for a limit condition.
 609:.\Generated_Source\PSoC4/ADC_SAR_Seq_1.c **** *
 610:.\Generated_Source\PSoC4/ADC_SAR_Seq_1.c **** * Return:
 611:.\Generated_Source\PSoC4/ADC_SAR_Seq_1.c **** *  None.
 612:.\Generated_Source\PSoC4/ADC_SAR_Seq_1.c **** *
 613:.\Generated_Source\PSoC4/ADC_SAR_Seq_1.c **** *******************************************************************************/
 614:.\Generated_Source\PSoC4/ADC_SAR_Seq_1.c **** void ADC_SAR_Seq_1_SetHighLimit(uint32 highLimit)
ARM GAS  C:\Users\Bryan\AppData\Local\Temp\ccckzTjf.s 			page 21


 615:.\Generated_Source\PSoC4/ADC_SAR_Seq_1.c **** {
 516              		.loc 1 615 0
 517              		.cfi_startproc
 518              	.LVL32:
 616:.\Generated_Source\PSoC4/ADC_SAR_Seq_1.c ****     ADC_SAR_Seq_1_SAR_RANGE_THRES_REG &= (uint32)(~ADC_SAR_Seq_1_RANGE_HIGH_MASK);
 519              		.loc 1 616 0
 520 0000 044A     		ldr	r2, .L45
 521 0002 1368     		ldr	r3, [r2]
 522 0004 1B04     		lsl	r3, r3, #16
 523 0006 1B0C     		lsr	r3, r3, #16
 524 0008 1360     		str	r3, [r2]
 617:.\Generated_Source\PSoC4/ADC_SAR_Seq_1.c ****     ADC_SAR_Seq_1_SAR_RANGE_THRES_REG |= (uint32)(highLimit << ADC_SAR_Seq_1_RANGE_HIGH_OFFSET);
 525              		.loc 1 617 0
 526 000a 1368     		ldr	r3, [r2]
 527 000c 0004     		lsl	r0, r0, #16
 528              	.LVL33:
 529 000e 1843     		orr	r0, r3
 530 0010 1060     		str	r0, [r2]
 618:.\Generated_Source\PSoC4/ADC_SAR_Seq_1.c **** }
 531              		.loc 1 618 0
 532              		@ sp needed
 533 0012 7047     		bx	lr
 534              	.L46:
 535              		.align	2
 536              	.L45:
 537 0014 18001A40 		.word	1075445784
 538              		.cfi_endproc
 539              	.LFE10:
 540              		.size	ADC_SAR_Seq_1_SetHighLimit, .-ADC_SAR_Seq_1_SetHighLimit
 541              		.section	.text.ADC_SAR_Seq_1_SetLimitMask,"ax",%progbits
 542              		.align	2
 543              		.global	ADC_SAR_Seq_1_SetLimitMask
 544              		.code	16
 545              		.thumb_func
 546              		.type	ADC_SAR_Seq_1_SetLimitMask, %function
 547              	ADC_SAR_Seq_1_SetLimitMask:
 548              	.LFB11:
 619:.\Generated_Source\PSoC4/ADC_SAR_Seq_1.c **** 
 620:.\Generated_Source\PSoC4/ADC_SAR_Seq_1.c **** 
 621:.\Generated_Source\PSoC4/ADC_SAR_Seq_1.c **** /*******************************************************************************
 622:.\Generated_Source\PSoC4/ADC_SAR_Seq_1.c **** * Function Name: ADC_SAR_Seq_1_SetLimitMask
 623:.\Generated_Source\PSoC4/ADC_SAR_Seq_1.c **** ********************************************************************************
 624:.\Generated_Source\PSoC4/ADC_SAR_Seq_1.c **** *
 625:.\Generated_Source\PSoC4/ADC_SAR_Seq_1.c **** * Summary:
 626:.\Generated_Source\PSoC4/ADC_SAR_Seq_1.c **** *  Sets the channel limit condition mask.
 627:.\Generated_Source\PSoC4/ADC_SAR_Seq_1.c **** *
 628:.\Generated_Source\PSoC4/ADC_SAR_Seq_1.c **** * Parameters:
 629:.\Generated_Source\PSoC4/ADC_SAR_Seq_1.c **** *  mask: Sets which channels that may cause a
 630:.\Generated_Source\PSoC4/ADC_SAR_Seq_1.c **** *  limit condition interrupt. Setting bits for channels that do not exist
 631:.\Generated_Source\PSoC4/ADC_SAR_Seq_1.c **** *  will have no effect. For example, if only 6 channels were enabled,
 632:.\Generated_Source\PSoC4/ADC_SAR_Seq_1.c **** *  setting a mask of 0x0103 would only enable the last two channels (0 and 1).
 633:.\Generated_Source\PSoC4/ADC_SAR_Seq_1.c **** *
 634:.\Generated_Source\PSoC4/ADC_SAR_Seq_1.c **** * Return:
 635:.\Generated_Source\PSoC4/ADC_SAR_Seq_1.c **** *  None.
 636:.\Generated_Source\PSoC4/ADC_SAR_Seq_1.c **** *
 637:.\Generated_Source\PSoC4/ADC_SAR_Seq_1.c **** *******************************************************************************/
 638:.\Generated_Source\PSoC4/ADC_SAR_Seq_1.c **** void ADC_SAR_Seq_1_SetLimitMask(uint32 mask)
ARM GAS  C:\Users\Bryan\AppData\Local\Temp\ccckzTjf.s 			page 22


 639:.\Generated_Source\PSoC4/ADC_SAR_Seq_1.c **** {
 549              		.loc 1 639 0
 550              		.cfi_startproc
 551              	.LVL34:
 640:.\Generated_Source\PSoC4/ADC_SAR_Seq_1.c ****     ADC_SAR_Seq_1_SAR_RANGE_INTR_MASK_REG = mask & ADC_SAR_Seq_1_MAX_CHANNELS_EN_MASK;
 552              		.loc 1 640 0
 553 0000 0123     		mov	r3, #1
 554 0002 1840     		and	r0, r3
 555              	.LVL35:
 556 0004 014B     		ldr	r3, .L48
 557 0006 1860     		str	r0, [r3]
 641:.\Generated_Source\PSoC4/ADC_SAR_Seq_1.c **** }
 558              		.loc 1 641 0
 559              		@ sp needed
 560 0008 7047     		bx	lr
 561              	.L49:
 562 000a C046     		.align	2
 563              	.L48:
 564 000c 38021A40 		.word	1075446328
 565              		.cfi_endproc
 566              	.LFE11:
 567              		.size	ADC_SAR_Seq_1_SetLimitMask, .-ADC_SAR_Seq_1_SetLimitMask
 568              		.section	.text.ADC_SAR_Seq_1_SetSatMask,"ax",%progbits
 569              		.align	2
 570              		.global	ADC_SAR_Seq_1_SetSatMask
 571              		.code	16
 572              		.thumb_func
 573              		.type	ADC_SAR_Seq_1_SetSatMask, %function
 574              	ADC_SAR_Seq_1_SetSatMask:
 575              	.LFB12:
 642:.\Generated_Source\PSoC4/ADC_SAR_Seq_1.c **** 
 643:.\Generated_Source\PSoC4/ADC_SAR_Seq_1.c **** 
 644:.\Generated_Source\PSoC4/ADC_SAR_Seq_1.c **** /*******************************************************************************
 645:.\Generated_Source\PSoC4/ADC_SAR_Seq_1.c **** * Function Name: ADC_SAR_Seq_1_SetSatMask
 646:.\Generated_Source\PSoC4/ADC_SAR_Seq_1.c **** ********************************************************************************
 647:.\Generated_Source\PSoC4/ADC_SAR_Seq_1.c **** *
 648:.\Generated_Source\PSoC4/ADC_SAR_Seq_1.c **** * Summary:
 649:.\Generated_Source\PSoC4/ADC_SAR_Seq_1.c **** *  Sets the channel saturation event mask.
 650:.\Generated_Source\PSoC4/ADC_SAR_Seq_1.c **** *
 651:.\Generated_Source\PSoC4/ADC_SAR_Seq_1.c **** * Parameters:
 652:.\Generated_Source\PSoC4/ADC_SAR_Seq_1.c **** *  mask: Sets which channels that may cause a
 653:.\Generated_Source\PSoC4/ADC_SAR_Seq_1.c **** *  saturation event interrupt. Setting bits for channels that do not exist
 654:.\Generated_Source\PSoC4/ADC_SAR_Seq_1.c **** *  will have no effect. For example, if only 8 channels were enabled,
 655:.\Generated_Source\PSoC4/ADC_SAR_Seq_1.c **** *  setting a mask of 0x01C0 would only enable two channels (6 and 7).
 656:.\Generated_Source\PSoC4/ADC_SAR_Seq_1.c **** *
 657:.\Generated_Source\PSoC4/ADC_SAR_Seq_1.c **** * Return:
 658:.\Generated_Source\PSoC4/ADC_SAR_Seq_1.c **** *  None.
 659:.\Generated_Source\PSoC4/ADC_SAR_Seq_1.c **** *
 660:.\Generated_Source\PSoC4/ADC_SAR_Seq_1.c **** *******************************************************************************/
 661:.\Generated_Source\PSoC4/ADC_SAR_Seq_1.c **** void ADC_SAR_Seq_1_SetSatMask(uint32 mask)
 662:.\Generated_Source\PSoC4/ADC_SAR_Seq_1.c **** {
 576              		.loc 1 662 0
 577              		.cfi_startproc
 578              	.LVL36:
 663:.\Generated_Source\PSoC4/ADC_SAR_Seq_1.c ****     ADC_SAR_Seq_1_SAR_SATURATE_INTR_MASK_REG = mask & ADC_SAR_Seq_1_MAX_CHANNELS_EN_MASK;
 579              		.loc 1 663 0
 580 0000 0123     		mov	r3, #1
ARM GAS  C:\Users\Bryan\AppData\Local\Temp\ccckzTjf.s 			page 23


 581 0002 1840     		and	r0, r3
 582              	.LVL37:
 583 0004 014B     		ldr	r3, .L51
 584 0006 1860     		str	r0, [r3]
 664:.\Generated_Source\PSoC4/ADC_SAR_Seq_1.c **** }
 585              		.loc 1 664 0
 586              		@ sp needed
 587 0008 7047     		bx	lr
 588              	.L52:
 589 000a C046     		.align	2
 590              	.L51:
 591 000c 28021A40 		.word	1075446312
 592              		.cfi_endproc
 593              	.LFE12:
 594              		.size	ADC_SAR_Seq_1_SetSatMask, .-ADC_SAR_Seq_1_SetSatMask
 595              		.section	.text.ADC_SAR_Seq_1_SetOffset,"ax",%progbits
 596              		.align	2
 597              		.global	ADC_SAR_Seq_1_SetOffset
 598              		.code	16
 599              		.thumb_func
 600              		.type	ADC_SAR_Seq_1_SetOffset, %function
 601              	ADC_SAR_Seq_1_SetOffset:
 602              	.LFB13:
 665:.\Generated_Source\PSoC4/ADC_SAR_Seq_1.c **** 
 666:.\Generated_Source\PSoC4/ADC_SAR_Seq_1.c **** 
 667:.\Generated_Source\PSoC4/ADC_SAR_Seq_1.c **** /*******************************************************************************
 668:.\Generated_Source\PSoC4/ADC_SAR_Seq_1.c **** * Function Name: ADC_SAR_Seq_1_SetOffset
 669:.\Generated_Source\PSoC4/ADC_SAR_Seq_1.c **** ********************************************************************************
 670:.\Generated_Source\PSoC4/ADC_SAR_Seq_1.c **** *
 671:.\Generated_Source\PSoC4/ADC_SAR_Seq_1.c **** * Summary:
 672:.\Generated_Source\PSoC4/ADC_SAR_Seq_1.c **** *   Description: Sets the ADC offset which is used by the functions
 673:.\Generated_Source\PSoC4/ADC_SAR_Seq_1.c **** *   ADC_CountsTo_uVolts, ADC_CountsTo_mVolts and ADC_CountsTo_Volts
 674:.\Generated_Source\PSoC4/ADC_SAR_Seq_1.c **** *   to substract the offset from the given reading
 675:.\Generated_Source\PSoC4/ADC_SAR_Seq_1.c **** *   before calculating the voltage conversion.
 676:.\Generated_Source\PSoC4/ADC_SAR_Seq_1.c **** *
 677:.\Generated_Source\PSoC4/ADC_SAR_Seq_1.c **** * Parameters:
 678:.\Generated_Source\PSoC4/ADC_SAR_Seq_1.c **** *  chan: ADC channel number.
 679:.\Generated_Source\PSoC4/ADC_SAR_Seq_1.c **** *  offset: This value is a measured value when the
 680:.\Generated_Source\PSoC4/ADC_SAR_Seq_1.c **** *          inputs are shorted or connected to the same input voltage.
 681:.\Generated_Source\PSoC4/ADC_SAR_Seq_1.c **** *
 682:.\Generated_Source\PSoC4/ADC_SAR_Seq_1.c **** * Return:
 683:.\Generated_Source\PSoC4/ADC_SAR_Seq_1.c **** *  None.
 684:.\Generated_Source\PSoC4/ADC_SAR_Seq_1.c **** *
 685:.\Generated_Source\PSoC4/ADC_SAR_Seq_1.c **** * Global variables:
 686:.\Generated_Source\PSoC4/ADC_SAR_Seq_1.c **** *  ADC_SAR_Seq_1_Offset:  Modified to set the user provided offset.
 687:.\Generated_Source\PSoC4/ADC_SAR_Seq_1.c **** *
 688:.\Generated_Source\PSoC4/ADC_SAR_Seq_1.c **** *******************************************************************************/
 689:.\Generated_Source\PSoC4/ADC_SAR_Seq_1.c **** void ADC_SAR_Seq_1_SetOffset(uint32 chan, int16 offset)
 690:.\Generated_Source\PSoC4/ADC_SAR_Seq_1.c **** {
 603              		.loc 1 690 0
 604              		.cfi_startproc
 605              	.LVL38:
 606 0000 38B5     		push	{r3, r4, r5, lr}
 607              		.cfi_def_cfa_offset 16
 608              		.cfi_offset 3, -16
 609              		.cfi_offset 4, -12
 610              		.cfi_offset 5, -8
ARM GAS  C:\Users\Bryan\AppData\Local\Temp\ccckzTjf.s 			page 24


 611              		.cfi_offset 14, -4
 612 0002 041C     		mov	r4, r0
 613 0004 0D1C     		mov	r5, r1
 691:.\Generated_Source\PSoC4/ADC_SAR_Seq_1.c ****     /* Halt CPU in debug mode if channel is out of valid range */
 692:.\Generated_Source\PSoC4/ADC_SAR_Seq_1.c ****     CYASSERT(chan < ADC_SAR_Seq_1_TOTAL_CHANNELS_NUM);
 614              		.loc 1 692 0
 615 0006 0028     		cmp	r0, #0
 616 0008 02D0     		beq	.L54
 617              		.loc 1 692 0 is_stmt 0 discriminator 1
 618 000a 0020     		mov	r0, #0
 619              	.LVL39:
 620 000c FFF7FEFF 		bl	CyHalt
 621              	.LVL40:
 622              	.L54:
 693:.\Generated_Source\PSoC4/ADC_SAR_Seq_1.c **** 
 694:.\Generated_Source\PSoC4/ADC_SAR_Seq_1.c ****     ADC_SAR_Seq_1_offset[chan] = offset;
 623              		.loc 1 694 0 is_stmt 1
 624 0010 6400     		lsl	r4, r4, #1
 625              	.LVL41:
 626 0012 014B     		ldr	r3, .L55
 627 0014 E552     		strh	r5, [r4, r3]
 695:.\Generated_Source\PSoC4/ADC_SAR_Seq_1.c **** }
 628              		.loc 1 695 0
 629              		@ sp needed
 630 0016 38BD     		pop	{r3, r4, r5, pc}
 631              	.L56:
 632              		.align	2
 633              	.L55:
 634 0018 00000000 		.word	ADC_SAR_Seq_1_offset
 635              		.cfi_endproc
 636              	.LFE13:
 637              		.size	ADC_SAR_Seq_1_SetOffset, .-ADC_SAR_Seq_1_SetOffset
 638              		.section	.text.ADC_SAR_Seq_1_SetGain,"ax",%progbits
 639              		.align	2
 640              		.global	ADC_SAR_Seq_1_SetGain
 641              		.code	16
 642              		.thumb_func
 643              		.type	ADC_SAR_Seq_1_SetGain, %function
 644              	ADC_SAR_Seq_1_SetGain:
 645              	.LFB14:
 696:.\Generated_Source\PSoC4/ADC_SAR_Seq_1.c **** 
 697:.\Generated_Source\PSoC4/ADC_SAR_Seq_1.c **** 
 698:.\Generated_Source\PSoC4/ADC_SAR_Seq_1.c **** /*******************************************************************************
 699:.\Generated_Source\PSoC4/ADC_SAR_Seq_1.c **** * Function Name: ADC_SAR_Seq_1_SetGain
 700:.\Generated_Source\PSoC4/ADC_SAR_Seq_1.c **** ********************************************************************************
 701:.\Generated_Source\PSoC4/ADC_SAR_Seq_1.c **** *
 702:.\Generated_Source\PSoC4/ADC_SAR_Seq_1.c **** * Summary:
 703:.\Generated_Source\PSoC4/ADC_SAR_Seq_1.c **** *  Description: Sets the ADC gain in counts per 10 volt for the voltage
 704:.\Generated_Source\PSoC4/ADC_SAR_Seq_1.c **** *  conversion functions below. This value is set by default by the
 705:.\Generated_Source\PSoC4/ADC_SAR_Seq_1.c **** *  reference and input range settings. It should only be used to further
 706:.\Generated_Source\PSoC4/ADC_SAR_Seq_1.c **** *  calibrate the ADC with a known input or if an external reference is
 707:.\Generated_Source\PSoC4/ADC_SAR_Seq_1.c **** *  used. Affects the ADC_CountsTo_uVolts, ADC_CountsTo_mVolts
 708:.\Generated_Source\PSoC4/ADC_SAR_Seq_1.c **** *  and ADC_CountsTo_Volts functions by supplying the correct
 709:.\Generated_Source\PSoC4/ADC_SAR_Seq_1.c **** *  conversion between ADC counts and voltage.
 710:.\Generated_Source\PSoC4/ADC_SAR_Seq_1.c **** *
 711:.\Generated_Source\PSoC4/ADC_SAR_Seq_1.c **** * Parameters:
 712:.\Generated_Source\PSoC4/ADC_SAR_Seq_1.c **** *  chan: ADC channel number.
ARM GAS  C:\Users\Bryan\AppData\Local\Temp\ccckzTjf.s 			page 25


 713:.\Generated_Source\PSoC4/ADC_SAR_Seq_1.c **** *  adcGain: ADC gain in counts per 10 volts.
 714:.\Generated_Source\PSoC4/ADC_SAR_Seq_1.c **** *
 715:.\Generated_Source\PSoC4/ADC_SAR_Seq_1.c **** * Return:
 716:.\Generated_Source\PSoC4/ADC_SAR_Seq_1.c **** *  None.
 717:.\Generated_Source\PSoC4/ADC_SAR_Seq_1.c **** *
 718:.\Generated_Source\PSoC4/ADC_SAR_Seq_1.c **** * Global variables:
 719:.\Generated_Source\PSoC4/ADC_SAR_Seq_1.c **** *  ADC_SAR_Seq_1_CountsPer10Volt:  modified to set the ADC gain in counts
 720:.\Generated_Source\PSoC4/ADC_SAR_Seq_1.c **** *   per 10 volt.
 721:.\Generated_Source\PSoC4/ADC_SAR_Seq_1.c **** *
 722:.\Generated_Source\PSoC4/ADC_SAR_Seq_1.c **** *******************************************************************************/
 723:.\Generated_Source\PSoC4/ADC_SAR_Seq_1.c **** void ADC_SAR_Seq_1_SetGain(uint32 chan, int32 adcGain)
 724:.\Generated_Source\PSoC4/ADC_SAR_Seq_1.c **** {
 646              		.loc 1 724 0
 647              		.cfi_startproc
 648              	.LVL42:
 649 0000 38B5     		push	{r3, r4, r5, lr}
 650              		.cfi_def_cfa_offset 16
 651              		.cfi_offset 3, -16
 652              		.cfi_offset 4, -12
 653              		.cfi_offset 5, -8
 654              		.cfi_offset 14, -4
 655 0002 041C     		mov	r4, r0
 656 0004 0D1C     		mov	r5, r1
 725:.\Generated_Source\PSoC4/ADC_SAR_Seq_1.c ****     /* Halt CPU in debug mode if channel is out of valid range */
 726:.\Generated_Source\PSoC4/ADC_SAR_Seq_1.c ****     CYASSERT(chan < ADC_SAR_Seq_1_TOTAL_CHANNELS_NUM);
 657              		.loc 1 726 0
 658 0006 0028     		cmp	r0, #0
 659 0008 02D0     		beq	.L58
 660              		.loc 1 726 0 is_stmt 0 discriminator 1
 661 000a 0020     		mov	r0, #0
 662              	.LVL43:
 663 000c FFF7FEFF 		bl	CyHalt
 664              	.LVL44:
 665              	.L58:
 727:.\Generated_Source\PSoC4/ADC_SAR_Seq_1.c **** 
 728:.\Generated_Source\PSoC4/ADC_SAR_Seq_1.c ****     ADC_SAR_Seq_1_countsPer10Volt[chan] = adcGain;
 666              		.loc 1 728 0 is_stmt 1
 667 0010 A400     		lsl	r4, r4, #2
 668              	.LVL45:
 669 0012 014B     		ldr	r3, .L59
 670 0014 E550     		str	r5, [r4, r3]
 729:.\Generated_Source\PSoC4/ADC_SAR_Seq_1.c **** }
 671              		.loc 1 729 0
 672              		@ sp needed
 673              	.LVL46:
 674 0016 38BD     		pop	{r3, r4, r5, pc}
 675              	.L60:
 676              		.align	2
 677              	.L59:
 678 0018 00000000 		.word	ADC_SAR_Seq_1_countsPer10Volt
 679              		.cfi_endproc
 680              	.LFE14:
 681              		.size	ADC_SAR_Seq_1_SetGain, .-ADC_SAR_Seq_1_SetGain
 682              		.global	__aeabi_idiv
 683              		.section	.text.ADC_SAR_Seq_1_CountsTo_mVolts,"ax",%progbits
 684              		.align	2
 685              		.global	ADC_SAR_Seq_1_CountsTo_mVolts
ARM GAS  C:\Users\Bryan\AppData\Local\Temp\ccckzTjf.s 			page 26


 686              		.code	16
 687              		.thumb_func
 688              		.type	ADC_SAR_Seq_1_CountsTo_mVolts, %function
 689              	ADC_SAR_Seq_1_CountsTo_mVolts:
 690              	.LFB15:
 730:.\Generated_Source\PSoC4/ADC_SAR_Seq_1.c **** 
 731:.\Generated_Source\PSoC4/ADC_SAR_Seq_1.c **** 
 732:.\Generated_Source\PSoC4/ADC_SAR_Seq_1.c **** #if(ADC_SAR_Seq_1_DEFAULT_JUSTIFICATION_SEL == ADC_SAR_Seq_1__RIGHT)
 733:.\Generated_Source\PSoC4/ADC_SAR_Seq_1.c **** 
 734:.\Generated_Source\PSoC4/ADC_SAR_Seq_1.c **** 
 735:.\Generated_Source\PSoC4/ADC_SAR_Seq_1.c ****     /*******************************************************************************
 736:.\Generated_Source\PSoC4/ADC_SAR_Seq_1.c ****     * Function Name: ADC_SAR_Seq_1_CountsTo_mVolts
 737:.\Generated_Source\PSoC4/ADC_SAR_Seq_1.c ****     ********************************************************************************
 738:.\Generated_Source\PSoC4/ADC_SAR_Seq_1.c ****     *
 739:.\Generated_Source\PSoC4/ADC_SAR_Seq_1.c ****     * Summary:
 740:.\Generated_Source\PSoC4/ADC_SAR_Seq_1.c ****     *  This function converts ADC counts to mVolts
 741:.\Generated_Source\PSoC4/ADC_SAR_Seq_1.c ****     *  This function is not available when left data format justification selected.
 742:.\Generated_Source\PSoC4/ADC_SAR_Seq_1.c ****     *
 743:.\Generated_Source\PSoC4/ADC_SAR_Seq_1.c ****     * Parameters:
 744:.\Generated_Source\PSoC4/ADC_SAR_Seq_1.c ****     *  chan: The ADC channel number.
 745:.\Generated_Source\PSoC4/ADC_SAR_Seq_1.c ****     *  adcCounts: Result from the ADC conversion
 746:.\Generated_Source\PSoC4/ADC_SAR_Seq_1.c ****     *
 747:.\Generated_Source\PSoC4/ADC_SAR_Seq_1.c ****     * Return:
 748:.\Generated_Source\PSoC4/ADC_SAR_Seq_1.c ****     *  Results in mVolts
 749:.\Generated_Source\PSoC4/ADC_SAR_Seq_1.c ****     *
 750:.\Generated_Source\PSoC4/ADC_SAR_Seq_1.c ****     * Global variables:
 751:.\Generated_Source\PSoC4/ADC_SAR_Seq_1.c ****     *  ADC_SAR_Seq_1_countsPer10Volt:  used to convert ADC counts to mVolts.
 752:.\Generated_Source\PSoC4/ADC_SAR_Seq_1.c ****     *  ADC_SAR_Seq_1_Offset:  Used as the offset while converting ADC counts
 753:.\Generated_Source\PSoC4/ADC_SAR_Seq_1.c ****     *   to mVolts.
 754:.\Generated_Source\PSoC4/ADC_SAR_Seq_1.c ****     *
 755:.\Generated_Source\PSoC4/ADC_SAR_Seq_1.c ****     *******************************************************************************/
 756:.\Generated_Source\PSoC4/ADC_SAR_Seq_1.c ****     int16 ADC_SAR_Seq_1_CountsTo_mVolts(uint32 chan, int16 adcCounts)
 757:.\Generated_Source\PSoC4/ADC_SAR_Seq_1.c ****     {
 691              		.loc 1 757 0
 692              		.cfi_startproc
 693              	.LVL47:
 694 0000 38B5     		push	{r3, r4, r5, lr}
 695              		.cfi_def_cfa_offset 16
 696              		.cfi_offset 3, -16
 697              		.cfi_offset 4, -12
 698              		.cfi_offset 5, -8
 699              		.cfi_offset 14, -4
 700 0002 041C     		mov	r4, r0
 701 0004 0D1C     		mov	r5, r1
 758:.\Generated_Source\PSoC4/ADC_SAR_Seq_1.c ****         int16 mVolts;
 759:.\Generated_Source\PSoC4/ADC_SAR_Seq_1.c **** 
 760:.\Generated_Source\PSoC4/ADC_SAR_Seq_1.c ****         /* Halt CPU in debug mode if channel is out of valid range */
 761:.\Generated_Source\PSoC4/ADC_SAR_Seq_1.c ****         CYASSERT(chan < ADC_SAR_Seq_1_TOTAL_CHANNELS_NUM);
 702              		.loc 1 761 0
 703 0006 0028     		cmp	r0, #0
 704 0008 02D0     		beq	.L62
 705              		.loc 1 761 0 is_stmt 0 discriminator 1
 706 000a 0020     		mov	r0, #0
 707              	.LVL48:
 708 000c FFF7FEFF 		bl	CyHalt
 709              	.LVL49:
 710              	.L62:
ARM GAS  C:\Users\Bryan\AppData\Local\Temp\ccckzTjf.s 			page 27


 762:.\Generated_Source\PSoC4/ADC_SAR_Seq_1.c **** 
 763:.\Generated_Source\PSoC4/ADC_SAR_Seq_1.c ****         /* Divide the adcCount when accumulate averaging mode selected */
 764:.\Generated_Source\PSoC4/ADC_SAR_Seq_1.c ****         #if(ADC_SAR_Seq_1_DEFAULT_AVG_MODE == ADC_SAR_Seq_1__ACCUMULATE)
 765:.\Generated_Source\PSoC4/ADC_SAR_Seq_1.c ****             if((ADC_SAR_Seq_1_channelsConfig[chan] & ADC_SAR_Seq_1_AVERAGING_EN) != 0u)
 766:.\Generated_Source\PSoC4/ADC_SAR_Seq_1.c ****             {
 767:.\Generated_Source\PSoC4/ADC_SAR_Seq_1.c ****                 adcCounts /= ADC_SAR_Seq_1_DEFAULT_AVG_SAMPLES_DIV;
 768:.\Generated_Source\PSoC4/ADC_SAR_Seq_1.c ****             }
 769:.\Generated_Source\PSoC4/ADC_SAR_Seq_1.c ****         #endif /* ADC_SAR_Seq_1_DEFAULT_AVG_MODE == ADC_SAR_Seq_1__ACCUMULATE */
 770:.\Generated_Source\PSoC4/ADC_SAR_Seq_1.c **** 
 771:.\Generated_Source\PSoC4/ADC_SAR_Seq_1.c ****         /* Subtract ADC offset */
 772:.\Generated_Source\PSoC4/ADC_SAR_Seq_1.c ****         adcCounts -= ADC_SAR_Seq_1_offset[chan];
 711              		.loc 1 772 0 is_stmt 1
 712 0010 6300     		lsl	r3, r4, #1
 713 0012 0F4A     		ldr	r2, .L65
 714 0014 995A     		ldrh	r1, [r3, r2]
 715 0016 691A     		sub	r1, r5, r1
 716 0018 09B2     		sxth	r1, r1
 717              	.LVL50:
 773:.\Generated_Source\PSoC4/ADC_SAR_Seq_1.c **** 
 774:.\Generated_Source\PSoC4/ADC_SAR_Seq_1.c ****         mVolts = (int16)((((int32)adcCounts * ADC_SAR_Seq_1_10MV_COUNTS) + ( (adcCounts > 0) ?
 718              		.loc 1 774 0
 719 001a 0E48     		ldr	r0, .L65+4
 720 001c 021C     		mov	r2, r0
 721 001e 4A43     		mul	r2, r1
 775:.\Generated_Source\PSoC4/ADC_SAR_Seq_1.c ****                  (ADC_SAR_Seq_1_countsPer10Volt[chan] / 2) : (-(ADC_SAR_Seq_1_countsPer10Volt[chan]
 722              		.loc 1 775 0
 723 0020 0029     		cmp	r1, #0
 724 0022 06DD     		ble	.L63
 725              		.loc 1 775 0 is_stmt 0 discriminator 1
 726 0024 A300     		lsl	r3, r4, #2
 727 0026 0C49     		ldr	r1, .L65+8
 728              	.LVL51:
 729 0028 5B58     		ldr	r3, [r3, r1]
 730 002a D80F     		lsr	r0, r3, #31
 731 002c C018     		add	r0, r0, r3
 732 002e 4310     		asr	r3, r0, #1
 733 0030 06E0     		b	.L64
 734              	.LVL52:
 735              	.L63:
 736              		.loc 1 775 0 discriminator 2
 737 0032 A300     		lsl	r3, r4, #2
 738 0034 0849     		ldr	r1, .L65+8
 739              	.LVL53:
 740 0036 5B58     		ldr	r3, [r3, r1]
 741 0038 D80F     		lsr	r0, r3, #31
 742 003a C318     		add	r3, r0, r3
 743 003c 5B10     		asr	r3, r3, #1
 744 003e 5B42     		neg	r3, r3
 745              	.L64:
 774:.\Generated_Source\PSoC4/ADC_SAR_Seq_1.c ****                  (ADC_SAR_Seq_1_countsPer10Volt[chan] / 2) : (-(ADC_SAR_Seq_1_countsPer10Volt[chan]
 746              		.loc 1 774 0 is_stmt 1
 747 0040 D018     		add	r0, r2, r3
 776:.\Generated_Source\PSoC4/ADC_SAR_Seq_1.c ****                  / ADC_SAR_Seq_1_countsPer10Volt[chan]);
 748              		.loc 1 776 0
 749 0042 A400     		lsl	r4, r4, #2
 750              	.LVL54:
 751 0044 044B     		ldr	r3, .L65+8
ARM GAS  C:\Users\Bryan\AppData\Local\Temp\ccckzTjf.s 			page 28


 752 0046 E158     		ldr	r1, [r4, r3]
 753 0048 FFF7FEFF 		bl	__aeabi_idiv
 754              	.LVL55:
 777:.\Generated_Source\PSoC4/ADC_SAR_Seq_1.c **** 
 778:.\Generated_Source\PSoC4/ADC_SAR_Seq_1.c ****         return( mVolts );
 755              		.loc 1 778 0
 756 004c 00B2     		sxth	r0, r0
 779:.\Generated_Source\PSoC4/ADC_SAR_Seq_1.c ****     }
 757              		.loc 1 779 0
 758              		@ sp needed
 759 004e 38BD     		pop	{r3, r4, r5, pc}
 760              	.L66:
 761              		.align	2
 762              	.L65:
 763 0050 00000000 		.word	ADC_SAR_Seq_1_offset
 764 0054 10270000 		.word	10000
 765 0058 00000000 		.word	ADC_SAR_Seq_1_countsPer10Volt
 766              		.cfi_endproc
 767              	.LFE15:
 768              		.size	ADC_SAR_Seq_1_CountsTo_mVolts, .-ADC_SAR_Seq_1_CountsTo_mVolts
 769              		.global	__aeabi_lmul
 770              		.global	__aeabi_ldivmod
 771              		.section	.text.ADC_SAR_Seq_1_CountsTo_uVolts,"ax",%progbits
 772              		.align	2
 773              		.global	ADC_SAR_Seq_1_CountsTo_uVolts
 774              		.code	16
 775              		.thumb_func
 776              		.type	ADC_SAR_Seq_1_CountsTo_uVolts, %function
 777              	ADC_SAR_Seq_1_CountsTo_uVolts:
 778              	.LFB16:
 780:.\Generated_Source\PSoC4/ADC_SAR_Seq_1.c **** 
 781:.\Generated_Source\PSoC4/ADC_SAR_Seq_1.c **** 
 782:.\Generated_Source\PSoC4/ADC_SAR_Seq_1.c ****     /*******************************************************************************
 783:.\Generated_Source\PSoC4/ADC_SAR_Seq_1.c ****     * Function Name: ADC_SAR_Seq_1_CountsTo_uVolts
 784:.\Generated_Source\PSoC4/ADC_SAR_Seq_1.c ****     ********************************************************************************
 785:.\Generated_Source\PSoC4/ADC_SAR_Seq_1.c ****     *
 786:.\Generated_Source\PSoC4/ADC_SAR_Seq_1.c ****     * Summary:
 787:.\Generated_Source\PSoC4/ADC_SAR_Seq_1.c ****     *  This function converts ADC counts to micro Volts
 788:.\Generated_Source\PSoC4/ADC_SAR_Seq_1.c ****     *  This function is not available when left data format justification selected.
 789:.\Generated_Source\PSoC4/ADC_SAR_Seq_1.c ****     *
 790:.\Generated_Source\PSoC4/ADC_SAR_Seq_1.c ****     * Parameters:
 791:.\Generated_Source\PSoC4/ADC_SAR_Seq_1.c ****     *  chan: The ADC channel number.
 792:.\Generated_Source\PSoC4/ADC_SAR_Seq_1.c ****     *  adcCounts: Result from the ADC conversion
 793:.\Generated_Source\PSoC4/ADC_SAR_Seq_1.c ****     *
 794:.\Generated_Source\PSoC4/ADC_SAR_Seq_1.c ****     * Return:
 795:.\Generated_Source\PSoC4/ADC_SAR_Seq_1.c ****     *  Results in uVolts
 796:.\Generated_Source\PSoC4/ADC_SAR_Seq_1.c ****     *
 797:.\Generated_Source\PSoC4/ADC_SAR_Seq_1.c ****     * Global variables:
 798:.\Generated_Source\PSoC4/ADC_SAR_Seq_1.c ****     *  ADC_SAR_Seq_1_countsPer10Volt:  used to convert ADC counts to uVolts.
 799:.\Generated_Source\PSoC4/ADC_SAR_Seq_1.c ****     *  ADC_SAR_Seq_1_Offset:  Used as the offset while converting ADC counts
 800:.\Generated_Source\PSoC4/ADC_SAR_Seq_1.c ****     *   to mVolts.
 801:.\Generated_Source\PSoC4/ADC_SAR_Seq_1.c ****     *
 802:.\Generated_Source\PSoC4/ADC_SAR_Seq_1.c ****     * Theory:
 803:.\Generated_Source\PSoC4/ADC_SAR_Seq_1.c ****     *  Care must be taken to not exceed the maximum value for a 31 bit signed
 804:.\Generated_Source\PSoC4/ADC_SAR_Seq_1.c ****     *  number in the conversion to uVolts and at the same time not loose
 805:.\Generated_Source\PSoC4/ADC_SAR_Seq_1.c ****     *  resolution.
 806:.\Generated_Source\PSoC4/ADC_SAR_Seq_1.c ****     *  To convert adcCounts to microVolts it is required to be multiplied
ARM GAS  C:\Users\Bryan\AppData\Local\Temp\ccckzTjf.s 			page 29


 807:.\Generated_Source\PSoC4/ADC_SAR_Seq_1.c ****     *  on 10 million and later divide on gain in counts per 10V.
 808:.\Generated_Source\PSoC4/ADC_SAR_Seq_1.c ****     *
 809:.\Generated_Source\PSoC4/ADC_SAR_Seq_1.c ****     *******************************************************************************/
 810:.\Generated_Source\PSoC4/ADC_SAR_Seq_1.c ****     int32 ADC_SAR_Seq_1_CountsTo_uVolts(uint32 chan, int16 adcCounts)
 811:.\Generated_Source\PSoC4/ADC_SAR_Seq_1.c ****     {
 779              		.loc 1 811 0
 780              		.cfi_startproc
 781              	.LVL56:
 782 0000 38B5     		push	{r3, r4, r5, lr}
 783              		.cfi_def_cfa_offset 16
 784              		.cfi_offset 3, -16
 785              		.cfi_offset 4, -12
 786              		.cfi_offset 5, -8
 787              		.cfi_offset 14, -4
 788 0002 051C     		mov	r5, r0
 789 0004 0C1C     		mov	r4, r1
 812:.\Generated_Source\PSoC4/ADC_SAR_Seq_1.c ****         int64 uVolts;
 813:.\Generated_Source\PSoC4/ADC_SAR_Seq_1.c **** 
 814:.\Generated_Source\PSoC4/ADC_SAR_Seq_1.c ****         /* Halt CPU in debug mode if channel is out of valid range */
 815:.\Generated_Source\PSoC4/ADC_SAR_Seq_1.c ****         CYASSERT(chan < ADC_SAR_Seq_1_TOTAL_CHANNELS_NUM);
 790              		.loc 1 815 0
 791 0006 0028     		cmp	r0, #0
 792 0008 02D0     		beq	.L68
 793              		.loc 1 815 0 is_stmt 0 discriminator 1
 794 000a 0020     		mov	r0, #0
 795              	.LVL57:
 796 000c FFF7FEFF 		bl	CyHalt
 797              	.LVL58:
 798              	.L68:
 816:.\Generated_Source\PSoC4/ADC_SAR_Seq_1.c **** 
 817:.\Generated_Source\PSoC4/ADC_SAR_Seq_1.c ****         /* Divide the adcCount when accumulate averaging mode selected */
 818:.\Generated_Source\PSoC4/ADC_SAR_Seq_1.c ****         #if(ADC_SAR_Seq_1_DEFAULT_AVG_MODE == ADC_SAR_Seq_1__ACCUMULATE)
 819:.\Generated_Source\PSoC4/ADC_SAR_Seq_1.c ****             if((ADC_SAR_Seq_1_channelsConfig[chan] & ADC_SAR_Seq_1_AVERAGING_EN) != 0u)
 820:.\Generated_Source\PSoC4/ADC_SAR_Seq_1.c ****             {
 821:.\Generated_Source\PSoC4/ADC_SAR_Seq_1.c ****                 adcCounts /= ADC_SAR_Seq_1_DEFAULT_AVG_SAMPLES_DIV;
 822:.\Generated_Source\PSoC4/ADC_SAR_Seq_1.c ****             }
 823:.\Generated_Source\PSoC4/ADC_SAR_Seq_1.c ****         #endif /* ADC_SAR_Seq_1_DEFAULT_AVG_MODE == ADC_SAR_Seq_1__ACCUMULATE */
 824:.\Generated_Source\PSoC4/ADC_SAR_Seq_1.c **** 
 825:.\Generated_Source\PSoC4/ADC_SAR_Seq_1.c ****         /* Subtract ADC offset */
 826:.\Generated_Source\PSoC4/ADC_SAR_Seq_1.c ****         adcCounts -= ADC_SAR_Seq_1_offset[chan];
 799              		.loc 1 826 0 is_stmt 1
 800 0010 6A00     		lsl	r2, r5, #1
 801 0012 084B     		ldr	r3, .L69
 802 0014 D05A     		ldrh	r0, [r2, r3]
 803 0016 201A     		sub	r0, r4, r0
 804 0018 00B2     		sxth	r0, r0
 805              	.LVL59:
 827:.\Generated_Source\PSoC4/ADC_SAR_Seq_1.c **** 
 828:.\Generated_Source\PSoC4/ADC_SAR_Seq_1.c ****         uVolts = ((int64)adcCounts * ADC_SAR_Seq_1_10UV_COUNTS) / ADC_SAR_Seq_1_countsPer10Volt[cha
 806              		.loc 1 828 0
 807 001a C117     		asr	r1, r0, #31
 808 001c 064A     		ldr	r2, .L69+4
 809 001e 0023     		mov	r3, #0
 810 0020 FFF7FEFF 		bl	__aeabi_lmul
 811              	.LVL60:
 812 0024 AD00     		lsl	r5, r5, #2
 813              	.LVL61:
ARM GAS  C:\Users\Bryan\AppData\Local\Temp\ccckzTjf.s 			page 30


 814 0026 054B     		ldr	r3, .L69+8
 815 0028 EA58     		ldr	r2, [r5, r3]
 816 002a D317     		asr	r3, r2, #31
 817 002c FFF7FEFF 		bl	__aeabi_ldivmod
 818              	.LVL62:
 829:.\Generated_Source\PSoC4/ADC_SAR_Seq_1.c **** 
 830:.\Generated_Source\PSoC4/ADC_SAR_Seq_1.c ****         return( (int32)uVolts );
 831:.\Generated_Source\PSoC4/ADC_SAR_Seq_1.c ****     }
 819              		.loc 1 831 0
 820              		@ sp needed
 821 0030 38BD     		pop	{r3, r4, r5, pc}
 822              	.L70:
 823 0032 C046     		.align	2
 824              	.L69:
 825 0034 00000000 		.word	ADC_SAR_Seq_1_offset
 826 0038 80969800 		.word	10000000
 827 003c 00000000 		.word	ADC_SAR_Seq_1_countsPer10Volt
 828              		.cfi_endproc
 829              	.LFE16:
 830              		.size	ADC_SAR_Seq_1_CountsTo_uVolts, .-ADC_SAR_Seq_1_CountsTo_uVolts
 831              		.global	__aeabi_i2f
 832              		.global	__aeabi_fmul
 833              		.global	__aeabi_fdiv
 834              		.section	.text.ADC_SAR_Seq_1_CountsTo_Volts,"ax",%progbits
 835              		.align	2
 836              		.global	ADC_SAR_Seq_1_CountsTo_Volts
 837              		.code	16
 838              		.thumb_func
 839              		.type	ADC_SAR_Seq_1_CountsTo_Volts, %function
 840              	ADC_SAR_Seq_1_CountsTo_Volts:
 841              	.LFB17:
 832:.\Generated_Source\PSoC4/ADC_SAR_Seq_1.c **** 
 833:.\Generated_Source\PSoC4/ADC_SAR_Seq_1.c **** 
 834:.\Generated_Source\PSoC4/ADC_SAR_Seq_1.c ****     /*******************************************************************************
 835:.\Generated_Source\PSoC4/ADC_SAR_Seq_1.c ****     * Function Name: ADC_SAR_Seq_1_CountsTo_Volts
 836:.\Generated_Source\PSoC4/ADC_SAR_Seq_1.c ****     ********************************************************************************
 837:.\Generated_Source\PSoC4/ADC_SAR_Seq_1.c ****     *
 838:.\Generated_Source\PSoC4/ADC_SAR_Seq_1.c ****     * Summary:
 839:.\Generated_Source\PSoC4/ADC_SAR_Seq_1.c ****     *  Converts the ADC output to Volts as a floating point number.
 840:.\Generated_Source\PSoC4/ADC_SAR_Seq_1.c ****     *  This function is not available when left data format justification selected.
 841:.\Generated_Source\PSoC4/ADC_SAR_Seq_1.c ****     *
 842:.\Generated_Source\PSoC4/ADC_SAR_Seq_1.c ****     * Parameters:
 843:.\Generated_Source\PSoC4/ADC_SAR_Seq_1.c ****     *  chan: The ADC channel number.
 844:.\Generated_Source\PSoC4/ADC_SAR_Seq_1.c ****     *  Result from the ADC conversion
 845:.\Generated_Source\PSoC4/ADC_SAR_Seq_1.c ****     *
 846:.\Generated_Source\PSoC4/ADC_SAR_Seq_1.c ****     * Return:
 847:.\Generated_Source\PSoC4/ADC_SAR_Seq_1.c ****     *  Results in Volts
 848:.\Generated_Source\PSoC4/ADC_SAR_Seq_1.c ****     *
 849:.\Generated_Source\PSoC4/ADC_SAR_Seq_1.c ****     * Global variables:
 850:.\Generated_Source\PSoC4/ADC_SAR_Seq_1.c ****     *  ADC_SAR_Seq_1_countsPer10Volt:  used to convert ADC counts to Volts.
 851:.\Generated_Source\PSoC4/ADC_SAR_Seq_1.c ****     *  ADC_SAR_Seq_1_Offset:  Used as the offset while converting ADC counts
 852:.\Generated_Source\PSoC4/ADC_SAR_Seq_1.c ****     *   to mVolts.
 853:.\Generated_Source\PSoC4/ADC_SAR_Seq_1.c ****     *
 854:.\Generated_Source\PSoC4/ADC_SAR_Seq_1.c ****     *******************************************************************************/
 855:.\Generated_Source\PSoC4/ADC_SAR_Seq_1.c ****     float32 ADC_SAR_Seq_1_CountsTo_Volts(uint32 chan, int16 adcCounts)
 856:.\Generated_Source\PSoC4/ADC_SAR_Seq_1.c ****     {
 842              		.loc 1 856 0
ARM GAS  C:\Users\Bryan\AppData\Local\Temp\ccckzTjf.s 			page 31


 843              		.cfi_startproc
 844              	.LVL63:
 845 0000 38B5     		push	{r3, r4, r5, lr}
 846              		.cfi_def_cfa_offset 16
 847              		.cfi_offset 3, -16
 848              		.cfi_offset 4, -12
 849              		.cfi_offset 5, -8
 850              		.cfi_offset 14, -4
 851 0002 041C     		mov	r4, r0
 852 0004 0D1C     		mov	r5, r1
 857:.\Generated_Source\PSoC4/ADC_SAR_Seq_1.c ****         float32 volts;
 858:.\Generated_Source\PSoC4/ADC_SAR_Seq_1.c **** 
 859:.\Generated_Source\PSoC4/ADC_SAR_Seq_1.c ****         /* Halt CPU in debug mode if channel is out of valid range */
 860:.\Generated_Source\PSoC4/ADC_SAR_Seq_1.c ****         CYASSERT(chan < ADC_SAR_Seq_1_TOTAL_CHANNELS_NUM);
 853              		.loc 1 860 0
 854 0006 0028     		cmp	r0, #0
 855 0008 02D0     		beq	.L72
 856              		.loc 1 860 0 is_stmt 0 discriminator 1
 857 000a 0020     		mov	r0, #0
 858              	.LVL64:
 859 000c FFF7FEFF 		bl	CyHalt
 860              	.LVL65:
 861              	.L72:
 861:.\Generated_Source\PSoC4/ADC_SAR_Seq_1.c **** 
 862:.\Generated_Source\PSoC4/ADC_SAR_Seq_1.c ****         /* Divide the adcCount when accumulate averaging mode selected */
 863:.\Generated_Source\PSoC4/ADC_SAR_Seq_1.c ****         #if(ADC_SAR_Seq_1_DEFAULT_AVG_MODE == ADC_SAR_Seq_1__ACCUMULATE)
 864:.\Generated_Source\PSoC4/ADC_SAR_Seq_1.c ****             if((ADC_SAR_Seq_1_channelsConfig[chan] & ADC_SAR_Seq_1_AVERAGING_EN) != 0u)
 865:.\Generated_Source\PSoC4/ADC_SAR_Seq_1.c ****             {
 866:.\Generated_Source\PSoC4/ADC_SAR_Seq_1.c ****                 adcCounts /= ADC_SAR_Seq_1_DEFAULT_AVG_SAMPLES_DIV;
 867:.\Generated_Source\PSoC4/ADC_SAR_Seq_1.c ****             }
 868:.\Generated_Source\PSoC4/ADC_SAR_Seq_1.c ****         #endif /* ADC_SAR_Seq_1_DEFAULT_AVG_MODE == ADC_SAR_Seq_1__ACCUMULATE */
 869:.\Generated_Source\PSoC4/ADC_SAR_Seq_1.c **** 
 870:.\Generated_Source\PSoC4/ADC_SAR_Seq_1.c ****         /* Subtract ADC offset */
 871:.\Generated_Source\PSoC4/ADC_SAR_Seq_1.c ****         adcCounts -= ADC_SAR_Seq_1_offset[chan];
 862              		.loc 1 871 0 is_stmt 1
 863 0010 6200     		lsl	r2, r4, #1
 864 0012 0A4B     		ldr	r3, .L73
 865 0014 D05A     		ldrh	r0, [r2, r3]
 866 0016 281A     		sub	r0, r5, r0
 867 0018 00B2     		sxth	r0, r0
 868              	.LVL66:
 872:.\Generated_Source\PSoC4/ADC_SAR_Seq_1.c **** 
 873:.\Generated_Source\PSoC4/ADC_SAR_Seq_1.c ****         volts = ((float32)adcCounts * ADC_SAR_Seq_1_10V_COUNTS) / (float32)ADC_SAR_Seq_1_countsPer1
 869              		.loc 1 873 0
 870 001a FFF7FEFF 		bl	__aeabi_i2f
 871              	.LVL67:
 872 001e 0849     		ldr	r1, .L73+4
 873 0020 FFF7FEFF 		bl	__aeabi_fmul
 874              	.LVL68:
 875 0024 051C     		add	r5, r0, #0
 876 0026 A400     		lsl	r4, r4, #2
 877              	.LVL69:
 878 0028 064B     		ldr	r3, .L73+8
 879 002a E058     		ldr	r0, [r4, r3]
 880 002c FFF7FEFF 		bl	__aeabi_i2f
 881              	.LVL70:
 882 0030 011C     		add	r1, r0, #0
ARM GAS  C:\Users\Bryan\AppData\Local\Temp\ccckzTjf.s 			page 32


 883 0032 281C     		add	r0, r5, #0
 884 0034 FFF7FEFF 		bl	__aeabi_fdiv
 885              	.LVL71:
 874:.\Generated_Source\PSoC4/ADC_SAR_Seq_1.c **** 
 875:.\Generated_Source\PSoC4/ADC_SAR_Seq_1.c ****         return( volts );
 876:.\Generated_Source\PSoC4/ADC_SAR_Seq_1.c ****     }
 886              		.loc 1 876 0
 887              		@ sp needed
 888 0038 38BD     		pop	{r3, r4, r5, pc}
 889              	.L74:
 890 003a C046     		.align	2
 891              	.L73:
 892 003c 00000000 		.word	ADC_SAR_Seq_1_offset
 893 0040 00002041 		.word	1092616192
 894 0044 00000000 		.word	ADC_SAR_Seq_1_countsPer10Volt
 895              		.cfi_endproc
 896              	.LFE17:
 897              		.size	ADC_SAR_Seq_1_CountsTo_Volts, .-ADC_SAR_Seq_1_CountsTo_Volts
 898              		.comm	ADC_SAR_Seq_1_countsPer10Volt,4,4
 899              		.comm	ADC_SAR_Seq_1_offset,2,4
 900              		.global	ADC_SAR_Seq_1_initVar
 901              		.bss
 902              		.set	.LANCHOR0,. + 0
 903              		.type	ADC_SAR_Seq_1_initVar, %object
 904              		.size	ADC_SAR_Seq_1_initVar, 1
 905              	ADC_SAR_Seq_1_initVar:
 906 0000 00       		.space	1
 907              		.text
 908              	.Letext0:
 909              		.file 2 ".\\Generated_Source\\PSoC4\\cytypes.h"
 910              		.file 3 ".\\Generated_Source\\PSoC4\\CyLib.h"