ARM GAS  C:\Users\Bryan\AppData\Local\Temp\ccn7J8iM.s 			page 1


   1              		.cpu cortex-m0
   2              		.fpu softvfp
   3              		.eabi_attribute 20, 1
   4              		.eabi_attribute 21, 1
   5              		.eabi_attribute 23, 3
   6              		.eabi_attribute 24, 1
   7              		.eabi_attribute 25, 1
   8              		.eabi_attribute 26, 1
   9              		.eabi_attribute 30, 1
  10              		.eabi_attribute 34, 0
  11              		.eabi_attribute 18, 4
  12              		.code	16
  13              		.file	"LCD.c"
  14              		.text
  15              	.Ltext0:
  16              		.cfi_sections	.debug_frame
  17              		.section	.text.LCD_WrCntrlNib,"ax",%progbits
  18              		.align	2
  19              		.code	16
  20              		.thumb_func
  21              		.type	LCD_WrCntrlNib, %function
  22              	LCD_WrCntrlNib:
  23              	.LFB13:
  24              		.file 1 "Generated_Source\\PSoC4\\LCD.c"
   1:Generated_Source\PSoC4/LCD.c **** /*******************************************************************************
   2:Generated_Source\PSoC4/LCD.c **** * File Name: LCD.c
   3:Generated_Source\PSoC4/LCD.c **** * Version 1.0
   4:Generated_Source\PSoC4/LCD.c **** *
   5:Generated_Source\PSoC4/LCD.c **** * Description:
   6:Generated_Source\PSoC4/LCD.c **** *  This file provides source code for the Character LCD component's API.
   7:Generated_Source\PSoC4/LCD.c **** *
   8:Generated_Source\PSoC4/LCD.c **** * Note:
   9:Generated_Source\PSoC4/LCD.c **** *
  10:Generated_Source\PSoC4/LCD.c **** ********************************************************************************
  11:Generated_Source\PSoC4/LCD.c **** * Copyright 2008-2012, Cypress Semiconductor Corporation.  All rights reserved.
  12:Generated_Source\PSoC4/LCD.c **** * You may use this file only in accordance with the license, terms, conditions,
  13:Generated_Source\PSoC4/LCD.c **** * disclaimers, and limitations in the end user license agreement accompanying
  14:Generated_Source\PSoC4/LCD.c **** * the software package with which this file was provided.
  15:Generated_Source\PSoC4/LCD.c **** *******************************************************************************/
  16:Generated_Source\PSoC4/LCD.c **** 
  17:Generated_Source\PSoC4/LCD.c **** #include "CyLib.h"
  18:Generated_Source\PSoC4/LCD.c **** #include "LCD.h"
  19:Generated_Source\PSoC4/LCD.c **** 
  20:Generated_Source\PSoC4/LCD.c **** 
  21:Generated_Source\PSoC4/LCD.c **** static void LCD_WrDatNib(uint8 nibble) ;
  22:Generated_Source\PSoC4/LCD.c **** static void LCD_WrCntrlNib(uint8 nibble) ;
  23:Generated_Source\PSoC4/LCD.c **** 
  24:Generated_Source\PSoC4/LCD.c **** /* Stores the state of conponent. Indicates wherewer component is 
  25:Generated_Source\PSoC4/LCD.c **** * in enable state or not.
  26:Generated_Source\PSoC4/LCD.c **** */
  27:Generated_Source\PSoC4/LCD.c **** uint8 LCD_enableState = 0u;
  28:Generated_Source\PSoC4/LCD.c **** 
  29:Generated_Source\PSoC4/LCD.c **** uint8 LCD_initVar = 0u;
  30:Generated_Source\PSoC4/LCD.c **** 
  31:Generated_Source\PSoC4/LCD.c **** 
  32:Generated_Source\PSoC4/LCD.c **** /*******************************************************************************
  33:Generated_Source\PSoC4/LCD.c **** * Function Name: LCD_Init
ARM GAS  C:\Users\Bryan\AppData\Local\Temp\ccn7J8iM.s 			page 2


  34:Generated_Source\PSoC4/LCD.c **** ********************************************************************************
  35:Generated_Source\PSoC4/LCD.c **** *
  36:Generated_Source\PSoC4/LCD.c **** * Summary:
  37:Generated_Source\PSoC4/LCD.c **** *  Perform initialization required for components normal work.
  38:Generated_Source\PSoC4/LCD.c **** *  This function initializes the LCD hardware module as follows:
  39:Generated_Source\PSoC4/LCD.c **** *        Enable 4-bit interface
  40:Generated_Source\PSoC4/LCD.c **** *        Clear the display
  41:Generated_Source\PSoC4/LCD.c **** *        Enable auto cursor increment
  42:Generated_Source\PSoC4/LCD.c **** *        Resets the cursor to start position
  43:Generated_Source\PSoC4/LCD.c **** *  Also loads custom character set to LCD if it was defined in the customizer.
  44:Generated_Source\PSoC4/LCD.c **** *
  45:Generated_Source\PSoC4/LCD.c **** * Parameters:
  46:Generated_Source\PSoC4/LCD.c **** *  None.
  47:Generated_Source\PSoC4/LCD.c **** *
  48:Generated_Source\PSoC4/LCD.c **** * Return:
  49:Generated_Source\PSoC4/LCD.c **** *  None.
  50:Generated_Source\PSoC4/LCD.c **** *
  51:Generated_Source\PSoC4/LCD.c **** * Reentrant:
  52:Generated_Source\PSoC4/LCD.c **** *  No.
  53:Generated_Source\PSoC4/LCD.c **** *
  54:Generated_Source\PSoC4/LCD.c **** *******************************************************************************/
  55:Generated_Source\PSoC4/LCD.c **** void LCD_Init(void) 
  56:Generated_Source\PSoC4/LCD.c **** {
  57:Generated_Source\PSoC4/LCD.c ****     /* INIT CODE */
  58:Generated_Source\PSoC4/LCD.c ****     CyDelay(40u);                                                        /* Delay 40 ms */
  59:Generated_Source\PSoC4/LCD.c ****     LCD_WrCntrlNib(LCD_DISPLAY_8_BIT_INIT);   /* Selects 8-bit mode */
  60:Generated_Source\PSoC4/LCD.c ****     CyDelay(5u);                                                         /* Delay 5 ms */
  61:Generated_Source\PSoC4/LCD.c ****     LCD_WrCntrlNib(LCD_DISPLAY_8_BIT_INIT);   /* Selects 8-bit mode */
  62:Generated_Source\PSoC4/LCD.c ****     CyDelay(15u);                                                        /* Delay 15 ms */
  63:Generated_Source\PSoC4/LCD.c ****     LCD_WrCntrlNib(LCD_DISPLAY_8_BIT_INIT);   /* Selects 8-bit mode */
  64:Generated_Source\PSoC4/LCD.c ****     CyDelay(1u);                                                         /* Delay 1 ms */
  65:Generated_Source\PSoC4/LCD.c ****     LCD_WrCntrlNib(LCD_DISPLAY_4_BIT_INIT);   /* Selects 4-bit mode */
  66:Generated_Source\PSoC4/LCD.c ****     CyDelay(5u);                                                         /* Delay 5 ms */
  67:Generated_Source\PSoC4/LCD.c **** 
  68:Generated_Source\PSoC4/LCD.c ****     LCD_WriteControl(LCD_CURSOR_AUTO_INCR_ON);    /* Incr Cursor After Writes */
  69:Generated_Source\PSoC4/LCD.c ****     LCD_WriteControl(LCD_DISPLAY_CURSOR_ON);      /* Turn Display, Cursor ON */
  70:Generated_Source\PSoC4/LCD.c ****     LCD_WriteControl(LCD_DISPLAY_2_LINES_5x10);   /* 2 Lines by 5x10 Characters */
  71:Generated_Source\PSoC4/LCD.c ****     LCD_WriteControl(LCD_DISPLAY_CURSOR_OFF);     /* Turn Display, Cursor OFF */
  72:Generated_Source\PSoC4/LCD.c ****     LCD_WriteControl(LCD_CLEAR_DISPLAY);          /* Clear LCD Screen */
  73:Generated_Source\PSoC4/LCD.c ****     LCD_WriteControl(LCD_DISPLAY_ON_CURSOR_OFF);  /* Turn Display ON, Cursor OFF */
  74:Generated_Source\PSoC4/LCD.c ****     LCD_WriteControl(LCD_RESET_CURSOR_POSITION);  /* Set Cursor to 0,0 */
  75:Generated_Source\PSoC4/LCD.c ****     CyDelay(5u);
  76:Generated_Source\PSoC4/LCD.c **** 
  77:Generated_Source\PSoC4/LCD.c ****     #if(LCD_CUSTOM_CHAR_SET != LCD_NONE)
  78:Generated_Source\PSoC4/LCD.c ****         LCD_LoadCustomFonts(LCD_customFonts);
  79:Generated_Source\PSoC4/LCD.c ****     #endif /* LCD_CUSTOM_CHAR_SET != LCD_NONE */
  80:Generated_Source\PSoC4/LCD.c **** }
  81:Generated_Source\PSoC4/LCD.c **** 
  82:Generated_Source\PSoC4/LCD.c **** 
  83:Generated_Source\PSoC4/LCD.c **** /*******************************************************************************
  84:Generated_Source\PSoC4/LCD.c **** * Function Name: LCD_Enable
  85:Generated_Source\PSoC4/LCD.c **** ********************************************************************************
  86:Generated_Source\PSoC4/LCD.c **** *
  87:Generated_Source\PSoC4/LCD.c **** * Summary:
  88:Generated_Source\PSoC4/LCD.c **** *  Turns on the display.
  89:Generated_Source\PSoC4/LCD.c **** *
  90:Generated_Source\PSoC4/LCD.c **** * Parameters:
ARM GAS  C:\Users\Bryan\AppData\Local\Temp\ccn7J8iM.s 			page 3


  91:Generated_Source\PSoC4/LCD.c **** *  None.
  92:Generated_Source\PSoC4/LCD.c **** *
  93:Generated_Source\PSoC4/LCD.c **** * Return:
  94:Generated_Source\PSoC4/LCD.c **** *  None.
  95:Generated_Source\PSoC4/LCD.c **** *
  96:Generated_Source\PSoC4/LCD.c **** * Reentrant:
  97:Generated_Source\PSoC4/LCD.c **** *  No.
  98:Generated_Source\PSoC4/LCD.c **** *
  99:Generated_Source\PSoC4/LCD.c **** * Theory:
 100:Generated_Source\PSoC4/LCD.c **** *  This finction has no effect when it called first time as
 101:Generated_Source\PSoC4/LCD.c **** *  LCD_Init() turns on the LCD.
 102:Generated_Source\PSoC4/LCD.c **** *
 103:Generated_Source\PSoC4/LCD.c **** *******************************************************************************/
 104:Generated_Source\PSoC4/LCD.c **** void LCD_Enable(void) 
 105:Generated_Source\PSoC4/LCD.c **** {
 106:Generated_Source\PSoC4/LCD.c ****     LCD_DisplayOn();
 107:Generated_Source\PSoC4/LCD.c ****     LCD_enableState = 1u;
 108:Generated_Source\PSoC4/LCD.c **** }
 109:Generated_Source\PSoC4/LCD.c **** 
 110:Generated_Source\PSoC4/LCD.c **** 
 111:Generated_Source\PSoC4/LCD.c **** /*******************************************************************************
 112:Generated_Source\PSoC4/LCD.c **** * Function Name: LCD_Start
 113:Generated_Source\PSoC4/LCD.c **** ********************************************************************************
 114:Generated_Source\PSoC4/LCD.c **** *
 115:Generated_Source\PSoC4/LCD.c **** * Summary:
 116:Generated_Source\PSoC4/LCD.c **** *  Perform initialization required for components normal work.
 117:Generated_Source\PSoC4/LCD.c **** *  This function initializes the LCD hardware module as follows:
 118:Generated_Source\PSoC4/LCD.c **** *        Enable 4-bit interface
 119:Generated_Source\PSoC4/LCD.c **** *        Clear the display
 120:Generated_Source\PSoC4/LCD.c **** *        Enable auto cursor increment
 121:Generated_Source\PSoC4/LCD.c **** *        Resets the cursor to start position
 122:Generated_Source\PSoC4/LCD.c **** *  Also loads custom character set to LCD if it was defined in the customizer.
 123:Generated_Source\PSoC4/LCD.c **** *  If it was not the first call in this project then it just turns on the
 124:Generated_Source\PSoC4/LCD.c **** *  display
 125:Generated_Source\PSoC4/LCD.c **** *
 126:Generated_Source\PSoC4/LCD.c **** *
 127:Generated_Source\PSoC4/LCD.c **** * Parameters:
 128:Generated_Source\PSoC4/LCD.c **** *  LCD_initVar - global variable.
 129:Generated_Source\PSoC4/LCD.c **** *
 130:Generated_Source\PSoC4/LCD.c **** * Return:
 131:Generated_Source\PSoC4/LCD.c **** *  LCD_initVar - global variable.
 132:Generated_Source\PSoC4/LCD.c **** *
 133:Generated_Source\PSoC4/LCD.c **** * Reentrant:
 134:Generated_Source\PSoC4/LCD.c **** *  No.
 135:Generated_Source\PSoC4/LCD.c **** *
 136:Generated_Source\PSoC4/LCD.c **** *******************************************************************************/
 137:Generated_Source\PSoC4/LCD.c **** void LCD_Start(void) 
 138:Generated_Source\PSoC4/LCD.c **** {
 139:Generated_Source\PSoC4/LCD.c ****     /* If not initialized then perform initialization */
 140:Generated_Source\PSoC4/LCD.c ****     if(LCD_initVar == 0u)
 141:Generated_Source\PSoC4/LCD.c ****     {
 142:Generated_Source\PSoC4/LCD.c ****         LCD_Init();
 143:Generated_Source\PSoC4/LCD.c ****         LCD_initVar = 1u;
 144:Generated_Source\PSoC4/LCD.c ****     }
 145:Generated_Source\PSoC4/LCD.c **** 
 146:Generated_Source\PSoC4/LCD.c ****     /* Turn on the LCD */
 147:Generated_Source\PSoC4/LCD.c ****     LCD_Enable();
ARM GAS  C:\Users\Bryan\AppData\Local\Temp\ccn7J8iM.s 			page 4


 148:Generated_Source\PSoC4/LCD.c **** }
 149:Generated_Source\PSoC4/LCD.c **** 
 150:Generated_Source\PSoC4/LCD.c **** 
 151:Generated_Source\PSoC4/LCD.c **** /*******************************************************************************
 152:Generated_Source\PSoC4/LCD.c **** * Function Name: LCD_Stop
 153:Generated_Source\PSoC4/LCD.c **** ********************************************************************************
 154:Generated_Source\PSoC4/LCD.c **** *
 155:Generated_Source\PSoC4/LCD.c **** * Summary:
 156:Generated_Source\PSoC4/LCD.c **** *  Turns off the display of the LCD screen.
 157:Generated_Source\PSoC4/LCD.c **** *
 158:Generated_Source\PSoC4/LCD.c **** * Parameters:
 159:Generated_Source\PSoC4/LCD.c **** *  None.
 160:Generated_Source\PSoC4/LCD.c **** *
 161:Generated_Source\PSoC4/LCD.c **** * Return:
 162:Generated_Source\PSoC4/LCD.c **** *  None.
 163:Generated_Source\PSoC4/LCD.c **** *
 164:Generated_Source\PSoC4/LCD.c **** * Reentrant:
 165:Generated_Source\PSoC4/LCD.c **** *  No.
 166:Generated_Source\PSoC4/LCD.c **** *
 167:Generated_Source\PSoC4/LCD.c **** *******************************************************************************/
 168:Generated_Source\PSoC4/LCD.c **** void LCD_Stop(void) 
 169:Generated_Source\PSoC4/LCD.c **** {
 170:Generated_Source\PSoC4/LCD.c ****     /* Calls LCD Off Macro */
 171:Generated_Source\PSoC4/LCD.c ****     LCD_DisplayOff();
 172:Generated_Source\PSoC4/LCD.c ****     LCD_enableState = 0u;
 173:Generated_Source\PSoC4/LCD.c **** }
 174:Generated_Source\PSoC4/LCD.c **** 
 175:Generated_Source\PSoC4/LCD.c **** 
 176:Generated_Source\PSoC4/LCD.c **** /*******************************************************************************
 177:Generated_Source\PSoC4/LCD.c **** *  Function Name: LCD_Position
 178:Generated_Source\PSoC4/LCD.c **** ********************************************************************************
 179:Generated_Source\PSoC4/LCD.c **** *
 180:Generated_Source\PSoC4/LCD.c **** * Summary:
 181:Generated_Source\PSoC4/LCD.c **** *  Moves active cursor location to a point specified by the input arguments
 182:Generated_Source\PSoC4/LCD.c **** *
 183:Generated_Source\PSoC4/LCD.c **** * Parameters:
 184:Generated_Source\PSoC4/LCD.c **** *  row:     Specific row of LCD module to be written
 185:Generated_Source\PSoC4/LCD.c **** *  column:  Column of LCD module to be written
 186:Generated_Source\PSoC4/LCD.c **** *
 187:Generated_Source\PSoC4/LCD.c **** * Return:
 188:Generated_Source\PSoC4/LCD.c **** *  None.
 189:Generated_Source\PSoC4/LCD.c **** *
 190:Generated_Source\PSoC4/LCD.c **** * Note:
 191:Generated_Source\PSoC4/LCD.c **** *  This only applies for LCD displays which use the 2X40 address mode.
 192:Generated_Source\PSoC4/LCD.c **** *  This results in Row 2 offset from row one by 0x28.
 193:Generated_Source\PSoC4/LCD.c **** *  When there are more than 2 rows, each row must be fewer than 20 characters.
 194:Generated_Source\PSoC4/LCD.c **** *
 195:Generated_Source\PSoC4/LCD.c **** *******************************************************************************/
 196:Generated_Source\PSoC4/LCD.c **** void LCD_Position(uint8 row, uint8 column) 
 197:Generated_Source\PSoC4/LCD.c **** {
 198:Generated_Source\PSoC4/LCD.c ****     switch (row)
 199:Generated_Source\PSoC4/LCD.c ****     {
 200:Generated_Source\PSoC4/LCD.c ****         case (uint8)0:
 201:Generated_Source\PSoC4/LCD.c ****             LCD_WriteControl(LCD_ROW_0_START + column);
 202:Generated_Source\PSoC4/LCD.c ****             break;
 203:Generated_Source\PSoC4/LCD.c ****         case (uint8) 1:
 204:Generated_Source\PSoC4/LCD.c ****             LCD_WriteControl(LCD_ROW_1_START + column);
ARM GAS  C:\Users\Bryan\AppData\Local\Temp\ccn7J8iM.s 			page 5


 205:Generated_Source\PSoC4/LCD.c ****             break;
 206:Generated_Source\PSoC4/LCD.c ****         case (uint8) 2:
 207:Generated_Source\PSoC4/LCD.c ****             LCD_WriteControl(LCD_ROW_2_START + column);
 208:Generated_Source\PSoC4/LCD.c ****             break;
 209:Generated_Source\PSoC4/LCD.c ****         case (uint8) 3:
 210:Generated_Source\PSoC4/LCD.c ****             LCD_WriteControl(LCD_ROW_3_START + column);
 211:Generated_Source\PSoC4/LCD.c ****             break;
 212:Generated_Source\PSoC4/LCD.c ****         default:
 213:Generated_Source\PSoC4/LCD.c ****             /* if default case is hit, invalid row argument was passed.*/
 214:Generated_Source\PSoC4/LCD.c ****             break;
 215:Generated_Source\PSoC4/LCD.c ****     }
 216:Generated_Source\PSoC4/LCD.c **** }
 217:Generated_Source\PSoC4/LCD.c **** 
 218:Generated_Source\PSoC4/LCD.c **** 
 219:Generated_Source\PSoC4/LCD.c **** /*******************************************************************************
 220:Generated_Source\PSoC4/LCD.c **** * Function Name: LCD_PrintString
 221:Generated_Source\PSoC4/LCD.c **** ********************************************************************************
 222:Generated_Source\PSoC4/LCD.c **** *
 223:Generated_Source\PSoC4/LCD.c **** * Summary:
 224:Generated_Source\PSoC4/LCD.c **** *  Writes a zero terminated string to the LCD.
 225:Generated_Source\PSoC4/LCD.c **** *
 226:Generated_Source\PSoC4/LCD.c **** * Parameters:
 227:Generated_Source\PSoC4/LCD.c **** *  string:  pointer to head of char8 array to be written to the LCD module
 228:Generated_Source\PSoC4/LCD.c **** *
 229:Generated_Source\PSoC4/LCD.c **** * Return:
 230:Generated_Source\PSoC4/LCD.c **** *  None.
 231:Generated_Source\PSoC4/LCD.c **** *
 232:Generated_Source\PSoC4/LCD.c **** *******************************************************************************/
 233:Generated_Source\PSoC4/LCD.c **** void LCD_PrintString(char8 const string[]) 
 234:Generated_Source\PSoC4/LCD.c **** {
 235:Generated_Source\PSoC4/LCD.c ****     uint8 indexU8 = 1u;
 236:Generated_Source\PSoC4/LCD.c ****     char8 current = *string;
 237:Generated_Source\PSoC4/LCD.c **** 
 238:Generated_Source\PSoC4/LCD.c ****     /* Until null is reached, print next character */
 239:Generated_Source\PSoC4/LCD.c ****     while((char8) '\0' != current)
 240:Generated_Source\PSoC4/LCD.c ****     {
 241:Generated_Source\PSoC4/LCD.c ****         LCD_WriteData((uint8)current);
 242:Generated_Source\PSoC4/LCD.c ****         current = string[indexU8];
 243:Generated_Source\PSoC4/LCD.c ****         indexU8++;
 244:Generated_Source\PSoC4/LCD.c ****     }
 245:Generated_Source\PSoC4/LCD.c **** }
 246:Generated_Source\PSoC4/LCD.c **** 
 247:Generated_Source\PSoC4/LCD.c **** 
 248:Generated_Source\PSoC4/LCD.c **** /*******************************************************************************
 249:Generated_Source\PSoC4/LCD.c **** *  Function Name: LCD_PutChar
 250:Generated_Source\PSoC4/LCD.c **** ********************************************************************************
 251:Generated_Source\PSoC4/LCD.c **** *
 252:Generated_Source\PSoC4/LCD.c **** * Summary:
 253:Generated_Source\PSoC4/LCD.c **** *  Writes a single character to the current cursor position of the LCD module.
 254:Generated_Source\PSoC4/LCD.c **** *  Custom character names (_CUSTOM_0 through
 255:Generated_Source\PSoC4/LCD.c **** *  _CUSTOM_7) are acceptable as inputs.
 256:Generated_Source\PSoC4/LCD.c **** *
 257:Generated_Source\PSoC4/LCD.c **** * Parameters:
 258:Generated_Source\PSoC4/LCD.c **** *  character:  character to be written to the LCD
 259:Generated_Source\PSoC4/LCD.c **** *
 260:Generated_Source\PSoC4/LCD.c **** * Return:
 261:Generated_Source\PSoC4/LCD.c **** *  None.
ARM GAS  C:\Users\Bryan\AppData\Local\Temp\ccn7J8iM.s 			page 6


 262:Generated_Source\PSoC4/LCD.c **** *
 263:Generated_Source\PSoC4/LCD.c **** *******************************************************************************/
 264:Generated_Source\PSoC4/LCD.c **** void LCD_PutChar(char8 character) 
 265:Generated_Source\PSoC4/LCD.c **** {
 266:Generated_Source\PSoC4/LCD.c ****     LCD_WriteData((uint8)character);
 267:Generated_Source\PSoC4/LCD.c **** }
 268:Generated_Source\PSoC4/LCD.c **** 
 269:Generated_Source\PSoC4/LCD.c **** 
 270:Generated_Source\PSoC4/LCD.c **** /*******************************************************************************
 271:Generated_Source\PSoC4/LCD.c **** *  Function Name: LCD_WriteData
 272:Generated_Source\PSoC4/LCD.c **** ********************************************************************************
 273:Generated_Source\PSoC4/LCD.c **** *
 274:Generated_Source\PSoC4/LCD.c **** * Summary:
 275:Generated_Source\PSoC4/LCD.c **** *  Writes a data byte to the LCD module's Data Display RAM.
 276:Generated_Source\PSoC4/LCD.c **** *
 277:Generated_Source\PSoC4/LCD.c **** * Parameters:
 278:Generated_Source\PSoC4/LCD.c **** *  dByte:  byte to be written to LCD module.
 279:Generated_Source\PSoC4/LCD.c **** *
 280:Generated_Source\PSoC4/LCD.c **** * Return:
 281:Generated_Source\PSoC4/LCD.c **** *  None.
 282:Generated_Source\PSoC4/LCD.c **** *
 283:Generated_Source\PSoC4/LCD.c **** *******************************************************************************/
 284:Generated_Source\PSoC4/LCD.c **** void LCD_WriteData(uint8 dByte) 
 285:Generated_Source\PSoC4/LCD.c **** {
 286:Generated_Source\PSoC4/LCD.c ****     uint8 nibble;
 287:Generated_Source\PSoC4/LCD.c **** 
 288:Generated_Source\PSoC4/LCD.c ****     /* Write high nibble */
 289:Generated_Source\PSoC4/LCD.c **** 	nibble = dByte >> LCD_NIBBLE_SHIFT;
 290:Generated_Source\PSoC4/LCD.c ****     LCD_WrDatNib(nibble);
 291:Generated_Source\PSoC4/LCD.c **** 
 292:Generated_Source\PSoC4/LCD.c ****      CyDelayUs(LCD_NIB_DELAY_US);
 293:Generated_Source\PSoC4/LCD.c **** 	 
 294:Generated_Source\PSoC4/LCD.c ****     /* Write low nibble */
 295:Generated_Source\PSoC4/LCD.c **** 	nibble = dByte & LCD_NIBBLE_MASK;
 296:Generated_Source\PSoC4/LCD.c ****     LCD_WrDatNib(nibble);
 297:Generated_Source\PSoC4/LCD.c **** 	
 298:Generated_Source\PSoC4/LCD.c **** 	CyDelayUs(LCD_DATA_DELAY_US);
 299:Generated_Source\PSoC4/LCD.c **** 
 300:Generated_Source\PSoC4/LCD.c **** }
 301:Generated_Source\PSoC4/LCD.c **** 
 302:Generated_Source\PSoC4/LCD.c **** 
 303:Generated_Source\PSoC4/LCD.c **** /*******************************************************************************
 304:Generated_Source\PSoC4/LCD.c **** *  Function Name: LCD_WriteControl
 305:Generated_Source\PSoC4/LCD.c **** ********************************************************************************
 306:Generated_Source\PSoC4/LCD.c **** *
 307:Generated_Source\PSoC4/LCD.c **** * Summary:
 308:Generated_Source\PSoC4/LCD.c **** *  Writes a command byte to the LCD module.
 309:Generated_Source\PSoC4/LCD.c **** *
 310:Generated_Source\PSoC4/LCD.c **** * Parameters:
 311:Generated_Source\PSoC4/LCD.c **** *  cByte:   byte to be written to LCD module.
 312:Generated_Source\PSoC4/LCD.c **** *
 313:Generated_Source\PSoC4/LCD.c **** * Return:
 314:Generated_Source\PSoC4/LCD.c **** *  None.
 315:Generated_Source\PSoC4/LCD.c **** *
 316:Generated_Source\PSoC4/LCD.c **** *******************************************************************************/
 317:Generated_Source\PSoC4/LCD.c **** void LCD_WriteControl(uint8 cByte) 
 318:Generated_Source\PSoC4/LCD.c **** {
ARM GAS  C:\Users\Bryan\AppData\Local\Temp\ccn7J8iM.s 			page 7


 319:Generated_Source\PSoC4/LCD.c ****     uint8 nibble;
 320:Generated_Source\PSoC4/LCD.c **** 
 321:Generated_Source\PSoC4/LCD.c ****     /* WrCntrlNib(High Nibble) */
 322:Generated_Source\PSoC4/LCD.c **** 	 nibble = cByte >> LCD_NIBBLE_SHIFT;
 323:Generated_Source\PSoC4/LCD.c ****     LCD_WrCntrlNib(nibble);
 324:Generated_Source\PSoC4/LCD.c **** 
 325:Generated_Source\PSoC4/LCD.c ****     CyDelayUs(LCD_NIB_DELAY_US);
 326:Generated_Source\PSoC4/LCD.c **** 	
 327:Generated_Source\PSoC4/LCD.c ****     /* WrCntrlNib(Low Nibble) */
 328:Generated_Source\PSoC4/LCD.c **** 	nibble = cByte & LCD_NIBBLE_MASK;
 329:Generated_Source\PSoC4/LCD.c ****     LCD_WrCntrlNib(nibble);
 330:Generated_Source\PSoC4/LCD.c **** 
 331:Generated_Source\PSoC4/LCD.c ****      CyDelayUs(LCD_CMD_DELAY_US);
 332:Generated_Source\PSoC4/LCD.c **** }
 333:Generated_Source\PSoC4/LCD.c **** 
 334:Generated_Source\PSoC4/LCD.c **** 
 335:Generated_Source\PSoC4/LCD.c **** /*******************************************************************************
 336:Generated_Source\PSoC4/LCD.c **** * Function Name: LCD_IsReady
 337:Generated_Source\PSoC4/LCD.c **** ********************************************************************************
 338:Generated_Source\PSoC4/LCD.c **** *
 339:Generated_Source\PSoC4/LCD.c **** * Summary:
 340:Generated_Source\PSoC4/LCD.c **** *  Polls LCD until the ready bit is set.
 341:Generated_Source\PSoC4/LCD.c **** *
 342:Generated_Source\PSoC4/LCD.c **** * Parameters:
 343:Generated_Source\PSoC4/LCD.c **** *  None.
 344:Generated_Source\PSoC4/LCD.c **** *
 345:Generated_Source\PSoC4/LCD.c **** * Return:
 346:Generated_Source\PSoC4/LCD.c **** *  None.
 347:Generated_Source\PSoC4/LCD.c **** *
 348:Generated_Source\PSoC4/LCD.c **** * Note:
 349:Generated_Source\PSoC4/LCD.c **** *  Changes pins to High-Z.
 350:Generated_Source\PSoC4/LCD.c **** *
 351:Generated_Source\PSoC4/LCD.c **** *******************************************************************************/
 352:Generated_Source\PSoC4/LCD.c **** void LCD_IsReady(void) 
 353:Generated_Source\PSoC4/LCD.c **** {
 354:Generated_Source\PSoC4/LCD.c ****    
 355:Generated_Source\PSoC4/LCD.c **** 	CyDelay(1u);
 356:Generated_Source\PSoC4/LCD.c **** 	
 357:Generated_Source\PSoC4/LCD.c **** }
 358:Generated_Source\PSoC4/LCD.c **** 
 359:Generated_Source\PSoC4/LCD.c **** 
 360:Generated_Source\PSoC4/LCD.c **** /*******************************************************************************
 361:Generated_Source\PSoC4/LCD.c **** *  Function Name: LCD_WrDatNib
 362:Generated_Source\PSoC4/LCD.c **** ********************************************************************************
 363:Generated_Source\PSoC4/LCD.c **** *
 364:Generated_Source\PSoC4/LCD.c **** * Summary:
 365:Generated_Source\PSoC4/LCD.c **** *  Writes a data nibble to the LCD module.
 366:Generated_Source\PSoC4/LCD.c **** *
 367:Generated_Source\PSoC4/LCD.c **** * Parameters:
 368:Generated_Source\PSoC4/LCD.c **** *  nibble:  byte containing nibble in least significant nibble to be written
 369:Generated_Source\PSoC4/LCD.c **** *           to LCD module.
 370:Generated_Source\PSoC4/LCD.c **** *
 371:Generated_Source\PSoC4/LCD.c **** * Return:
 372:Generated_Source\PSoC4/LCD.c **** *  None.
 373:Generated_Source\PSoC4/LCD.c **** *
 374:Generated_Source\PSoC4/LCD.c **** *******************************************************************************/
 375:Generated_Source\PSoC4/LCD.c **** static void LCD_WrDatNib(uint8 nibble) 
ARM GAS  C:\Users\Bryan\AppData\Local\Temp\ccn7J8iM.s 			page 8


 376:Generated_Source\PSoC4/LCD.c **** {
 377:Generated_Source\PSoC4/LCD.c **** 
 378:Generated_Source\PSoC4/LCD.c ****     /* RS shoul be low to select data register */
 379:Generated_Source\PSoC4/LCD.c ****     LCD_CNTL_REG |= LCD_RS;
 380:Generated_Source\PSoC4/LCD.c ****     /* Reset RW for write operation */
 381:Generated_Source\PSoC4/LCD.c ****     LCD_CNTL_REG &= ~LCD_RW;
 382:Generated_Source\PSoC4/LCD.c **** 
 383:Generated_Source\PSoC4/LCD.c ****     /* Two following lines of code will provide us with 40ns delay */
 384:Generated_Source\PSoC4/LCD.c ****     /* Clear data pins */
 385:Generated_Source\PSoC4/LCD.c ****     LCD_CNTL_REG &= ~LCD_DATA_MASK;
 386:Generated_Source\PSoC4/LCD.c **** 
 387:Generated_Source\PSoC4/LCD.c ****     /* Write in data, bring E high*/
 388:Generated_Source\PSoC4/LCD.c ****     LCD_CNTL_REG |= (LCD_E | nibble);
 389:Generated_Source\PSoC4/LCD.c **** 
 390:Generated_Source\PSoC4/LCD.c ****     /* Minimum of 230 ns delay */
 391:Generated_Source\PSoC4/LCD.c ****     CyDelayUs(1u);
 392:Generated_Source\PSoC4/LCD.c **** 
 393:Generated_Source\PSoC4/LCD.c ****     LCD_CNTL_REG &= ~LCD_E;
 394:Generated_Source\PSoC4/LCD.c **** 	
 395:Generated_Source\PSoC4/LCD.c **** }
 396:Generated_Source\PSoC4/LCD.c **** 
 397:Generated_Source\PSoC4/LCD.c **** 
 398:Generated_Source\PSoC4/LCD.c **** /*******************************************************************************
 399:Generated_Source\PSoC4/LCD.c **** *  Function Name: LCD_WrCntrlNib
 400:Generated_Source\PSoC4/LCD.c **** ********************************************************************************
 401:Generated_Source\PSoC4/LCD.c **** *
 402:Generated_Source\PSoC4/LCD.c **** * Summary:
 403:Generated_Source\PSoC4/LCD.c **** *  Writes a control nibble to the LCD module.
 404:Generated_Source\PSoC4/LCD.c **** *
 405:Generated_Source\PSoC4/LCD.c **** * Parameters:
 406:Generated_Source\PSoC4/LCD.c **** *  nibble:  byte containing nibble in least significant nibble to be written
 407:Generated_Source\PSoC4/LCD.c **** *           to LCD module.
 408:Generated_Source\PSoC4/LCD.c **** *
 409:Generated_Source\PSoC4/LCD.c **** * Return:
 410:Generated_Source\PSoC4/LCD.c **** *  None.
 411:Generated_Source\PSoC4/LCD.c **** *
 412:Generated_Source\PSoC4/LCD.c **** *******************************************************************************/
 413:Generated_Source\PSoC4/LCD.c **** static void LCD_WrCntrlNib(uint8 nibble) 
 414:Generated_Source\PSoC4/LCD.c **** {
  25              		.loc 1 414 0
  26              		.cfi_startproc
  27              	.LVL0:
  28 0000 10B5     		push	{r4, lr}
  29              		.cfi_def_cfa_offset 8
  30              		.cfi_offset 4, -8
  31              		.cfi_offset 14, -4
 415:Generated_Source\PSoC4/LCD.c **** 	
 416:Generated_Source\PSoC4/LCD.c **** 	/* RS and RW shoul be low to select instruction register and  write operation respectively */
 417:Generated_Source\PSoC4/LCD.c ****     LCD_CNTL_REG &= ~(LCD_RS | LCD_RW);
  32              		.loc 1 417 0
  33 0002 0B4C     		ldr	r4, .L2
  34 0004 2378     		ldrb	r3, [r4]
  35 0006 6022     		mov	r2, #96
  36 0008 9343     		bic	r3, r2
  37 000a 2370     		strb	r3, [r4]
 418:Generated_Source\PSoC4/LCD.c **** 
 419:Generated_Source\PSoC4/LCD.c ****     /* Two following lines of code will give provide ua with 40ns delay */
ARM GAS  C:\Users\Bryan\AppData\Local\Temp\ccn7J8iM.s 			page 9


 420:Generated_Source\PSoC4/LCD.c ****     /* Clear data pins */
 421:Generated_Source\PSoC4/LCD.c ****     LCD_CNTL_REG &= ~LCD_DATA_MASK;
  38              		.loc 1 421 0
  39 000c 2378     		ldrb	r3, [r4]
  40 000e 513A     		sub	r2, r2, #81
  41 0010 9343     		bic	r3, r2
  42 0012 2370     		strb	r3, [r4]
 422:Generated_Source\PSoC4/LCD.c **** 
 423:Generated_Source\PSoC4/LCD.c ****     /* Write control data and set enable signal */
 424:Generated_Source\PSoC4/LCD.c ****     LCD_CNTL_REG |= (LCD_E | nibble);
  43              		.loc 1 424 0
  44 0014 2378     		ldrb	r3, [r4]
  45 0016 1843     		orr	r0, r3
  46              	.LVL1:
  47 0018 1023     		mov	r3, #16
  48 001a 1843     		orr	r0, r3
  49 001c 2070     		strb	r0, [r4]
 425:Generated_Source\PSoC4/LCD.c **** 
 426:Generated_Source\PSoC4/LCD.c ****     /* Minimum of 230 ns delay */
 427:Generated_Source\PSoC4/LCD.c ****     CyDelayUs(1u);
  50              		.loc 1 427 0
  51 001e 0120     		mov	r0, #1
  52 0020 FFF7FEFF 		bl	CyDelayUs
  53              	.LVL2:
 428:Generated_Source\PSoC4/LCD.c **** 
 429:Generated_Source\PSoC4/LCD.c ****     LCD_CNTL_REG &= ~LCD_E;
  54              		.loc 1 429 0
  55 0024 2378     		ldrb	r3, [r4]
  56 0026 1022     		mov	r2, #16
  57 0028 9343     		bic	r3, r2
  58 002a 2370     		strb	r3, [r4]
 430:Generated_Source\PSoC4/LCD.c **** }
  59              		.loc 1 430 0
  60              		@ sp needed
  61 002c 10BD     		pop	{r4, pc}
  62              	.L3:
  63 002e C046     		.align	2
  64              	.L2:
  65 0030 72000F40 		.word	1074724978
  66              		.cfi_endproc
  67              	.LFE13:
  68              		.size	LCD_WrCntrlNib, .-LCD_WrCntrlNib
  69              		.section	.text.LCD_WrDatNib,"ax",%progbits
  70              		.align	2
  71              		.code	16
  72              		.thumb_func
  73              		.type	LCD_WrDatNib, %function
  74              	LCD_WrDatNib:
  75              	.LFB12:
 376:Generated_Source\PSoC4/LCD.c **** 
  76              		.loc 1 376 0
  77              		.cfi_startproc
  78              	.LVL3:
  79 0000 10B5     		push	{r4, lr}
  80              		.cfi_def_cfa_offset 8
  81              		.cfi_offset 4, -8
  82              		.cfi_offset 14, -4
ARM GAS  C:\Users\Bryan\AppData\Local\Temp\ccn7J8iM.s 			page 10


 379:Generated_Source\PSoC4/LCD.c ****     /* Reset RW for write operation */
  83              		.loc 1 379 0
  84 0002 0D4C     		ldr	r4, .L5
  85 0004 2278     		ldrb	r2, [r4]
  86 0006 2023     		mov	r3, #32
  87 0008 1343     		orr	r3, r2
  88 000a 2370     		strb	r3, [r4]
 381:Generated_Source\PSoC4/LCD.c **** 
  89              		.loc 1 381 0
  90 000c 2378     		ldrb	r3, [r4]
  91 000e 4022     		mov	r2, #64
  92 0010 9343     		bic	r3, r2
  93 0012 2370     		strb	r3, [r4]
 385:Generated_Source\PSoC4/LCD.c **** 
  94              		.loc 1 385 0
  95 0014 2378     		ldrb	r3, [r4]
  96 0016 313A     		sub	r2, r2, #49
  97 0018 9343     		bic	r3, r2
  98 001a 2370     		strb	r3, [r4]
 388:Generated_Source\PSoC4/LCD.c **** 
  99              		.loc 1 388 0
 100 001c 2378     		ldrb	r3, [r4]
 101 001e 1843     		orr	r0, r3
 102              	.LVL4:
 103 0020 1023     		mov	r3, #16
 104 0022 1843     		orr	r0, r3
 105 0024 2070     		strb	r0, [r4]
 391:Generated_Source\PSoC4/LCD.c **** 
 106              		.loc 1 391 0
 107 0026 0120     		mov	r0, #1
 108 0028 FFF7FEFF 		bl	CyDelayUs
 109              	.LVL5:
 393:Generated_Source\PSoC4/LCD.c **** 	
 110              		.loc 1 393 0
 111 002c 2378     		ldrb	r3, [r4]
 112 002e 1022     		mov	r2, #16
 113 0030 9343     		bic	r3, r2
 114 0032 2370     		strb	r3, [r4]
 395:Generated_Source\PSoC4/LCD.c **** 
 115              		.loc 1 395 0
 116              		@ sp needed
 117 0034 10BD     		pop	{r4, pc}
 118              	.L6:
 119 0036 C046     		.align	2
 120              	.L5:
 121 0038 72000F40 		.word	1074724978
 122              		.cfi_endproc
 123              	.LFE12:
 124              		.size	LCD_WrDatNib, .-LCD_WrDatNib
 125              		.section	.text.LCD_WriteData,"ax",%progbits
 126              		.align	2
 127              		.global	LCD_WriteData
 128              		.code	16
 129              		.thumb_func
 130              		.type	LCD_WriteData, %function
 131              	LCD_WriteData:
 132              	.LFB9:
ARM GAS  C:\Users\Bryan\AppData\Local\Temp\ccn7J8iM.s 			page 11


 285:Generated_Source\PSoC4/LCD.c ****     uint8 nibble;
 133              		.loc 1 285 0
 134              		.cfi_startproc
 135              	.LVL6:
 136 0000 10B5     		push	{r4, lr}
 137              		.cfi_def_cfa_offset 8
 138              		.cfi_offset 4, -8
 139              		.cfi_offset 14, -4
 140 0002 041C     		mov	r4, r0
 289:Generated_Source\PSoC4/LCD.c ****     LCD_WrDatNib(nibble);
 141              		.loc 1 289 0
 142 0004 0009     		lsr	r0, r0, #4
 143              	.LVL7:
 290:Generated_Source\PSoC4/LCD.c **** 
 144              		.loc 1 290 0
 145 0006 FFF7FEFF 		bl	LCD_WrDatNib
 146              	.LVL8:
 292:Generated_Source\PSoC4/LCD.c **** 	 
 147              		.loc 1 292 0
 148 000a 6420     		mov	r0, #100
 149 000c FFF7FEFF 		bl	CyDelayUs
 150              	.LVL9:
 295:Generated_Source\PSoC4/LCD.c ****     LCD_WrDatNib(nibble);
 151              		.loc 1 295 0
 152 0010 0F20     		mov	r0, #15
 153 0012 2040     		and	r0, r4
 154              	.LVL10:
 296:Generated_Source\PSoC4/LCD.c **** 	
 155              		.loc 1 296 0
 156 0014 FFF7FEFF 		bl	LCD_WrDatNib
 157              	.LVL11:
 298:Generated_Source\PSoC4/LCD.c **** 
 158              		.loc 1 298 0
 159 0018 9620     		mov	r0, #150
 160 001a FFF7FEFF 		bl	CyDelayUs
 161              	.LVL12:
 300:Generated_Source\PSoC4/LCD.c **** 
 162              		.loc 1 300 0
 163              		@ sp needed
 164              	.LVL13:
 165 001e 10BD     		pop	{r4, pc}
 166              		.cfi_endproc
 167              	.LFE9:
 168              		.size	LCD_WriteData, .-LCD_WriteData
 169              		.section	.text.LCD_PrintString,"ax",%progbits
 170              		.align	2
 171              		.global	LCD_PrintString
 172              		.code	16
 173              		.thumb_func
 174              		.type	LCD_PrintString, %function
 175              	LCD_PrintString:
 176              	.LFB7:
 234:Generated_Source\PSoC4/LCD.c ****     uint8 indexU8 = 1u;
 177              		.loc 1 234 0
 178              		.cfi_startproc
 179              	.LVL14:
 180 0000 38B5     		push	{r3, r4, r5, lr}
ARM GAS  C:\Users\Bryan\AppData\Local\Temp\ccn7J8iM.s 			page 12


 181              		.cfi_def_cfa_offset 16
 182              		.cfi_offset 3, -16
 183              		.cfi_offset 4, -12
 184              		.cfi_offset 5, -8
 185              		.cfi_offset 14, -4
 186 0002 051C     		mov	r5, r0
 187              	.LVL15:
 236:Generated_Source\PSoC4/LCD.c **** 
 188              		.loc 1 236 0
 189 0004 0078     		ldrb	r0, [r0]
 190              	.LVL16:
 235:Generated_Source\PSoC4/LCD.c ****     char8 current = *string;
 191              		.loc 1 235 0
 192 0006 0124     		mov	r4, #1
 239:Generated_Source\PSoC4/LCD.c ****     {
 193              		.loc 1 239 0
 194 0008 04E0     		b	.L9
 195              	.LVL17:
 196              	.L10:
 241:Generated_Source\PSoC4/LCD.c ****         current = string[indexU8];
 197              		.loc 1 241 0
 198 000a FFF7FEFF 		bl	LCD_WriteData
 199              	.LVL18:
 242:Generated_Source\PSoC4/LCD.c ****         indexU8++;
 200              		.loc 1 242 0
 201 000e 285D     		ldrb	r0, [r5, r4]
 202              	.LVL19:
 243:Generated_Source\PSoC4/LCD.c ****     }
 203              		.loc 1 243 0
 204 0010 0134     		add	r4, r4, #1
 205              	.LVL20:
 206 0012 E4B2     		uxtb	r4, r4
 207              	.LVL21:
 208              	.L9:
 239:Generated_Source\PSoC4/LCD.c ****     {
 209              		.loc 1 239 0
 210 0014 0028     		cmp	r0, #0
 211 0016 F8D1     		bne	.L10
 245:Generated_Source\PSoC4/LCD.c **** 
 212              		.loc 1 245 0
 213              		@ sp needed
 214              	.LVL22:
 215              	.LVL23:
 216 0018 38BD     		pop	{r3, r4, r5, pc}
 217              		.cfi_endproc
 218              	.LFE7:
 219              		.size	LCD_PrintString, .-LCD_PrintString
 220 001a C046     		.section	.text.LCD_PutChar,"ax",%progbits
 221              		.align	2
 222              		.global	LCD_PutChar
 223              		.code	16
 224              		.thumb_func
 225              		.type	LCD_PutChar, %function
 226              	LCD_PutChar:
 227              	.LFB8:
 265:Generated_Source\PSoC4/LCD.c ****     LCD_WriteData((uint8)character);
 228              		.loc 1 265 0
ARM GAS  C:\Users\Bryan\AppData\Local\Temp\ccn7J8iM.s 			page 13


 229              		.cfi_startproc
 230              	.LVL24:
 231 0000 08B5     		push	{r3, lr}
 232              		.cfi_def_cfa_offset 8
 233              		.cfi_offset 3, -8
 234              		.cfi_offset 14, -4
 266:Generated_Source\PSoC4/LCD.c **** }
 235              		.loc 1 266 0
 236 0002 FFF7FEFF 		bl	LCD_WriteData
 237              	.LVL25:
 267:Generated_Source\PSoC4/LCD.c **** 
 238              		.loc 1 267 0
 239              		@ sp needed
 240 0006 08BD     		pop	{r3, pc}
 241              		.cfi_endproc
 242              	.LFE8:
 243              		.size	LCD_PutChar, .-LCD_PutChar
 244              		.section	.text.LCD_WriteControl,"ax",%progbits
 245              		.align	2
 246              		.global	LCD_WriteControl
 247              		.code	16
 248              		.thumb_func
 249              		.type	LCD_WriteControl, %function
 250              	LCD_WriteControl:
 251              	.LFB10:
 318:Generated_Source\PSoC4/LCD.c ****     uint8 nibble;
 252              		.loc 1 318 0
 253              		.cfi_startproc
 254              	.LVL26:
 255 0000 10B5     		push	{r4, lr}
 256              		.cfi_def_cfa_offset 8
 257              		.cfi_offset 4, -8
 258              		.cfi_offset 14, -4
 259 0002 041C     		mov	r4, r0
 322:Generated_Source\PSoC4/LCD.c ****     LCD_WrCntrlNib(nibble);
 260              		.loc 1 322 0
 261 0004 0009     		lsr	r0, r0, #4
 262              	.LVL27:
 323:Generated_Source\PSoC4/LCD.c **** 
 263              		.loc 1 323 0
 264 0006 FFF7FEFF 		bl	LCD_WrCntrlNib
 265              	.LVL28:
 325:Generated_Source\PSoC4/LCD.c **** 	
 266              		.loc 1 325 0
 267 000a 6420     		mov	r0, #100
 268 000c FFF7FEFF 		bl	CyDelayUs
 269              	.LVL29:
 328:Generated_Source\PSoC4/LCD.c ****     LCD_WrCntrlNib(nibble);
 270              		.loc 1 328 0
 271 0010 0F20     		mov	r0, #15
 272 0012 2040     		and	r0, r4
 273              	.LVL30:
 329:Generated_Source\PSoC4/LCD.c **** 
 274              		.loc 1 329 0
 275 0014 FFF7FEFF 		bl	LCD_WrCntrlNib
 276              	.LVL31:
 331:Generated_Source\PSoC4/LCD.c **** }
ARM GAS  C:\Users\Bryan\AppData\Local\Temp\ccn7J8iM.s 			page 14


 277              		.loc 1 331 0
 278 0018 0148     		ldr	r0, .L13
 279 001a FFF7FEFF 		bl	CyDelayUs
 280              	.LVL32:
 332:Generated_Source\PSoC4/LCD.c **** 
 281              		.loc 1 332 0
 282              		@ sp needed
 283              	.LVL33:
 284 001e 10BD     		pop	{r4, pc}
 285              	.L14:
 286              		.align	2
 287              	.L13:
 288 0020 DC050000 		.word	1500
 289              		.cfi_endproc
 290              	.LFE10:
 291              		.size	LCD_WriteControl, .-LCD_WriteControl
 292              		.section	.text.LCD_Init,"ax",%progbits
 293              		.align	2
 294              		.global	LCD_Init
 295              		.code	16
 296              		.thumb_func
 297              		.type	LCD_Init, %function
 298              	LCD_Init:
 299              	.LFB2:
  56:Generated_Source\PSoC4/LCD.c ****     /* INIT CODE */
 300              		.loc 1 56 0
 301              		.cfi_startproc
 302 0000 08B5     		push	{r3, lr}
 303              		.cfi_def_cfa_offset 8
 304              		.cfi_offset 3, -8
 305              		.cfi_offset 14, -4
  58:Generated_Source\PSoC4/LCD.c ****     LCD_WrCntrlNib(LCD_DISPLAY_8_BIT_INIT);   /* Selects 8-bit mode */
 306              		.loc 1 58 0
 307 0002 2820     		mov	r0, #40
 308 0004 FFF7FEFF 		bl	CyDelay
 309              	.LVL34:
  59:Generated_Source\PSoC4/LCD.c ****     CyDelay(5u);                                                         /* Delay 5 ms */
 310              		.loc 1 59 0
 311 0008 0320     		mov	r0, #3
 312 000a FFF7FEFF 		bl	LCD_WrCntrlNib
 313              	.LVL35:
  60:Generated_Source\PSoC4/LCD.c ****     LCD_WrCntrlNib(LCD_DISPLAY_8_BIT_INIT);   /* Selects 8-bit mode */
 314              		.loc 1 60 0
 315 000e 0520     		mov	r0, #5
 316 0010 FFF7FEFF 		bl	CyDelay
 317              	.LVL36:
  61:Generated_Source\PSoC4/LCD.c ****     CyDelay(15u);                                                        /* Delay 15 ms */
 318              		.loc 1 61 0
 319 0014 0320     		mov	r0, #3
 320 0016 FFF7FEFF 		bl	LCD_WrCntrlNib
 321              	.LVL37:
  62:Generated_Source\PSoC4/LCD.c ****     LCD_WrCntrlNib(LCD_DISPLAY_8_BIT_INIT);   /* Selects 8-bit mode */
 322              		.loc 1 62 0
 323 001a 0F20     		mov	r0, #15
 324 001c FFF7FEFF 		bl	CyDelay
 325              	.LVL38:
  63:Generated_Source\PSoC4/LCD.c ****     CyDelay(1u);                                                         /* Delay 1 ms */
ARM GAS  C:\Users\Bryan\AppData\Local\Temp\ccn7J8iM.s 			page 15


 326              		.loc 1 63 0
 327 0020 0320     		mov	r0, #3
 328 0022 FFF7FEFF 		bl	LCD_WrCntrlNib
 329              	.LVL39:
  64:Generated_Source\PSoC4/LCD.c ****     LCD_WrCntrlNib(LCD_DISPLAY_4_BIT_INIT);   /* Selects 4-bit mode */
 330              		.loc 1 64 0
 331 0026 0120     		mov	r0, #1
 332 0028 FFF7FEFF 		bl	CyDelay
 333              	.LVL40:
  65:Generated_Source\PSoC4/LCD.c ****     CyDelay(5u);                                                         /* Delay 5 ms */
 334              		.loc 1 65 0
 335 002c 0220     		mov	r0, #2
 336 002e FFF7FEFF 		bl	LCD_WrCntrlNib
 337              	.LVL41:
  66:Generated_Source\PSoC4/LCD.c **** 
 338              		.loc 1 66 0
 339 0032 0520     		mov	r0, #5
 340 0034 FFF7FEFF 		bl	CyDelay
 341              	.LVL42:
  68:Generated_Source\PSoC4/LCD.c ****     LCD_WriteControl(LCD_DISPLAY_CURSOR_ON);      /* Turn Display, Cursor ON */
 342              		.loc 1 68 0
 343 0038 0620     		mov	r0, #6
 344 003a FFF7FEFF 		bl	LCD_WriteControl
 345              	.LVL43:
  69:Generated_Source\PSoC4/LCD.c ****     LCD_WriteControl(LCD_DISPLAY_2_LINES_5x10);   /* 2 Lines by 5x10 Characters */
 346              		.loc 1 69 0
 347 003e 0E20     		mov	r0, #14
 348 0040 FFF7FEFF 		bl	LCD_WriteControl
 349              	.LVL44:
  70:Generated_Source\PSoC4/LCD.c ****     LCD_WriteControl(LCD_DISPLAY_CURSOR_OFF);     /* Turn Display, Cursor OFF */
 350              		.loc 1 70 0
 351 0044 2C20     		mov	r0, #44
 352 0046 FFF7FEFF 		bl	LCD_WriteControl
 353              	.LVL45:
  71:Generated_Source\PSoC4/LCD.c ****     LCD_WriteControl(LCD_CLEAR_DISPLAY);          /* Clear LCD Screen */
 354              		.loc 1 71 0
 355 004a 0820     		mov	r0, #8
 356 004c FFF7FEFF 		bl	LCD_WriteControl
 357              	.LVL46:
  72:Generated_Source\PSoC4/LCD.c ****     LCD_WriteControl(LCD_DISPLAY_ON_CURSOR_OFF);  /* Turn Display ON, Cursor OFF */
 358              		.loc 1 72 0
 359 0050 0120     		mov	r0, #1
 360 0052 FFF7FEFF 		bl	LCD_WriteControl
 361              	.LVL47:
  73:Generated_Source\PSoC4/LCD.c ****     LCD_WriteControl(LCD_RESET_CURSOR_POSITION);  /* Set Cursor to 0,0 */
 362              		.loc 1 73 0
 363 0056 0C20     		mov	r0, #12
 364 0058 FFF7FEFF 		bl	LCD_WriteControl
 365              	.LVL48:
  74:Generated_Source\PSoC4/LCD.c ****     CyDelay(5u);
 366              		.loc 1 74 0
 367 005c 0320     		mov	r0, #3
 368 005e FFF7FEFF 		bl	LCD_WriteControl
 369              	.LVL49:
  75:Generated_Source\PSoC4/LCD.c **** 
 370              		.loc 1 75 0
 371 0062 0520     		mov	r0, #5
ARM GAS  C:\Users\Bryan\AppData\Local\Temp\ccn7J8iM.s 			page 16


 372 0064 FFF7FEFF 		bl	CyDelay
 373              	.LVL50:
  78:Generated_Source\PSoC4/LCD.c ****     #endif /* LCD_CUSTOM_CHAR_SET != LCD_NONE */
 374              		.loc 1 78 0
 375 0068 0148     		ldr	r0, .L16
 376 006a FFF7FEFF 		bl	LCD_LoadCustomFonts
 377              	.LVL51:
  80:Generated_Source\PSoC4/LCD.c **** 
 378              		.loc 1 80 0
 379              		@ sp needed
 380 006e 08BD     		pop	{r3, pc}
 381              	.L17:
 382              		.align	2
 383              	.L16:
 384 0070 00000000 		.word	LCD_customFonts
 385              		.cfi_endproc
 386              	.LFE2:
 387              		.size	LCD_Init, .-LCD_Init
 388              		.section	.text.LCD_Enable,"ax",%progbits
 389              		.align	2
 390              		.global	LCD_Enable
 391              		.code	16
 392              		.thumb_func
 393              		.type	LCD_Enable, %function
 394              	LCD_Enable:
 395              	.LFB3:
 105:Generated_Source\PSoC4/LCD.c ****     LCD_DisplayOn();
 396              		.loc 1 105 0
 397              		.cfi_startproc
 398 0000 08B5     		push	{r3, lr}
 399              		.cfi_def_cfa_offset 8
 400              		.cfi_offset 3, -8
 401              		.cfi_offset 14, -4
 106:Generated_Source\PSoC4/LCD.c ****     LCD_enableState = 1u;
 402              		.loc 1 106 0
 403 0002 0C20     		mov	r0, #12
 404 0004 FFF7FEFF 		bl	LCD_WriteControl
 405              	.LVL52:
 107:Generated_Source\PSoC4/LCD.c **** }
 406              		.loc 1 107 0
 407 0008 0122     		mov	r2, #1
 408 000a 014B     		ldr	r3, .L19
 409 000c 1A70     		strb	r2, [r3]
 108:Generated_Source\PSoC4/LCD.c **** 
 410              		.loc 1 108 0
 411              		@ sp needed
 412 000e 08BD     		pop	{r3, pc}
 413              	.L20:
 414              		.align	2
 415              	.L19:
 416 0010 00000000 		.word	.LANCHOR0
 417              		.cfi_endproc
 418              	.LFE3:
 419              		.size	LCD_Enable, .-LCD_Enable
 420              		.section	.text.LCD_Start,"ax",%progbits
 421              		.align	2
 422              		.global	LCD_Start
ARM GAS  C:\Users\Bryan\AppData\Local\Temp\ccn7J8iM.s 			page 17


 423              		.code	16
 424              		.thumb_func
 425              		.type	LCD_Start, %function
 426              	LCD_Start:
 427              	.LFB4:
 138:Generated_Source\PSoC4/LCD.c ****     /* If not initialized then perform initialization */
 428              		.loc 1 138 0
 429              		.cfi_startproc
 430 0000 08B5     		push	{r3, lr}
 431              		.cfi_def_cfa_offset 8
 432              		.cfi_offset 3, -8
 433              		.cfi_offset 14, -4
 140:Generated_Source\PSoC4/LCD.c ****     {
 434              		.loc 1 140 0
 435 0002 064B     		ldr	r3, .L23
 436 0004 5B78     		ldrb	r3, [r3, #1]
 437 0006 002B     		cmp	r3, #0
 438 0008 04D1     		bne	.L22
 142:Generated_Source\PSoC4/LCD.c ****         LCD_initVar = 1u;
 439              		.loc 1 142 0
 440 000a FFF7FEFF 		bl	LCD_Init
 441              	.LVL53:
 143:Generated_Source\PSoC4/LCD.c ****     }
 442              		.loc 1 143 0
 443 000e 0122     		mov	r2, #1
 444 0010 024B     		ldr	r3, .L23
 445 0012 5A70     		strb	r2, [r3, #1]
 446              	.L22:
 147:Generated_Source\PSoC4/LCD.c **** }
 447              		.loc 1 147 0
 448 0014 FFF7FEFF 		bl	LCD_Enable
 449              	.LVL54:
 148:Generated_Source\PSoC4/LCD.c **** 
 450              		.loc 1 148 0
 451              		@ sp needed
 452 0018 08BD     		pop	{r3, pc}
 453              	.L24:
 454 001a C046     		.align	2
 455              	.L23:
 456 001c 00000000 		.word	.LANCHOR0
 457              		.cfi_endproc
 458              	.LFE4:
 459              		.size	LCD_Start, .-LCD_Start
 460              		.section	.text.LCD_Stop,"ax",%progbits
 461              		.align	2
 462              		.global	LCD_Stop
 463              		.code	16
 464              		.thumb_func
 465              		.type	LCD_Stop, %function
 466              	LCD_Stop:
 467              	.LFB5:
 169:Generated_Source\PSoC4/LCD.c ****     /* Calls LCD Off Macro */
 468              		.loc 1 169 0
 469              		.cfi_startproc
 470 0000 08B5     		push	{r3, lr}
 471              		.cfi_def_cfa_offset 8
 472              		.cfi_offset 3, -8
ARM GAS  C:\Users\Bryan\AppData\Local\Temp\ccn7J8iM.s 			page 18


 473              		.cfi_offset 14, -4
 171:Generated_Source\PSoC4/LCD.c ****     LCD_enableState = 0u;
 474              		.loc 1 171 0
 475 0002 0820     		mov	r0, #8
 476 0004 FFF7FEFF 		bl	LCD_WriteControl
 477              	.LVL55:
 172:Generated_Source\PSoC4/LCD.c **** }
 478              		.loc 1 172 0
 479 0008 0022     		mov	r2, #0
 480 000a 014B     		ldr	r3, .L26
 481 000c 1A70     		strb	r2, [r3]
 173:Generated_Source\PSoC4/LCD.c **** 
 482              		.loc 1 173 0
 483              		@ sp needed
 484 000e 08BD     		pop	{r3, pc}
 485              	.L27:
 486              		.align	2
 487              	.L26:
 488 0010 00000000 		.word	.LANCHOR0
 489              		.cfi_endproc
 490              	.LFE5:
 491              		.size	LCD_Stop, .-LCD_Stop
 492              		.section	.text.LCD_Position,"ax",%progbits
 493              		.align	2
 494              		.global	LCD_Position
 495              		.code	16
 496              		.thumb_func
 497              		.type	LCD_Position, %function
 498              	LCD_Position:
 499              	.LFB6:
 197:Generated_Source\PSoC4/LCD.c ****     switch (row)
 500              		.loc 1 197 0
 501              		.cfi_startproc
 502              	.LVL56:
 503 0000 08B5     		push	{r3, lr}
 504              		.cfi_def_cfa_offset 8
 505              		.cfi_offset 3, -8
 506              		.cfi_offset 14, -4
 198:Generated_Source\PSoC4/LCD.c ****     {
 507              		.loc 1 198 0
 508 0002 0128     		cmp	r0, #1
 509 0004 0BD0     		beq	.L30
 510 0006 0028     		cmp	r0, #0
 511 0008 04D0     		beq	.L31
 512 000a 0228     		cmp	r0, #2
 513 000c 0CD0     		beq	.L32
 514 000e 0328     		cmp	r0, #3
 515 0010 0FD0     		beq	.L33
 516 0012 12E0     		b	.L28
 517              	.L31:
 201:Generated_Source\PSoC4/LCD.c ****             break;
 518              		.loc 1 201 0
 519 0014 8039     		sub	r1, r1, #128
 520              	.LVL57:
 521 0016 C8B2     		uxtb	r0, r1
 522              	.LVL58:
 523 0018 FFF7FEFF 		bl	LCD_WriteControl
ARM GAS  C:\Users\Bryan\AppData\Local\Temp\ccn7J8iM.s 			page 19


 524              	.LVL59:
 202:Generated_Source\PSoC4/LCD.c ****         case (uint8) 1:
 525              		.loc 1 202 0
 526 001c 0DE0     		b	.L28
 527              	.LVL60:
 528              	.L30:
 204:Generated_Source\PSoC4/LCD.c ****             break;
 529              		.loc 1 204 0
 530 001e 4039     		sub	r1, r1, #64
 531              	.LVL61:
 532 0020 C8B2     		uxtb	r0, r1
 533              	.LVL62:
 534 0022 FFF7FEFF 		bl	LCD_WriteControl
 535              	.LVL63:
 205:Generated_Source\PSoC4/LCD.c ****         case (uint8) 2:
 536              		.loc 1 205 0
 537 0026 08E0     		b	.L28
 538              	.LVL64:
 539              	.L32:
 207:Generated_Source\PSoC4/LCD.c ****             break;
 540              		.loc 1 207 0
 541 0028 6C39     		sub	r1, r1, #108
 542              	.LVL65:
 543 002a C8B2     		uxtb	r0, r1
 544              	.LVL66:
 545 002c FFF7FEFF 		bl	LCD_WriteControl
 546              	.LVL67:
 208:Generated_Source\PSoC4/LCD.c ****         case (uint8) 3:
 547              		.loc 1 208 0
 548 0030 03E0     		b	.L28
 549              	.LVL68:
 550              	.L33:
 210:Generated_Source\PSoC4/LCD.c ****             break;
 551              		.loc 1 210 0
 552 0032 2C39     		sub	r1, r1, #44
 553              	.LVL69:
 554 0034 C8B2     		uxtb	r0, r1
 555              	.LVL70:
 556 0036 FFF7FEFF 		bl	LCD_WriteControl
 557              	.LVL71:
 558              	.L28:
 216:Generated_Source\PSoC4/LCD.c **** 
 559              		.loc 1 216 0
 560              		@ sp needed
 561 003a 08BD     		pop	{r3, pc}
 562              		.cfi_endproc
 563              	.LFE6:
 564              		.size	LCD_Position, .-LCD_Position
 565              		.section	.text.LCD_IsReady,"ax",%progbits
 566              		.align	2
 567              		.global	LCD_IsReady
 568              		.code	16
 569              		.thumb_func
 570              		.type	LCD_IsReady, %function
 571              	LCD_IsReady:
 572              	.LFB11:
 353:Generated_Source\PSoC4/LCD.c ****    
ARM GAS  C:\Users\Bryan\AppData\Local\Temp\ccn7J8iM.s 			page 20


 573              		.loc 1 353 0
 574              		.cfi_startproc
 575 0000 08B5     		push	{r3, lr}
 576              		.cfi_def_cfa_offset 8
 577              		.cfi_offset 3, -8
 578              		.cfi_offset 14, -4
 355:Generated_Source\PSoC4/LCD.c **** 	
 579              		.loc 1 355 0
 580 0002 0120     		mov	r0, #1
 581 0004 FFF7FEFF 		bl	CyDelay
 582              	.LVL72:
 357:Generated_Source\PSoC4/LCD.c **** 
 583              		.loc 1 357 0
 584              		@ sp needed
 585 0008 08BD     		pop	{r3, pc}
 586              		.cfi_endproc
 587              	.LFE11:
 588              		.size	LCD_IsReady, .-LCD_IsReady
 589 000a C046     		.section	.text.LCD_PrintInt8,"ax",%progbits
 590              		.align	2
 591              		.global	LCD_PrintInt8
 592              		.code	16
 593              		.thumb_func
 594              		.type	LCD_PrintInt8, %function
 595              	LCD_PrintInt8:
 596              	.LFB14:
 431:Generated_Source\PSoC4/LCD.c **** 
 432:Generated_Source\PSoC4/LCD.c **** 
 433:Generated_Source\PSoC4/LCD.c **** #if(LCD_CONVERSION_ROUTINES == 1u)
 434:Generated_Source\PSoC4/LCD.c **** 
 435:Generated_Source\PSoC4/LCD.c ****     /*******************************************************************************
 436:Generated_Source\PSoC4/LCD.c ****     *  Function Name: LCD_PrintInt8
 437:Generated_Source\PSoC4/LCD.c ****     ********************************************************************************
 438:Generated_Source\PSoC4/LCD.c ****     *
 439:Generated_Source\PSoC4/LCD.c ****     * Summary:
 440:Generated_Source\PSoC4/LCD.c ****     *  Print a byte as two ASCII characters.
 441:Generated_Source\PSoC4/LCD.c ****     *
 442:Generated_Source\PSoC4/LCD.c ****     * Parameters:
 443:Generated_Source\PSoC4/LCD.c ****     *  value:  The byte to be printed out as ASCII characters.
 444:Generated_Source\PSoC4/LCD.c ****     *
 445:Generated_Source\PSoC4/LCD.c ****     * Return:
 446:Generated_Source\PSoC4/LCD.c ****     *  None.
 447:Generated_Source\PSoC4/LCD.c ****     *
 448:Generated_Source\PSoC4/LCD.c ****     *******************************************************************************/
 449:Generated_Source\PSoC4/LCD.c ****     void LCD_PrintInt8(uint8 value) 
 450:Generated_Source\PSoC4/LCD.c ****     {
 597              		.loc 1 450 0
 598              		.cfi_startproc
 599              	.LVL73:
 600 0000 38B5     		push	{r3, r4, r5, lr}
 601              		.cfi_def_cfa_offset 16
 602              		.cfi_offset 3, -16
 603              		.cfi_offset 4, -12
 604              		.cfi_offset 5, -8
 605              		.cfi_offset 14, -4
 606 0002 041C     		mov	r4, r0
 451:Generated_Source\PSoC4/LCD.c ****         static char8 const CYCODE LCD_hex[16u] = "0123456789ABCDEF";
ARM GAS  C:\Users\Bryan\AppData\Local\Temp\ccn7J8iM.s 			page 21


 452:Generated_Source\PSoC4/LCD.c ****         
 453:Generated_Source\PSoC4/LCD.c ****         LCD_PutChar((char8) LCD_hex[value >> LCD_BYTE_UPPER_NIBBLE_SHIFT]);
 607              		.loc 1 453 0
 608 0004 0309     		lsr	r3, r0, #4
 609 0006 054D     		ldr	r5, .L36
 610 0008 E85C     		ldrb	r0, [r5, r3]
 611              	.LVL74:
 612 000a FFF7FEFF 		bl	LCD_PutChar
 613              	.LVL75:
 454:Generated_Source\PSoC4/LCD.c ****         LCD_PutChar((char8) LCD_hex[value & LCD_BYTE_LOWER_NIBBLE_MASK]);
 614              		.loc 1 454 0
 615 000e 0F23     		mov	r3, #15
 616 0010 1C40     		and	r4, r3
 617 0012 285D     		ldrb	r0, [r5, r4]
 618 0014 FFF7FEFF 		bl	LCD_PutChar
 619              	.LVL76:
 455:Generated_Source\PSoC4/LCD.c ****     }
 620              		.loc 1 455 0
 621              		@ sp needed
 622 0018 38BD     		pop	{r3, r4, r5, pc}
 623              	.L37:
 624 001a C046     		.align	2
 625              	.L36:
 626 001c 00000000 		.word	.LANCHOR1
 627              		.cfi_endproc
 628              	.LFE14:
 629              		.size	LCD_PrintInt8, .-LCD_PrintInt8
 630              		.section	.text.LCD_PrintInt16,"ax",%progbits
 631              		.align	2
 632              		.global	LCD_PrintInt16
 633              		.code	16
 634              		.thumb_func
 635              		.type	LCD_PrintInt16, %function
 636              	LCD_PrintInt16:
 637              	.LFB15:
 456:Generated_Source\PSoC4/LCD.c **** 
 457:Generated_Source\PSoC4/LCD.c **** 
 458:Generated_Source\PSoC4/LCD.c ****     /*******************************************************************************
 459:Generated_Source\PSoC4/LCD.c ****     *  Function Name: LCD_PrintInt16
 460:Generated_Source\PSoC4/LCD.c ****     ********************************************************************************
 461:Generated_Source\PSoC4/LCD.c ****     *
 462:Generated_Source\PSoC4/LCD.c ****     * Summary:
 463:Generated_Source\PSoC4/LCD.c ****     *  Print a uint16 as four ASCII characters.
 464:Generated_Source\PSoC4/LCD.c ****     *
 465:Generated_Source\PSoC4/LCD.c ****     * Parameters:
 466:Generated_Source\PSoC4/LCD.c ****     *  value:   The uint16 to be printed out as ASCII characters.
 467:Generated_Source\PSoC4/LCD.c ****     *
 468:Generated_Source\PSoC4/LCD.c ****     * Return:
 469:Generated_Source\PSoC4/LCD.c ****     *  None.
 470:Generated_Source\PSoC4/LCD.c ****     *
 471:Generated_Source\PSoC4/LCD.c ****     *******************************************************************************/
 472:Generated_Source\PSoC4/LCD.c ****     void LCD_PrintInt16(uint16 value) 
 473:Generated_Source\PSoC4/LCD.c ****     {
 638              		.loc 1 473 0
 639              		.cfi_startproc
 640              	.LVL77:
 641 0000 10B5     		push	{r4, lr}
ARM GAS  C:\Users\Bryan\AppData\Local\Temp\ccn7J8iM.s 			page 22


 642              		.cfi_def_cfa_offset 8
 643              		.cfi_offset 4, -8
 644              		.cfi_offset 14, -4
 645 0002 041C     		mov	r4, r0
 474:Generated_Source\PSoC4/LCD.c ****         LCD_PrintInt8((uint8)(value >> LCD_U16_UPPER_BYTE_SHIFT));
 646              		.loc 1 474 0
 647 0004 000A     		lsr	r0, r0, #8
 648              	.LVL78:
 649 0006 FFF7FEFF 		bl	LCD_PrintInt8
 650              	.LVL79:
 475:Generated_Source\PSoC4/LCD.c ****         LCD_PrintInt8((uint8)(value & LCD_U16_LOWER_BYTE_MASK));
 651              		.loc 1 475 0
 652 000a E0B2     		uxtb	r0, r4
 653 000c FFF7FEFF 		bl	LCD_PrintInt8
 654              	.LVL80:
 476:Generated_Source\PSoC4/LCD.c ****     }
 655              		.loc 1 476 0
 656              		@ sp needed
 657 0010 10BD     		pop	{r4, pc}
 658              		.cfi_endproc
 659              	.LFE15:
 660              		.size	LCD_PrintInt16, .-LCD_PrintInt16
 661              		.global	__aeabi_uidivmod
 662              		.global	__aeabi_uidiv
 663 0012 C046     		.section	.text.LCD_PrintNumber,"ax",%progbits
 664              		.align	2
 665              		.global	LCD_PrintNumber
 666              		.code	16
 667              		.thumb_func
 668              		.type	LCD_PrintNumber, %function
 669              	LCD_PrintNumber:
 670              	.LFB16:
 477:Generated_Source\PSoC4/LCD.c **** 
 478:Generated_Source\PSoC4/LCD.c **** 
 479:Generated_Source\PSoC4/LCD.c ****     /*******************************************************************************
 480:Generated_Source\PSoC4/LCD.c ****     *  Function Name: LCD_PrintNumber
 481:Generated_Source\PSoC4/LCD.c ****     ********************************************************************************
 482:Generated_Source\PSoC4/LCD.c ****     *
 483:Generated_Source\PSoC4/LCD.c ****     * Summary:
 484:Generated_Source\PSoC4/LCD.c ****     *  Print an uint32 value as a left-justified decimal value.
 485:Generated_Source\PSoC4/LCD.c ****     *
 486:Generated_Source\PSoC4/LCD.c ****     * Parameters:
 487:Generated_Source\PSoC4/LCD.c ****     *  value:  The byte to be printed out as ASCII characters.
 488:Generated_Source\PSoC4/LCD.c ****     *
 489:Generated_Source\PSoC4/LCD.c ****     * Return:
 490:Generated_Source\PSoC4/LCD.c ****     *  None.
 491:Generated_Source\PSoC4/LCD.c ****     *
 492:Generated_Source\PSoC4/LCD.c ****     *******************************************************************************/
 493:Generated_Source\PSoC4/LCD.c ****     void LCD_PrintNumber(uint16 value) 
 494:Generated_Source\PSoC4/LCD.c ****     {
 671              		.loc 1 494 0
 672              		.cfi_startproc
 673              	.LVL81:
 674 0000 70B5     		push	{r4, r5, r6, lr}
 675              		.cfi_def_cfa_offset 16
 676              		.cfi_offset 4, -16
 677              		.cfi_offset 5, -12
ARM GAS  C:\Users\Bryan\AppData\Local\Temp\ccn7J8iM.s 			page 23


 678              		.cfi_offset 6, -8
 679              		.cfi_offset 14, -4
 680 0002 84B0     		sub	sp, sp, #16
 681              		.cfi_def_cfa_offset 32
 682 0004 051C     		mov	r5, r0
 683              	.LVL82:
 495:Generated_Source\PSoC4/LCD.c **** 
 496:Generated_Source\PSoC4/LCD.c ****         char8 number[LCD_NUMBER_OF_REMAINDERS];
 497:Generated_Source\PSoC4/LCD.c ****         char8 temp[LCD_NUMBER_OF_REMAINDERS];
 498:Generated_Source\PSoC4/LCD.c **** 
 499:Generated_Source\PSoC4/LCD.c ****         uint8 digIndex = 0u;
 684              		.loc 1 499 0
 685 0006 0024     		mov	r4, #0
 500:Generated_Source\PSoC4/LCD.c ****         uint8 numDigits;
 501:Generated_Source\PSoC4/LCD.c **** 
 502:Generated_Source\PSoC4/LCD.c ****         /* Load these in reverse order */
 503:Generated_Source\PSoC4/LCD.c ****         while(value >= LCD_TEN)
 686              		.loc 1 503 0
 687 0008 0DE0     		b	.L40
 688              	.LVL83:
 689              	.L41:
 504:Generated_Source\PSoC4/LCD.c ****         {
 505:Generated_Source\PSoC4/LCD.c ****             temp[digIndex] = (value % LCD_TEN) + '0';
 690              		.loc 1 505 0
 691 000a 281C     		mov	r0, r5
 692 000c 0A21     		mov	r1, #10
 693 000e FFF7FEFF 		bl	__aeabi_uidivmod
 694              	.LVL84:
 695 0012 3031     		add	r1, r1, #48
 696 0014 6B46     		mov	r3, sp
 697 0016 1955     		strb	r1, [r3, r4]
 506:Generated_Source\PSoC4/LCD.c ****             value /= LCD_TEN;
 698              		.loc 1 506 0
 699 0018 281C     		mov	r0, r5
 700 001a 0A21     		mov	r1, #10
 701 001c FFF7FEFF 		bl	__aeabi_uidiv
 702              	.LVL85:
 703 0020 85B2     		uxth	r5, r0
 704              	.LVL86:
 507:Generated_Source\PSoC4/LCD.c ****             digIndex++;
 705              		.loc 1 507 0
 706 0022 0134     		add	r4, r4, #1
 707              	.LVL87:
 708 0024 E4B2     		uxtb	r4, r4
 709              	.LVL88:
 710              	.L40:
 503:Generated_Source\PSoC4/LCD.c ****         {
 711              		.loc 1 503 0
 712 0026 092D     		cmp	r5, #9
 713 0028 EFD8     		bhi	.L41
 508:Generated_Source\PSoC4/LCD.c ****         }
 509:Generated_Source\PSoC4/LCD.c **** 
 510:Generated_Source\PSoC4/LCD.c ****         temp[digIndex] = (value % LCD_TEN) + '0';
 714              		.loc 1 510 0
 715 002a 261C     		mov	r6, r4
 716 002c 281C     		mov	r0, r5
 717 002e 0A21     		mov	r1, #10
ARM GAS  C:\Users\Bryan\AppData\Local\Temp\ccn7J8iM.s 			page 24


 718 0030 FFF7FEFF 		bl	__aeabi_uidivmod
 719              	.LVL89:
 720 0034 3031     		add	r1, r1, #48
 721 0036 6B46     		mov	r3, sp
 722 0038 1955     		strb	r1, [r3, r4]
 511:Generated_Source\PSoC4/LCD.c ****         numDigits = digIndex;
 723              		.loc 1 511 0
 724 003a 251C     		mov	r5, r4
 725              	.LVL90:
 512:Generated_Source\PSoC4/LCD.c **** 
 513:Generated_Source\PSoC4/LCD.c ****         /* While index is greater than or equal to zero copy number
 514:Generated_Source\PSoC4/LCD.c ****         * from temporary array to number[].
 515:Generated_Source\PSoC4/LCD.c ****         */
 516:Generated_Source\PSoC4/LCD.c ****         while (digIndex != 0u)
 726              		.loc 1 516 0
 727 003c 06E0     		b	.L42
 728              	.LVL91:
 729              	.L43:
 517:Generated_Source\PSoC4/LCD.c ****         {
 518:Generated_Source\PSoC4/LCD.c ****             number[numDigits - digIndex] = temp[digIndex];
 730              		.loc 1 518 0
 731 003e 331B     		sub	r3, r6, r4
 732 0040 6A46     		mov	r2, sp
 733 0042 115D     		ldrb	r1, [r2, r4]
 734 0044 02AA     		add	r2, sp, #8
 735 0046 D154     		strb	r1, [r2, r3]
 519:Generated_Source\PSoC4/LCD.c ****             digIndex--;
 736              		.loc 1 519 0
 737 0048 013C     		sub	r4, r4, #1
 738              	.LVL92:
 739 004a E4B2     		uxtb	r4, r4
 740              	.LVL93:
 741              	.L42:
 516:Generated_Source\PSoC4/LCD.c ****         {
 742              		.loc 1 516 0
 743 004c 002C     		cmp	r4, #0
 744 004e F6D1     		bne	.L43
 520:Generated_Source\PSoC4/LCD.c ****         }
 521:Generated_Source\PSoC4/LCD.c ****         
 522:Generated_Source\PSoC4/LCD.c ****         /* Copy last digit */
 523:Generated_Source\PSoC4/LCD.c ****         number[numDigits] = temp[0u];
 745              		.loc 1 523 0
 746 0050 6B46     		mov	r3, sp
 747 0052 1B78     		ldrb	r3, [r3]
 748 0054 02A8     		add	r0, sp, #8
 749 0056 8355     		strb	r3, [r0, r6]
 524:Generated_Source\PSoC4/LCD.c **** 
 525:Generated_Source\PSoC4/LCD.c ****         /* Null Termination */
 526:Generated_Source\PSoC4/LCD.c ****         number[numDigits + 1u] = (char8) '\0';
 750              		.loc 1 526 0
 751 0058 6B1C     		add	r3, r5, #1
 752 005a 0022     		mov	r2, #0
 753 005c C254     		strb	r2, [r0, r3]
 527:Generated_Source\PSoC4/LCD.c **** 
 528:Generated_Source\PSoC4/LCD.c ****         /* Print out number */
 529:Generated_Source\PSoC4/LCD.c ****         LCD_PrintString(&number[0u]);
 754              		.loc 1 529 0
ARM GAS  C:\Users\Bryan\AppData\Local\Temp\ccn7J8iM.s 			page 25


 755 005e FFF7FEFF 		bl	LCD_PrintString
 756              	.LVL94:
 530:Generated_Source\PSoC4/LCD.c ****     }
 757              		.loc 1 530 0
 758 0062 04B0     		add	sp, sp, #16
 759              		@ sp needed
 760              	.LVL95:
 761 0064 70BD     		pop	{r4, r5, r6, pc}
 762              		.cfi_endproc
 763              	.LFE16:
 764              		.size	LCD_PrintNumber, .-LCD_PrintNumber
 765              		.global	LCD_initVar
 766              		.global	LCD_enableState
 767 0066 C046     		.section	.rodata
 768              		.align	2
 769              		.set	.LANCHOR1,. + 0
 770              		.type	LCD_hex.4820, %object
 771              		.size	LCD_hex.4820, 16
 772              	LCD_hex.4820:
 773 0000 30313233 		.ascii	"0123456789ABCDEF"
 773      34353637 
 773      38394142 
 773      43444546 
 774              		.bss
 775              		.set	.LANCHOR0,. + 0
 776              		.type	LCD_enableState, %object
 777              		.size	LCD_enableState, 1
 778              	LCD_enableState:
 779 0000 00       		.space	1
 780              		.type	LCD_initVar, %object
 781              		.size	LCD_initVar, 1
 782              	LCD_initVar:
 783 0001 00       		.space	1
 784              		.text
 785              	.Letext0:
 786              		.file 2 "Generated_Source\\PSoC4\\cytypes.h"
 787              		.file 3 "Generated_Source\\PSoC4\\LCD.h"
 788              		.file 4 "Generated_Source\\PSoC4\\CyLib.h"