ARM GAS  C:\Users\Bryan\AppData\Local\Temp\ccjR079e.s 			page 1


   1              		.cpu cortex-m0
   2              		.fpu softvfp
   3              		.eabi_attribute 20, 1
   4              		.eabi_attribute 21, 1
   5              		.eabi_attribute 23, 3
   6              		.eabi_attribute 24, 1
   7              		.eabi_attribute 25, 1
   8              		.eabi_attribute 26, 1
   9              		.eabi_attribute 30, 1
  10              		.eabi_attribute 34, 0
  11              		.eabi_attribute 18, 4
  12              		.code	16
  13              		.file	"LCD_Char.c"
  14              		.text
  15              	.Ltext0:
  16              		.cfi_sections	.debug_frame
  17              		.section	.text.LCD_Char_WrCntrlNib,"ax",%progbits
  18              		.align	2
  19              		.code	16
  20              		.thumb_func
  21              		.type	LCD_Char_WrCntrlNib, %function
  22              	LCD_Char_WrCntrlNib:
  23              	.LFB11:
  24              		.file 1 ".\\Generated_Source\\PSoC4\\LCD_Char.c"
   1:.\Generated_Source\PSoC4/LCD_Char.c **** /*******************************************************************************
   2:.\Generated_Source\PSoC4/LCD_Char.c **** * File Name: LCD_Char.c
   3:.\Generated_Source\PSoC4/LCD_Char.c **** * Version 1.0
   4:.\Generated_Source\PSoC4/LCD_Char.c **** *
   5:.\Generated_Source\PSoC4/LCD_Char.c **** * Description:
   6:.\Generated_Source\PSoC4/LCD_Char.c **** *  This file provides source code for the Character LCD component's API.
   7:.\Generated_Source\PSoC4/LCD_Char.c **** *
   8:.\Generated_Source\PSoC4/LCD_Char.c **** * Note:
   9:.\Generated_Source\PSoC4/LCD_Char.c **** *
  10:.\Generated_Source\PSoC4/LCD_Char.c **** ********************************************************************************
  11:.\Generated_Source\PSoC4/LCD_Char.c **** * Copyright 2008-2012, Cypress Semiconductor Corporation.  All rights reserved.
  12:.\Generated_Source\PSoC4/LCD_Char.c **** * You may use this file only in accordance with the license, terms, conditions,
  13:.\Generated_Source\PSoC4/LCD_Char.c **** * disclaimers, and limitations in the end user license agreement accompanying
  14:.\Generated_Source\PSoC4/LCD_Char.c **** * the software package with which this file was provided.
  15:.\Generated_Source\PSoC4/LCD_Char.c **** *******************************************************************************/
  16:.\Generated_Source\PSoC4/LCD_Char.c **** 
  17:.\Generated_Source\PSoC4/LCD_Char.c **** #include "CyLib.h"
  18:.\Generated_Source\PSoC4/LCD_Char.c **** #include "LCD_Char.h"
  19:.\Generated_Source\PSoC4/LCD_Char.c **** 
  20:.\Generated_Source\PSoC4/LCD_Char.c **** 
  21:.\Generated_Source\PSoC4/LCD_Char.c **** static void LCD_Char_WrDatNib(uint8 nibble) ;
  22:.\Generated_Source\PSoC4/LCD_Char.c **** static void LCD_Char_WrCntrlNib(uint8 nibble) ;
  23:.\Generated_Source\PSoC4/LCD_Char.c **** 
  24:.\Generated_Source\PSoC4/LCD_Char.c **** /* Stores the state of conponent. Indicates wherewer component is 
  25:.\Generated_Source\PSoC4/LCD_Char.c **** * in enable state or not.
  26:.\Generated_Source\PSoC4/LCD_Char.c **** */
  27:.\Generated_Source\PSoC4/LCD_Char.c **** uint8 LCD_Char_enableState = 0u;
  28:.\Generated_Source\PSoC4/LCD_Char.c **** 
  29:.\Generated_Source\PSoC4/LCD_Char.c **** uint8 LCD_Char_initVar = 0u;
  30:.\Generated_Source\PSoC4/LCD_Char.c **** 
  31:.\Generated_Source\PSoC4/LCD_Char.c **** 
  32:.\Generated_Source\PSoC4/LCD_Char.c **** /*******************************************************************************
  33:.\Generated_Source\PSoC4/LCD_Char.c **** * Function Name: LCD_Char_Init
ARM GAS  C:\Users\Bryan\AppData\Local\Temp\ccjR079e.s 			page 2


  34:.\Generated_Source\PSoC4/LCD_Char.c **** ********************************************************************************
  35:.\Generated_Source\PSoC4/LCD_Char.c **** *
  36:.\Generated_Source\PSoC4/LCD_Char.c **** * Summary:
  37:.\Generated_Source\PSoC4/LCD_Char.c **** *  Perform initialization required for components normal work.
  38:.\Generated_Source\PSoC4/LCD_Char.c **** *  This function initializes the LCD hardware module as follows:
  39:.\Generated_Source\PSoC4/LCD_Char.c **** *        Enable 4-bit interface
  40:.\Generated_Source\PSoC4/LCD_Char.c **** *        Clear the display
  41:.\Generated_Source\PSoC4/LCD_Char.c **** *        Enable auto cursor increment
  42:.\Generated_Source\PSoC4/LCD_Char.c **** *        Resets the cursor to start position
  43:.\Generated_Source\PSoC4/LCD_Char.c **** *  Also loads custom character set to LCD if it was defined in the customizer.
  44:.\Generated_Source\PSoC4/LCD_Char.c **** *
  45:.\Generated_Source\PSoC4/LCD_Char.c **** * Parameters:
  46:.\Generated_Source\PSoC4/LCD_Char.c **** *  None.
  47:.\Generated_Source\PSoC4/LCD_Char.c **** *
  48:.\Generated_Source\PSoC4/LCD_Char.c **** * Return:
  49:.\Generated_Source\PSoC4/LCD_Char.c **** *  None.
  50:.\Generated_Source\PSoC4/LCD_Char.c **** *
  51:.\Generated_Source\PSoC4/LCD_Char.c **** * Reentrant:
  52:.\Generated_Source\PSoC4/LCD_Char.c **** *  No.
  53:.\Generated_Source\PSoC4/LCD_Char.c **** *
  54:.\Generated_Source\PSoC4/LCD_Char.c **** *******************************************************************************/
  55:.\Generated_Source\PSoC4/LCD_Char.c **** void LCD_Char_Init(void) 
  56:.\Generated_Source\PSoC4/LCD_Char.c **** {
  57:.\Generated_Source\PSoC4/LCD_Char.c ****     /* INIT CODE */
  58:.\Generated_Source\PSoC4/LCD_Char.c ****     CyDelay(40u);                                                        /* Delay 40 ms */
  59:.\Generated_Source\PSoC4/LCD_Char.c ****     LCD_Char_WrCntrlNib(LCD_Char_DISPLAY_8_BIT_INIT);   /* Selects 8-bit mode */
  60:.\Generated_Source\PSoC4/LCD_Char.c ****     CyDelay(5u);                                                         /* Delay 5 ms */
  61:.\Generated_Source\PSoC4/LCD_Char.c ****     LCD_Char_WrCntrlNib(LCD_Char_DISPLAY_8_BIT_INIT);   /* Selects 8-bit mode */
  62:.\Generated_Source\PSoC4/LCD_Char.c ****     CyDelay(15u);                                                        /* Delay 15 ms */
  63:.\Generated_Source\PSoC4/LCD_Char.c ****     LCD_Char_WrCntrlNib(LCD_Char_DISPLAY_8_BIT_INIT);   /* Selects 8-bit mode */
  64:.\Generated_Source\PSoC4/LCD_Char.c ****     CyDelay(1u);                                                         /* Delay 1 ms */
  65:.\Generated_Source\PSoC4/LCD_Char.c ****     LCD_Char_WrCntrlNib(LCD_Char_DISPLAY_4_BIT_INIT);   /* Selects 4-bit mode */
  66:.\Generated_Source\PSoC4/LCD_Char.c ****     CyDelay(5u);                                                         /* Delay 5 ms */
  67:.\Generated_Source\PSoC4/LCD_Char.c **** 
  68:.\Generated_Source\PSoC4/LCD_Char.c ****     LCD_Char_WriteControl(LCD_Char_CURSOR_AUTO_INCR_ON);    /* Incr Cursor After Writes */
  69:.\Generated_Source\PSoC4/LCD_Char.c ****     LCD_Char_WriteControl(LCD_Char_DISPLAY_CURSOR_ON);      /* Turn Display, Cursor ON */
  70:.\Generated_Source\PSoC4/LCD_Char.c ****     LCD_Char_WriteControl(LCD_Char_DISPLAY_2_LINES_5x10);   /* 2 Lines by 5x10 Characters */
  71:.\Generated_Source\PSoC4/LCD_Char.c ****     LCD_Char_WriteControl(LCD_Char_DISPLAY_CURSOR_OFF);     /* Turn Display, Cursor OFF */
  72:.\Generated_Source\PSoC4/LCD_Char.c ****     LCD_Char_WriteControl(LCD_Char_CLEAR_DISPLAY);          /* Clear LCD Screen */
  73:.\Generated_Source\PSoC4/LCD_Char.c ****     LCD_Char_WriteControl(LCD_Char_DISPLAY_ON_CURSOR_OFF);  /* Turn Display ON, Cursor OFF */
  74:.\Generated_Source\PSoC4/LCD_Char.c ****     LCD_Char_WriteControl(LCD_Char_RESET_CURSOR_POSITION);  /* Set Cursor to 0,0 */
  75:.\Generated_Source\PSoC4/LCD_Char.c ****     CyDelay(5u);
  76:.\Generated_Source\PSoC4/LCD_Char.c **** 
  77:.\Generated_Source\PSoC4/LCD_Char.c ****     #if(LCD_Char_CUSTOM_CHAR_SET != LCD_Char_NONE)
  78:.\Generated_Source\PSoC4/LCD_Char.c ****         LCD_Char_LoadCustomFonts(LCD_Char_customFonts);
  79:.\Generated_Source\PSoC4/LCD_Char.c ****     #endif /* LCD_Char_CUSTOM_CHAR_SET != LCD_Char_NONE */
  80:.\Generated_Source\PSoC4/LCD_Char.c **** }
  81:.\Generated_Source\PSoC4/LCD_Char.c **** 
  82:.\Generated_Source\PSoC4/LCD_Char.c **** 
  83:.\Generated_Source\PSoC4/LCD_Char.c **** /*******************************************************************************
  84:.\Generated_Source\PSoC4/LCD_Char.c **** * Function Name: LCD_Char_Enable
  85:.\Generated_Source\PSoC4/LCD_Char.c **** ********************************************************************************
  86:.\Generated_Source\PSoC4/LCD_Char.c **** *
  87:.\Generated_Source\PSoC4/LCD_Char.c **** * Summary:
  88:.\Generated_Source\PSoC4/LCD_Char.c **** *  Turns on the display.
  89:.\Generated_Source\PSoC4/LCD_Char.c **** *
  90:.\Generated_Source\PSoC4/LCD_Char.c **** * Parameters:
ARM GAS  C:\Users\Bryan\AppData\Local\Temp\ccjR079e.s 			page 3


  91:.\Generated_Source\PSoC4/LCD_Char.c **** *  None.
  92:.\Generated_Source\PSoC4/LCD_Char.c **** *
  93:.\Generated_Source\PSoC4/LCD_Char.c **** * Return:
  94:.\Generated_Source\PSoC4/LCD_Char.c **** *  None.
  95:.\Generated_Source\PSoC4/LCD_Char.c **** *
  96:.\Generated_Source\PSoC4/LCD_Char.c **** * Reentrant:
  97:.\Generated_Source\PSoC4/LCD_Char.c **** *  No.
  98:.\Generated_Source\PSoC4/LCD_Char.c **** *
  99:.\Generated_Source\PSoC4/LCD_Char.c **** * Theory:
 100:.\Generated_Source\PSoC4/LCD_Char.c **** *  This finction has no effect when it called first time as
 101:.\Generated_Source\PSoC4/LCD_Char.c **** *  LCD_Char_Init() turns on the LCD.
 102:.\Generated_Source\PSoC4/LCD_Char.c **** *
 103:.\Generated_Source\PSoC4/LCD_Char.c **** *******************************************************************************/
 104:.\Generated_Source\PSoC4/LCD_Char.c **** void LCD_Char_Enable(void) 
 105:.\Generated_Source\PSoC4/LCD_Char.c **** {
 106:.\Generated_Source\PSoC4/LCD_Char.c ****     LCD_Char_DisplayOn();
 107:.\Generated_Source\PSoC4/LCD_Char.c ****     LCD_Char_enableState = 1u;
 108:.\Generated_Source\PSoC4/LCD_Char.c **** }
 109:.\Generated_Source\PSoC4/LCD_Char.c **** 
 110:.\Generated_Source\PSoC4/LCD_Char.c **** 
 111:.\Generated_Source\PSoC4/LCD_Char.c **** /*******************************************************************************
 112:.\Generated_Source\PSoC4/LCD_Char.c **** * Function Name: LCD_Char_Start
 113:.\Generated_Source\PSoC4/LCD_Char.c **** ********************************************************************************
 114:.\Generated_Source\PSoC4/LCD_Char.c **** *
 115:.\Generated_Source\PSoC4/LCD_Char.c **** * Summary:
 116:.\Generated_Source\PSoC4/LCD_Char.c **** *  Perform initialization required for components normal work.
 117:.\Generated_Source\PSoC4/LCD_Char.c **** *  This function initializes the LCD hardware module as follows:
 118:.\Generated_Source\PSoC4/LCD_Char.c **** *        Enable 4-bit interface
 119:.\Generated_Source\PSoC4/LCD_Char.c **** *        Clear the display
 120:.\Generated_Source\PSoC4/LCD_Char.c **** *        Enable auto cursor increment
 121:.\Generated_Source\PSoC4/LCD_Char.c **** *        Resets the cursor to start position
 122:.\Generated_Source\PSoC4/LCD_Char.c **** *  Also loads custom character set to LCD if it was defined in the customizer.
 123:.\Generated_Source\PSoC4/LCD_Char.c **** *  If it was not the first call in this project then it just turns on the
 124:.\Generated_Source\PSoC4/LCD_Char.c **** *  display
 125:.\Generated_Source\PSoC4/LCD_Char.c **** *
 126:.\Generated_Source\PSoC4/LCD_Char.c **** *
 127:.\Generated_Source\PSoC4/LCD_Char.c **** * Parameters:
 128:.\Generated_Source\PSoC4/LCD_Char.c **** *  LCD_Char_initVar - global variable.
 129:.\Generated_Source\PSoC4/LCD_Char.c **** *
 130:.\Generated_Source\PSoC4/LCD_Char.c **** * Return:
 131:.\Generated_Source\PSoC4/LCD_Char.c **** *  LCD_Char_initVar - global variable.
 132:.\Generated_Source\PSoC4/LCD_Char.c **** *
 133:.\Generated_Source\PSoC4/LCD_Char.c **** * Reentrant:
 134:.\Generated_Source\PSoC4/LCD_Char.c **** *  No.
 135:.\Generated_Source\PSoC4/LCD_Char.c **** *
 136:.\Generated_Source\PSoC4/LCD_Char.c **** *******************************************************************************/
 137:.\Generated_Source\PSoC4/LCD_Char.c **** void LCD_Char_Start(void) 
 138:.\Generated_Source\PSoC4/LCD_Char.c **** {
 139:.\Generated_Source\PSoC4/LCD_Char.c ****     /* If not initialized then perform initialization */
 140:.\Generated_Source\PSoC4/LCD_Char.c ****     if(LCD_Char_initVar == 0u)
 141:.\Generated_Source\PSoC4/LCD_Char.c ****     {
 142:.\Generated_Source\PSoC4/LCD_Char.c ****         LCD_Char_Init();
 143:.\Generated_Source\PSoC4/LCD_Char.c ****         LCD_Char_initVar = 1u;
 144:.\Generated_Source\PSoC4/LCD_Char.c ****     }
 145:.\Generated_Source\PSoC4/LCD_Char.c **** 
 146:.\Generated_Source\PSoC4/LCD_Char.c ****     /* Turn on the LCD */
 147:.\Generated_Source\PSoC4/LCD_Char.c ****     LCD_Char_Enable();
ARM GAS  C:\Users\Bryan\AppData\Local\Temp\ccjR079e.s 			page 4


 148:.\Generated_Source\PSoC4/LCD_Char.c **** }
 149:.\Generated_Source\PSoC4/LCD_Char.c **** 
 150:.\Generated_Source\PSoC4/LCD_Char.c **** 
 151:.\Generated_Source\PSoC4/LCD_Char.c **** /*******************************************************************************
 152:.\Generated_Source\PSoC4/LCD_Char.c **** * Function Name: LCD_Char_Stop
 153:.\Generated_Source\PSoC4/LCD_Char.c **** ********************************************************************************
 154:.\Generated_Source\PSoC4/LCD_Char.c **** *
 155:.\Generated_Source\PSoC4/LCD_Char.c **** * Summary:
 156:.\Generated_Source\PSoC4/LCD_Char.c **** *  Turns off the display of the LCD screen.
 157:.\Generated_Source\PSoC4/LCD_Char.c **** *
 158:.\Generated_Source\PSoC4/LCD_Char.c **** * Parameters:
 159:.\Generated_Source\PSoC4/LCD_Char.c **** *  None.
 160:.\Generated_Source\PSoC4/LCD_Char.c **** *
 161:.\Generated_Source\PSoC4/LCD_Char.c **** * Return:
 162:.\Generated_Source\PSoC4/LCD_Char.c **** *  None.
 163:.\Generated_Source\PSoC4/LCD_Char.c **** *
 164:.\Generated_Source\PSoC4/LCD_Char.c **** * Reentrant:
 165:.\Generated_Source\PSoC4/LCD_Char.c **** *  No.
 166:.\Generated_Source\PSoC4/LCD_Char.c **** *
 167:.\Generated_Source\PSoC4/LCD_Char.c **** *******************************************************************************/
 168:.\Generated_Source\PSoC4/LCD_Char.c **** void LCD_Char_Stop(void) 
 169:.\Generated_Source\PSoC4/LCD_Char.c **** {
 170:.\Generated_Source\PSoC4/LCD_Char.c ****     /* Calls LCD Off Macro */
 171:.\Generated_Source\PSoC4/LCD_Char.c ****     LCD_Char_DisplayOff();
 172:.\Generated_Source\PSoC4/LCD_Char.c ****     LCD_Char_enableState = 0u;
 173:.\Generated_Source\PSoC4/LCD_Char.c **** }
 174:.\Generated_Source\PSoC4/LCD_Char.c **** 
 175:.\Generated_Source\PSoC4/LCD_Char.c **** 
 176:.\Generated_Source\PSoC4/LCD_Char.c **** /*******************************************************************************
 177:.\Generated_Source\PSoC4/LCD_Char.c **** *  Function Name: LCD_Char_Position
 178:.\Generated_Source\PSoC4/LCD_Char.c **** ********************************************************************************
 179:.\Generated_Source\PSoC4/LCD_Char.c **** *
 180:.\Generated_Source\PSoC4/LCD_Char.c **** * Summary:
 181:.\Generated_Source\PSoC4/LCD_Char.c **** *  Moves active cursor location to a point specified by the input arguments
 182:.\Generated_Source\PSoC4/LCD_Char.c **** *
 183:.\Generated_Source\PSoC4/LCD_Char.c **** * Parameters:
 184:.\Generated_Source\PSoC4/LCD_Char.c **** *  row:     Specific row of LCD module to be written
 185:.\Generated_Source\PSoC4/LCD_Char.c **** *  column:  Column of LCD module to be written
 186:.\Generated_Source\PSoC4/LCD_Char.c **** *
 187:.\Generated_Source\PSoC4/LCD_Char.c **** * Return:
 188:.\Generated_Source\PSoC4/LCD_Char.c **** *  None.
 189:.\Generated_Source\PSoC4/LCD_Char.c **** *
 190:.\Generated_Source\PSoC4/LCD_Char.c **** * Note:
 191:.\Generated_Source\PSoC4/LCD_Char.c **** *  This only applies for LCD displays which use the 2X40 address mode.
 192:.\Generated_Source\PSoC4/LCD_Char.c **** *  This results in Row 2 offset from row one by 0x28.
 193:.\Generated_Source\PSoC4/LCD_Char.c **** *  When there are more than 2 rows, each row must be fewer than 20 characters.
 194:.\Generated_Source\PSoC4/LCD_Char.c **** *
 195:.\Generated_Source\PSoC4/LCD_Char.c **** *******************************************************************************/
 196:.\Generated_Source\PSoC4/LCD_Char.c **** void LCD_Char_Position(uint8 row, uint8 column) 
 197:.\Generated_Source\PSoC4/LCD_Char.c **** {
 198:.\Generated_Source\PSoC4/LCD_Char.c ****     switch (row)
 199:.\Generated_Source\PSoC4/LCD_Char.c ****     {
 200:.\Generated_Source\PSoC4/LCD_Char.c ****         case (uint8)0:
 201:.\Generated_Source\PSoC4/LCD_Char.c ****             LCD_Char_WriteControl(LCD_Char_ROW_0_START + column);
 202:.\Generated_Source\PSoC4/LCD_Char.c ****             break;
 203:.\Generated_Source\PSoC4/LCD_Char.c ****         case (uint8) 1:
 204:.\Generated_Source\PSoC4/LCD_Char.c ****             LCD_Char_WriteControl(LCD_Char_ROW_1_START + column);
ARM GAS  C:\Users\Bryan\AppData\Local\Temp\ccjR079e.s 			page 5


 205:.\Generated_Source\PSoC4/LCD_Char.c ****             break;
 206:.\Generated_Source\PSoC4/LCD_Char.c ****         case (uint8) 2:
 207:.\Generated_Source\PSoC4/LCD_Char.c ****             LCD_Char_WriteControl(LCD_Char_ROW_2_START + column);
 208:.\Generated_Source\PSoC4/LCD_Char.c ****             break;
 209:.\Generated_Source\PSoC4/LCD_Char.c ****         case (uint8) 3:
 210:.\Generated_Source\PSoC4/LCD_Char.c ****             LCD_Char_WriteControl(LCD_Char_ROW_3_START + column);
 211:.\Generated_Source\PSoC4/LCD_Char.c ****             break;
 212:.\Generated_Source\PSoC4/LCD_Char.c ****         default:
 213:.\Generated_Source\PSoC4/LCD_Char.c ****             /* if default case is hit, invalid row argument was passed.*/
 214:.\Generated_Source\PSoC4/LCD_Char.c ****             break;
 215:.\Generated_Source\PSoC4/LCD_Char.c ****     }
 216:.\Generated_Source\PSoC4/LCD_Char.c **** }
 217:.\Generated_Source\PSoC4/LCD_Char.c **** 
 218:.\Generated_Source\PSoC4/LCD_Char.c **** 
 219:.\Generated_Source\PSoC4/LCD_Char.c **** /*******************************************************************************
 220:.\Generated_Source\PSoC4/LCD_Char.c **** * Function Name: LCD_Char_PrintString
 221:.\Generated_Source\PSoC4/LCD_Char.c **** ********************************************************************************
 222:.\Generated_Source\PSoC4/LCD_Char.c **** *
 223:.\Generated_Source\PSoC4/LCD_Char.c **** * Summary:
 224:.\Generated_Source\PSoC4/LCD_Char.c **** *  Writes a zero terminated string to the LCD.
 225:.\Generated_Source\PSoC4/LCD_Char.c **** *
 226:.\Generated_Source\PSoC4/LCD_Char.c **** * Parameters:
 227:.\Generated_Source\PSoC4/LCD_Char.c **** *  string:  pointer to head of char8 array to be written to the LCD module
 228:.\Generated_Source\PSoC4/LCD_Char.c **** *
 229:.\Generated_Source\PSoC4/LCD_Char.c **** * Return:
 230:.\Generated_Source\PSoC4/LCD_Char.c **** *  None.
 231:.\Generated_Source\PSoC4/LCD_Char.c **** *
 232:.\Generated_Source\PSoC4/LCD_Char.c **** *******************************************************************************/
 233:.\Generated_Source\PSoC4/LCD_Char.c **** void LCD_Char_PrintString(char8 const string[]) 
 234:.\Generated_Source\PSoC4/LCD_Char.c **** {
 235:.\Generated_Source\PSoC4/LCD_Char.c ****     uint8 indexU8 = 1u;
 236:.\Generated_Source\PSoC4/LCD_Char.c ****     char8 current = *string;
 237:.\Generated_Source\PSoC4/LCD_Char.c **** 
 238:.\Generated_Source\PSoC4/LCD_Char.c ****     /* Until null is reached, print next character */
 239:.\Generated_Source\PSoC4/LCD_Char.c ****     while((char8) '\0' != current)
 240:.\Generated_Source\PSoC4/LCD_Char.c ****     {
 241:.\Generated_Source\PSoC4/LCD_Char.c ****         LCD_Char_WriteData((uint8)current);
 242:.\Generated_Source\PSoC4/LCD_Char.c ****         current = string[indexU8];
 243:.\Generated_Source\PSoC4/LCD_Char.c ****         indexU8++;
 244:.\Generated_Source\PSoC4/LCD_Char.c ****     }
 245:.\Generated_Source\PSoC4/LCD_Char.c **** }
 246:.\Generated_Source\PSoC4/LCD_Char.c **** 
 247:.\Generated_Source\PSoC4/LCD_Char.c **** 
 248:.\Generated_Source\PSoC4/LCD_Char.c **** /*******************************************************************************
 249:.\Generated_Source\PSoC4/LCD_Char.c **** *  Function Name: LCD_Char_PutChar
 250:.\Generated_Source\PSoC4/LCD_Char.c **** ********************************************************************************
 251:.\Generated_Source\PSoC4/LCD_Char.c **** *
 252:.\Generated_Source\PSoC4/LCD_Char.c **** * Summary:
 253:.\Generated_Source\PSoC4/LCD_Char.c **** *  Writes a single character to the current cursor position of the LCD module.
 254:.\Generated_Source\PSoC4/LCD_Char.c **** *  Custom character names (_CUSTOM_0 through
 255:.\Generated_Source\PSoC4/LCD_Char.c **** *  _CUSTOM_7) are acceptable as inputs.
 256:.\Generated_Source\PSoC4/LCD_Char.c **** *
 257:.\Generated_Source\PSoC4/LCD_Char.c **** * Parameters:
 258:.\Generated_Source\PSoC4/LCD_Char.c **** *  character:  character to be written to the LCD
 259:.\Generated_Source\PSoC4/LCD_Char.c **** *
 260:.\Generated_Source\PSoC4/LCD_Char.c **** * Return:
 261:.\Generated_Source\PSoC4/LCD_Char.c **** *  None.
ARM GAS  C:\Users\Bryan\AppData\Local\Temp\ccjR079e.s 			page 6


 262:.\Generated_Source\PSoC4/LCD_Char.c **** *
 263:.\Generated_Source\PSoC4/LCD_Char.c **** *******************************************************************************/
 264:.\Generated_Source\PSoC4/LCD_Char.c **** void LCD_Char_PutChar(char8 character) 
 265:.\Generated_Source\PSoC4/LCD_Char.c **** {
 266:.\Generated_Source\PSoC4/LCD_Char.c ****     LCD_Char_WriteData((uint8)character);
 267:.\Generated_Source\PSoC4/LCD_Char.c **** }
 268:.\Generated_Source\PSoC4/LCD_Char.c **** 
 269:.\Generated_Source\PSoC4/LCD_Char.c **** 
 270:.\Generated_Source\PSoC4/LCD_Char.c **** /*******************************************************************************
 271:.\Generated_Source\PSoC4/LCD_Char.c **** *  Function Name: LCD_Char_WriteData
 272:.\Generated_Source\PSoC4/LCD_Char.c **** ********************************************************************************
 273:.\Generated_Source\PSoC4/LCD_Char.c **** *
 274:.\Generated_Source\PSoC4/LCD_Char.c **** * Summary:
 275:.\Generated_Source\PSoC4/LCD_Char.c **** *  Writes a data byte to the LCD module's Data Display RAM.
 276:.\Generated_Source\PSoC4/LCD_Char.c **** *
 277:.\Generated_Source\PSoC4/LCD_Char.c **** * Parameters:
 278:.\Generated_Source\PSoC4/LCD_Char.c **** *  dByte:  byte to be written to LCD module.
 279:.\Generated_Source\PSoC4/LCD_Char.c **** *
 280:.\Generated_Source\PSoC4/LCD_Char.c **** * Return:
 281:.\Generated_Source\PSoC4/LCD_Char.c **** *  None.
 282:.\Generated_Source\PSoC4/LCD_Char.c **** *
 283:.\Generated_Source\PSoC4/LCD_Char.c **** *******************************************************************************/
 284:.\Generated_Source\PSoC4/LCD_Char.c **** void LCD_Char_WriteData(uint8 dByte) 
 285:.\Generated_Source\PSoC4/LCD_Char.c **** {
 286:.\Generated_Source\PSoC4/LCD_Char.c ****     uint8 nibble;
 287:.\Generated_Source\PSoC4/LCD_Char.c **** 
 288:.\Generated_Source\PSoC4/LCD_Char.c ****     /* Write high nibble */
 289:.\Generated_Source\PSoC4/LCD_Char.c **** 	nibble = dByte >> LCD_Char_NIBBLE_SHIFT;
 290:.\Generated_Source\PSoC4/LCD_Char.c ****     LCD_Char_WrDatNib(nibble);
 291:.\Generated_Source\PSoC4/LCD_Char.c **** 
 292:.\Generated_Source\PSoC4/LCD_Char.c ****      CyDelayUs(LCD_Char_NIB_DELAY_US);
 293:.\Generated_Source\PSoC4/LCD_Char.c **** 	 
 294:.\Generated_Source\PSoC4/LCD_Char.c ****     /* Write low nibble */
 295:.\Generated_Source\PSoC4/LCD_Char.c **** 	nibble = dByte & LCD_Char_NIBBLE_MASK;
 296:.\Generated_Source\PSoC4/LCD_Char.c ****     LCD_Char_WrDatNib(nibble);
 297:.\Generated_Source\PSoC4/LCD_Char.c **** 	
 298:.\Generated_Source\PSoC4/LCD_Char.c **** 	CyDelayUs(LCD_Char_DATA_DELAY_US);
 299:.\Generated_Source\PSoC4/LCD_Char.c **** 
 300:.\Generated_Source\PSoC4/LCD_Char.c **** }
 301:.\Generated_Source\PSoC4/LCD_Char.c **** 
 302:.\Generated_Source\PSoC4/LCD_Char.c **** 
 303:.\Generated_Source\PSoC4/LCD_Char.c **** /*******************************************************************************
 304:.\Generated_Source\PSoC4/LCD_Char.c **** *  Function Name: LCD_Char_WriteControl
 305:.\Generated_Source\PSoC4/LCD_Char.c **** ********************************************************************************
 306:.\Generated_Source\PSoC4/LCD_Char.c **** *
 307:.\Generated_Source\PSoC4/LCD_Char.c **** * Summary:
 308:.\Generated_Source\PSoC4/LCD_Char.c **** *  Writes a command byte to the LCD module.
 309:.\Generated_Source\PSoC4/LCD_Char.c **** *
 310:.\Generated_Source\PSoC4/LCD_Char.c **** * Parameters:
 311:.\Generated_Source\PSoC4/LCD_Char.c **** *  cByte:   byte to be written to LCD module.
 312:.\Generated_Source\PSoC4/LCD_Char.c **** *
 313:.\Generated_Source\PSoC4/LCD_Char.c **** * Return:
 314:.\Generated_Source\PSoC4/LCD_Char.c **** *  None.
 315:.\Generated_Source\PSoC4/LCD_Char.c **** *
 316:.\Generated_Source\PSoC4/LCD_Char.c **** *******************************************************************************/
 317:.\Generated_Source\PSoC4/LCD_Char.c **** void LCD_Char_WriteControl(uint8 cByte) 
 318:.\Generated_Source\PSoC4/LCD_Char.c **** {
ARM GAS  C:\Users\Bryan\AppData\Local\Temp\ccjR079e.s 			page 7


 319:.\Generated_Source\PSoC4/LCD_Char.c ****     uint8 nibble;
 320:.\Generated_Source\PSoC4/LCD_Char.c **** 
 321:.\Generated_Source\PSoC4/LCD_Char.c ****     /* WrCntrlNib(High Nibble) */
 322:.\Generated_Source\PSoC4/LCD_Char.c **** 	 nibble = cByte >> LCD_Char_NIBBLE_SHIFT;
 323:.\Generated_Source\PSoC4/LCD_Char.c ****     LCD_Char_WrCntrlNib(nibble);
 324:.\Generated_Source\PSoC4/LCD_Char.c **** 
 325:.\Generated_Source\PSoC4/LCD_Char.c ****     CyDelayUs(LCD_Char_NIB_DELAY_US);
 326:.\Generated_Source\PSoC4/LCD_Char.c **** 	
 327:.\Generated_Source\PSoC4/LCD_Char.c ****     /* WrCntrlNib(Low Nibble) */
 328:.\Generated_Source\PSoC4/LCD_Char.c **** 	nibble = cByte & LCD_Char_NIBBLE_MASK;
 329:.\Generated_Source\PSoC4/LCD_Char.c ****     LCD_Char_WrCntrlNib(nibble);
 330:.\Generated_Source\PSoC4/LCD_Char.c **** 
 331:.\Generated_Source\PSoC4/LCD_Char.c ****      CyDelayUs(LCD_Char_CMD_DELAY_US);
 332:.\Generated_Source\PSoC4/LCD_Char.c **** }
 333:.\Generated_Source\PSoC4/LCD_Char.c **** 
 334:.\Generated_Source\PSoC4/LCD_Char.c **** 
 335:.\Generated_Source\PSoC4/LCD_Char.c **** /*******************************************************************************
 336:.\Generated_Source\PSoC4/LCD_Char.c **** * Function Name: LCD_Char_IsReady
 337:.\Generated_Source\PSoC4/LCD_Char.c **** ********************************************************************************
 338:.\Generated_Source\PSoC4/LCD_Char.c **** *
 339:.\Generated_Source\PSoC4/LCD_Char.c **** * Summary:
 340:.\Generated_Source\PSoC4/LCD_Char.c **** *  Polls LCD until the ready bit is set.
 341:.\Generated_Source\PSoC4/LCD_Char.c **** *
 342:.\Generated_Source\PSoC4/LCD_Char.c **** * Parameters:
 343:.\Generated_Source\PSoC4/LCD_Char.c **** *  None.
 344:.\Generated_Source\PSoC4/LCD_Char.c **** *
 345:.\Generated_Source\PSoC4/LCD_Char.c **** * Return:
 346:.\Generated_Source\PSoC4/LCD_Char.c **** *  None.
 347:.\Generated_Source\PSoC4/LCD_Char.c **** *
 348:.\Generated_Source\PSoC4/LCD_Char.c **** * Note:
 349:.\Generated_Source\PSoC4/LCD_Char.c **** *  Changes pins to High-Z.
 350:.\Generated_Source\PSoC4/LCD_Char.c **** *
 351:.\Generated_Source\PSoC4/LCD_Char.c **** *******************************************************************************/
 352:.\Generated_Source\PSoC4/LCD_Char.c **** void LCD_Char_IsReady(void) 
 353:.\Generated_Source\PSoC4/LCD_Char.c **** {
 354:.\Generated_Source\PSoC4/LCD_Char.c ****    
 355:.\Generated_Source\PSoC4/LCD_Char.c **** 	CyDelay(1u);
 356:.\Generated_Source\PSoC4/LCD_Char.c **** 	
 357:.\Generated_Source\PSoC4/LCD_Char.c **** }
 358:.\Generated_Source\PSoC4/LCD_Char.c **** 
 359:.\Generated_Source\PSoC4/LCD_Char.c **** 
 360:.\Generated_Source\PSoC4/LCD_Char.c **** /*******************************************************************************
 361:.\Generated_Source\PSoC4/LCD_Char.c **** *  Function Name: LCD_Char_WrDatNib
 362:.\Generated_Source\PSoC4/LCD_Char.c **** ********************************************************************************
 363:.\Generated_Source\PSoC4/LCD_Char.c **** *
 364:.\Generated_Source\PSoC4/LCD_Char.c **** * Summary:
 365:.\Generated_Source\PSoC4/LCD_Char.c **** *  Writes a data nibble to the LCD module.
 366:.\Generated_Source\PSoC4/LCD_Char.c **** *
 367:.\Generated_Source\PSoC4/LCD_Char.c **** * Parameters:
 368:.\Generated_Source\PSoC4/LCD_Char.c **** *  nibble:  byte containing nibble in least significant nibble to be written
 369:.\Generated_Source\PSoC4/LCD_Char.c **** *           to LCD module.
 370:.\Generated_Source\PSoC4/LCD_Char.c **** *
 371:.\Generated_Source\PSoC4/LCD_Char.c **** * Return:
 372:.\Generated_Source\PSoC4/LCD_Char.c **** *  None.
 373:.\Generated_Source\PSoC4/LCD_Char.c **** *
 374:.\Generated_Source\PSoC4/LCD_Char.c **** *******************************************************************************/
 375:.\Generated_Source\PSoC4/LCD_Char.c **** static void LCD_Char_WrDatNib(uint8 nibble) 
ARM GAS  C:\Users\Bryan\AppData\Local\Temp\ccjR079e.s 			page 8


 376:.\Generated_Source\PSoC4/LCD_Char.c **** {
 377:.\Generated_Source\PSoC4/LCD_Char.c **** 
 378:.\Generated_Source\PSoC4/LCD_Char.c ****     /* RS shoul be low to select data register */
 379:.\Generated_Source\PSoC4/LCD_Char.c ****     LCD_Char_CNTL_REG |= LCD_Char_RS;
 380:.\Generated_Source\PSoC4/LCD_Char.c ****     /* Reset RW for write operation */
 381:.\Generated_Source\PSoC4/LCD_Char.c ****     LCD_Char_CNTL_REG &= ~LCD_Char_RW;
 382:.\Generated_Source\PSoC4/LCD_Char.c **** 
 383:.\Generated_Source\PSoC4/LCD_Char.c ****     /* Two following lines of code will provide us with 40ns delay */
 384:.\Generated_Source\PSoC4/LCD_Char.c ****     /* Clear data pins */
 385:.\Generated_Source\PSoC4/LCD_Char.c ****     LCD_Char_CNTL_REG &= ~LCD_Char_DATA_MASK;
 386:.\Generated_Source\PSoC4/LCD_Char.c **** 
 387:.\Generated_Source\PSoC4/LCD_Char.c ****     /* Write in data, bring E high*/
 388:.\Generated_Source\PSoC4/LCD_Char.c ****     LCD_Char_CNTL_REG |= (LCD_Char_E | nibble);
 389:.\Generated_Source\PSoC4/LCD_Char.c **** 
 390:.\Generated_Source\PSoC4/LCD_Char.c ****     /* Minimum of 230 ns delay */
 391:.\Generated_Source\PSoC4/LCD_Char.c ****     CyDelayUs(1u);
 392:.\Generated_Source\PSoC4/LCD_Char.c **** 
 393:.\Generated_Source\PSoC4/LCD_Char.c ****     LCD_Char_CNTL_REG &= ~LCD_Char_E;
 394:.\Generated_Source\PSoC4/LCD_Char.c **** 	
 395:.\Generated_Source\PSoC4/LCD_Char.c **** }
 396:.\Generated_Source\PSoC4/LCD_Char.c **** 
 397:.\Generated_Source\PSoC4/LCD_Char.c **** 
 398:.\Generated_Source\PSoC4/LCD_Char.c **** /*******************************************************************************
 399:.\Generated_Source\PSoC4/LCD_Char.c **** *  Function Name: LCD_Char_WrCntrlNib
 400:.\Generated_Source\PSoC4/LCD_Char.c **** ********************************************************************************
 401:.\Generated_Source\PSoC4/LCD_Char.c **** *
 402:.\Generated_Source\PSoC4/LCD_Char.c **** * Summary:
 403:.\Generated_Source\PSoC4/LCD_Char.c **** *  Writes a control nibble to the LCD module.
 404:.\Generated_Source\PSoC4/LCD_Char.c **** *
 405:.\Generated_Source\PSoC4/LCD_Char.c **** * Parameters:
 406:.\Generated_Source\PSoC4/LCD_Char.c **** *  nibble:  byte containing nibble in least significant nibble to be written
 407:.\Generated_Source\PSoC4/LCD_Char.c **** *           to LCD module.
 408:.\Generated_Source\PSoC4/LCD_Char.c **** *
 409:.\Generated_Source\PSoC4/LCD_Char.c **** * Return:
 410:.\Generated_Source\PSoC4/LCD_Char.c **** *  None.
 411:.\Generated_Source\PSoC4/LCD_Char.c **** *
 412:.\Generated_Source\PSoC4/LCD_Char.c **** *******************************************************************************/
 413:.\Generated_Source\PSoC4/LCD_Char.c **** static void LCD_Char_WrCntrlNib(uint8 nibble) 
 414:.\Generated_Source\PSoC4/LCD_Char.c **** {
  25              		.loc 1 414 0
  26              		.cfi_startproc
  27              	.LVL0:
  28 0000 10B5     		push	{r4, lr}
  29              		.cfi_def_cfa_offset 8
  30              		.cfi_offset 4, -8
  31              		.cfi_offset 14, -4
 415:.\Generated_Source\PSoC4/LCD_Char.c **** 	
 416:.\Generated_Source\PSoC4/LCD_Char.c **** 	/* RS and RW shoul be low to select instruction register and  write operation respectively */
 417:.\Generated_Source\PSoC4/LCD_Char.c ****     LCD_Char_CNTL_REG &= ~(LCD_Char_RS | LCD_Char_RW);
  32              		.loc 1 417 0
  33 0002 0B4C     		ldr	r4, .L2
  34 0004 2378     		ldrb	r3, [r4]
  35 0006 6022     		mov	r2, #96
  36 0008 9343     		bic	r3, r2
  37 000a 2370     		strb	r3, [r4]
 418:.\Generated_Source\PSoC4/LCD_Char.c **** 
 419:.\Generated_Source\PSoC4/LCD_Char.c ****     /* Two following lines of code will give provide ua with 40ns delay */
ARM GAS  C:\Users\Bryan\AppData\Local\Temp\ccjR079e.s 			page 9


 420:.\Generated_Source\PSoC4/LCD_Char.c ****     /* Clear data pins */
 421:.\Generated_Source\PSoC4/LCD_Char.c ****     LCD_Char_CNTL_REG &= ~LCD_Char_DATA_MASK;
  38              		.loc 1 421 0
  39 000c 2378     		ldrb	r3, [r4]
  40 000e 513A     		sub	r2, r2, #81
  41 0010 9343     		bic	r3, r2
  42 0012 2370     		strb	r3, [r4]
 422:.\Generated_Source\PSoC4/LCD_Char.c **** 
 423:.\Generated_Source\PSoC4/LCD_Char.c ****     /* Write control data and set enable signal */
 424:.\Generated_Source\PSoC4/LCD_Char.c ****     LCD_Char_CNTL_REG |= (LCD_Char_E | nibble);
  43              		.loc 1 424 0
  44 0014 2378     		ldrb	r3, [r4]
  45 0016 1843     		orr	r0, r3
  46              	.LVL1:
  47 0018 1023     		mov	r3, #16
  48 001a 1843     		orr	r0, r3
  49 001c 2070     		strb	r0, [r4]
 425:.\Generated_Source\PSoC4/LCD_Char.c **** 
 426:.\Generated_Source\PSoC4/LCD_Char.c ****     /* Minimum of 230 ns delay */
 427:.\Generated_Source\PSoC4/LCD_Char.c ****     CyDelayUs(1u);
  50              		.loc 1 427 0
  51 001e 0120     		mov	r0, #1
  52 0020 FFF7FEFF 		bl	CyDelayUs
  53              	.LVL2:
 428:.\Generated_Source\PSoC4/LCD_Char.c **** 
 429:.\Generated_Source\PSoC4/LCD_Char.c ****     LCD_Char_CNTL_REG &= ~LCD_Char_E;
  54              		.loc 1 429 0
  55 0024 2378     		ldrb	r3, [r4]
  56 0026 1022     		mov	r2, #16
  57 0028 9343     		bic	r3, r2
  58 002a 2370     		strb	r3, [r4]
 430:.\Generated_Source\PSoC4/LCD_Char.c **** }
  59              		.loc 1 430 0
  60              		@ sp needed
  61 002c 10BD     		pop	{r4, pc}
  62              	.L3:
  63 002e C046     		.align	2
  64              	.L2:
  65 0030 72000F40 		.word	1074724978
  66              		.cfi_endproc
  67              	.LFE11:
  68              		.size	LCD_Char_WrCntrlNib, .-LCD_Char_WrCntrlNib
  69              		.section	.text.LCD_Char_WrDatNib,"ax",%progbits
  70              		.align	2
  71              		.code	16
  72              		.thumb_func
  73              		.type	LCD_Char_WrDatNib, %function
  74              	LCD_Char_WrDatNib:
  75              	.LFB10:
 376:.\Generated_Source\PSoC4/LCD_Char.c **** 
  76              		.loc 1 376 0
  77              		.cfi_startproc
  78              	.LVL3:
  79 0000 10B5     		push	{r4, lr}
  80              		.cfi_def_cfa_offset 8
  81              		.cfi_offset 4, -8
  82              		.cfi_offset 14, -4
ARM GAS  C:\Users\Bryan\AppData\Local\Temp\ccjR079e.s 			page 10


 379:.\Generated_Source\PSoC4/LCD_Char.c ****     /* Reset RW for write operation */
  83              		.loc 1 379 0
  84 0002 0D4C     		ldr	r4, .L5
  85 0004 2278     		ldrb	r2, [r4]
  86 0006 2023     		mov	r3, #32
  87 0008 1343     		orr	r3, r2
  88 000a 2370     		strb	r3, [r4]
 381:.\Generated_Source\PSoC4/LCD_Char.c **** 
  89              		.loc 1 381 0
  90 000c 2378     		ldrb	r3, [r4]
  91 000e 4022     		mov	r2, #64
  92 0010 9343     		bic	r3, r2
  93 0012 2370     		strb	r3, [r4]
 385:.\Generated_Source\PSoC4/LCD_Char.c **** 
  94              		.loc 1 385 0
  95 0014 2378     		ldrb	r3, [r4]
  96 0016 313A     		sub	r2, r2, #49
  97 0018 9343     		bic	r3, r2
  98 001a 2370     		strb	r3, [r4]
 388:.\Generated_Source\PSoC4/LCD_Char.c **** 
  99              		.loc 1 388 0
 100 001c 2378     		ldrb	r3, [r4]
 101 001e 1843     		orr	r0, r3
 102              	.LVL4:
 103 0020 1023     		mov	r3, #16
 104 0022 1843     		orr	r0, r3
 105 0024 2070     		strb	r0, [r4]
 391:.\Generated_Source\PSoC4/LCD_Char.c **** 
 106              		.loc 1 391 0
 107 0026 0120     		mov	r0, #1
 108 0028 FFF7FEFF 		bl	CyDelayUs
 109              	.LVL5:
 393:.\Generated_Source\PSoC4/LCD_Char.c **** 	
 110              		.loc 1 393 0
 111 002c 2378     		ldrb	r3, [r4]
 112 002e 1022     		mov	r2, #16
 113 0030 9343     		bic	r3, r2
 114 0032 2370     		strb	r3, [r4]
 395:.\Generated_Source\PSoC4/LCD_Char.c **** 
 115              		.loc 1 395 0
 116              		@ sp needed
 117 0034 10BD     		pop	{r4, pc}
 118              	.L6:
 119 0036 C046     		.align	2
 120              	.L5:
 121 0038 72000F40 		.word	1074724978
 122              		.cfi_endproc
 123              	.LFE10:
 124              		.size	LCD_Char_WrDatNib, .-LCD_Char_WrDatNib
 125              		.section	.text.LCD_Char_WriteData,"ax",%progbits
 126              		.align	2
 127              		.global	LCD_Char_WriteData
 128              		.code	16
 129              		.thumb_func
 130              		.type	LCD_Char_WriteData, %function
 131              	LCD_Char_WriteData:
 132              	.LFB7:
ARM GAS  C:\Users\Bryan\AppData\Local\Temp\ccjR079e.s 			page 11


 285:.\Generated_Source\PSoC4/LCD_Char.c ****     uint8 nibble;
 133              		.loc 1 285 0
 134              		.cfi_startproc
 135              	.LVL6:
 136 0000 10B5     		push	{r4, lr}
 137              		.cfi_def_cfa_offset 8
 138              		.cfi_offset 4, -8
 139              		.cfi_offset 14, -4
 140 0002 041C     		mov	r4, r0
 289:.\Generated_Source\PSoC4/LCD_Char.c ****     LCD_Char_WrDatNib(nibble);
 141              		.loc 1 289 0
 142 0004 0009     		lsr	r0, r0, #4
 143              	.LVL7:
 290:.\Generated_Source\PSoC4/LCD_Char.c **** 
 144              		.loc 1 290 0
 145 0006 FFF7FEFF 		bl	LCD_Char_WrDatNib
 146              	.LVL8:
 292:.\Generated_Source\PSoC4/LCD_Char.c **** 	 
 147              		.loc 1 292 0
 148 000a 6420     		mov	r0, #100
 149 000c FFF7FEFF 		bl	CyDelayUs
 150              	.LVL9:
 295:.\Generated_Source\PSoC4/LCD_Char.c ****     LCD_Char_WrDatNib(nibble);
 151              		.loc 1 295 0
 152 0010 0F20     		mov	r0, #15
 153 0012 2040     		and	r0, r4
 154              	.LVL10:
 296:.\Generated_Source\PSoC4/LCD_Char.c **** 	
 155              		.loc 1 296 0
 156 0014 FFF7FEFF 		bl	LCD_Char_WrDatNib
 157              	.LVL11:
 298:.\Generated_Source\PSoC4/LCD_Char.c **** 
 158              		.loc 1 298 0
 159 0018 9620     		mov	r0, #150
 160 001a FFF7FEFF 		bl	CyDelayUs
 161              	.LVL12:
 300:.\Generated_Source\PSoC4/LCD_Char.c **** 
 162              		.loc 1 300 0
 163              		@ sp needed
 164              	.LVL13:
 165 001e 10BD     		pop	{r4, pc}
 166              		.cfi_endproc
 167              	.LFE7:
 168              		.size	LCD_Char_WriteData, .-LCD_Char_WriteData
 169              		.section	.text.LCD_Char_PrintString,"ax",%progbits
 170              		.align	2
 171              		.global	LCD_Char_PrintString
 172              		.code	16
 173              		.thumb_func
 174              		.type	LCD_Char_PrintString, %function
 175              	LCD_Char_PrintString:
 176              	.LFB5:
 234:.\Generated_Source\PSoC4/LCD_Char.c ****     uint8 indexU8 = 1u;
 177              		.loc 1 234 0
 178              		.cfi_startproc
 179              	.LVL14:
 180 0000 38B5     		push	{r3, r4, r5, lr}
ARM GAS  C:\Users\Bryan\AppData\Local\Temp\ccjR079e.s 			page 12


 181              		.cfi_def_cfa_offset 16
 182              		.cfi_offset 3, -16
 183              		.cfi_offset 4, -12
 184              		.cfi_offset 5, -8
 185              		.cfi_offset 14, -4
 186 0002 051C     		mov	r5, r0
 187              	.LVL15:
 236:.\Generated_Source\PSoC4/LCD_Char.c **** 
 188              		.loc 1 236 0
 189 0004 0078     		ldrb	r0, [r0]
 190              	.LVL16:
 235:.\Generated_Source\PSoC4/LCD_Char.c ****     char8 current = *string;
 191              		.loc 1 235 0
 192 0006 0124     		mov	r4, #1
 239:.\Generated_Source\PSoC4/LCD_Char.c ****     {
 193              		.loc 1 239 0
 194 0008 04E0     		b	.L9
 195              	.LVL17:
 196              	.L10:
 241:.\Generated_Source\PSoC4/LCD_Char.c ****         current = string[indexU8];
 197              		.loc 1 241 0
 198 000a FFF7FEFF 		bl	LCD_Char_WriteData
 199              	.LVL18:
 242:.\Generated_Source\PSoC4/LCD_Char.c ****         indexU8++;
 200              		.loc 1 242 0
 201 000e 285D     		ldrb	r0, [r5, r4]
 202              	.LVL19:
 243:.\Generated_Source\PSoC4/LCD_Char.c ****     }
 203              		.loc 1 243 0
 204 0010 0134     		add	r4, r4, #1
 205              	.LVL20:
 206 0012 E4B2     		uxtb	r4, r4
 207              	.LVL21:
 208              	.L9:
 239:.\Generated_Source\PSoC4/LCD_Char.c ****     {
 209              		.loc 1 239 0
 210 0014 0028     		cmp	r0, #0
 211 0016 F8D1     		bne	.L10
 245:.\Generated_Source\PSoC4/LCD_Char.c **** 
 212              		.loc 1 245 0
 213              		@ sp needed
 214              	.LVL22:
 215              	.LVL23:
 216 0018 38BD     		pop	{r3, r4, r5, pc}
 217              		.cfi_endproc
 218              	.LFE5:
 219              		.size	LCD_Char_PrintString, .-LCD_Char_PrintString
 220 001a C046     		.section	.text.LCD_Char_PutChar,"ax",%progbits
 221              		.align	2
 222              		.global	LCD_Char_PutChar
 223              		.code	16
 224              		.thumb_func
 225              		.type	LCD_Char_PutChar, %function
 226              	LCD_Char_PutChar:
 227              	.LFB6:
 265:.\Generated_Source\PSoC4/LCD_Char.c ****     LCD_Char_WriteData((uint8)character);
 228              		.loc 1 265 0
ARM GAS  C:\Users\Bryan\AppData\Local\Temp\ccjR079e.s 			page 13


 229              		.cfi_startproc
 230              	.LVL24:
 231 0000 08B5     		push	{r3, lr}
 232              		.cfi_def_cfa_offset 8
 233              		.cfi_offset 3, -8
 234              		.cfi_offset 14, -4
 266:.\Generated_Source\PSoC4/LCD_Char.c **** }
 235              		.loc 1 266 0
 236 0002 FFF7FEFF 		bl	LCD_Char_WriteData
 237              	.LVL25:
 267:.\Generated_Source\PSoC4/LCD_Char.c **** 
 238              		.loc 1 267 0
 239              		@ sp needed
 240 0006 08BD     		pop	{r3, pc}
 241              		.cfi_endproc
 242              	.LFE6:
 243              		.size	LCD_Char_PutChar, .-LCD_Char_PutChar
 244              		.section	.text.LCD_Char_WriteControl,"ax",%progbits
 245              		.align	2
 246              		.global	LCD_Char_WriteControl
 247              		.code	16
 248              		.thumb_func
 249              		.type	LCD_Char_WriteControl, %function
 250              	LCD_Char_WriteControl:
 251              	.LFB8:
 318:.\Generated_Source\PSoC4/LCD_Char.c ****     uint8 nibble;
 252              		.loc 1 318 0
 253              		.cfi_startproc
 254              	.LVL26:
 255 0000 10B5     		push	{r4, lr}
 256              		.cfi_def_cfa_offset 8
 257              		.cfi_offset 4, -8
 258              		.cfi_offset 14, -4
 259 0002 041C     		mov	r4, r0
 322:.\Generated_Source\PSoC4/LCD_Char.c ****     LCD_Char_WrCntrlNib(nibble);
 260              		.loc 1 322 0
 261 0004 0009     		lsr	r0, r0, #4
 262              	.LVL27:
 323:.\Generated_Source\PSoC4/LCD_Char.c **** 
 263              		.loc 1 323 0
 264 0006 FFF7FEFF 		bl	LCD_Char_WrCntrlNib
 265              	.LVL28:
 325:.\Generated_Source\PSoC4/LCD_Char.c **** 	
 266              		.loc 1 325 0
 267 000a 6420     		mov	r0, #100
 268 000c FFF7FEFF 		bl	CyDelayUs
 269              	.LVL29:
 328:.\Generated_Source\PSoC4/LCD_Char.c ****     LCD_Char_WrCntrlNib(nibble);
 270              		.loc 1 328 0
 271 0010 0F20     		mov	r0, #15
 272 0012 2040     		and	r0, r4
 273              	.LVL30:
 329:.\Generated_Source\PSoC4/LCD_Char.c **** 
 274              		.loc 1 329 0
 275 0014 FFF7FEFF 		bl	LCD_Char_WrCntrlNib
 276              	.LVL31:
 331:.\Generated_Source\PSoC4/LCD_Char.c **** }
ARM GAS  C:\Users\Bryan\AppData\Local\Temp\ccjR079e.s 			page 14


 277              		.loc 1 331 0
 278 0018 0148     		ldr	r0, .L13
 279 001a FFF7FEFF 		bl	CyDelayUs
 280              	.LVL32:
 332:.\Generated_Source\PSoC4/LCD_Char.c **** 
 281              		.loc 1 332 0
 282              		@ sp needed
 283              	.LVL33:
 284 001e 10BD     		pop	{r4, pc}
 285              	.L14:
 286              		.align	2
 287              	.L13:
 288 0020 DC050000 		.word	1500
 289              		.cfi_endproc
 290              	.LFE8:
 291              		.size	LCD_Char_WriteControl, .-LCD_Char_WriteControl
 292              		.section	.text.LCD_Char_Init,"ax",%progbits
 293              		.align	2
 294              		.global	LCD_Char_Init
 295              		.code	16
 296              		.thumb_func
 297              		.type	LCD_Char_Init, %function
 298              	LCD_Char_Init:
 299              	.LFB0:
  56:.\Generated_Source\PSoC4/LCD_Char.c ****     /* INIT CODE */
 300              		.loc 1 56 0
 301              		.cfi_startproc
 302 0000 08B5     		push	{r3, lr}
 303              		.cfi_def_cfa_offset 8
 304              		.cfi_offset 3, -8
 305              		.cfi_offset 14, -4
  58:.\Generated_Source\PSoC4/LCD_Char.c ****     LCD_Char_WrCntrlNib(LCD_Char_DISPLAY_8_BIT_INIT);   /* Selects 8-bit mode */
 306              		.loc 1 58 0
 307 0002 2820     		mov	r0, #40
 308 0004 FFF7FEFF 		bl	CyDelay
 309              	.LVL34:
  59:.\Generated_Source\PSoC4/LCD_Char.c ****     CyDelay(5u);                                                         /* Delay 5 ms */
 310              		.loc 1 59 0
 311 0008 0320     		mov	r0, #3
 312 000a FFF7FEFF 		bl	LCD_Char_WrCntrlNib
 313              	.LVL35:
  60:.\Generated_Source\PSoC4/LCD_Char.c ****     LCD_Char_WrCntrlNib(LCD_Char_DISPLAY_8_BIT_INIT);   /* Selects 8-bit mode */
 314              		.loc 1 60 0
 315 000e 0520     		mov	r0, #5
 316 0010 FFF7FEFF 		bl	CyDelay
 317              	.LVL36:
  61:.\Generated_Source\PSoC4/LCD_Char.c ****     CyDelay(15u);                                                        /* Delay 15 ms */
 318              		.loc 1 61 0
 319 0014 0320     		mov	r0, #3
 320 0016 FFF7FEFF 		bl	LCD_Char_WrCntrlNib
 321              	.LVL37:
  62:.\Generated_Source\PSoC4/LCD_Char.c ****     LCD_Char_WrCntrlNib(LCD_Char_DISPLAY_8_BIT_INIT);   /* Selects 8-bit mode */
 322              		.loc 1 62 0
 323 001a 0F20     		mov	r0, #15
 324 001c FFF7FEFF 		bl	CyDelay
 325              	.LVL38:
  63:.\Generated_Source\PSoC4/LCD_Char.c ****     CyDelay(1u);                                                         /* Delay 1 ms */
ARM GAS  C:\Users\Bryan\AppData\Local\Temp\ccjR079e.s 			page 15


 326              		.loc 1 63 0
 327 0020 0320     		mov	r0, #3
 328 0022 FFF7FEFF 		bl	LCD_Char_WrCntrlNib
 329              	.LVL39:
  64:.\Generated_Source\PSoC4/LCD_Char.c ****     LCD_Char_WrCntrlNib(LCD_Char_DISPLAY_4_BIT_INIT);   /* Selects 4-bit mode */
 330              		.loc 1 64 0
 331 0026 0120     		mov	r0, #1
 332 0028 FFF7FEFF 		bl	CyDelay
 333              	.LVL40:
  65:.\Generated_Source\PSoC4/LCD_Char.c ****     CyDelay(5u);                                                         /* Delay 5 ms */
 334              		.loc 1 65 0
 335 002c 0220     		mov	r0, #2
 336 002e FFF7FEFF 		bl	LCD_Char_WrCntrlNib
 337              	.LVL41:
  66:.\Generated_Source\PSoC4/LCD_Char.c **** 
 338              		.loc 1 66 0
 339 0032 0520     		mov	r0, #5
 340 0034 FFF7FEFF 		bl	CyDelay
 341              	.LVL42:
  68:.\Generated_Source\PSoC4/LCD_Char.c ****     LCD_Char_WriteControl(LCD_Char_DISPLAY_CURSOR_ON);      /* Turn Display, Cursor ON */
 342              		.loc 1 68 0
 343 0038 0620     		mov	r0, #6
 344 003a FFF7FEFF 		bl	LCD_Char_WriteControl
 345              	.LVL43:
  69:.\Generated_Source\PSoC4/LCD_Char.c ****     LCD_Char_WriteControl(LCD_Char_DISPLAY_2_LINES_5x10);   /* 2 Lines by 5x10 Characters */
 346              		.loc 1 69 0
 347 003e 0E20     		mov	r0, #14
 348 0040 FFF7FEFF 		bl	LCD_Char_WriteControl
 349              	.LVL44:
  70:.\Generated_Source\PSoC4/LCD_Char.c ****     LCD_Char_WriteControl(LCD_Char_DISPLAY_CURSOR_OFF);     /* Turn Display, Cursor OFF */
 350              		.loc 1 70 0
 351 0044 2C20     		mov	r0, #44
 352 0046 FFF7FEFF 		bl	LCD_Char_WriteControl
 353              	.LVL45:
  71:.\Generated_Source\PSoC4/LCD_Char.c ****     LCD_Char_WriteControl(LCD_Char_CLEAR_DISPLAY);          /* Clear LCD Screen */
 354              		.loc 1 71 0
 355 004a 0820     		mov	r0, #8
 356 004c FFF7FEFF 		bl	LCD_Char_WriteControl
 357              	.LVL46:
  72:.\Generated_Source\PSoC4/LCD_Char.c ****     LCD_Char_WriteControl(LCD_Char_DISPLAY_ON_CURSOR_OFF);  /* Turn Display ON, Cursor OFF */
 358              		.loc 1 72 0
 359 0050 0120     		mov	r0, #1
 360 0052 FFF7FEFF 		bl	LCD_Char_WriteControl
 361              	.LVL47:
  73:.\Generated_Source\PSoC4/LCD_Char.c ****     LCD_Char_WriteControl(LCD_Char_RESET_CURSOR_POSITION);  /* Set Cursor to 0,0 */
 362              		.loc 1 73 0
 363 0056 0C20     		mov	r0, #12
 364 0058 FFF7FEFF 		bl	LCD_Char_WriteControl
 365              	.LVL48:
  74:.\Generated_Source\PSoC4/LCD_Char.c ****     CyDelay(5u);
 366              		.loc 1 74 0
 367 005c 0320     		mov	r0, #3
 368 005e FFF7FEFF 		bl	LCD_Char_WriteControl
 369              	.LVL49:
  75:.\Generated_Source\PSoC4/LCD_Char.c **** 
 370              		.loc 1 75 0
 371 0062 0520     		mov	r0, #5
ARM GAS  C:\Users\Bryan\AppData\Local\Temp\ccjR079e.s 			page 16


 372 0064 FFF7FEFF 		bl	CyDelay
 373              	.LVL50:
  80:.\Generated_Source\PSoC4/LCD_Char.c **** 
 374              		.loc 1 80 0
 375              		@ sp needed
 376 0068 08BD     		pop	{r3, pc}
 377              		.cfi_endproc
 378              	.LFE0:
 379              		.size	LCD_Char_Init, .-LCD_Char_Init
 380 006a C046     		.section	.text.LCD_Char_Enable,"ax",%progbits
 381              		.align	2
 382              		.global	LCD_Char_Enable
 383              		.code	16
 384              		.thumb_func
 385              		.type	LCD_Char_Enable, %function
 386              	LCD_Char_Enable:
 387              	.LFB1:
 105:.\Generated_Source\PSoC4/LCD_Char.c ****     LCD_Char_DisplayOn();
 388              		.loc 1 105 0
 389              		.cfi_startproc
 390 0000 08B5     		push	{r3, lr}
 391              		.cfi_def_cfa_offset 8
 392              		.cfi_offset 3, -8
 393              		.cfi_offset 14, -4
 106:.\Generated_Source\PSoC4/LCD_Char.c ****     LCD_Char_enableState = 1u;
 394              		.loc 1 106 0
 395 0002 0C20     		mov	r0, #12
 396 0004 FFF7FEFF 		bl	LCD_Char_WriteControl
 397              	.LVL51:
 107:.\Generated_Source\PSoC4/LCD_Char.c **** }
 398              		.loc 1 107 0
 399 0008 0122     		mov	r2, #1
 400 000a 014B     		ldr	r3, .L17
 401 000c 1A70     		strb	r2, [r3]
 108:.\Generated_Source\PSoC4/LCD_Char.c **** 
 402              		.loc 1 108 0
 403              		@ sp needed
 404 000e 08BD     		pop	{r3, pc}
 405              	.L18:
 406              		.align	2
 407              	.L17:
 408 0010 00000000 		.word	.LANCHOR0
 409              		.cfi_endproc
 410              	.LFE1:
 411              		.size	LCD_Char_Enable, .-LCD_Char_Enable
 412              		.section	.text.LCD_Char_Start,"ax",%progbits
 413              		.align	2
 414              		.global	LCD_Char_Start
 415              		.code	16
 416              		.thumb_func
 417              		.type	LCD_Char_Start, %function
 418              	LCD_Char_Start:
 419              	.LFB2:
 138:.\Generated_Source\PSoC4/LCD_Char.c ****     /* If not initialized then perform initialization */
 420              		.loc 1 138 0
 421              		.cfi_startproc
 422 0000 08B5     		push	{r3, lr}
ARM GAS  C:\Users\Bryan\AppData\Local\Temp\ccjR079e.s 			page 17


 423              		.cfi_def_cfa_offset 8
 424              		.cfi_offset 3, -8
 425              		.cfi_offset 14, -4
 140:.\Generated_Source\PSoC4/LCD_Char.c ****     {
 426              		.loc 1 140 0
 427 0002 064B     		ldr	r3, .L21
 428 0004 5B78     		ldrb	r3, [r3, #1]
 429 0006 002B     		cmp	r3, #0
 430 0008 04D1     		bne	.L20
 142:.\Generated_Source\PSoC4/LCD_Char.c ****         LCD_Char_initVar = 1u;
 431              		.loc 1 142 0
 432 000a FFF7FEFF 		bl	LCD_Char_Init
 433              	.LVL52:
 143:.\Generated_Source\PSoC4/LCD_Char.c ****     }
 434              		.loc 1 143 0
 435 000e 0122     		mov	r2, #1
 436 0010 024B     		ldr	r3, .L21
 437 0012 5A70     		strb	r2, [r3, #1]
 438              	.L20:
 147:.\Generated_Source\PSoC4/LCD_Char.c **** }
 439              		.loc 1 147 0
 440 0014 FFF7FEFF 		bl	LCD_Char_Enable
 441              	.LVL53:
 148:.\Generated_Source\PSoC4/LCD_Char.c **** 
 442              		.loc 1 148 0
 443              		@ sp needed
 444 0018 08BD     		pop	{r3, pc}
 445              	.L22:
 446 001a C046     		.align	2
 447              	.L21:
 448 001c 00000000 		.word	.LANCHOR0
 449              		.cfi_endproc
 450              	.LFE2:
 451              		.size	LCD_Char_Start, .-LCD_Char_Start
 452              		.section	.text.LCD_Char_Stop,"ax",%progbits
 453              		.align	2
 454              		.global	LCD_Char_Stop
 455              		.code	16
 456              		.thumb_func
 457              		.type	LCD_Char_Stop, %function
 458              	LCD_Char_Stop:
 459              	.LFB3:
 169:.\Generated_Source\PSoC4/LCD_Char.c ****     /* Calls LCD Off Macro */
 460              		.loc 1 169 0
 461              		.cfi_startproc
 462 0000 08B5     		push	{r3, lr}
 463              		.cfi_def_cfa_offset 8
 464              		.cfi_offset 3, -8
 465              		.cfi_offset 14, -4
 171:.\Generated_Source\PSoC4/LCD_Char.c ****     LCD_Char_enableState = 0u;
 466              		.loc 1 171 0
 467 0002 0820     		mov	r0, #8
 468 0004 FFF7FEFF 		bl	LCD_Char_WriteControl
 469              	.LVL54:
 172:.\Generated_Source\PSoC4/LCD_Char.c **** }
 470              		.loc 1 172 0
 471 0008 0022     		mov	r2, #0
ARM GAS  C:\Users\Bryan\AppData\Local\Temp\ccjR079e.s 			page 18


 472 000a 014B     		ldr	r3, .L24
 473 000c 1A70     		strb	r2, [r3]
 173:.\Generated_Source\PSoC4/LCD_Char.c **** 
 474              		.loc 1 173 0
 475              		@ sp needed
 476 000e 08BD     		pop	{r3, pc}
 477              	.L25:
 478              		.align	2
 479              	.L24:
 480 0010 00000000 		.word	.LANCHOR0
 481              		.cfi_endproc
 482              	.LFE3:
 483              		.size	LCD_Char_Stop, .-LCD_Char_Stop
 484              		.section	.text.LCD_Char_Position,"ax",%progbits
 485              		.align	2
 486              		.global	LCD_Char_Position
 487              		.code	16
 488              		.thumb_func
 489              		.type	LCD_Char_Position, %function
 490              	LCD_Char_Position:
 491              	.LFB4:
 197:.\Generated_Source\PSoC4/LCD_Char.c ****     switch (row)
 492              		.loc 1 197 0
 493              		.cfi_startproc
 494              	.LVL55:
 495 0000 08B5     		push	{r3, lr}
 496              		.cfi_def_cfa_offset 8
 497              		.cfi_offset 3, -8
 498              		.cfi_offset 14, -4
 198:.\Generated_Source\PSoC4/LCD_Char.c ****     {
 499              		.loc 1 198 0
 500 0002 0128     		cmp	r0, #1
 501 0004 0BD0     		beq	.L28
 502 0006 0028     		cmp	r0, #0
 503 0008 04D0     		beq	.L29
 504 000a 0228     		cmp	r0, #2
 505 000c 0CD0     		beq	.L30
 506 000e 0328     		cmp	r0, #3
 507 0010 0FD0     		beq	.L31
 508 0012 12E0     		b	.L26
 509              	.L29:
 201:.\Generated_Source\PSoC4/LCD_Char.c ****             break;
 510              		.loc 1 201 0
 511 0014 8039     		sub	r1, r1, #128
 512              	.LVL56:
 513 0016 C8B2     		uxtb	r0, r1
 514              	.LVL57:
 515 0018 FFF7FEFF 		bl	LCD_Char_WriteControl
 516              	.LVL58:
 202:.\Generated_Source\PSoC4/LCD_Char.c ****         case (uint8) 1:
 517              		.loc 1 202 0
 518 001c 0DE0     		b	.L26
 519              	.LVL59:
 520              	.L28:
 204:.\Generated_Source\PSoC4/LCD_Char.c ****             break;
 521              		.loc 1 204 0
 522 001e 4039     		sub	r1, r1, #64
ARM GAS  C:\Users\Bryan\AppData\Local\Temp\ccjR079e.s 			page 19


 523              	.LVL60:
 524 0020 C8B2     		uxtb	r0, r1
 525              	.LVL61:
 526 0022 FFF7FEFF 		bl	LCD_Char_WriteControl
 527              	.LVL62:
 205:.\Generated_Source\PSoC4/LCD_Char.c ****         case (uint8) 2:
 528              		.loc 1 205 0
 529 0026 08E0     		b	.L26
 530              	.LVL63:
 531              	.L30:
 207:.\Generated_Source\PSoC4/LCD_Char.c ****             break;
 532              		.loc 1 207 0
 533 0028 6C39     		sub	r1, r1, #108
 534              	.LVL64:
 535 002a C8B2     		uxtb	r0, r1
 536              	.LVL65:
 537 002c FFF7FEFF 		bl	LCD_Char_WriteControl
 538              	.LVL66:
 208:.\Generated_Source\PSoC4/LCD_Char.c ****         case (uint8) 3:
 539              		.loc 1 208 0
 540 0030 03E0     		b	.L26
 541              	.LVL67:
 542              	.L31:
 210:.\Generated_Source\PSoC4/LCD_Char.c ****             break;
 543              		.loc 1 210 0
 544 0032 2C39     		sub	r1, r1, #44
 545              	.LVL68:
 546 0034 C8B2     		uxtb	r0, r1
 547              	.LVL69:
 548 0036 FFF7FEFF 		bl	LCD_Char_WriteControl
 549              	.LVL70:
 550              	.L26:
 216:.\Generated_Source\PSoC4/LCD_Char.c **** 
 551              		.loc 1 216 0
 552              		@ sp needed
 553 003a 08BD     		pop	{r3, pc}
 554              		.cfi_endproc
 555              	.LFE4:
 556              		.size	LCD_Char_Position, .-LCD_Char_Position
 557              		.section	.text.LCD_Char_IsReady,"ax",%progbits
 558              		.align	2
 559              		.global	LCD_Char_IsReady
 560              		.code	16
 561              		.thumb_func
 562              		.type	LCD_Char_IsReady, %function
 563              	LCD_Char_IsReady:
 564              	.LFB9:
 353:.\Generated_Source\PSoC4/LCD_Char.c ****    
 565              		.loc 1 353 0
 566              		.cfi_startproc
 567 0000 08B5     		push	{r3, lr}
 568              		.cfi_def_cfa_offset 8
 569              		.cfi_offset 3, -8
 570              		.cfi_offset 14, -4
 355:.\Generated_Source\PSoC4/LCD_Char.c **** 	
 571              		.loc 1 355 0
 572 0002 0120     		mov	r0, #1
ARM GAS  C:\Users\Bryan\AppData\Local\Temp\ccjR079e.s 			page 20


 573 0004 FFF7FEFF 		bl	CyDelay
 574              	.LVL71:
 357:.\Generated_Source\PSoC4/LCD_Char.c **** 
 575              		.loc 1 357 0
 576              		@ sp needed
 577 0008 08BD     		pop	{r3, pc}
 578              		.cfi_endproc
 579              	.LFE9:
 580              		.size	LCD_Char_IsReady, .-LCD_Char_IsReady
 581 000a C046     		.section	.text.LCD_Char_PrintInt8,"ax",%progbits
 582              		.align	2
 583              		.global	LCD_Char_PrintInt8
 584              		.code	16
 585              		.thumb_func
 586              		.type	LCD_Char_PrintInt8, %function
 587              	LCD_Char_PrintInt8:
 588              	.LFB12:
 431:.\Generated_Source\PSoC4/LCD_Char.c **** 
 432:.\Generated_Source\PSoC4/LCD_Char.c **** 
 433:.\Generated_Source\PSoC4/LCD_Char.c **** #if(LCD_Char_CONVERSION_ROUTINES == 1u)
 434:.\Generated_Source\PSoC4/LCD_Char.c **** 
 435:.\Generated_Source\PSoC4/LCD_Char.c ****     /*******************************************************************************
 436:.\Generated_Source\PSoC4/LCD_Char.c ****     *  Function Name: LCD_Char_PrintInt8
 437:.\Generated_Source\PSoC4/LCD_Char.c ****     ********************************************************************************
 438:.\Generated_Source\PSoC4/LCD_Char.c ****     *
 439:.\Generated_Source\PSoC4/LCD_Char.c ****     * Summary:
 440:.\Generated_Source\PSoC4/LCD_Char.c ****     *  Print a byte as two ASCII characters.
 441:.\Generated_Source\PSoC4/LCD_Char.c ****     *
 442:.\Generated_Source\PSoC4/LCD_Char.c ****     * Parameters:
 443:.\Generated_Source\PSoC4/LCD_Char.c ****     *  value:  The byte to be printed out as ASCII characters.
 444:.\Generated_Source\PSoC4/LCD_Char.c ****     *
 445:.\Generated_Source\PSoC4/LCD_Char.c ****     * Return:
 446:.\Generated_Source\PSoC4/LCD_Char.c ****     *  None.
 447:.\Generated_Source\PSoC4/LCD_Char.c ****     *
 448:.\Generated_Source\PSoC4/LCD_Char.c ****     *******************************************************************************/
 449:.\Generated_Source\PSoC4/LCD_Char.c ****     void LCD_Char_PrintInt8(uint8 value) 
 450:.\Generated_Source\PSoC4/LCD_Char.c ****     {
 589              		.loc 1 450 0
 590              		.cfi_startproc
 591              	.LVL72:
 592 0000 38B5     		push	{r3, r4, r5, lr}
 593              		.cfi_def_cfa_offset 16
 594              		.cfi_offset 3, -16
 595              		.cfi_offset 4, -12
 596              		.cfi_offset 5, -8
 597              		.cfi_offset 14, -4
 598 0002 041C     		mov	r4, r0
 451:.\Generated_Source\PSoC4/LCD_Char.c ****         static char8 const CYCODE LCD_Char_hex[16u] = "0123456789ABCDEF";
 452:.\Generated_Source\PSoC4/LCD_Char.c ****         
 453:.\Generated_Source\PSoC4/LCD_Char.c ****         LCD_Char_PutChar((char8) LCD_Char_hex[value >> LCD_Char_BYTE_UPPER_NIBBLE_SHIFT]);
 599              		.loc 1 453 0
 600 0004 0309     		lsr	r3, r0, #4
 601 0006 054D     		ldr	r5, .L34
 602 0008 E85C     		ldrb	r0, [r5, r3]
 603              	.LVL73:
 604 000a FFF7FEFF 		bl	LCD_Char_PutChar
 605              	.LVL74:
ARM GAS  C:\Users\Bryan\AppData\Local\Temp\ccjR079e.s 			page 21


 454:.\Generated_Source\PSoC4/LCD_Char.c ****         LCD_Char_PutChar((char8) LCD_Char_hex[value & LCD_Char_BYTE_LOWER_NIBBLE_MASK]);
 606              		.loc 1 454 0
 607 000e 0F23     		mov	r3, #15
 608 0010 1C40     		and	r4, r3
 609 0012 285D     		ldrb	r0, [r5, r4]
 610 0014 FFF7FEFF 		bl	LCD_Char_PutChar
 611              	.LVL75:
 455:.\Generated_Source\PSoC4/LCD_Char.c ****     }
 612              		.loc 1 455 0
 613              		@ sp needed
 614 0018 38BD     		pop	{r3, r4, r5, pc}
 615              	.L35:
 616 001a C046     		.align	2
 617              	.L34:
 618 001c 00000000 		.word	.LANCHOR1
 619              		.cfi_endproc
 620              	.LFE12:
 621              		.size	LCD_Char_PrintInt8, .-LCD_Char_PrintInt8
 622              		.section	.text.LCD_Char_PrintInt16,"ax",%progbits
 623              		.align	2
 624              		.global	LCD_Char_PrintInt16
 625              		.code	16
 626              		.thumb_func
 627              		.type	LCD_Char_PrintInt16, %function
 628              	LCD_Char_PrintInt16:
 629              	.LFB13:
 456:.\Generated_Source\PSoC4/LCD_Char.c **** 
 457:.\Generated_Source\PSoC4/LCD_Char.c **** 
 458:.\Generated_Source\PSoC4/LCD_Char.c ****     /*******************************************************************************
 459:.\Generated_Source\PSoC4/LCD_Char.c ****     *  Function Name: LCD_Char_PrintInt16
 460:.\Generated_Source\PSoC4/LCD_Char.c ****     ********************************************************************************
 461:.\Generated_Source\PSoC4/LCD_Char.c ****     *
 462:.\Generated_Source\PSoC4/LCD_Char.c ****     * Summary:
 463:.\Generated_Source\PSoC4/LCD_Char.c ****     *  Print a uint16 as four ASCII characters.
 464:.\Generated_Source\PSoC4/LCD_Char.c ****     *
 465:.\Generated_Source\PSoC4/LCD_Char.c ****     * Parameters:
 466:.\Generated_Source\PSoC4/LCD_Char.c ****     *  value:   The uint16 to be printed out as ASCII characters.
 467:.\Generated_Source\PSoC4/LCD_Char.c ****     *
 468:.\Generated_Source\PSoC4/LCD_Char.c ****     * Return:
 469:.\Generated_Source\PSoC4/LCD_Char.c ****     *  None.
 470:.\Generated_Source\PSoC4/LCD_Char.c ****     *
 471:.\Generated_Source\PSoC4/LCD_Char.c ****     *******************************************************************************/
 472:.\Generated_Source\PSoC4/LCD_Char.c ****     void LCD_Char_PrintInt16(uint16 value) 
 473:.\Generated_Source\PSoC4/LCD_Char.c ****     {
 630              		.loc 1 473 0
 631              		.cfi_startproc
 632              	.LVL76:
 633 0000 10B5     		push	{r4, lr}
 634              		.cfi_def_cfa_offset 8
 635              		.cfi_offset 4, -8
 636              		.cfi_offset 14, -4
 637 0002 041C     		mov	r4, r0
 474:.\Generated_Source\PSoC4/LCD_Char.c ****         LCD_Char_PrintInt8((uint8)(value >> LCD_Char_U16_UPPER_BYTE_SHIFT));
 638              		.loc 1 474 0
 639 0004 000A     		lsr	r0, r0, #8
 640              	.LVL77:
 641 0006 FFF7FEFF 		bl	LCD_Char_PrintInt8
ARM GAS  C:\Users\Bryan\AppData\Local\Temp\ccjR079e.s 			page 22


 642              	.LVL78:
 475:.\Generated_Source\PSoC4/LCD_Char.c ****         LCD_Char_PrintInt8((uint8)(value & LCD_Char_U16_LOWER_BYTE_MASK));
 643              		.loc 1 475 0
 644 000a E0B2     		uxtb	r0, r4
 645 000c FFF7FEFF 		bl	LCD_Char_PrintInt8
 646              	.LVL79:
 476:.\Generated_Source\PSoC4/LCD_Char.c ****     }
 647              		.loc 1 476 0
 648              		@ sp needed
 649 0010 10BD     		pop	{r4, pc}
 650              		.cfi_endproc
 651              	.LFE13:
 652              		.size	LCD_Char_PrintInt16, .-LCD_Char_PrintInt16
 653              		.global	__aeabi_uidivmod
 654              		.global	__aeabi_uidiv
 655 0012 C046     		.section	.text.LCD_Char_PrintNumber,"ax",%progbits
 656              		.align	2
 657              		.global	LCD_Char_PrintNumber
 658              		.code	16
 659              		.thumb_func
 660              		.type	LCD_Char_PrintNumber, %function
 661              	LCD_Char_PrintNumber:
 662              	.LFB14:
 477:.\Generated_Source\PSoC4/LCD_Char.c **** 
 478:.\Generated_Source\PSoC4/LCD_Char.c **** 
 479:.\Generated_Source\PSoC4/LCD_Char.c ****     /*******************************************************************************
 480:.\Generated_Source\PSoC4/LCD_Char.c ****     *  Function Name: LCD_Char_PrintNumber
 481:.\Generated_Source\PSoC4/LCD_Char.c ****     ********************************************************************************
 482:.\Generated_Source\PSoC4/LCD_Char.c ****     *
 483:.\Generated_Source\PSoC4/LCD_Char.c ****     * Summary:
 484:.\Generated_Source\PSoC4/LCD_Char.c ****     *  Print an uint32 value as a left-justified decimal value.
 485:.\Generated_Source\PSoC4/LCD_Char.c ****     *
 486:.\Generated_Source\PSoC4/LCD_Char.c ****     * Parameters:
 487:.\Generated_Source\PSoC4/LCD_Char.c ****     *  value:  The byte to be printed out as ASCII characters.
 488:.\Generated_Source\PSoC4/LCD_Char.c ****     *
 489:.\Generated_Source\PSoC4/LCD_Char.c ****     * Return:
 490:.\Generated_Source\PSoC4/LCD_Char.c ****     *  None.
 491:.\Generated_Source\PSoC4/LCD_Char.c ****     *
 492:.\Generated_Source\PSoC4/LCD_Char.c ****     *******************************************************************************/
 493:.\Generated_Source\PSoC4/LCD_Char.c ****     void LCD_Char_PrintNumber(uint16 value) 
 494:.\Generated_Source\PSoC4/LCD_Char.c ****     {
 663              		.loc 1 494 0
 664              		.cfi_startproc
 665              	.LVL80:
 666 0000 70B5     		push	{r4, r5, r6, lr}
 667              		.cfi_def_cfa_offset 16
 668              		.cfi_offset 4, -16
 669              		.cfi_offset 5, -12
 670              		.cfi_offset 6, -8
 671              		.cfi_offset 14, -4
 672 0002 84B0     		sub	sp, sp, #16
 673              		.cfi_def_cfa_offset 32
 674 0004 051C     		mov	r5, r0
 675              	.LVL81:
 495:.\Generated_Source\PSoC4/LCD_Char.c **** 
 496:.\Generated_Source\PSoC4/LCD_Char.c ****         char8 number[LCD_Char_NUMBER_OF_REMAINDERS];
 497:.\Generated_Source\PSoC4/LCD_Char.c ****         char8 temp[LCD_Char_NUMBER_OF_REMAINDERS];
ARM GAS  C:\Users\Bryan\AppData\Local\Temp\ccjR079e.s 			page 23


 498:.\Generated_Source\PSoC4/LCD_Char.c **** 
 499:.\Generated_Source\PSoC4/LCD_Char.c ****         uint8 digIndex = 0u;
 676              		.loc 1 499 0
 677 0006 0024     		mov	r4, #0
 500:.\Generated_Source\PSoC4/LCD_Char.c ****         uint8 numDigits;
 501:.\Generated_Source\PSoC4/LCD_Char.c **** 
 502:.\Generated_Source\PSoC4/LCD_Char.c ****         /* Load these in reverse order */
 503:.\Generated_Source\PSoC4/LCD_Char.c ****         while(value >= LCD_Char_TEN)
 678              		.loc 1 503 0
 679 0008 0DE0     		b	.L38
 680              	.LVL82:
 681              	.L39:
 504:.\Generated_Source\PSoC4/LCD_Char.c ****         {
 505:.\Generated_Source\PSoC4/LCD_Char.c ****             temp[digIndex] = (value % LCD_Char_TEN) + '0';
 682              		.loc 1 505 0
 683 000a 281C     		mov	r0, r5
 684 000c 0A21     		mov	r1, #10
 685 000e FFF7FEFF 		bl	__aeabi_uidivmod
 686              	.LVL83:
 687 0012 3031     		add	r1, r1, #48
 688 0014 6B46     		mov	r3, sp
 689 0016 1955     		strb	r1, [r3, r4]
 506:.\Generated_Source\PSoC4/LCD_Char.c ****             value /= LCD_Char_TEN;
 690              		.loc 1 506 0
 691 0018 281C     		mov	r0, r5
 692 001a 0A21     		mov	r1, #10
 693 001c FFF7FEFF 		bl	__aeabi_uidiv
 694              	.LVL84:
 695 0020 85B2     		uxth	r5, r0
 696              	.LVL85:
 507:.\Generated_Source\PSoC4/LCD_Char.c ****             digIndex++;
 697              		.loc 1 507 0
 698 0022 0134     		add	r4, r4, #1
 699              	.LVL86:
 700 0024 E4B2     		uxtb	r4, r4
 701              	.LVL87:
 702              	.L38:
 503:.\Generated_Source\PSoC4/LCD_Char.c ****         {
 703              		.loc 1 503 0
 704 0026 092D     		cmp	r5, #9
 705 0028 EFD8     		bhi	.L39
 508:.\Generated_Source\PSoC4/LCD_Char.c ****         }
 509:.\Generated_Source\PSoC4/LCD_Char.c **** 
 510:.\Generated_Source\PSoC4/LCD_Char.c ****         temp[digIndex] = (value % LCD_Char_TEN) + '0';
 706              		.loc 1 510 0
 707 002a 261C     		mov	r6, r4
 708 002c 281C     		mov	r0, r5
 709 002e 0A21     		mov	r1, #10
 710 0030 FFF7FEFF 		bl	__aeabi_uidivmod
 711              	.LVL88:
 712 0034 3031     		add	r1, r1, #48
 713 0036 6B46     		mov	r3, sp
 714 0038 1955     		strb	r1, [r3, r4]
 511:.\Generated_Source\PSoC4/LCD_Char.c ****         numDigits = digIndex;
 715              		.loc 1 511 0
 716 003a 251C     		mov	r5, r4
 717              	.LVL89:
ARM GAS  C:\Users\Bryan\AppData\Local\Temp\ccjR079e.s 			page 24


 512:.\Generated_Source\PSoC4/LCD_Char.c **** 
 513:.\Generated_Source\PSoC4/LCD_Char.c ****         /* While index is greater than or equal to zero copy number
 514:.\Generated_Source\PSoC4/LCD_Char.c ****         * from temporary array to number[].
 515:.\Generated_Source\PSoC4/LCD_Char.c ****         */
 516:.\Generated_Source\PSoC4/LCD_Char.c ****         while (digIndex != 0u)
 718              		.loc 1 516 0
 719 003c 06E0     		b	.L40
 720              	.LVL90:
 721              	.L41:
 517:.\Generated_Source\PSoC4/LCD_Char.c ****         {
 518:.\Generated_Source\PSoC4/LCD_Char.c ****             number[numDigits - digIndex] = temp[digIndex];
 722              		.loc 1 518 0
 723 003e 331B     		sub	r3, r6, r4
 724 0040 6A46     		mov	r2, sp
 725 0042 115D     		ldrb	r1, [r2, r4]
 726 0044 02AA     		add	r2, sp, #8
 727 0046 D154     		strb	r1, [r2, r3]
 519:.\Generated_Source\PSoC4/LCD_Char.c ****             digIndex--;
 728              		.loc 1 519 0
 729 0048 013C     		sub	r4, r4, #1
 730              	.LVL91:
 731 004a E4B2     		uxtb	r4, r4
 732              	.LVL92:
 733              	.L40:
 516:.\Generated_Source\PSoC4/LCD_Char.c ****         {
 734              		.loc 1 516 0
 735 004c 002C     		cmp	r4, #0
 736 004e F6D1     		bne	.L41
 520:.\Generated_Source\PSoC4/LCD_Char.c ****         }
 521:.\Generated_Source\PSoC4/LCD_Char.c ****         
 522:.\Generated_Source\PSoC4/LCD_Char.c ****         /* Copy last digit */
 523:.\Generated_Source\PSoC4/LCD_Char.c ****         number[numDigits] = temp[0u];
 737              		.loc 1 523 0
 738 0050 6B46     		mov	r3, sp
 739 0052 1B78     		ldrb	r3, [r3]
 740 0054 02A8     		add	r0, sp, #8
 741 0056 8355     		strb	r3, [r0, r6]
 524:.\Generated_Source\PSoC4/LCD_Char.c **** 
 525:.\Generated_Source\PSoC4/LCD_Char.c ****         /* Null Termination */
 526:.\Generated_Source\PSoC4/LCD_Char.c ****         number[numDigits + 1u] = (char8) '\0';
 742              		.loc 1 526 0
 743 0058 6B1C     		add	r3, r5, #1
 744 005a 0022     		mov	r2, #0
 745 005c C254     		strb	r2, [r0, r3]
 527:.\Generated_Source\PSoC4/LCD_Char.c **** 
 528:.\Generated_Source\PSoC4/LCD_Char.c ****         /* Print out number */
 529:.\Generated_Source\PSoC4/LCD_Char.c ****         LCD_Char_PrintString(&number[0u]);
 746              		.loc 1 529 0
 747 005e FFF7FEFF 		bl	LCD_Char_PrintString
 748              	.LVL93:
 530:.\Generated_Source\PSoC4/LCD_Char.c ****     }
 749              		.loc 1 530 0
 750 0062 04B0     		add	sp, sp, #16
 751              		@ sp needed
 752              	.LVL94:
 753 0064 70BD     		pop	{r4, r5, r6, pc}
 754              		.cfi_endproc
ARM GAS  C:\Users\Bryan\AppData\Local\Temp\ccjR079e.s 			page 25


 755              	.LFE14:
 756              		.size	LCD_Char_PrintNumber, .-LCD_Char_PrintNumber
 757              		.global	LCD_Char_initVar
 758              		.global	LCD_Char_enableState
 759 0066 C046     		.section	.rodata
 760              		.align	2
 761              		.set	.LANCHOR1,. + 0
 762              		.type	LCD_Char_hex.4772, %object
 763              		.size	LCD_Char_hex.4772, 16
 764              	LCD_Char_hex.4772:
 765 0000 30313233 		.ascii	"0123456789ABCDEF"
 765      34353637 
 765      38394142 
 765      43444546 
 766              		.bss
 767              		.set	.LANCHOR0,. + 0
 768              		.type	LCD_Char_enableState, %object
 769              		.size	LCD_Char_enableState, 1
 770              	LCD_Char_enableState:
 771 0000 00       		.space	1
 772              		.type	LCD_Char_initVar, %object
 773              		.size	LCD_Char_initVar, 1
 774              	LCD_Char_initVar:
 775 0001 00       		.space	1
 776              		.text
 777              	.Letext0:
 778              		.file 2 ".\\Generated_Source\\PSoC4\\cytypes.h"
 779              		.file 3 ".\\Generated_Source\\PSoC4\\CyLib.h"