ARM GAS  C:\Users\bryan.lee\AppData\Local\Temp\ccA2Qg3r.s 			page 1


   1              		.syntax unified
   2              		.cpu cortex-m3
   3              		.fpu softvfp
   4              		.eabi_attribute 20, 1
   5              		.eabi_attribute 21, 1
   6              		.eabi_attribute 23, 3
   7              		.eabi_attribute 24, 1
   8              		.eabi_attribute 25, 1
   9              		.eabi_attribute 26, 1
  10              		.eabi_attribute 30, 6
  11              		.eabi_attribute 34, 1
  12              		.eabi_attribute 18, 4
  13              		.thumb
  14              		.file	"main.c"
  15              		.text
  16              	.Ltext0:
  17              		.cfi_sections	.debug_frame
  18              		.comm	pinDMK,4,4
  19              		.comm	CaptureFlag,4,4
  20              		.comm	statusButtonRead,1,1
  21              		.comm	Polar_C_Pulse_Count,1,1
  22              		.comm	Polar_S_Pulse_Count,1,1
  23              		.comm	ANTplus_Pulse_Count,1,1
  24              		.comm	ShiftData,255,4
  25              		.section	.text.InitializeHardware,"ax",%progbits
  26              		.align	2
  27              		.global	InitializeHardware
  28              		.thumb
  29              		.thumb_func
  30              		.type	InitializeHardware, %function
  31              	InitializeHardware:
  32              	.LFB63:
  33              		.file 1 "main.c"
   1:main.c        **** /* ========================================
   2:main.c        ****  *
   3:main.c        ****  * Copyright YOUR COMPANY, THE YEAR
   4:main.c        ****  * All Rights Reserved
   5:main.c        ****  * UNPUBLISHED, LICENSED SOFTWARE.
   6:main.c        ****  *
   7:main.c        ****  * CONFIDENTIAL AND PROPRIETARY INFORMATION
   8:main.c        ****  * WHICH IS THE PROPERTY OF your company.
   9:main.c        ****  *
  10:main.c        ****  * ========================================
  11:main.c        **** */
  12:main.c        **** #include <device.h>
  13:main.c        **** 
  14:main.c        **** #define forever 1
  15:main.c        **** 
  16:main.c        **** CY_ISR_PROTO(StoreISR);
  17:main.c        **** CY_ISR(PulseCapture);
  18:main.c        **** 
  19:main.c        **** 
  20:main.c        **** 
  21:main.c        **** int pinDMK;
  22:main.c        **** int CaptureFlag;
  23:main.c        **** uint8 statusButtonRead; //0xFF starting point
  24:main.c        **** uint8 Polar_C_Pulse_Count;
ARM GAS  C:\Users\bryan.lee\AppData\Local\Temp\ccA2Qg3r.s 			page 2


  25:main.c        **** uint8 Polar_S_Pulse_Count;
  26:main.c        **** uint8 ANTplus_Pulse_Count;
  27:main.c        **** uint8 ShiftData[255];
  28:main.c        **** 
  29:main.c        **** 
  30:main.c        **** 
  31:main.c        **** void InitializeHardware()
  32:main.c        **** {
  34              		.loc 1 32 0
  35              		.cfi_startproc
  36              		@ args = 0, pretend = 0, frame = 0
  37              		@ frame_needed = 1, uses_anonymous_args = 0
  38 0000 80B5     		push	{r7, lr}
  39              		.cfi_def_cfa_offset 8
  40              		.cfi_offset 7, -8
  41              		.cfi_offset 14, -4
  42 0002 00AF     		add	r7, sp, #0
  43              		.cfi_def_cfa_register 7
  33:main.c        **** 	CyGlobalIntEnable;                                   //ISR
  44              		.loc 1 33 0
  45              	@ 33 "main.c" 1
  46 0004 62B6     		CPSIE   i
  47              	@ 0 "" 2
  34:main.c        **** 	isrStoreInt_StartEx(StoreISR);
  48              		.loc 1 34 0
  49              		.thumb
  50 0006 1348     		ldr	r0, .L2
  51 0008 FFF7FEFF 		bl	isrStoreInt_StartEx
  35:main.c        ****     isrPulseCapture_StartEx(PulseCapture);
  52              		.loc 1 35 0
  53 000c 1248     		ldr	r0, .L2+4
  54 000e FFF7FEFF 		bl	isrPulseCapture_StartEx
  36:main.c        ****     
  37:main.c        ****     
  38:main.c        ****     lcdDisplay_Start();
  55              		.loc 1 38 0
  56 0012 FFF7FEFF 		bl	lcdDisplay_Start
  39:main.c        ****     lcdDisplay_ClearDisplay();
  57              		.loc 1 39 0
  58 0016 0120     		movs	r0, #1
  59 0018 FFF7FEFF 		bl	lcdDisplay_WriteControl
  40:main.c        ****     pgaPolarC_Start();                                   //Polar Chest Pulse buffer
  60              		.loc 1 40 0
  61 001c FFF7FEFF 		bl	pgaPolarC_Start
  41:main.c        ****     counterPolarC_Start();
  62              		.loc 1 41 0
  63 0020 FFF7FEFF 		bl	counterPolarC_Start
  42:main.c        ****     pgaPolarS_Start();                                   //Polar Hand Pulse buffer
  64              		.loc 1 42 0
  65 0024 FFF7FEFF 		bl	pgaPolarS_Start
  43:main.c        ****     counterPolarS_Start();
  66              		.loc 1 43 0
  67 0028 FFF7FEFF 		bl	counterPolarS_Start
  44:main.c        ****     pgaANTPlus_Start();                                  //ANT+ Chest Pulse buffer
  68              		.loc 1 44 0
  69 002c FFF7FEFF 		bl	pgaANTPlus_Start
  45:main.c        ****     counterANTPlus_Start();
ARM GAS  C:\Users\bryan.lee\AppData\Local\Temp\ccA2Qg3r.s 			page 3


  70              		.loc 1 45 0
  71 0030 FFF7FEFF 		bl	counterANTPlus_Start
  46:main.c        ****     PWMPulseCapture_Start();                             //Capture Clock
  72              		.loc 1 46 0
  73 0034 FFF7FEFF 		bl	PWMPulseCapture_Start
  47:main.c        **** 	counterShift_Start();                                //Membrane Button Read components
  74              		.loc 1 47 0
  75 0038 FFF7FEFF 		bl	counterShift_Start
  48:main.c        ****     shiftregSender_Start();
  76              		.loc 1 48 0
  77 003c FFF7FEFF 		bl	shiftregSender_Start
  49:main.c        ****     shiftregSender_WriteData(0x00);
  78              		.loc 1 49 0
  79 0040 0020     		movs	r0, #0
  80 0042 FFF7FEFF 		bl	shiftregSender_WriteData
  50:main.c        ****     CyDelay(250);
  81              		.loc 1 50 0
  82 0046 FA20     		movs	r0, #250
  83 0048 FFF7FEFF 		bl	CyDelay
  51:main.c        ****     shiftregReceiver_Start();	 
  84              		.loc 1 51 0
  85 004c FFF7FEFF 		bl	shiftregReceiver_Start
  52:main.c        **** }
  86              		.loc 1 52 0
  87 0050 80BD     		pop	{r7, pc}
  88              	.L3:
  89 0052 00BF     		.align	2
  90              	.L2:
  91 0054 00000000 		.word	StoreISR
  92 0058 00000000 		.word	PulseCapture
  93              		.cfi_endproc
  94              	.LFE63:
  95              		.size	InitializeHardware, .-InitializeHardware
  96              		.section	.rodata
  97              		.align	2
  98              	.LC0:
  99 0000 42455441 		.ascii	"BETA\000"
  99      00
 100 0005 000000   		.align	2
 101              	.LC1:
 102 0008 444D4B3A 		.ascii	"DMK:\000"
 102      00
 103 000d 000000   		.align	2
 104              	.LC2:
 105 0010 42757474 		.ascii	"Buttons:\000"
 105      6F6E733A 
 105      00
 106 0019 000000   		.align	2
 107              	.LC3:
 108 001c 50756C73 		.ascii	"Pulse:\000"
 108      653A00
 109 0023 00       		.align	2
 110              	.LC4:
 111 0024 4F4E2000 		.ascii	"ON \000"
 112              		.align	2
 113              	.LC5:
 114 0028 4F464600 		.ascii	"OFF\000"
ARM GAS  C:\Users\bryan.lee\AppData\Local\Temp\ccA2Qg3r.s 			page 4


 115              		.align	2
 116              	.LC6:
 117 002c 43686573 		.ascii	"Chest\000"
 117      7400
 118 0032 0000     		.section	.text.main,"ax",%progbits
 119              		.align	2
 120              		.global	main
 121              		.thumb
 122              		.thumb_func
 123              		.type	main, %function
 124              	main:
 125              	.LFB64:
  53:main.c        **** //***********************************************************************************
  54:main.c        **** 
  55:main.c        **** int main()
  56:main.c        **** {
 126              		.loc 1 56 0
 127              		.cfi_startproc
 128              		@ args = 0, pretend = 0, frame = 8
 129              		@ frame_needed = 1, uses_anonymous_args = 0
 130 0000 80B5     		push	{r7, lr}
 131              		.cfi_def_cfa_offset 8
 132              		.cfi_offset 7, -8
 133              		.cfi_offset 14, -4
 134 0002 82B0     		sub	sp, sp, #8
 135              		.cfi_def_cfa_offset 16
 136 0004 00AF     		add	r7, sp, #0
 137              		.cfi_def_cfa_register 7
  57:main.c        ****     //uint8 ii = 0x00;      //Calibration
  58:main.c        ****     uint8 Status;
  59:main.c        **** 	InitializeHardware();
 138              		.loc 1 59 0
 139 0006 FFF7FEFF 		bl	InitializeHardware
  60:main.c        ****     clockShift_SetDivider(128);
 140              		.loc 1 60 0
 141 000a 8020     		movs	r0, #128
 142 000c 0121     		movs	r1, #1
 143 000e FFF7FEFF 		bl	clockShift_SetDividerRegister
  61:main.c        ****     lcdDisplay_Position(0,8);
 144              		.loc 1 61 0
 145 0012 0020     		movs	r0, #0
 146 0014 0821     		movs	r1, #8
 147 0016 FFF7FEFF 		bl	lcdDisplay_Position
  62:main.c        ****     lcdDisplay_PrintString("BETA");
 148              		.loc 1 62 0
 149 001a 2D48     		ldr	r0, .L10
 150 001c FFF7FEFF 		bl	lcdDisplay_PrintString
  63:main.c        ****     lcdDisplay_Position(1,0);
 151              		.loc 1 63 0
 152 0020 0120     		movs	r0, #1
 153 0022 0021     		movs	r1, #0
 154 0024 FFF7FEFF 		bl	lcdDisplay_Position
  64:main.c        ****     lcdDisplay_PrintString("DMK:");
 155              		.loc 1 64 0
 156 0028 2A48     		ldr	r0, .L10+4
 157 002a FFF7FEFF 		bl	lcdDisplay_PrintString
  65:main.c        ****     lcdDisplay_Position(2,0);
ARM GAS  C:\Users\bryan.lee\AppData\Local\Temp\ccA2Qg3r.s 			page 5


 158              		.loc 1 65 0
 159 002e 0220     		movs	r0, #2
 160 0030 0021     		movs	r1, #0
 161 0032 FFF7FEFF 		bl	lcdDisplay_Position
  66:main.c        ****     lcdDisplay_PrintString("Buttons:");
 162              		.loc 1 66 0
 163 0036 2848     		ldr	r0, .L10+8
 164 0038 FFF7FEFF 		bl	lcdDisplay_PrintString
  67:main.c        ****     lcdDisplay_Position(3,0);
 165              		.loc 1 67 0
 166 003c 0320     		movs	r0, #3
 167 003e 0021     		movs	r1, #0
 168 0040 FFF7FEFF 		bl	lcdDisplay_Position
  68:main.c        ****     lcdDisplay_PrintString("Pulse:");
 169              		.loc 1 68 0
 170 0044 2548     		ldr	r0, .L10+12
 171 0046 FFF7FEFF 		bl	lcdDisplay_PrintString
 172              	.L9:
  69:main.c        ****     
  70:main.c        ****     
  71:main.c        ****     for(;;)
  72:main.c        ****     {
  73:main.c        ****         if (pinDMK_Read() == 0)                     //DMK function
 173              		.loc 1 73 0
 174 004a FFF7FEFF 		bl	pinDMK_Read
 175 004e 0346     		mov	r3, r0
 176 0050 002B     		cmp	r3, #0
 177 0052 07D1     		bne	.L5
  74:main.c        ****         {
  75:main.c        ****             lcdDisplay_Position(1,5);
 178              		.loc 1 75 0
 179 0054 0120     		movs	r0, #1
 180 0056 0521     		movs	r1, #5
 181 0058 FFF7FEFF 		bl	lcdDisplay_Position
  76:main.c        ****             lcdDisplay_PrintString("ON ");
 182              		.loc 1 76 0
 183 005c 2048     		ldr	r0, .L10+16
 184 005e FFF7FEFF 		bl	lcdDisplay_PrintString
 185 0062 06E0     		b	.L6
 186              	.L5:
  77:main.c        ****         }
  78:main.c        ****         else
  79:main.c        ****         {
  80:main.c        ****             lcdDisplay_Position(1,5);
 187              		.loc 1 80 0
 188 0064 0120     		movs	r0, #1
 189 0066 0521     		movs	r1, #5
 190 0068 FFF7FEFF 		bl	lcdDisplay_Position
  81:main.c        ****             lcdDisplay_PrintString("OFF");
 191              		.loc 1 81 0
 192 006c 1D48     		ldr	r0, .L10+20
 193 006e FFF7FEFF 		bl	lcdDisplay_PrintString
 194              	.L6:
  82:main.c        ****         }
  83:main.c        ****         if (CaptureFlag == 1)
 195              		.loc 1 83 0
 196 0072 1D4B     		ldr	r3, .L10+24
ARM GAS  C:\Users\bryan.lee\AppData\Local\Temp\ccA2Qg3r.s 			page 6


 197 0074 1B68     		ldr	r3, [r3]
 198 0076 012B     		cmp	r3, #1
 199 0078 0FD1     		bne	.L7
  84:main.c        ****        {
  85:main.c        ****             CaptureFlag = 0;
 200              		.loc 1 85 0
 201 007a 1B4B     		ldr	r3, .L10+24
 202 007c 0022     		movs	r2, #0
 203 007e 1A60     		str	r2, [r3]
  86:main.c        ****             
  87:main.c        ****             Polar_C_Pulse_Count = counterPolarC_ReadCapture();
 204              		.loc 1 87 0
 205 0080 FFF7FEFF 		bl	counterPolarC_ReadCapture
 206 0084 0346     		mov	r3, r0
 207 0086 1A46     		mov	r2, r3
 208 0088 184B     		ldr	r3, .L10+28
 209 008a 1A70     		strb	r2, [r3]
  88:main.c        ****             lcdDisplay_Position (3,7);
 210              		.loc 1 88 0
 211 008c 0320     		movs	r0, #3
 212 008e 0721     		movs	r1, #7
 213 0090 FFF7FEFF 		bl	lcdDisplay_Position
  89:main.c        ****             lcdDisplay_PrintString("Chest");
 214              		.loc 1 89 0
 215 0094 1648     		ldr	r0, .L10+32
 216 0096 FFF7FEFF 		bl	lcdDisplay_PrintString
 217              	.L7:
  90:main.c        ****             
  91:main.c        ****             
  92:main.c        ****             /*Polar_S_Pulse_Count = counterPolarS_ReadCapture();
  93:main.c        ****             lcdDisplay_Position (3,7);
  94:main.c        ****             lcdDisplay_PrintString("Hand");
  95:main.c        ****             
  96:main.c        ****             
  97:main.c        ****             ANTplus_Pulse_Count = counterANTPlus_ReadCapture();
  98:main.c        ****             lcdDisplay_Position (3,7);
  99:main.c        ****             lcdDisplay_PrintString("ANTplus");*/
 100:main.c        ****                         
 101:main.c        ****         }
 102:main.c        ****         
 103:main.c        ****         
 104:main.c        ****         
 105:main.c        ****         statusButton_Read();  //Button Hex strings...Left1:FE, Left2:FD, Rigth1:FB, and Right2:F7
 218              		.loc 1 105 0
 219 009a FFF7FEFF 		bl	statusButton_Read
 106:main.c        ****         {
 107:main.c        ****             /*lcdDisplay_Position(2,9);  //Button Hex Strings...InclineD:FE, InclineU:FD, Run:FB, S
 108:main.c        ****             lcdDisplay_PrintInt8(statusButton_Read());*/
 109:main.c        ****             shiftregReceiver_WriteRegValue(statusButton_Read());//Writes to the Shift Register
 220              		.loc 1 109 0
 221 009e FFF7FEFF 		bl	statusButton_Read
 222 00a2 0346     		mov	r3, r0
 223 00a4 1846     		mov	r0, r3
 224 00a6 FFF7FEFF 		bl	shiftregReceiver_WriteRegValue
 110:main.c        ****         }
 111:main.c        ****     	
 112:main.c        **** 		if(!((Status = shiftregSender_GetFIFOStatus(shiftregSender_IN_FIFO)) == shiftregSender_RET_FIFO_F
ARM GAS  C:\Users\bryan.lee\AppData\Local\Temp\ccA2Qg3r.s 			page 7


 225              		.loc 1 112 0
 226 00aa 0120     		movs	r0, #1
 227 00ac FFF7FEFF 		bl	shiftregSender_GetFIFOStatus
 228 00b0 0346     		mov	r3, r0
 229 00b2 FB71     		strb	r3, [r7, #7]
 230 00b4 FB79     		ldrb	r3, [r7, #7]	@ zero_extendqisi2
 231 00b6 002B     		cmp	r3, #0
 232 00b8 09D0     		beq	.L8
 113:main.c        **** 		{
 114:main.c        **** 			/*shiftregSender_WriteData(++ii);//FOR CALIBRATION ONLY. WILL COUNT UP FROM 0X00 TO 0XFF.*/
 115:main.c        ****             {
 116:main.c        ****                 lcdDisplay_Position(2,9);
 233              		.loc 1 116 0
 234 00ba 0220     		movs	r0, #2
 235 00bc 0921     		movs	r1, #9
 236 00be FFF7FEFF 		bl	lcdDisplay_Position
 117:main.c        ****                 lcdDisplay_PrintInt8(shiftregReceiver_ReadData());
 237              		.loc 1 117 0
 238 00c2 FFF7FEFF 		bl	shiftregReceiver_ReadData
 239 00c6 0346     		mov	r3, r0
 240 00c8 1846     		mov	r0, r3
 241 00ca FFF7FEFF 		bl	lcdDisplay_PrintInt8
 242              	.L8:
 118:main.c        ****             }
 119:main.c        **** 		}
 120:main.c        ****            
 121:main.c        ****       }      
 243              		.loc 1 121 0
 244 00ce BCE7     		b	.L9
 245              	.L11:
 246              		.align	2
 247              	.L10:
 248 00d0 00000000 		.word	.LC0
 249 00d4 08000000 		.word	.LC1
 250 00d8 10000000 		.word	.LC2
 251 00dc 1C000000 		.word	.LC3
 252 00e0 24000000 		.word	.LC4
 253 00e4 28000000 		.word	.LC5
 254 00e8 00000000 		.word	CaptureFlag
 255 00ec 00000000 		.word	Polar_C_Pulse_Count
 256 00f0 2C000000 		.word	.LC6
 257              		.cfi_endproc
 258              	.LFE64:
 259              		.size	main, .-main
 260              		.section	.text.StoreISR,"ax",%progbits
 261              		.align	2
 262              		.global	StoreISR
 263              		.thumb
 264              		.thumb_func
 265              		.type	StoreISR, %function
 266              	StoreISR:
 267              	.LFB65:
 122:main.c        **** }
 123:main.c        **** /*END OF FILE */
 124:main.c        **** 
 125:main.c        **** 
 126:main.c        **** /************************************************************************************/
ARM GAS  C:\Users\bryan.lee\AppData\Local\Temp\ccA2Qg3r.s 			page 8


 127:main.c        **** CY_ISR(StoreISR)
 128:main.c        **** {
 268              		.loc 1 128 0
 269              		.cfi_startproc
 270              		@ args = 0, pretend = 0, frame = 8
 271              		@ frame_needed = 1, uses_anonymous_args = 0
 272 0000 80B5     		push	{r7, lr}
 273              		.cfi_def_cfa_offset 8
 274              		.cfi_offset 7, -8
 275              		.cfi_offset 14, -4
 276 0002 82B0     		sub	sp, sp, #8
 277              		.cfi_def_cfa_offset 16
 278 0004 00AF     		add	r7, sp, #0
 279              		.cfi_def_cfa_register 7
 129:main.c        **** uint8 Status;
 130:main.c        **** 	while((Status = shiftregReceiver_GetFIFOStatus(shiftregReceiver_OUT_FIFO)) == shiftregReceiver_RET
 280              		.loc 1 130 0
 281 0006 01E0     		b	.L13
 282              	.L14:
 131:main.c        **** 	{
 132:main.c        **** 		shiftregReceiver_ReadData();   
 283              		.loc 1 132 0
 284 0008 FFF7FEFF 		bl	shiftregReceiver_ReadData
 285              	.L13:
 130:main.c        **** 	{
 286              		.loc 1 130 0
 287 000c 0220     		movs	r0, #2
 288 000e FFF7FEFF 		bl	shiftregReceiver_GetFIFOStatus
 289 0012 0346     		mov	r3, r0
 290 0014 FB71     		strb	r3, [r7, #7]
 291 0016 FB79     		ldrb	r3, [r7, #7]	@ zero_extendqisi2
 292 0018 012B     		cmp	r3, #1
 293 001a F5D0     		beq	.L14
 133:main.c        **** 	}
 134:main.c        **** }
 294              		.loc 1 134 0
 295 001c 0837     		adds	r7, r7, #8
 296              		.cfi_def_cfa_offset 8
 297 001e BD46     		mov	sp, r7
 298              		.cfi_def_cfa_register 13
 299              		@ sp needed
 300 0020 80BD     		pop	{r7, pc}
 301              		.cfi_endproc
 302              	.LFE65:
 303              		.size	StoreISR, .-StoreISR
 304 0022 00BF     		.section	.text.PulseCapture,"ax",%progbits
 305              		.align	2
 306              		.global	PulseCapture
 307              		.thumb
 308              		.thumb_func
 309              		.type	PulseCapture, %function
 310              	PulseCapture:
 311              	.LFB66:
 135:main.c        **** 
 136:main.c        **** /**********************************************************************************/
 137:main.c        **** CY_ISR(PulseCapture)
 138:main.c        **** {
ARM GAS  C:\Users\bryan.lee\AppData\Local\Temp\ccA2Qg3r.s 			page 9


 312              		.loc 1 138 0
 313              		.cfi_startproc
 314              		@ args = 0, pretend = 0, frame = 0
 315              		@ frame_needed = 1, uses_anonymous_args = 0
 316              		@ link register save eliminated.
 317 0000 80B4     		push	{r7}
 318              		.cfi_def_cfa_offset 4
 319              		.cfi_offset 7, -4
 320 0002 00AF     		add	r7, sp, #0
 321              		.cfi_def_cfa_register 7
 139:main.c        ****     CaptureFlag = 1;
 322              		.loc 1 139 0
 323 0004 034B     		ldr	r3, .L16
 324 0006 0122     		movs	r2, #1
 325 0008 1A60     		str	r2, [r3]
 140:main.c        **** }...
 326              		.loc 1 140 0
 327 000a BD46     		mov	sp, r7
 328              		.cfi_def_cfa_register 13
 329              		@ sp needed
 330 000c 5DF8047B 		ldr	r7, [sp], #4
 331              		.cfi_restore 7
 332              		.cfi_def_cfa_offset 0
 333 0010 7047     		bx	lr
 334              	.L17:
 335 0012 00BF     		.align	2
 336              	.L16:
 337 0014 00000000 		.word	CaptureFlag
 338              		.cfi_endproc
 339              	.LFE66:
 340              		.size	PulseCapture, .-PulseCapture
 341              		.text
 342              	.Letext0:
 343              		.file 2 "c:\\program files (x86)\\cypress\\psoc creator\\4.0\\psoc creator\\import\\gnu\\arm\\4.9.
 344              		.file 3 "c:\\program files (x86)\\cypress\\psoc creator\\4.0\\psoc creator\\import\\gnu\\arm\\4.9.
 345              		.file 4 "Generated_Source\\PSoC5/cytypes.h"
 346              		.file 5 "Generated_Source\\PSoC5/core_cm3.h"