ARM GAS  C:\Users\bryan.lee\AppData\Local\Temp\ccrUA04h.s 			page 1


   1              		.syntax unified
   2              		.cpu cortex-m3
   3              		.fpu softvfp
   4              		.eabi_attribute 20, 1
   5              		.eabi_attribute 21, 1
   6              		.eabi_attribute 23, 3
   7              		.eabi_attribute 24, 1
   8              		.eabi_attribute 25, 1
   9              		.eabi_attribute 26, 1
  10              		.eabi_attribute 30, 6
  11              		.eabi_attribute 34, 1
  12              		.eabi_attribute 18, 4
  13              		.thumb
  14              		.file	"shiftregReceiver.c"
  15              		.text
  16              	.Ltext0:
  17              		.cfi_sections	.debug_frame
  18              		.global	shiftregReceiver_initVar
  19              		.bss
  20              		.type	shiftregReceiver_initVar, %object
  21              		.size	shiftregReceiver_initVar, 1
  22              	shiftregReceiver_initVar:
  23 0000 00       		.space	1
  24              		.section	.text.shiftregReceiver_Start,"ax",%progbits
  25              		.align	2
  26              		.global	shiftregReceiver_Start
  27              		.thumb
  28              		.thumb_func
  29              		.type	shiftregReceiver_Start, %function
  30              	shiftregReceiver_Start:
  31              	.LFB0:
  32              		.file 1 "Generated_Source\\PSoC5\\shiftregReceiver.c"
   1:Generated_Source\PSoC5/shiftregReceiver.c **** /*******************************************************************************
   2:Generated_Source\PSoC5/shiftregReceiver.c **** * File Name: shiftregReceiver.c
   3:Generated_Source\PSoC5/shiftregReceiver.c **** * Version 2.30
   4:Generated_Source\PSoC5/shiftregReceiver.c **** *
   5:Generated_Source\PSoC5/shiftregReceiver.c **** * Description:
   6:Generated_Source\PSoC5/shiftregReceiver.c **** *  This file provides the API source code for the Shift Register component.
   7:Generated_Source\PSoC5/shiftregReceiver.c **** *
   8:Generated_Source\PSoC5/shiftregReceiver.c **** * Note: none
   9:Generated_Source\PSoC5/shiftregReceiver.c **** *
  10:Generated_Source\PSoC5/shiftregReceiver.c **** ********************************************************************************
  11:Generated_Source\PSoC5/shiftregReceiver.c **** * Copyright 2008-2013, Cypress Semiconductor Corporation.  All rights reserved.
  12:Generated_Source\PSoC5/shiftregReceiver.c **** * You may use this file only in accordance with the license, terms, conditions,
  13:Generated_Source\PSoC5/shiftregReceiver.c **** * disclaimers, and limitations in the end user license agreement accompanying
  14:Generated_Source\PSoC5/shiftregReceiver.c **** * the software package with which this file was provided.
  15:Generated_Source\PSoC5/shiftregReceiver.c **** ********************************************************************************/
  16:Generated_Source\PSoC5/shiftregReceiver.c **** 
  17:Generated_Source\PSoC5/shiftregReceiver.c **** #include "shiftregReceiver.h"
  18:Generated_Source\PSoC5/shiftregReceiver.c **** 
  19:Generated_Source\PSoC5/shiftregReceiver.c **** uint8 shiftregReceiver_initVar = 0u;
  20:Generated_Source\PSoC5/shiftregReceiver.c **** 
  21:Generated_Source\PSoC5/shiftregReceiver.c **** 
  22:Generated_Source\PSoC5/shiftregReceiver.c **** /*******************************************************************************
  23:Generated_Source\PSoC5/shiftregReceiver.c **** * Function Name: shiftregReceiver_Start
  24:Generated_Source\PSoC5/shiftregReceiver.c **** ********************************************************************************
  25:Generated_Source\PSoC5/shiftregReceiver.c **** *
ARM GAS  C:\Users\bryan.lee\AppData\Local\Temp\ccrUA04h.s 			page 2


  26:Generated_Source\PSoC5/shiftregReceiver.c **** * Summary:
  27:Generated_Source\PSoC5/shiftregReceiver.c **** *  Starts the Shift Register.
  28:Generated_Source\PSoC5/shiftregReceiver.c **** *
  29:Generated_Source\PSoC5/shiftregReceiver.c **** * Parameters:
  30:Generated_Source\PSoC5/shiftregReceiver.c **** *  None.
  31:Generated_Source\PSoC5/shiftregReceiver.c **** *
  32:Generated_Source\PSoC5/shiftregReceiver.c **** * Return:
  33:Generated_Source\PSoC5/shiftregReceiver.c **** *  None.
  34:Generated_Source\PSoC5/shiftregReceiver.c **** *
  35:Generated_Source\PSoC5/shiftregReceiver.c **** * Global Variables:
  36:Generated_Source\PSoC5/shiftregReceiver.c **** *  shiftregReceiver_initVar - used to check initial configuration, modified on
  37:Generated_Source\PSoC5/shiftregReceiver.c **** *  first function call.
  38:Generated_Source\PSoC5/shiftregReceiver.c **** *
  39:Generated_Source\PSoC5/shiftregReceiver.c **** * Reentrant:
  40:Generated_Source\PSoC5/shiftregReceiver.c **** *  No.
  41:Generated_Source\PSoC5/shiftregReceiver.c **** *
  42:Generated_Source\PSoC5/shiftregReceiver.c **** *******************************************************************************/
  43:Generated_Source\PSoC5/shiftregReceiver.c **** void shiftregReceiver_Start(void) 
  44:Generated_Source\PSoC5/shiftregReceiver.c **** {
  33              		.loc 1 44 0
  34              		.cfi_startproc
  35              		@ args = 0, pretend = 0, frame = 0
  36              		@ frame_needed = 1, uses_anonymous_args = 0
  37 0000 80B5     		push	{r7, lr}
  38              		.cfi_def_cfa_offset 8
  39              		.cfi_offset 7, -8
  40              		.cfi_offset 14, -4
  41 0002 00AF     		add	r7, sp, #0
  42              		.cfi_def_cfa_register 7
  45:Generated_Source\PSoC5/shiftregReceiver.c ****     if(0u == shiftregReceiver_initVar)
  43              		.loc 1 45 0
  44 0004 054B     		ldr	r3, .L3
  45 0006 1B78     		ldrb	r3, [r3]	@ zero_extendqisi2
  46 0008 002B     		cmp	r3, #0
  47 000a 04D1     		bne	.L2
  46:Generated_Source\PSoC5/shiftregReceiver.c ****     {
  47:Generated_Source\PSoC5/shiftregReceiver.c ****         shiftregReceiver_Init();
  48              		.loc 1 47 0
  49 000c FFF7FEFF 		bl	shiftregReceiver_Init
  48:Generated_Source\PSoC5/shiftregReceiver.c ****         shiftregReceiver_initVar = 1u; /* Component initialized */
  50              		.loc 1 48 0
  51 0010 024B     		ldr	r3, .L3
  52 0012 0122     		movs	r2, #1
  53 0014 1A70     		strb	r2, [r3]
  54              	.L2:
  49:Generated_Source\PSoC5/shiftregReceiver.c ****     }
  50:Generated_Source\PSoC5/shiftregReceiver.c **** 
  51:Generated_Source\PSoC5/shiftregReceiver.c ****     shiftregReceiver_Enable();
  55              		.loc 1 51 0
  56 0016 FFF7FEFF 		bl	shiftregReceiver_Enable
  52:Generated_Source\PSoC5/shiftregReceiver.c **** }
  57              		.loc 1 52 0
  58 001a 80BD     		pop	{r7, pc}
  59              	.L4:
  60              		.align	2
  61              	.L3:
  62 001c 00000000 		.word	shiftregReceiver_initVar
ARM GAS  C:\Users\bryan.lee\AppData\Local\Temp\ccrUA04h.s 			page 3


  63              		.cfi_endproc
  64              	.LFE0:
  65              		.size	shiftregReceiver_Start, .-shiftregReceiver_Start
  66              		.section	.text.shiftregReceiver_Enable,"ax",%progbits
  67              		.align	2
  68              		.global	shiftregReceiver_Enable
  69              		.thumb
  70              		.thumb_func
  71              		.type	shiftregReceiver_Enable, %function
  72              	shiftregReceiver_Enable:
  73              	.LFB1:
  53:Generated_Source\PSoC5/shiftregReceiver.c **** 
  54:Generated_Source\PSoC5/shiftregReceiver.c **** 
  55:Generated_Source\PSoC5/shiftregReceiver.c **** /*******************************************************************************
  56:Generated_Source\PSoC5/shiftregReceiver.c **** * Function Name: shiftregReceiver_Enable
  57:Generated_Source\PSoC5/shiftregReceiver.c **** ********************************************************************************
  58:Generated_Source\PSoC5/shiftregReceiver.c **** *
  59:Generated_Source\PSoC5/shiftregReceiver.c **** * Summary:
  60:Generated_Source\PSoC5/shiftregReceiver.c **** *  Enables the Shift Register.
  61:Generated_Source\PSoC5/shiftregReceiver.c **** *
  62:Generated_Source\PSoC5/shiftregReceiver.c **** * Parameters:
  63:Generated_Source\PSoC5/shiftregReceiver.c **** *  void.
  64:Generated_Source\PSoC5/shiftregReceiver.c **** *
  65:Generated_Source\PSoC5/shiftregReceiver.c **** * Return:
  66:Generated_Source\PSoC5/shiftregReceiver.c **** *  void.
  67:Generated_Source\PSoC5/shiftregReceiver.c **** *
  68:Generated_Source\PSoC5/shiftregReceiver.c **** *******************************************************************************/
  69:Generated_Source\PSoC5/shiftregReceiver.c **** void shiftregReceiver_Enable(void) 
  70:Generated_Source\PSoC5/shiftregReceiver.c **** {
  74              		.loc 1 70 0
  75              		.cfi_startproc
  76              		@ args = 0, pretend = 0, frame = 0
  77              		@ frame_needed = 1, uses_anonymous_args = 0
  78 0000 80B5     		push	{r7, lr}
  79              		.cfi_def_cfa_offset 8
  80              		.cfi_offset 7, -8
  81              		.cfi_offset 14, -4
  82 0002 00AF     		add	r7, sp, #0
  83              		.cfi_def_cfa_register 7
  71:Generated_Source\PSoC5/shiftregReceiver.c ****     /* Changing address in Datapath Control Store
  72:Generated_Source\PSoC5/shiftregReceiver.c ****        from NOP to component state machine commands space */
  73:Generated_Source\PSoC5/shiftregReceiver.c ****     shiftregReceiver_SR_CONTROL |= shiftregReceiver_CLK_EN;
  84              		.loc 1 73 0
  85 0004 054A     		ldr	r2, .L6
  86 0006 054B     		ldr	r3, .L6
  87 0008 1B78     		ldrb	r3, [r3]
  88 000a DBB2     		uxtb	r3, r3
  89 000c 43F00103 		orr	r3, r3, #1
  90 0010 DBB2     		uxtb	r3, r3
  91 0012 1370     		strb	r3, [r2]
  74:Generated_Source\PSoC5/shiftregReceiver.c **** 
  75:Generated_Source\PSoC5/shiftregReceiver.c ****     shiftregReceiver_EnableInt();
  92              		.loc 1 75 0
  93 0014 FFF7FEFF 		bl	shiftregReceiver_EnableInt
  76:Generated_Source\PSoC5/shiftregReceiver.c **** }
  94              		.loc 1 76 0
  95 0018 80BD     		pop	{r7, pc}
ARM GAS  C:\Users\bryan.lee\AppData\Local\Temp\ccrUA04h.s 			page 4


  96              	.L7:
  97 001a 00BF     		.align	2
  98              	.L6:
  99 001c 75640040 		.word	1073767541
 100              		.cfi_endproc
 101              	.LFE1:
 102              		.size	shiftregReceiver_Enable, .-shiftregReceiver_Enable
 103              		.section	.text.shiftregReceiver_Init,"ax",%progbits
 104              		.align	2
 105              		.global	shiftregReceiver_Init
 106              		.thumb
 107              		.thumb_func
 108              		.type	shiftregReceiver_Init, %function
 109              	shiftregReceiver_Init:
 110              	.LFB2:
  77:Generated_Source\PSoC5/shiftregReceiver.c **** 
  78:Generated_Source\PSoC5/shiftregReceiver.c **** 
  79:Generated_Source\PSoC5/shiftregReceiver.c **** /*******************************************************************************
  80:Generated_Source\PSoC5/shiftregReceiver.c **** * Function Name: shiftregReceiver_Init
  81:Generated_Source\PSoC5/shiftregReceiver.c **** ********************************************************************************
  82:Generated_Source\PSoC5/shiftregReceiver.c **** *
  83:Generated_Source\PSoC5/shiftregReceiver.c **** * Summary:
  84:Generated_Source\PSoC5/shiftregReceiver.c **** *  Initializes Tx and/or Rx interrupt sources with initial values.
  85:Generated_Source\PSoC5/shiftregReceiver.c **** *
  86:Generated_Source\PSoC5/shiftregReceiver.c **** * Parameters:
  87:Generated_Source\PSoC5/shiftregReceiver.c **** *  void.
  88:Generated_Source\PSoC5/shiftregReceiver.c **** *
  89:Generated_Source\PSoC5/shiftregReceiver.c **** * Return:
  90:Generated_Source\PSoC5/shiftregReceiver.c **** *  void.
  91:Generated_Source\PSoC5/shiftregReceiver.c **** *
  92:Generated_Source\PSoC5/shiftregReceiver.c **** *******************************************************************************/
  93:Generated_Source\PSoC5/shiftregReceiver.c **** void shiftregReceiver_Init(void) 
  94:Generated_Source\PSoC5/shiftregReceiver.c **** {
 111              		.loc 1 94 0
 112              		.cfi_startproc
 113              		@ args = 0, pretend = 0, frame = 0
 114              		@ frame_needed = 1, uses_anonymous_args = 0
 115 0000 80B5     		push	{r7, lr}
 116              		.cfi_def_cfa_offset 8
 117              		.cfi_offset 7, -8
 118              		.cfi_offset 14, -4
 119 0002 00AF     		add	r7, sp, #0
 120              		.cfi_def_cfa_register 7
  95:Generated_Source\PSoC5/shiftregReceiver.c ****     shiftregReceiver_SetIntMode(shiftregReceiver_INT_SRC);
 121              		.loc 1 95 0
 122 0004 0220     		movs	r0, #2
 123 0006 FFF7FEFF 		bl	shiftregReceiver_SetIntMode
  96:Generated_Source\PSoC5/shiftregReceiver.c **** }
 124              		.loc 1 96 0
 125 000a 80BD     		pop	{r7, pc}
 126              		.cfi_endproc
 127              	.LFE2:
 128              		.size	shiftregReceiver_Init, .-shiftregReceiver_Init
 129              		.section	.text.shiftregReceiver_Stop,"ax",%progbits
 130              		.align	2
 131              		.global	shiftregReceiver_Stop
 132              		.thumb
ARM GAS  C:\Users\bryan.lee\AppData\Local\Temp\ccrUA04h.s 			page 5


 133              		.thumb_func
 134              		.type	shiftregReceiver_Stop, %function
 135              	shiftregReceiver_Stop:
 136              	.LFB3:
  97:Generated_Source\PSoC5/shiftregReceiver.c **** 
  98:Generated_Source\PSoC5/shiftregReceiver.c **** 
  99:Generated_Source\PSoC5/shiftregReceiver.c **** /*******************************************************************************
 100:Generated_Source\PSoC5/shiftregReceiver.c **** * Function Name: shiftregReceiver_Stop
 101:Generated_Source\PSoC5/shiftregReceiver.c **** ********************************************************************************
 102:Generated_Source\PSoC5/shiftregReceiver.c **** *
 103:Generated_Source\PSoC5/shiftregReceiver.c **** * Summary:
 104:Generated_Source\PSoC5/shiftregReceiver.c **** *  Disables the Shift Register
 105:Generated_Source\PSoC5/shiftregReceiver.c **** *
 106:Generated_Source\PSoC5/shiftregReceiver.c **** * Parameters:
 107:Generated_Source\PSoC5/shiftregReceiver.c **** *  None.
 108:Generated_Source\PSoC5/shiftregReceiver.c **** *
 109:Generated_Source\PSoC5/shiftregReceiver.c **** * Return:
 110:Generated_Source\PSoC5/shiftregReceiver.c **** *  None.
 111:Generated_Source\PSoC5/shiftregReceiver.c **** *
 112:Generated_Source\PSoC5/shiftregReceiver.c **** *******************************************************************************/
 113:Generated_Source\PSoC5/shiftregReceiver.c **** void shiftregReceiver_Stop(void) 
 114:Generated_Source\PSoC5/shiftregReceiver.c **** {
 137              		.loc 1 114 0
 138              		.cfi_startproc
 139              		@ args = 0, pretend = 0, frame = 0
 140              		@ frame_needed = 1, uses_anonymous_args = 0
 141 0000 80B5     		push	{r7, lr}
 142              		.cfi_def_cfa_offset 8
 143              		.cfi_offset 7, -8
 144              		.cfi_offset 14, -4
 145 0002 00AF     		add	r7, sp, #0
 146              		.cfi_def_cfa_register 7
 115:Generated_Source\PSoC5/shiftregReceiver.c ****     /*changing Datapath Control Store address to NOP space*/
 116:Generated_Source\PSoC5/shiftregReceiver.c ****     shiftregReceiver_SR_CONTROL &= ((uint8) ~shiftregReceiver_CLK_EN);
 147              		.loc 1 116 0
 148 0004 054A     		ldr	r2, .L10
 149 0006 054B     		ldr	r3, .L10
 150 0008 1B78     		ldrb	r3, [r3]
 151 000a DBB2     		uxtb	r3, r3
 152 000c 23F00103 		bic	r3, r3, #1
 153 0010 DBB2     		uxtb	r3, r3
 154 0012 1370     		strb	r3, [r2]
 117:Generated_Source\PSoC5/shiftregReceiver.c ****     shiftregReceiver_DisableInt();
 155              		.loc 1 117 0
 156 0014 FFF7FEFF 		bl	shiftregReceiver_DisableInt
 118:Generated_Source\PSoC5/shiftregReceiver.c **** }
 157              		.loc 1 118 0
 158 0018 80BD     		pop	{r7, pc}
 159              	.L11:
 160 001a 00BF     		.align	2
 161              	.L10:
 162 001c 75640040 		.word	1073767541
 163              		.cfi_endproc
 164              	.LFE3:
 165              		.size	shiftregReceiver_Stop, .-shiftregReceiver_Stop
 166              		.section	.text.shiftregReceiver_EnableInt,"ax",%progbits
 167              		.align	2
ARM GAS  C:\Users\bryan.lee\AppData\Local\Temp\ccrUA04h.s 			page 6


 168              		.global	shiftregReceiver_EnableInt
 169              		.thumb
 170              		.thumb_func
 171              		.type	shiftregReceiver_EnableInt, %function
 172              	shiftregReceiver_EnableInt:
 173              	.LFB4:
 119:Generated_Source\PSoC5/shiftregReceiver.c **** 
 120:Generated_Source\PSoC5/shiftregReceiver.c **** 
 121:Generated_Source\PSoC5/shiftregReceiver.c **** /*******************************************************************************
 122:Generated_Source\PSoC5/shiftregReceiver.c **** * Function Name: shiftregReceiver_EnableInt
 123:Generated_Source\PSoC5/shiftregReceiver.c **** ********************************************************************************
 124:Generated_Source\PSoC5/shiftregReceiver.c **** *
 125:Generated_Source\PSoC5/shiftregReceiver.c **** * Summary:
 126:Generated_Source\PSoC5/shiftregReceiver.c **** *  Enables the Shift Register interrupt.
 127:Generated_Source\PSoC5/shiftregReceiver.c **** *
 128:Generated_Source\PSoC5/shiftregReceiver.c **** * Parameters:
 129:Generated_Source\PSoC5/shiftregReceiver.c **** *  None.
 130:Generated_Source\PSoC5/shiftregReceiver.c **** *
 131:Generated_Source\PSoC5/shiftregReceiver.c **** * Return:
 132:Generated_Source\PSoC5/shiftregReceiver.c **** *  None.
 133:Generated_Source\PSoC5/shiftregReceiver.c **** *
 134:Generated_Source\PSoC5/shiftregReceiver.c **** *******************************************************************************/
 135:Generated_Source\PSoC5/shiftregReceiver.c **** void shiftregReceiver_EnableInt(void) 
 136:Generated_Source\PSoC5/shiftregReceiver.c **** {
 174              		.loc 1 136 0
 175              		.cfi_startproc
 176              		@ args = 0, pretend = 0, frame = 8
 177              		@ frame_needed = 1, uses_anonymous_args = 0
 178 0000 80B5     		push	{r7, lr}
 179              		.cfi_def_cfa_offset 8
 180              		.cfi_offset 7, -8
 181              		.cfi_offset 14, -4
 182 0002 82B0     		sub	sp, sp, #8
 183              		.cfi_def_cfa_offset 16
 184 0004 00AF     		add	r7, sp, #0
 185              		.cfi_def_cfa_register 7
 137:Generated_Source\PSoC5/shiftregReceiver.c ****     uint8 interruptState;
 138:Generated_Source\PSoC5/shiftregReceiver.c **** 
 139:Generated_Source\PSoC5/shiftregReceiver.c ****     interruptState = CyEnterCriticalSection();
 186              		.loc 1 139 0
 187 0006 FFF7FEFF 		bl	CyEnterCriticalSection
 188 000a 0346     		mov	r3, r0
 189 000c FB71     		strb	r3, [r7, #7]
 140:Generated_Source\PSoC5/shiftregReceiver.c ****     shiftregReceiver_SR_AUX_CONTROL |= shiftregReceiver_INTERRUPTS_ENABLE;
 190              		.loc 1 140 0
 191 000e 074A     		ldr	r2, .L13
 192 0010 064B     		ldr	r3, .L13
 193 0012 1B78     		ldrb	r3, [r3]
 194 0014 DBB2     		uxtb	r3, r3
 195 0016 43F01003 		orr	r3, r3, #16
 196 001a DBB2     		uxtb	r3, r3
 197 001c 1370     		strb	r3, [r2]
 141:Generated_Source\PSoC5/shiftregReceiver.c ****     CyExitCriticalSection(interruptState);
 198              		.loc 1 141 0
 199 001e FB79     		ldrb	r3, [r7, #7]	@ zero_extendqisi2
 200 0020 1846     		mov	r0, r3
 201 0022 FFF7FEFF 		bl	CyExitCriticalSection
ARM GAS  C:\Users\bryan.lee\AppData\Local\Temp\ccrUA04h.s 			page 7


 142:Generated_Source\PSoC5/shiftregReceiver.c **** }
 202              		.loc 1 142 0
 203 0026 0837     		adds	r7, r7, #8
 204              		.cfi_def_cfa_offset 8
 205 0028 BD46     		mov	sp, r7
 206              		.cfi_def_cfa_register 13
 207              		@ sp needed
 208 002a 80BD     		pop	{r7, pc}
 209              	.L14:
 210              		.align	2
 211              	.L13:
 212 002c 95640040 		.word	1073767573
 213              		.cfi_endproc
 214              	.LFE4:
 215              		.size	shiftregReceiver_EnableInt, .-shiftregReceiver_EnableInt
 216              		.section	.text.shiftregReceiver_DisableInt,"ax",%progbits
 217              		.align	2
 218              		.global	shiftregReceiver_DisableInt
 219              		.thumb
 220              		.thumb_func
 221              		.type	shiftregReceiver_DisableInt, %function
 222              	shiftregReceiver_DisableInt:
 223              	.LFB5:
 143:Generated_Source\PSoC5/shiftregReceiver.c **** 
 144:Generated_Source\PSoC5/shiftregReceiver.c **** 
 145:Generated_Source\PSoC5/shiftregReceiver.c **** /*******************************************************************************
 146:Generated_Source\PSoC5/shiftregReceiver.c **** * Function Name: shiftregReceiver_DisableInt
 147:Generated_Source\PSoC5/shiftregReceiver.c **** ********************************************************************************
 148:Generated_Source\PSoC5/shiftregReceiver.c **** *
 149:Generated_Source\PSoC5/shiftregReceiver.c **** * Summary:
 150:Generated_Source\PSoC5/shiftregReceiver.c **** *  Disables the Shift Register interrupt.
 151:Generated_Source\PSoC5/shiftregReceiver.c **** *
 152:Generated_Source\PSoC5/shiftregReceiver.c **** * Parameters:
 153:Generated_Source\PSoC5/shiftregReceiver.c **** *  None.
 154:Generated_Source\PSoC5/shiftregReceiver.c **** *
 155:Generated_Source\PSoC5/shiftregReceiver.c **** * Return:
 156:Generated_Source\PSoC5/shiftregReceiver.c **** *  None.
 157:Generated_Source\PSoC5/shiftregReceiver.c **** *
 158:Generated_Source\PSoC5/shiftregReceiver.c **** *******************************************************************************/
 159:Generated_Source\PSoC5/shiftregReceiver.c **** void shiftregReceiver_DisableInt(void) 
 160:Generated_Source\PSoC5/shiftregReceiver.c **** {
 224              		.loc 1 160 0
 225              		.cfi_startproc
 226              		@ args = 0, pretend = 0, frame = 8
 227              		@ frame_needed = 1, uses_anonymous_args = 0
 228 0000 80B5     		push	{r7, lr}
 229              		.cfi_def_cfa_offset 8
 230              		.cfi_offset 7, -8
 231              		.cfi_offset 14, -4
 232 0002 82B0     		sub	sp, sp, #8
 233              		.cfi_def_cfa_offset 16
 234 0004 00AF     		add	r7, sp, #0
 235              		.cfi_def_cfa_register 7
 161:Generated_Source\PSoC5/shiftregReceiver.c ****     uint8 interruptState;
 162:Generated_Source\PSoC5/shiftregReceiver.c **** 
 163:Generated_Source\PSoC5/shiftregReceiver.c ****     interruptState = CyEnterCriticalSection();
 236              		.loc 1 163 0
ARM GAS  C:\Users\bryan.lee\AppData\Local\Temp\ccrUA04h.s 			page 8


 237 0006 FFF7FEFF 		bl	CyEnterCriticalSection
 238 000a 0346     		mov	r3, r0
 239 000c FB71     		strb	r3, [r7, #7]
 164:Generated_Source\PSoC5/shiftregReceiver.c ****     shiftregReceiver_SR_AUX_CONTROL &= ((uint8) ~shiftregReceiver_INTERRUPTS_ENABLE);
 240              		.loc 1 164 0
 241 000e 074A     		ldr	r2, .L16
 242 0010 064B     		ldr	r3, .L16
 243 0012 1B78     		ldrb	r3, [r3]
 244 0014 DBB2     		uxtb	r3, r3
 245 0016 23F01003 		bic	r3, r3, #16
 246 001a DBB2     		uxtb	r3, r3
 247 001c 1370     		strb	r3, [r2]
 165:Generated_Source\PSoC5/shiftregReceiver.c ****     CyExitCriticalSection(interruptState);
 248              		.loc 1 165 0
 249 001e FB79     		ldrb	r3, [r7, #7]	@ zero_extendqisi2
 250 0020 1846     		mov	r0, r3
 251 0022 FFF7FEFF 		bl	CyExitCriticalSection
 166:Generated_Source\PSoC5/shiftregReceiver.c **** }
 252              		.loc 1 166 0
 253 0026 0837     		adds	r7, r7, #8
 254              		.cfi_def_cfa_offset 8
 255 0028 BD46     		mov	sp, r7
 256              		.cfi_def_cfa_register 13
 257              		@ sp needed
 258 002a 80BD     		pop	{r7, pc}
 259              	.L17:
 260              		.align	2
 261              	.L16:
 262 002c 95640040 		.word	1073767573
 263              		.cfi_endproc
 264              	.LFE5:
 265              		.size	shiftregReceiver_DisableInt, .-shiftregReceiver_DisableInt
 266              		.section	.text.shiftregReceiver_GetFIFOStatus,"ax",%progbits
 267              		.align	2
 268              		.global	shiftregReceiver_GetFIFOStatus
 269              		.thumb
 270              		.thumb_func
 271              		.type	shiftregReceiver_GetFIFOStatus, %function
 272              	shiftregReceiver_GetFIFOStatus:
 273              	.LFB6:
 167:Generated_Source\PSoC5/shiftregReceiver.c **** 
 168:Generated_Source\PSoC5/shiftregReceiver.c **** 
 169:Generated_Source\PSoC5/shiftregReceiver.c **** /*******************************************************************************
 170:Generated_Source\PSoC5/shiftregReceiver.c **** * Function Name: shiftregReceiver_GetFIFOStatus
 171:Generated_Source\PSoC5/shiftregReceiver.c **** ********************************************************************************
 172:Generated_Source\PSoC5/shiftregReceiver.c **** *
 173:Generated_Source\PSoC5/shiftregReceiver.c **** * Summary:
 174:Generated_Source\PSoC5/shiftregReceiver.c **** *  Returns current status of input or output FIFO.
 175:Generated_Source\PSoC5/shiftregReceiver.c **** *
 176:Generated_Source\PSoC5/shiftregReceiver.c **** * Parameters:
 177:Generated_Source\PSoC5/shiftregReceiver.c **** *  fifoId.
 178:Generated_Source\PSoC5/shiftregReceiver.c **** *
 179:Generated_Source\PSoC5/shiftregReceiver.c **** * Return:
 180:Generated_Source\PSoC5/shiftregReceiver.c **** *  FIFO status.
 181:Generated_Source\PSoC5/shiftregReceiver.c **** *
 182:Generated_Source\PSoC5/shiftregReceiver.c **** *******************************************************************************/
 183:Generated_Source\PSoC5/shiftregReceiver.c **** uint8 shiftregReceiver_GetFIFOStatus(uint8 fifoId) 
ARM GAS  C:\Users\bryan.lee\AppData\Local\Temp\ccrUA04h.s 			page 9


 184:Generated_Source\PSoC5/shiftregReceiver.c **** {
 274              		.loc 1 184 0
 275              		.cfi_startproc
 276              		@ args = 0, pretend = 0, frame = 16
 277              		@ frame_needed = 1, uses_anonymous_args = 0
 278              		@ link register save eliminated.
 279 0000 80B4     		push	{r7}
 280              		.cfi_def_cfa_offset 4
 281              		.cfi_offset 7, -4
 282 0002 85B0     		sub	sp, sp, #20
 283              		.cfi_def_cfa_offset 24
 284 0004 00AF     		add	r7, sp, #0
 285              		.cfi_def_cfa_register 7
 286 0006 0346     		mov	r3, r0
 287 0008 FB71     		strb	r3, [r7, #7]
 185:Generated_Source\PSoC5/shiftregReceiver.c ****     uint8 result;
 186:Generated_Source\PSoC5/shiftregReceiver.c **** 
 187:Generated_Source\PSoC5/shiftregReceiver.c ****     result = shiftregReceiver_RET_FIFO_NOT_DEFINED;
 288              		.loc 1 187 0
 289 000a FE23     		movs	r3, #254
 290 000c FB73     		strb	r3, [r7, #15]
 188:Generated_Source\PSoC5/shiftregReceiver.c **** 
 189:Generated_Source\PSoC5/shiftregReceiver.c ****     #if(0u != shiftregReceiver_USE_INPUT_FIFO)
 190:Generated_Source\PSoC5/shiftregReceiver.c ****         if(shiftregReceiver_IN_FIFO == fifoId)
 191:Generated_Source\PSoC5/shiftregReceiver.c ****         {
 192:Generated_Source\PSoC5/shiftregReceiver.c ****             switch(shiftregReceiver_GET_IN_FIFO_STS)
 193:Generated_Source\PSoC5/shiftregReceiver.c ****             {
 194:Generated_Source\PSoC5/shiftregReceiver.c ****                 case shiftregReceiver_IN_FIFO_FULL :
 195:Generated_Source\PSoC5/shiftregReceiver.c ****                     result = shiftregReceiver_RET_FIFO_FULL;
 196:Generated_Source\PSoC5/shiftregReceiver.c ****                     break;
 197:Generated_Source\PSoC5/shiftregReceiver.c **** 
 198:Generated_Source\PSoC5/shiftregReceiver.c ****                 case shiftregReceiver_IN_FIFO_EMPTY :
 199:Generated_Source\PSoC5/shiftregReceiver.c ****                     result = shiftregReceiver_RET_FIFO_EMPTY;
 200:Generated_Source\PSoC5/shiftregReceiver.c ****                     break;
 201:Generated_Source\PSoC5/shiftregReceiver.c **** 
 202:Generated_Source\PSoC5/shiftregReceiver.c ****                 case shiftregReceiver_IN_FIFO_PARTIAL:
 203:Generated_Source\PSoC5/shiftregReceiver.c ****                     result = shiftregReceiver_RET_FIFO_PARTIAL;
 204:Generated_Source\PSoC5/shiftregReceiver.c ****                     break;
 205:Generated_Source\PSoC5/shiftregReceiver.c ****                     
 206:Generated_Source\PSoC5/shiftregReceiver.c ****                 default:
 207:Generated_Source\PSoC5/shiftregReceiver.c ****                     /* Initial result value, while 
 208:Generated_Source\PSoC5/shiftregReceiver.c ****                        IN_FIFO_EMPTY case is false 
 209:Generated_Source\PSoC5/shiftregReceiver.c ****                      */
 210:Generated_Source\PSoC5/shiftregReceiver.c ****                     result = shiftregReceiver_RET_FIFO_EMPTY;
 211:Generated_Source\PSoC5/shiftregReceiver.c ****                     break;
 212:Generated_Source\PSoC5/shiftregReceiver.c ****             }   
 213:Generated_Source\PSoC5/shiftregReceiver.c ****         }
 214:Generated_Source\PSoC5/shiftregReceiver.c ****     #endif /* (0u != shiftregReceiver_USE_INPUT_FIFO) */
 215:Generated_Source\PSoC5/shiftregReceiver.c **** 
 216:Generated_Source\PSoC5/shiftregReceiver.c ****     if(shiftregReceiver_OUT_FIFO == fifoId)
 291              		.loc 1 216 0
 292 000e FB79     		ldrb	r3, [r7, #7]	@ zero_extendqisi2
 293 0010 022B     		cmp	r3, #2
 294 0012 18D1     		bne	.L19
 217:Generated_Source\PSoC5/shiftregReceiver.c ****     {
 218:Generated_Source\PSoC5/shiftregReceiver.c ****         switch(shiftregReceiver_GET_OUT_FIFO_STS)
 295              		.loc 1 218 0
ARM GAS  C:\Users\bryan.lee\AppData\Local\Temp\ccrUA04h.s 			page 10


 296 0014 0F4B     		ldr	r3, .L26
 297 0016 1B78     		ldrb	r3, [r3]
 298 0018 DBB2     		uxtb	r3, r3
 299 001a 03F06003 		and	r3, r3, #96
 300 001e 5B09     		lsrs	r3, r3, #5
 301 0020 012B     		cmp	r3, #1
 302 0022 04D0     		beq	.L21
 303 0024 012B     		cmp	r3, #1
 304 0026 05D3     		bcc	.L22
 305 0028 022B     		cmp	r3, #2
 306 002a 06D0     		beq	.L23
 307 002c 08E0     		b	.L25
 308              	.L21:
 219:Generated_Source\PSoC5/shiftregReceiver.c ****         {
 220:Generated_Source\PSoC5/shiftregReceiver.c ****             case shiftregReceiver_OUT_FIFO_FULL :
 221:Generated_Source\PSoC5/shiftregReceiver.c ****                 result = shiftregReceiver_RET_FIFO_FULL;
 309              		.loc 1 221 0
 310 002e 0023     		movs	r3, #0
 311 0030 FB73     		strb	r3, [r7, #15]
 222:Generated_Source\PSoC5/shiftregReceiver.c ****                 break;
 312              		.loc 1 222 0
 313 0032 08E0     		b	.L19
 314              	.L22:
 223:Generated_Source\PSoC5/shiftregReceiver.c **** 
 224:Generated_Source\PSoC5/shiftregReceiver.c ****             case shiftregReceiver_OUT_FIFO_EMPTY :
 225:Generated_Source\PSoC5/shiftregReceiver.c ****                 result = shiftregReceiver_RET_FIFO_EMPTY;
 315              		.loc 1 225 0
 316 0034 0223     		movs	r3, #2
 317 0036 FB73     		strb	r3, [r7, #15]
 226:Generated_Source\PSoC5/shiftregReceiver.c ****                 break;
 318              		.loc 1 226 0
 319 0038 05E0     		b	.L19
 320              	.L23:
 227:Generated_Source\PSoC5/shiftregReceiver.c **** 
 228:Generated_Source\PSoC5/shiftregReceiver.c ****             case shiftregReceiver_OUT_FIFO_PARTIAL :
 229:Generated_Source\PSoC5/shiftregReceiver.c ****                 result = shiftregReceiver_RET_FIFO_PARTIAL;
 321              		.loc 1 229 0
 322 003a 0123     		movs	r3, #1
 323 003c FB73     		strb	r3, [r7, #15]
 230:Generated_Source\PSoC5/shiftregReceiver.c ****                 break;
 324              		.loc 1 230 0
 325 003e 02E0     		b	.L19
 326              	.L25:
 231:Generated_Source\PSoC5/shiftregReceiver.c **** 
 232:Generated_Source\PSoC5/shiftregReceiver.c ****             default:
 233:Generated_Source\PSoC5/shiftregReceiver.c ****                 /* Initial result value, while 
 234:Generated_Source\PSoC5/shiftregReceiver.c ****                    OUT_FIFO_FULL case is false 
 235:Generated_Source\PSoC5/shiftregReceiver.c ****                  */
 236:Generated_Source\PSoC5/shiftregReceiver.c ****                 result = shiftregReceiver_RET_FIFO_FULL;
 327              		.loc 1 236 0
 328 0040 0023     		movs	r3, #0
 329 0042 FB73     		strb	r3, [r7, #15]
 237:Generated_Source\PSoC5/shiftregReceiver.c ****                 break;
 330              		.loc 1 237 0
 331 0044 00BF     		nop
 332              	.L19:
 238:Generated_Source\PSoC5/shiftregReceiver.c ****         }
ARM GAS  C:\Users\bryan.lee\AppData\Local\Temp\ccrUA04h.s 			page 11


 239:Generated_Source\PSoC5/shiftregReceiver.c ****     }
 240:Generated_Source\PSoC5/shiftregReceiver.c **** 
 241:Generated_Source\PSoC5/shiftregReceiver.c ****     return(result);
 333              		.loc 1 241 0
 334 0046 FB7B     		ldrb	r3, [r7, #15]	@ zero_extendqisi2
 242:Generated_Source\PSoC5/shiftregReceiver.c **** }
 335              		.loc 1 242 0
 336 0048 1846     		mov	r0, r3
 337 004a 1437     		adds	r7, r7, #20
 338              		.cfi_def_cfa_offset 4
 339 004c BD46     		mov	sp, r7
 340              		.cfi_def_cfa_register 13
 341              		@ sp needed
 342 004e 5DF8047B 		ldr	r7, [sp], #4
 343              		.cfi_restore 7
 344              		.cfi_def_cfa_offset 0
 345 0052 7047     		bx	lr
 346              	.L27:
 347              		.align	2
 348              	.L26:
 349 0054 65640040 		.word	1073767525
 350              		.cfi_endproc
 351              	.LFE6:
 352              		.size	shiftregReceiver_GetFIFOStatus, .-shiftregReceiver_GetFIFOStatus
 353              		.section	.text.shiftregReceiver_SetIntMode,"ax",%progbits
 354              		.align	2
 355              		.global	shiftregReceiver_SetIntMode
 356              		.thumb
 357              		.thumb_func
 358              		.type	shiftregReceiver_SetIntMode, %function
 359              	shiftregReceiver_SetIntMode:
 360              	.LFB7:
 243:Generated_Source\PSoC5/shiftregReceiver.c **** 
 244:Generated_Source\PSoC5/shiftregReceiver.c **** 
 245:Generated_Source\PSoC5/shiftregReceiver.c **** /*******************************************************************************
 246:Generated_Source\PSoC5/shiftregReceiver.c **** * Function Name: shiftregReceiver_SetIntMode
 247:Generated_Source\PSoC5/shiftregReceiver.c **** ********************************************************************************
 248:Generated_Source\PSoC5/shiftregReceiver.c **** *
 249:Generated_Source\PSoC5/shiftregReceiver.c **** * Summary:
 250:Generated_Source\PSoC5/shiftregReceiver.c **** *  Sets the Interrupt Source for the Shift Register interrupt. Multiple
 251:Generated_Source\PSoC5/shiftregReceiver.c **** *  sources may be ORed together
 252:Generated_Source\PSoC5/shiftregReceiver.c **** *
 253:Generated_Source\PSoC5/shiftregReceiver.c **** * Parameters:
 254:Generated_Source\PSoC5/shiftregReceiver.c **** *  interruptSource: Byte containing the constant for the selected interrupt
 255:Generated_Source\PSoC5/shiftregReceiver.c **** *  source/s.
 256:Generated_Source\PSoC5/shiftregReceiver.c **** *
 257:Generated_Source\PSoC5/shiftregReceiver.c **** * Return:
 258:Generated_Source\PSoC5/shiftregReceiver.c **** *  None.
 259:Generated_Source\PSoC5/shiftregReceiver.c **** *
 260:Generated_Source\PSoC5/shiftregReceiver.c **** *******************************************************************************/
 261:Generated_Source\PSoC5/shiftregReceiver.c **** void shiftregReceiver_SetIntMode(uint8 interruptSource) 
 262:Generated_Source\PSoC5/shiftregReceiver.c **** {
 361              		.loc 1 262 0
 362              		.cfi_startproc
 363              		@ args = 0, pretend = 0, frame = 8
 364              		@ frame_needed = 1, uses_anonymous_args = 0
 365              		@ link register save eliminated.
ARM GAS  C:\Users\bryan.lee\AppData\Local\Temp\ccrUA04h.s 			page 12


 366 0000 80B4     		push	{r7}
 367              		.cfi_def_cfa_offset 4
 368              		.cfi_offset 7, -4
 369 0002 83B0     		sub	sp, sp, #12
 370              		.cfi_def_cfa_offset 16
 371 0004 00AF     		add	r7, sp, #0
 372              		.cfi_def_cfa_register 7
 373 0006 0346     		mov	r3, r0
 374 0008 FB71     		strb	r3, [r7, #7]
 263:Generated_Source\PSoC5/shiftregReceiver.c ****     shiftregReceiver_SR_STATUS_MASK &= ((uint8) ~shiftregReceiver_INTS_EN_MASK);          /* Clear 
 375              		.loc 1 263 0
 376 000a 0C4A     		ldr	r2, .L29
 377 000c 0B4B     		ldr	r3, .L29
 378 000e 1B78     		ldrb	r3, [r3]
 379 0010 DBB2     		uxtb	r3, r3
 380 0012 23F00703 		bic	r3, r3, #7
 381 0016 DBB2     		uxtb	r3, r3
 382 0018 1370     		strb	r3, [r2]
 264:Generated_Source\PSoC5/shiftregReceiver.c ****     shiftregReceiver_SR_STATUS_MASK |= (interruptSource & shiftregReceiver_INTS_EN_MASK); /* Set in
 383              		.loc 1 264 0
 384 001a 0849     		ldr	r1, .L29
 385 001c 074B     		ldr	r3, .L29
 386 001e 1B78     		ldrb	r3, [r3]
 387 0020 DAB2     		uxtb	r2, r3
 388 0022 FB79     		ldrb	r3, [r7, #7]
 389 0024 03F00703 		and	r3, r3, #7
 390 0028 DBB2     		uxtb	r3, r3
 391 002a 1343     		orrs	r3, r3, r2
 392 002c DBB2     		uxtb	r3, r3
 393 002e 0B70     		strb	r3, [r1]
 265:Generated_Source\PSoC5/shiftregReceiver.c **** }
 394              		.loc 1 265 0
 395 0030 0C37     		adds	r7, r7, #12
 396              		.cfi_def_cfa_offset 4
 397 0032 BD46     		mov	sp, r7
 398              		.cfi_def_cfa_register 13
 399              		@ sp needed
 400 0034 5DF8047B 		ldr	r7, [sp], #4
 401              		.cfi_restore 7
 402              		.cfi_def_cfa_offset 0
 403 0038 7047     		bx	lr
 404              	.L30:
 405 003a 00BF     		.align	2
 406              	.L29:
 407 003c 85640040 		.word	1073767557
 408              		.cfi_endproc
 409              	.LFE7:
 410              		.size	shiftregReceiver_SetIntMode, .-shiftregReceiver_SetIntMode
 411              		.section	.text.shiftregReceiver_GetIntStatus,"ax",%progbits
 412              		.align	2
 413              		.global	shiftregReceiver_GetIntStatus
 414              		.thumb
 415              		.thumb_func
 416              		.type	shiftregReceiver_GetIntStatus, %function
 417              	shiftregReceiver_GetIntStatus:
 418              	.LFB8:
 266:Generated_Source\PSoC5/shiftregReceiver.c **** 
ARM GAS  C:\Users\bryan.lee\AppData\Local\Temp\ccrUA04h.s 			page 13


 267:Generated_Source\PSoC5/shiftregReceiver.c **** 
 268:Generated_Source\PSoC5/shiftregReceiver.c **** /*******************************************************************************
 269:Generated_Source\PSoC5/shiftregReceiver.c **** * Function Name: shiftregReceiver_GetIntStatus
 270:Generated_Source\PSoC5/shiftregReceiver.c **** ********************************************************************************
 271:Generated_Source\PSoC5/shiftregReceiver.c **** *
 272:Generated_Source\PSoC5/shiftregReceiver.c **** * Summary:
 273:Generated_Source\PSoC5/shiftregReceiver.c **** *  Gets the Shift Register Interrupt status.
 274:Generated_Source\PSoC5/shiftregReceiver.c **** *
 275:Generated_Source\PSoC5/shiftregReceiver.c **** * Parameters:
 276:Generated_Source\PSoC5/shiftregReceiver.c **** *  None.
 277:Generated_Source\PSoC5/shiftregReceiver.c **** *
 278:Generated_Source\PSoC5/shiftregReceiver.c **** * Return:
 279:Generated_Source\PSoC5/shiftregReceiver.c **** *  Byte containing the constant for the selected interrupt source/s.
 280:Generated_Source\PSoC5/shiftregReceiver.c **** *
 281:Generated_Source\PSoC5/shiftregReceiver.c **** *******************************************************************************/
 282:Generated_Source\PSoC5/shiftregReceiver.c **** uint8 shiftregReceiver_GetIntStatus(void) 
 283:Generated_Source\PSoC5/shiftregReceiver.c **** {
 419              		.loc 1 283 0
 420              		.cfi_startproc
 421              		@ args = 0, pretend = 0, frame = 0
 422              		@ frame_needed = 1, uses_anonymous_args = 0
 423              		@ link register save eliminated.
 424 0000 80B4     		push	{r7}
 425              		.cfi_def_cfa_offset 4
 426              		.cfi_offset 7, -4
 427 0002 00AF     		add	r7, sp, #0
 428              		.cfi_def_cfa_register 7
 284:Generated_Source\PSoC5/shiftregReceiver.c ****     return(shiftregReceiver_SR_STATUS & shiftregReceiver_INTS_EN_MASK);
 429              		.loc 1 284 0
 430 0004 054B     		ldr	r3, .L33
 431 0006 1B78     		ldrb	r3, [r3]
 432 0008 DBB2     		uxtb	r3, r3
 433 000a 03F00703 		and	r3, r3, #7
 434 000e DBB2     		uxtb	r3, r3
 285:Generated_Source\PSoC5/shiftregReceiver.c **** }
 435              		.loc 1 285 0
 436 0010 1846     		mov	r0, r3
 437 0012 BD46     		mov	sp, r7
 438              		.cfi_def_cfa_register 13
 439              		@ sp needed
 440 0014 5DF8047B 		ldr	r7, [sp], #4
 441              		.cfi_restore 7
 442              		.cfi_def_cfa_offset 0
 443 0018 7047     		bx	lr
 444              	.L34:
 445 001a 00BF     		.align	2
 446              	.L33:
 447 001c 65640040 		.word	1073767525
 448              		.cfi_endproc
 449              	.LFE8:
 450              		.size	shiftregReceiver_GetIntStatus, .-shiftregReceiver_GetIntStatus
 451              		.section	.text.shiftregReceiver_WriteRegValue,"ax",%progbits
 452              		.align	2
 453              		.global	shiftregReceiver_WriteRegValue
 454              		.thumb
 455              		.thumb_func
 456              		.type	shiftregReceiver_WriteRegValue, %function
ARM GAS  C:\Users\bryan.lee\AppData\Local\Temp\ccrUA04h.s 			page 14


 457              	shiftregReceiver_WriteRegValue:
 458              	.LFB9:
 286:Generated_Source\PSoC5/shiftregReceiver.c **** 
 287:Generated_Source\PSoC5/shiftregReceiver.c **** 
 288:Generated_Source\PSoC5/shiftregReceiver.c **** /*******************************************************************************
 289:Generated_Source\PSoC5/shiftregReceiver.c **** * Function Name: shiftregReceiver_WriteRegValue
 290:Generated_Source\PSoC5/shiftregReceiver.c **** ********************************************************************************
 291:Generated_Source\PSoC5/shiftregReceiver.c **** *
 292:Generated_Source\PSoC5/shiftregReceiver.c **** * Summary:
 293:Generated_Source\PSoC5/shiftregReceiver.c **** *  Send state directly to shift register
 294:Generated_Source\PSoC5/shiftregReceiver.c **** *
 295:Generated_Source\PSoC5/shiftregReceiver.c **** * Parameters:
 296:Generated_Source\PSoC5/shiftregReceiver.c **** *  shiftData: containing shift register state.
 297:Generated_Source\PSoC5/shiftregReceiver.c **** *
 298:Generated_Source\PSoC5/shiftregReceiver.c **** * Return:
 299:Generated_Source\PSoC5/shiftregReceiver.c **** *  None.
 300:Generated_Source\PSoC5/shiftregReceiver.c **** *
 301:Generated_Source\PSoC5/shiftregReceiver.c **** *******************************************************************************/
 302:Generated_Source\PSoC5/shiftregReceiver.c **** void shiftregReceiver_WriteRegValue(uint8 shiftData)
 303:Generated_Source\PSoC5/shiftregReceiver.c ****                                                                      
 304:Generated_Source\PSoC5/shiftregReceiver.c **** {
 459              		.loc 1 304 0
 460              		.cfi_startproc
 461              		@ args = 0, pretend = 0, frame = 8
 462              		@ frame_needed = 1, uses_anonymous_args = 0
 463              		@ link register save eliminated.
 464 0000 80B4     		push	{r7}
 465              		.cfi_def_cfa_offset 4
 466              		.cfi_offset 7, -4
 467 0002 83B0     		sub	sp, sp, #12
 468              		.cfi_def_cfa_offset 16
 469 0004 00AF     		add	r7, sp, #0
 470              		.cfi_def_cfa_register 7
 471 0006 0346     		mov	r3, r0
 472 0008 FB71     		strb	r3, [r7, #7]
 305:Generated_Source\PSoC5/shiftregReceiver.c ****     CY_SET_REG8(shiftregReceiver_SHIFT_REG_LSB_PTR, shiftData);
 473              		.loc 1 305 0
 474 000a 044A     		ldr	r2, .L36
 475 000c FB79     		ldrb	r3, [r7, #7]
 476 000e 1370     		strb	r3, [r2]
 306:Generated_Source\PSoC5/shiftregReceiver.c **** }
 477              		.loc 1 306 0
 478 0010 0C37     		adds	r7, r7, #12
 479              		.cfi_def_cfa_offset 4
 480 0012 BD46     		mov	sp, r7
 481              		.cfi_def_cfa_register 13
 482              		@ sp needed
 483 0014 5DF8047B 		ldr	r7, [sp], #4
 484              		.cfi_restore 7
 485              		.cfi_def_cfa_offset 0
 486 0018 7047     		bx	lr
 487              	.L37:
 488 001a 00BF     		.align	2
 489              	.L36:
 490 001c 06640040 		.word	1073767430
 491              		.cfi_endproc
 492              	.LFE9:
ARM GAS  C:\Users\bryan.lee\AppData\Local\Temp\ccrUA04h.s 			page 15


 493              		.size	shiftregReceiver_WriteRegValue, .-shiftregReceiver_WriteRegValue
 494              		.section	.text.shiftregReceiver_ReadData,"ax",%progbits
 495              		.align	2
 496              		.global	shiftregReceiver_ReadData
 497              		.thumb
 498              		.thumb_func
 499              		.type	shiftregReceiver_ReadData, %function
 500              	shiftregReceiver_ReadData:
 501              	.LFB10:
 307:Generated_Source\PSoC5/shiftregReceiver.c **** 
 308:Generated_Source\PSoC5/shiftregReceiver.c **** 
 309:Generated_Source\PSoC5/shiftregReceiver.c **** #if(0u != shiftregReceiver_USE_INPUT_FIFO)
 310:Generated_Source\PSoC5/shiftregReceiver.c ****     /*******************************************************************************
 311:Generated_Source\PSoC5/shiftregReceiver.c ****     * Function Name: shiftregReceiver_WriteData
 312:Generated_Source\PSoC5/shiftregReceiver.c ****     ********************************************************************************
 313:Generated_Source\PSoC5/shiftregReceiver.c ****     *
 314:Generated_Source\PSoC5/shiftregReceiver.c ****     * Summary:
 315:Generated_Source\PSoC5/shiftregReceiver.c ****     *  Send state to FIFO for later transfer to shift register based on the Load
 316:Generated_Source\PSoC5/shiftregReceiver.c ****     *  input
 317:Generated_Source\PSoC5/shiftregReceiver.c ****     *
 318:Generated_Source\PSoC5/shiftregReceiver.c ****     * Parameters:
 319:Generated_Source\PSoC5/shiftregReceiver.c ****     *  shiftData: containing shift register state.
 320:Generated_Source\PSoC5/shiftregReceiver.c ****     *
 321:Generated_Source\PSoC5/shiftregReceiver.c ****     * Return:
 322:Generated_Source\PSoC5/shiftregReceiver.c ****     *  Indicates: successful execution of function
 323:Generated_Source\PSoC5/shiftregReceiver.c ****     *  when FIFO is empty; and error when FIFO is full.
 324:Generated_Source\PSoC5/shiftregReceiver.c ****     *
 325:Generated_Source\PSoC5/shiftregReceiver.c ****     * Reentrant:
 326:Generated_Source\PSoC5/shiftregReceiver.c ****     *  No.
 327:Generated_Source\PSoC5/shiftregReceiver.c ****     *
 328:Generated_Source\PSoC5/shiftregReceiver.c ****     *******************************************************************************/
 329:Generated_Source\PSoC5/shiftregReceiver.c ****     cystatus shiftregReceiver_WriteData(uint8 shiftData)
 330:Generated_Source\PSoC5/shiftregReceiver.c ****                                                                          
 331:Generated_Source\PSoC5/shiftregReceiver.c ****     {
 332:Generated_Source\PSoC5/shiftregReceiver.c ****         cystatus result;
 333:Generated_Source\PSoC5/shiftregReceiver.c **** 
 334:Generated_Source\PSoC5/shiftregReceiver.c ****         result = CYRET_INVALID_STATE;
 335:Generated_Source\PSoC5/shiftregReceiver.c **** 
 336:Generated_Source\PSoC5/shiftregReceiver.c ****         /* Writes data into the input FIFO if it is not FULL */
 337:Generated_Source\PSoC5/shiftregReceiver.c ****         if(shiftregReceiver_RET_FIFO_FULL != (shiftregReceiver_GetFIFOStatus(shiftregReceiver_IN_FI
 338:Generated_Source\PSoC5/shiftregReceiver.c ****         {
 339:Generated_Source\PSoC5/shiftregReceiver.c ****             CY_SET_REG8(shiftregReceiver_IN_FIFO_VAL_LSB_PTR, shiftData);
 340:Generated_Source\PSoC5/shiftregReceiver.c ****             result = CYRET_SUCCESS;
 341:Generated_Source\PSoC5/shiftregReceiver.c ****         }
 342:Generated_Source\PSoC5/shiftregReceiver.c **** 
 343:Generated_Source\PSoC5/shiftregReceiver.c ****         return(result);
 344:Generated_Source\PSoC5/shiftregReceiver.c ****     }
 345:Generated_Source\PSoC5/shiftregReceiver.c **** #endif /* (0u != shiftregReceiver_USE_INPUT_FIFO) */
 346:Generated_Source\PSoC5/shiftregReceiver.c **** 
 347:Generated_Source\PSoC5/shiftregReceiver.c **** 
 348:Generated_Source\PSoC5/shiftregReceiver.c **** #if(0u != shiftregReceiver_USE_OUTPUT_FIFO)
 349:Generated_Source\PSoC5/shiftregReceiver.c ****     /*******************************************************************************
 350:Generated_Source\PSoC5/shiftregReceiver.c ****     * Function Name: shiftregReceiver_ReadData
 351:Generated_Source\PSoC5/shiftregReceiver.c ****     ********************************************************************************
 352:Generated_Source\PSoC5/shiftregReceiver.c ****     *
 353:Generated_Source\PSoC5/shiftregReceiver.c ****     * Summary:
 354:Generated_Source\PSoC5/shiftregReceiver.c ****     *  Returns state in FIFO due to Store input.
ARM GAS  C:\Users\bryan.lee\AppData\Local\Temp\ccrUA04h.s 			page 16


 355:Generated_Source\PSoC5/shiftregReceiver.c ****     *
 356:Generated_Source\PSoC5/shiftregReceiver.c ****     * Parameters:
 357:Generated_Source\PSoC5/shiftregReceiver.c ****     *  None.
 358:Generated_Source\PSoC5/shiftregReceiver.c ****     *
 359:Generated_Source\PSoC5/shiftregReceiver.c ****     * Return:
 360:Generated_Source\PSoC5/shiftregReceiver.c ****     *  Shift Register state
 361:Generated_Source\PSoC5/shiftregReceiver.c ****     *
 362:Generated_Source\PSoC5/shiftregReceiver.c ****     * Reentrant:
 363:Generated_Source\PSoC5/shiftregReceiver.c ****     *  No.
 364:Generated_Source\PSoC5/shiftregReceiver.c ****     *
 365:Generated_Source\PSoC5/shiftregReceiver.c ****     *******************************************************************************/
 366:Generated_Source\PSoC5/shiftregReceiver.c ****     uint8 shiftregReceiver_ReadData(void) 
 367:Generated_Source\PSoC5/shiftregReceiver.c ****     {
 502              		.loc 1 367 0
 503              		.cfi_startproc
 504              		@ args = 0, pretend = 0, frame = 0
 505              		@ frame_needed = 1, uses_anonymous_args = 0
 506              		@ link register save eliminated.
 507 0000 80B4     		push	{r7}
 508              		.cfi_def_cfa_offset 4
 509              		.cfi_offset 7, -4
 510 0002 00AF     		add	r7, sp, #0
 511              		.cfi_def_cfa_register 7
 368:Generated_Source\PSoC5/shiftregReceiver.c ****         return(CY_GET_REG8(shiftregReceiver_OUT_FIFO_VAL_LSB_PTR));
 512              		.loc 1 368 0
 513 0004 034B     		ldr	r3, .L40
 514 0006 1B78     		ldrb	r3, [r3]
 515 0008 DBB2     		uxtb	r3, r3
 369:Generated_Source\PSoC5/shiftregReceiver.c ****     }
 516              		.loc 1 369 0
 517 000a 1846     		mov	r0, r3
 518 000c BD46     		mov	sp, r7
 519              		.cfi_def_cfa_register 13
 520              		@ sp needed
 521 000e 5DF8047B 		ldr	r7, [sp], #4
 522              		.cfi_restore 7
 523              		.cfi_def_cfa_offset 0
 524 0012 7047     		bx	lr
 525              	.L41:
 526              		.align	2
 527              	.L40:
 528 0014 56640040 		.word	1073767510
 529              		.cfi_endproc
 530              	.LFE10:
 531              		.size	shiftregReceiver_ReadData, .-shiftregReceiver_ReadData
 532              		.section	.text.shiftregReceiver_ReadRegValue,"ax",%progbits
 533              		.align	2
 534              		.global	shiftregReceiver_ReadRegValue
 535              		.thumb
 536              		.thumb_func
 537              		.type	shiftregReceiver_ReadRegValue, %function
 538              	shiftregReceiver_ReadRegValue:
 539              	.LFB11:
 370:Generated_Source\PSoC5/shiftregReceiver.c **** #endif /* (0u != shiftregReceiver_USE_OUTPUT_FIFO) */
 371:Generated_Source\PSoC5/shiftregReceiver.c **** 
 372:Generated_Source\PSoC5/shiftregReceiver.c **** 
 373:Generated_Source\PSoC5/shiftregReceiver.c **** /*******************************************************************************
ARM GAS  C:\Users\bryan.lee\AppData\Local\Temp\ccrUA04h.s 			page 17


 374:Generated_Source\PSoC5/shiftregReceiver.c **** * Function Name: shiftregReceiver_ReadRegValue
 375:Generated_Source\PSoC5/shiftregReceiver.c **** ********************************************************************************
 376:Generated_Source\PSoC5/shiftregReceiver.c **** *
 377:Generated_Source\PSoC5/shiftregReceiver.c **** * Summary:
 378:Generated_Source\PSoC5/shiftregReceiver.c **** *  Directly returns current state in shift register, not data in FIFO due
 379:Generated_Source\PSoC5/shiftregReceiver.c **** *  to Store input.
 380:Generated_Source\PSoC5/shiftregReceiver.c **** *
 381:Generated_Source\PSoC5/shiftregReceiver.c **** * Parameters:
 382:Generated_Source\PSoC5/shiftregReceiver.c **** *  None.
 383:Generated_Source\PSoC5/shiftregReceiver.c **** *
 384:Generated_Source\PSoC5/shiftregReceiver.c **** * Return:
 385:Generated_Source\PSoC5/shiftregReceiver.c **** *  Shift Register state. Clears output FIFO.
 386:Generated_Source\PSoC5/shiftregReceiver.c **** *
 387:Generated_Source\PSoC5/shiftregReceiver.c **** * Reentrant:
 388:Generated_Source\PSoC5/shiftregReceiver.c **** *  No.
 389:Generated_Source\PSoC5/shiftregReceiver.c **** *
 390:Generated_Source\PSoC5/shiftregReceiver.c **** *******************************************************************************/
 391:Generated_Source\PSoC5/shiftregReceiver.c **** uint8 shiftregReceiver_ReadRegValue(void) 
 392:Generated_Source\PSoC5/shiftregReceiver.c **** {
 540              		.loc 1 392 0
 541              		.cfi_startproc
 542              		@ args = 0, pretend = 0, frame = 8
 543              		@ frame_needed = 1, uses_anonymous_args = 0
 544 0000 80B5     		push	{r7, lr}
 545              		.cfi_def_cfa_offset 8
 546              		.cfi_offset 7, -8
 547              		.cfi_offset 14, -4
 548 0002 82B0     		sub	sp, sp, #8
 549              		.cfi_def_cfa_offset 16
 550 0004 00AF     		add	r7, sp, #0
 551              		.cfi_def_cfa_register 7
 393:Generated_Source\PSoC5/shiftregReceiver.c ****     uint8 result;
 394:Generated_Source\PSoC5/shiftregReceiver.c **** 
 395:Generated_Source\PSoC5/shiftregReceiver.c ****     /* Clear FIFO before software capture */
 396:Generated_Source\PSoC5/shiftregReceiver.c ****     while(shiftregReceiver_RET_FIFO_EMPTY != shiftregReceiver_GetFIFOStatus(shiftregReceiver_OUT_FI
 552              		.loc 1 396 0
 553 0006 01E0     		b	.L43
 554              	.L44:
 397:Generated_Source\PSoC5/shiftregReceiver.c ****     {
 398:Generated_Source\PSoC5/shiftregReceiver.c ****         (void) CY_GET_REG8(shiftregReceiver_OUT_FIFO_VAL_LSB_PTR);
 555              		.loc 1 398 0
 556 0008 084B     		ldr	r3, .L46
 557 000a 1B78     		ldrb	r3, [r3]
 558              	.L43:
 396:Generated_Source\PSoC5/shiftregReceiver.c ****     {
 559              		.loc 1 396 0
 560 000c 0220     		movs	r0, #2
 561 000e FFF7FEFF 		bl	shiftregReceiver_GetFIFOStatus
 562 0012 0346     		mov	r3, r0
 563 0014 022B     		cmp	r3, #2
 564 0016 F7D1     		bne	.L44
 399:Generated_Source\PSoC5/shiftregReceiver.c ****     }
 400:Generated_Source\PSoC5/shiftregReceiver.c **** 
 401:Generated_Source\PSoC5/shiftregReceiver.c ****     /* Read of 8 bits from A1 causes capture to output FIFO */
 402:Generated_Source\PSoC5/shiftregReceiver.c ****     (void) CY_GET_REG8(shiftregReceiver_SHIFT_REG_CAPTURE_PTR);
 565              		.loc 1 402 0
 566 0018 054B     		ldr	r3, .L46+4
ARM GAS  C:\Users\bryan.lee\AppData\Local\Temp\ccrUA04h.s 			page 18


 567 001a 1B78     		ldrb	r3, [r3]
 403:Generated_Source\PSoC5/shiftregReceiver.c **** 
 404:Generated_Source\PSoC5/shiftregReceiver.c ****     /* Read output FIFO */
 405:Generated_Source\PSoC5/shiftregReceiver.c ****     result  = CY_GET_REG8(shiftregReceiver_OUT_FIFO_VAL_LSB_PTR);
 568              		.loc 1 405 0
 569 001c 034B     		ldr	r3, .L46
 570 001e 1B78     		ldrb	r3, [r3]
 571 0020 FB71     		strb	r3, [r7, #7]
 406:Generated_Source\PSoC5/shiftregReceiver.c ****     
 407:Generated_Source\PSoC5/shiftregReceiver.c ****     #if(0u != (shiftregReceiver_SR_SIZE % 8u))
 408:Generated_Source\PSoC5/shiftregReceiver.c ****         result &= ((uint8) shiftregReceiver_SR_MASK);
 409:Generated_Source\PSoC5/shiftregReceiver.c ****     #endif /* (0u != (shiftregReceiver_SR_SIZE % 8u)) */
 410:Generated_Source\PSoC5/shiftregReceiver.c ****     
 411:Generated_Source\PSoC5/shiftregReceiver.c ****     return(result);
 572              		.loc 1 411 0
 573 0022 FB79     		ldrb	r3, [r7, #7]	@ zero_extendqisi2
 412:Generated_Source\PSoC5/shiftregReceiver.c **** }
 574              		.loc 1 412 0
 575 0024 1846     		mov	r0, r3
 576 0026 0837     		adds	r7, r7, #8
 577              		.cfi_def_cfa_offset 8
 578 0028 BD46     		mov	sp, r7
 579              		.cfi_def_cfa_register 13
 580              		@ sp needed
 581 002a 80BD     		pop	{r7, pc}
 582              	.L47:
 583              		.align	2
 584              	.L46:
 585 002c 56640040 		.word	1073767510
 586 0030 16640040 		.word	1073767446
 587              		.cfi_endproc
 588              	.LFE11:
 589              		.size	shiftregReceiver_ReadRegValue, .-shiftregReceiver_ReadRegValue
 590              		.text
 591              	.Letext0:
 592              		.file 2 "Generated_Source\\PSoC5\\cytypes.h"