ARM GAS  C:\Users\bryan.lee\AppData\Local\Temp\ccik6674.s 			page 1


   1              		.syntax unified
   2              		.cpu cortex-m0
   3              		.fpu softvfp
   4              		.eabi_attribute 20, 1
   5              		.eabi_attribute 21, 1
   6              		.eabi_attribute 23, 3
   7              		.eabi_attribute 24, 1
   8              		.eabi_attribute 25, 1
   9              		.eabi_attribute 26, 1
  10              		.eabi_attribute 30, 6
  11              		.eabi_attribute 34, 0
  12              		.eabi_attribute 18, 4
  13              		.thumb
  14              		.syntax unified
  15              		.file	"LCD_Char_1.c"
  16              		.text
  17              	.Ltext0:
  18              		.cfi_sections	.debug_frame
  19              		.global	LCD_Char_1_enableState
  20              		.bss
  21              		.type	LCD_Char_1_enableState, %object
  22              		.size	LCD_Char_1_enableState, 1
  23              	LCD_Char_1_enableState:
  24 0000 00       		.space	1
  25              		.global	LCD_Char_1_initVar
  26              		.type	LCD_Char_1_initVar, %object
  27              		.size	LCD_Char_1_initVar, 1
  28              	LCD_Char_1_initVar:
  29 0001 00       		.space	1
  30              		.section	.text.LCD_Char_1_Init,"ax",%progbits
  31              		.align	2
  32              		.global	LCD_Char_1_Init
  33              		.code	16
  34              		.thumb_func
  35              		.type	LCD_Char_1_Init, %function
  36              	LCD_Char_1_Init:
  37              	.LFB2:
  38              		.file 1 "Generated_Source\\PSoC4\\LCD_Char_1.c"
   1:Generated_Source\PSoC4/LCD_Char_1.c **** /*******************************************************************************
   2:Generated_Source\PSoC4/LCD_Char_1.c **** * File Name: LCD_Char_1.c
   3:Generated_Source\PSoC4/LCD_Char_1.c **** * Version 1.0
   4:Generated_Source\PSoC4/LCD_Char_1.c **** *
   5:Generated_Source\PSoC4/LCD_Char_1.c **** * Description:
   6:Generated_Source\PSoC4/LCD_Char_1.c **** *  This file provides source code for the Character LCD component's API.
   7:Generated_Source\PSoC4/LCD_Char_1.c **** *
   8:Generated_Source\PSoC4/LCD_Char_1.c **** * Note:
   9:Generated_Source\PSoC4/LCD_Char_1.c **** *
  10:Generated_Source\PSoC4/LCD_Char_1.c **** ********************************************************************************
  11:Generated_Source\PSoC4/LCD_Char_1.c **** * Copyright 2008-2012, Cypress Semiconductor Corporation.  All rights reserved.
  12:Generated_Source\PSoC4/LCD_Char_1.c **** * You may use this file only in accordance with the license, terms, conditions,
  13:Generated_Source\PSoC4/LCD_Char_1.c **** * disclaimers, and limitations in the end user license agreement accompanying
  14:Generated_Source\PSoC4/LCD_Char_1.c **** * the software package with which this file was provided.
  15:Generated_Source\PSoC4/LCD_Char_1.c **** *******************************************************************************/
  16:Generated_Source\PSoC4/LCD_Char_1.c **** 
  17:Generated_Source\PSoC4/LCD_Char_1.c **** #include "CyLib.h"
  18:Generated_Source\PSoC4/LCD_Char_1.c **** #include "LCD_Char_1.h"
  19:Generated_Source\PSoC4/LCD_Char_1.c **** 
ARM GAS  C:\Users\bryan.lee\AppData\Local\Temp\ccik6674.s 			page 2


  20:Generated_Source\PSoC4/LCD_Char_1.c **** 
  21:Generated_Source\PSoC4/LCD_Char_1.c **** static void LCD_Char_1_WrDatNib(uint8 nibble) ;
  22:Generated_Source\PSoC4/LCD_Char_1.c **** static void LCD_Char_1_WrCntrlNib(uint8 nibble) ;
  23:Generated_Source\PSoC4/LCD_Char_1.c **** 
  24:Generated_Source\PSoC4/LCD_Char_1.c **** /* Stores the state of conponent. Indicates wherewer component is 
  25:Generated_Source\PSoC4/LCD_Char_1.c **** * in enable state or not.
  26:Generated_Source\PSoC4/LCD_Char_1.c **** */
  27:Generated_Source\PSoC4/LCD_Char_1.c **** uint8 LCD_Char_1_enableState = 0u;
  28:Generated_Source\PSoC4/LCD_Char_1.c **** 
  29:Generated_Source\PSoC4/LCD_Char_1.c **** uint8 LCD_Char_1_initVar = 0u;
  30:Generated_Source\PSoC4/LCD_Char_1.c **** 
  31:Generated_Source\PSoC4/LCD_Char_1.c **** 
  32:Generated_Source\PSoC4/LCD_Char_1.c **** /*******************************************************************************
  33:Generated_Source\PSoC4/LCD_Char_1.c **** * Function Name: LCD_Char_1_Init
  34:Generated_Source\PSoC4/LCD_Char_1.c **** ********************************************************************************
  35:Generated_Source\PSoC4/LCD_Char_1.c **** *
  36:Generated_Source\PSoC4/LCD_Char_1.c **** * Summary:
  37:Generated_Source\PSoC4/LCD_Char_1.c **** *  Perform initialization required for components normal work.
  38:Generated_Source\PSoC4/LCD_Char_1.c **** *  This function initializes the LCD hardware module as follows:
  39:Generated_Source\PSoC4/LCD_Char_1.c **** *        Enable 4-bit interface
  40:Generated_Source\PSoC4/LCD_Char_1.c **** *        Clear the display
  41:Generated_Source\PSoC4/LCD_Char_1.c **** *        Enable auto cursor increment
  42:Generated_Source\PSoC4/LCD_Char_1.c **** *        Resets the cursor to start position
  43:Generated_Source\PSoC4/LCD_Char_1.c **** *  Also loads custom character set to LCD if it was defined in the customizer.
  44:Generated_Source\PSoC4/LCD_Char_1.c **** *
  45:Generated_Source\PSoC4/LCD_Char_1.c **** * Parameters:
  46:Generated_Source\PSoC4/LCD_Char_1.c **** *  None.
  47:Generated_Source\PSoC4/LCD_Char_1.c **** *
  48:Generated_Source\PSoC4/LCD_Char_1.c **** * Return:
  49:Generated_Source\PSoC4/LCD_Char_1.c **** *  None.
  50:Generated_Source\PSoC4/LCD_Char_1.c **** *
  51:Generated_Source\PSoC4/LCD_Char_1.c **** * Reentrant:
  52:Generated_Source\PSoC4/LCD_Char_1.c **** *  No.
  53:Generated_Source\PSoC4/LCD_Char_1.c **** *
  54:Generated_Source\PSoC4/LCD_Char_1.c **** *******************************************************************************/
  55:Generated_Source\PSoC4/LCD_Char_1.c **** void LCD_Char_1_Init(void) 
  56:Generated_Source\PSoC4/LCD_Char_1.c **** {
  39              		.loc 1 56 0
  40              		.cfi_startproc
  41              		@ args = 0, pretend = 0, frame = 0
  42              		@ frame_needed = 1, uses_anonymous_args = 0
  43 0000 80B5     		push	{r7, lr}
  44              		.cfi_def_cfa_offset 8
  45              		.cfi_offset 7, -8
  46              		.cfi_offset 14, -4
  47 0002 00AF     		add	r7, sp, #0
  48              		.cfi_def_cfa_register 7
  57:Generated_Source\PSoC4/LCD_Char_1.c ****     /* INIT CODE */
  58:Generated_Source\PSoC4/LCD_Char_1.c ****     CyDelay(40u);                                                        /* Delay 40 ms */
  49              		.loc 1 58 0
  50 0004 2820     		movs	r0, #40
  51 0006 FFF7FEFF 		bl	CyDelay
  59:Generated_Source\PSoC4/LCD_Char_1.c ****     LCD_Char_1_WrCntrlNib(LCD_Char_1_DISPLAY_8_BIT_INIT);   /* Selects 8-bit mode */
  52              		.loc 1 59 0
  53 000a 0320     		movs	r0, #3
  54 000c FFF7FEFF 		bl	LCD_Char_1_WrCntrlNib
  60:Generated_Source\PSoC4/LCD_Char_1.c ****     CyDelay(5u);                                                         /* Delay 5 ms */
ARM GAS  C:\Users\bryan.lee\AppData\Local\Temp\ccik6674.s 			page 3


  55              		.loc 1 60 0
  56 0010 0520     		movs	r0, #5
  57 0012 FFF7FEFF 		bl	CyDelay
  61:Generated_Source\PSoC4/LCD_Char_1.c ****     LCD_Char_1_WrCntrlNib(LCD_Char_1_DISPLAY_8_BIT_INIT);   /* Selects 8-bit mode */
  58              		.loc 1 61 0
  59 0016 0320     		movs	r0, #3
  60 0018 FFF7FEFF 		bl	LCD_Char_1_WrCntrlNib
  62:Generated_Source\PSoC4/LCD_Char_1.c ****     CyDelay(15u);                                                        /* Delay 15 ms */
  61              		.loc 1 62 0
  62 001c 0F20     		movs	r0, #15
  63 001e FFF7FEFF 		bl	CyDelay
  63:Generated_Source\PSoC4/LCD_Char_1.c ****     LCD_Char_1_WrCntrlNib(LCD_Char_1_DISPLAY_8_BIT_INIT);   /* Selects 8-bit mode */
  64              		.loc 1 63 0
  65 0022 0320     		movs	r0, #3
  66 0024 FFF7FEFF 		bl	LCD_Char_1_WrCntrlNib
  64:Generated_Source\PSoC4/LCD_Char_1.c ****     CyDelay(1u);                                                         /* Delay 1 ms */
  67              		.loc 1 64 0
  68 0028 0120     		movs	r0, #1
  69 002a FFF7FEFF 		bl	CyDelay
  65:Generated_Source\PSoC4/LCD_Char_1.c ****     LCD_Char_1_WrCntrlNib(LCD_Char_1_DISPLAY_4_BIT_INIT);   /* Selects 4-bit mode */
  70              		.loc 1 65 0
  71 002e 0220     		movs	r0, #2
  72 0030 FFF7FEFF 		bl	LCD_Char_1_WrCntrlNib
  66:Generated_Source\PSoC4/LCD_Char_1.c ****     CyDelay(5u);                                                         /* Delay 5 ms */
  73              		.loc 1 66 0
  74 0034 0520     		movs	r0, #5
  75 0036 FFF7FEFF 		bl	CyDelay
  67:Generated_Source\PSoC4/LCD_Char_1.c **** 
  68:Generated_Source\PSoC4/LCD_Char_1.c ****     LCD_Char_1_WriteControl(LCD_Char_1_CURSOR_AUTO_INCR_ON);    /* Incr Cursor After Writes */
  76              		.loc 1 68 0
  77 003a 0620     		movs	r0, #6
  78 003c FFF7FEFF 		bl	LCD_Char_1_WriteControl
  69:Generated_Source\PSoC4/LCD_Char_1.c ****     LCD_Char_1_WriteControl(LCD_Char_1_DISPLAY_CURSOR_ON);      /* Turn Display, Cursor ON */
  79              		.loc 1 69 0
  80 0040 0E20     		movs	r0, #14
  81 0042 FFF7FEFF 		bl	LCD_Char_1_WriteControl
  70:Generated_Source\PSoC4/LCD_Char_1.c ****     LCD_Char_1_WriteControl(LCD_Char_1_DISPLAY_2_LINES_5x10);   /* 2 Lines by 5x10 Characters */
  82              		.loc 1 70 0
  83 0046 2C20     		movs	r0, #44
  84 0048 FFF7FEFF 		bl	LCD_Char_1_WriteControl
  71:Generated_Source\PSoC4/LCD_Char_1.c ****     LCD_Char_1_WriteControl(LCD_Char_1_DISPLAY_CURSOR_OFF);     /* Turn Display, Cursor OFF */
  85              		.loc 1 71 0
  86 004c 0820     		movs	r0, #8
  87 004e FFF7FEFF 		bl	LCD_Char_1_WriteControl
  72:Generated_Source\PSoC4/LCD_Char_1.c ****     LCD_Char_1_WriteControl(LCD_Char_1_CLEAR_DISPLAY);          /* Clear LCD Screen */
  88              		.loc 1 72 0
  89 0052 0120     		movs	r0, #1
  90 0054 FFF7FEFF 		bl	LCD_Char_1_WriteControl
  73:Generated_Source\PSoC4/LCD_Char_1.c ****     LCD_Char_1_WriteControl(LCD_Char_1_DISPLAY_ON_CURSOR_OFF);  /* Turn Display ON, Cursor OFF */
  91              		.loc 1 73 0
  92 0058 0C20     		movs	r0, #12
  93 005a FFF7FEFF 		bl	LCD_Char_1_WriteControl
  74:Generated_Source\PSoC4/LCD_Char_1.c ****     LCD_Char_1_WriteControl(LCD_Char_1_RESET_CURSOR_POSITION);  /* Set Cursor to 0,0 */
  94              		.loc 1 74 0
  95 005e 0320     		movs	r0, #3
  96 0060 FFF7FEFF 		bl	LCD_Char_1_WriteControl
  75:Generated_Source\PSoC4/LCD_Char_1.c ****     CyDelay(5u);
ARM GAS  C:\Users\bryan.lee\AppData\Local\Temp\ccik6674.s 			page 4


  97              		.loc 1 75 0
  98 0064 0520     		movs	r0, #5
  99 0066 FFF7FEFF 		bl	CyDelay
  76:Generated_Source\PSoC4/LCD_Char_1.c **** 
  77:Generated_Source\PSoC4/LCD_Char_1.c ****     #if(LCD_Char_1_CUSTOM_CHAR_SET != LCD_Char_1_NONE)
  78:Generated_Source\PSoC4/LCD_Char_1.c ****         LCD_Char_1_LoadCustomFonts(LCD_Char_1_customFonts);
  79:Generated_Source\PSoC4/LCD_Char_1.c ****     #endif /* LCD_Char_1_CUSTOM_CHAR_SET != LCD_Char_1_NONE */
  80:Generated_Source\PSoC4/LCD_Char_1.c **** }
 100              		.loc 1 80 0
 101 006a C046     		nop
 102 006c BD46     		mov	sp, r7
 103              		@ sp needed
 104 006e 80BD     		pop	{r7, pc}
 105              		.cfi_endproc
 106              	.LFE2:
 107              		.size	LCD_Char_1_Init, .-LCD_Char_1_Init
 108              		.section	.text.LCD_Char_1_Enable,"ax",%progbits
 109              		.align	2
 110              		.global	LCD_Char_1_Enable
 111              		.code	16
 112              		.thumb_func
 113              		.type	LCD_Char_1_Enable, %function
 114              	LCD_Char_1_Enable:
 115              	.LFB3:
  81:Generated_Source\PSoC4/LCD_Char_1.c **** 
  82:Generated_Source\PSoC4/LCD_Char_1.c **** 
  83:Generated_Source\PSoC4/LCD_Char_1.c **** /*******************************************************************************
  84:Generated_Source\PSoC4/LCD_Char_1.c **** * Function Name: LCD_Char_1_Enable
  85:Generated_Source\PSoC4/LCD_Char_1.c **** ********************************************************************************
  86:Generated_Source\PSoC4/LCD_Char_1.c **** *
  87:Generated_Source\PSoC4/LCD_Char_1.c **** * Summary:
  88:Generated_Source\PSoC4/LCD_Char_1.c **** *  Turns on the display.
  89:Generated_Source\PSoC4/LCD_Char_1.c **** *
  90:Generated_Source\PSoC4/LCD_Char_1.c **** * Parameters:
  91:Generated_Source\PSoC4/LCD_Char_1.c **** *  None.
  92:Generated_Source\PSoC4/LCD_Char_1.c **** *
  93:Generated_Source\PSoC4/LCD_Char_1.c **** * Return:
  94:Generated_Source\PSoC4/LCD_Char_1.c **** *  None.
  95:Generated_Source\PSoC4/LCD_Char_1.c **** *
  96:Generated_Source\PSoC4/LCD_Char_1.c **** * Reentrant:
  97:Generated_Source\PSoC4/LCD_Char_1.c **** *  No.
  98:Generated_Source\PSoC4/LCD_Char_1.c **** *
  99:Generated_Source\PSoC4/LCD_Char_1.c **** * Theory:
 100:Generated_Source\PSoC4/LCD_Char_1.c **** *  This finction has no effect when it called first time as
 101:Generated_Source\PSoC4/LCD_Char_1.c **** *  LCD_Char_1_Init() turns on the LCD.
 102:Generated_Source\PSoC4/LCD_Char_1.c **** *
 103:Generated_Source\PSoC4/LCD_Char_1.c **** *******************************************************************************/
 104:Generated_Source\PSoC4/LCD_Char_1.c **** void LCD_Char_1_Enable(void) 
 105:Generated_Source\PSoC4/LCD_Char_1.c **** {
 116              		.loc 1 105 0
 117              		.cfi_startproc
 118              		@ args = 0, pretend = 0, frame = 0
 119              		@ frame_needed = 1, uses_anonymous_args = 0
 120 0000 80B5     		push	{r7, lr}
 121              		.cfi_def_cfa_offset 8
 122              		.cfi_offset 7, -8
 123              		.cfi_offset 14, -4
ARM GAS  C:\Users\bryan.lee\AppData\Local\Temp\ccik6674.s 			page 5


 124 0002 00AF     		add	r7, sp, #0
 125              		.cfi_def_cfa_register 7
 106:Generated_Source\PSoC4/LCD_Char_1.c ****     LCD_Char_1_DisplayOn();
 126              		.loc 1 106 0
 127 0004 0C20     		movs	r0, #12
 128 0006 FFF7FEFF 		bl	LCD_Char_1_WriteControl
 107:Generated_Source\PSoC4/LCD_Char_1.c ****     LCD_Char_1_enableState = 1u;
 129              		.loc 1 107 0
 130 000a 034B     		ldr	r3, .L3
 131 000c 0122     		movs	r2, #1
 132 000e 1A70     		strb	r2, [r3]
 108:Generated_Source\PSoC4/LCD_Char_1.c **** }
 133              		.loc 1 108 0
 134 0010 C046     		nop
 135 0012 BD46     		mov	sp, r7
 136              		@ sp needed
 137 0014 80BD     		pop	{r7, pc}
 138              	.L4:
 139 0016 C046     		.align	2
 140              	.L3:
 141 0018 00000000 		.word	LCD_Char_1_enableState
 142              		.cfi_endproc
 143              	.LFE3:
 144              		.size	LCD_Char_1_Enable, .-LCD_Char_1_Enable
 145              		.section	.text.LCD_Char_1_Start,"ax",%progbits
 146              		.align	2
 147              		.global	LCD_Char_1_Start
 148              		.code	16
 149              		.thumb_func
 150              		.type	LCD_Char_1_Start, %function
 151              	LCD_Char_1_Start:
 152              	.LFB4:
 109:Generated_Source\PSoC4/LCD_Char_1.c **** 
 110:Generated_Source\PSoC4/LCD_Char_1.c **** 
 111:Generated_Source\PSoC4/LCD_Char_1.c **** /*******************************************************************************
 112:Generated_Source\PSoC4/LCD_Char_1.c **** * Function Name: LCD_Char_1_Start
 113:Generated_Source\PSoC4/LCD_Char_1.c **** ********************************************************************************
 114:Generated_Source\PSoC4/LCD_Char_1.c **** *
 115:Generated_Source\PSoC4/LCD_Char_1.c **** * Summary:
 116:Generated_Source\PSoC4/LCD_Char_1.c **** *  Perform initialization required for components normal work.
 117:Generated_Source\PSoC4/LCD_Char_1.c **** *  This function initializes the LCD hardware module as follows:
 118:Generated_Source\PSoC4/LCD_Char_1.c **** *        Enable 4-bit interface
 119:Generated_Source\PSoC4/LCD_Char_1.c **** *        Clear the display
 120:Generated_Source\PSoC4/LCD_Char_1.c **** *        Enable auto cursor increment
 121:Generated_Source\PSoC4/LCD_Char_1.c **** *        Resets the cursor to start position
 122:Generated_Source\PSoC4/LCD_Char_1.c **** *  Also loads custom character set to LCD if it was defined in the customizer.
 123:Generated_Source\PSoC4/LCD_Char_1.c **** *  If it was not the first call in this project then it just turns on the
 124:Generated_Source\PSoC4/LCD_Char_1.c **** *  display
 125:Generated_Source\PSoC4/LCD_Char_1.c **** *
 126:Generated_Source\PSoC4/LCD_Char_1.c **** *
 127:Generated_Source\PSoC4/LCD_Char_1.c **** * Parameters:
 128:Generated_Source\PSoC4/LCD_Char_1.c **** *  LCD_Char_1_initVar - global variable.
 129:Generated_Source\PSoC4/LCD_Char_1.c **** *
 130:Generated_Source\PSoC4/LCD_Char_1.c **** * Return:
 131:Generated_Source\PSoC4/LCD_Char_1.c **** *  LCD_Char_1_initVar - global variable.
 132:Generated_Source\PSoC4/LCD_Char_1.c **** *
 133:Generated_Source\PSoC4/LCD_Char_1.c **** * Reentrant:
ARM GAS  C:\Users\bryan.lee\AppData\Local\Temp\ccik6674.s 			page 6


 134:Generated_Source\PSoC4/LCD_Char_1.c **** *  No.
 135:Generated_Source\PSoC4/LCD_Char_1.c **** *
 136:Generated_Source\PSoC4/LCD_Char_1.c **** *******************************************************************************/
 137:Generated_Source\PSoC4/LCD_Char_1.c **** void LCD_Char_1_Start(void) 
 138:Generated_Source\PSoC4/LCD_Char_1.c **** {
 153              		.loc 1 138 0
 154              		.cfi_startproc
 155              		@ args = 0, pretend = 0, frame = 0
 156              		@ frame_needed = 1, uses_anonymous_args = 0
 157 0000 80B5     		push	{r7, lr}
 158              		.cfi_def_cfa_offset 8
 159              		.cfi_offset 7, -8
 160              		.cfi_offset 14, -4
 161 0002 00AF     		add	r7, sp, #0
 162              		.cfi_def_cfa_register 7
 139:Generated_Source\PSoC4/LCD_Char_1.c ****     /* If not initialized then perform initialization */
 140:Generated_Source\PSoC4/LCD_Char_1.c ****     if(LCD_Char_1_initVar == 0u)
 163              		.loc 1 140 0
 164 0004 064B     		ldr	r3, .L7
 165 0006 1B78     		ldrb	r3, [r3]
 166 0008 002B     		cmp	r3, #0
 167 000a 04D1     		bne	.L6
 141:Generated_Source\PSoC4/LCD_Char_1.c ****     {
 142:Generated_Source\PSoC4/LCD_Char_1.c ****         LCD_Char_1_Init();
 168              		.loc 1 142 0
 169 000c FFF7FEFF 		bl	LCD_Char_1_Init
 143:Generated_Source\PSoC4/LCD_Char_1.c ****         LCD_Char_1_initVar = 1u;
 170              		.loc 1 143 0
 171 0010 034B     		ldr	r3, .L7
 172 0012 0122     		movs	r2, #1
 173 0014 1A70     		strb	r2, [r3]
 174              	.L6:
 144:Generated_Source\PSoC4/LCD_Char_1.c ****     }
 145:Generated_Source\PSoC4/LCD_Char_1.c **** 
 146:Generated_Source\PSoC4/LCD_Char_1.c ****     /* Turn on the LCD */
 147:Generated_Source\PSoC4/LCD_Char_1.c ****     LCD_Char_1_Enable();
 175              		.loc 1 147 0
 176 0016 FFF7FEFF 		bl	LCD_Char_1_Enable
 148:Generated_Source\PSoC4/LCD_Char_1.c **** }
 177              		.loc 1 148 0
 178 001a C046     		nop
 179 001c BD46     		mov	sp, r7
 180              		@ sp needed
 181 001e 80BD     		pop	{r7, pc}
 182              	.L8:
 183              		.align	2
 184              	.L7:
 185 0020 00000000 		.word	LCD_Char_1_initVar
 186              		.cfi_endproc
 187              	.LFE4:
 188              		.size	LCD_Char_1_Start, .-LCD_Char_1_Start
 189              		.section	.text.LCD_Char_1_Stop,"ax",%progbits
 190              		.align	2
 191              		.global	LCD_Char_1_Stop
 192              		.code	16
 193              		.thumb_func
 194              		.type	LCD_Char_1_Stop, %function
ARM GAS  C:\Users\bryan.lee\AppData\Local\Temp\ccik6674.s 			page 7


 195              	LCD_Char_1_Stop:
 196              	.LFB5:
 149:Generated_Source\PSoC4/LCD_Char_1.c **** 
 150:Generated_Source\PSoC4/LCD_Char_1.c **** 
 151:Generated_Source\PSoC4/LCD_Char_1.c **** /*******************************************************************************
 152:Generated_Source\PSoC4/LCD_Char_1.c **** * Function Name: LCD_Char_1_Stop
 153:Generated_Source\PSoC4/LCD_Char_1.c **** ********************************************************************************
 154:Generated_Source\PSoC4/LCD_Char_1.c **** *
 155:Generated_Source\PSoC4/LCD_Char_1.c **** * Summary:
 156:Generated_Source\PSoC4/LCD_Char_1.c **** *  Turns off the display of the LCD screen.
 157:Generated_Source\PSoC4/LCD_Char_1.c **** *
 158:Generated_Source\PSoC4/LCD_Char_1.c **** * Parameters:
 159:Generated_Source\PSoC4/LCD_Char_1.c **** *  None.
 160:Generated_Source\PSoC4/LCD_Char_1.c **** *
 161:Generated_Source\PSoC4/LCD_Char_1.c **** * Return:
 162:Generated_Source\PSoC4/LCD_Char_1.c **** *  None.
 163:Generated_Source\PSoC4/LCD_Char_1.c **** *
 164:Generated_Source\PSoC4/LCD_Char_1.c **** * Reentrant:
 165:Generated_Source\PSoC4/LCD_Char_1.c **** *  No.
 166:Generated_Source\PSoC4/LCD_Char_1.c **** *
 167:Generated_Source\PSoC4/LCD_Char_1.c **** *******************************************************************************/
 168:Generated_Source\PSoC4/LCD_Char_1.c **** void LCD_Char_1_Stop(void) 
 169:Generated_Source\PSoC4/LCD_Char_1.c **** {
 197              		.loc 1 169 0
 198              		.cfi_startproc
 199              		@ args = 0, pretend = 0, frame = 0
 200              		@ frame_needed = 1, uses_anonymous_args = 0
 201 0000 80B5     		push	{r7, lr}
 202              		.cfi_def_cfa_offset 8
 203              		.cfi_offset 7, -8
 204              		.cfi_offset 14, -4
 205 0002 00AF     		add	r7, sp, #0
 206              		.cfi_def_cfa_register 7
 170:Generated_Source\PSoC4/LCD_Char_1.c ****     /* Calls LCD Off Macro */
 171:Generated_Source\PSoC4/LCD_Char_1.c ****     LCD_Char_1_DisplayOff();
 207              		.loc 1 171 0
 208 0004 0820     		movs	r0, #8
 209 0006 FFF7FEFF 		bl	LCD_Char_1_WriteControl
 172:Generated_Source\PSoC4/LCD_Char_1.c ****     LCD_Char_1_enableState = 0u;
 210              		.loc 1 172 0
 211 000a 034B     		ldr	r3, .L10
 212 000c 0022     		movs	r2, #0
 213 000e 1A70     		strb	r2, [r3]
 173:Generated_Source\PSoC4/LCD_Char_1.c **** }
 214              		.loc 1 173 0
 215 0010 C046     		nop
 216 0012 BD46     		mov	sp, r7
 217              		@ sp needed
 218 0014 80BD     		pop	{r7, pc}
 219              	.L11:
 220 0016 C046     		.align	2
 221              	.L10:
 222 0018 00000000 		.word	LCD_Char_1_enableState
 223              		.cfi_endproc
 224              	.LFE5:
 225              		.size	LCD_Char_1_Stop, .-LCD_Char_1_Stop
 226              		.section	.text.LCD_Char_1_Position,"ax",%progbits
ARM GAS  C:\Users\bryan.lee\AppData\Local\Temp\ccik6674.s 			page 8


 227              		.align	2
 228              		.global	LCD_Char_1_Position
 229              		.code	16
 230              		.thumb_func
 231              		.type	LCD_Char_1_Position, %function
 232              	LCD_Char_1_Position:
 233              	.LFB6:
 174:Generated_Source\PSoC4/LCD_Char_1.c **** 
 175:Generated_Source\PSoC4/LCD_Char_1.c **** 
 176:Generated_Source\PSoC4/LCD_Char_1.c **** /*******************************************************************************
 177:Generated_Source\PSoC4/LCD_Char_1.c **** *  Function Name: LCD_Char_1_Position
 178:Generated_Source\PSoC4/LCD_Char_1.c **** ********************************************************************************
 179:Generated_Source\PSoC4/LCD_Char_1.c **** *
 180:Generated_Source\PSoC4/LCD_Char_1.c **** * Summary:
 181:Generated_Source\PSoC4/LCD_Char_1.c **** *  Moves active cursor location to a point specified by the input arguments
 182:Generated_Source\PSoC4/LCD_Char_1.c **** *
 183:Generated_Source\PSoC4/LCD_Char_1.c **** * Parameters:
 184:Generated_Source\PSoC4/LCD_Char_1.c **** *  row:     Specific row of LCD module to be written
 185:Generated_Source\PSoC4/LCD_Char_1.c **** *  column:  Column of LCD module to be written
 186:Generated_Source\PSoC4/LCD_Char_1.c **** *
 187:Generated_Source\PSoC4/LCD_Char_1.c **** * Return:
 188:Generated_Source\PSoC4/LCD_Char_1.c **** *  None.
 189:Generated_Source\PSoC4/LCD_Char_1.c **** *
 190:Generated_Source\PSoC4/LCD_Char_1.c **** * Note:
 191:Generated_Source\PSoC4/LCD_Char_1.c **** *  This only applies for LCD displays which use the 2X40 address mode.
 192:Generated_Source\PSoC4/LCD_Char_1.c **** *  This results in Row 2 offset from row one by 0x28.
 193:Generated_Source\PSoC4/LCD_Char_1.c **** *  When there are more than 2 rows, each row must be fewer than 20 characters.
 194:Generated_Source\PSoC4/LCD_Char_1.c **** *
 195:Generated_Source\PSoC4/LCD_Char_1.c **** *******************************************************************************/
 196:Generated_Source\PSoC4/LCD_Char_1.c **** void LCD_Char_1_Position(uint8 row, uint8 column) 
 197:Generated_Source\PSoC4/LCD_Char_1.c **** {
 234              		.loc 1 197 0
 235              		.cfi_startproc
 236              		@ args = 0, pretend = 0, frame = 8
 237              		@ frame_needed = 1, uses_anonymous_args = 0
 238 0000 80B5     		push	{r7, lr}
 239              		.cfi_def_cfa_offset 8
 240              		.cfi_offset 7, -8
 241              		.cfi_offset 14, -4
 242 0002 82B0     		sub	sp, sp, #8
 243              		.cfi_def_cfa_offset 16
 244 0004 00AF     		add	r7, sp, #0
 245              		.cfi_def_cfa_register 7
 246 0006 0200     		movs	r2, r0
 247 0008 FB1D     		adds	r3, r7, #7
 248 000a 1A70     		strb	r2, [r3]
 249 000c BB1D     		adds	r3, r7, #6
 250 000e 0A1C     		adds	r2, r1, #0
 251 0010 1A70     		strb	r2, [r3]
 198:Generated_Source\PSoC4/LCD_Char_1.c ****     switch (row)
 252              		.loc 1 198 0
 253 0012 FB1D     		adds	r3, r7, #7
 254 0014 1B78     		ldrb	r3, [r3]
 255 0016 012B     		cmp	r3, #1
 256 0018 10D0     		beq	.L14
 257 001a 02DC     		bgt	.L15
 258 001c 002B     		cmp	r3, #0
ARM GAS  C:\Users\bryan.lee\AppData\Local\Temp\ccik6674.s 			page 9


 259 001e 05D0     		beq	.L16
 199:Generated_Source\PSoC4/LCD_Char_1.c ****     {
 200:Generated_Source\PSoC4/LCD_Char_1.c ****         case (uint8)0:
 201:Generated_Source\PSoC4/LCD_Char_1.c ****             LCD_Char_1_WriteControl(LCD_Char_1_ROW_0_START + column);
 202:Generated_Source\PSoC4/LCD_Char_1.c ****             break;
 203:Generated_Source\PSoC4/LCD_Char_1.c ****         case (uint8) 1:
 204:Generated_Source\PSoC4/LCD_Char_1.c ****             LCD_Char_1_WriteControl(LCD_Char_1_ROW_1_START + column);
 205:Generated_Source\PSoC4/LCD_Char_1.c ****             break;
 206:Generated_Source\PSoC4/LCD_Char_1.c ****         case (uint8) 2:
 207:Generated_Source\PSoC4/LCD_Char_1.c ****             LCD_Char_1_WriteControl(LCD_Char_1_ROW_2_START + column);
 208:Generated_Source\PSoC4/LCD_Char_1.c ****             break;
 209:Generated_Source\PSoC4/LCD_Char_1.c ****         case (uint8) 3:
 210:Generated_Source\PSoC4/LCD_Char_1.c ****             LCD_Char_1_WriteControl(LCD_Char_1_ROW_3_START + column);
 211:Generated_Source\PSoC4/LCD_Char_1.c ****             break;
 212:Generated_Source\PSoC4/LCD_Char_1.c ****         default:
 213:Generated_Source\PSoC4/LCD_Char_1.c ****             /* if default case is hit, invalid row argument was passed.*/
 214:Generated_Source\PSoC4/LCD_Char_1.c ****             break;
 260              		.loc 1 214 0
 261 0020 24E0     		b	.L19
 262              	.L15:
 198:Generated_Source\PSoC4/LCD_Char_1.c ****     switch (row)
 263              		.loc 1 198 0
 264 0022 022B     		cmp	r3, #2
 265 0024 12D0     		beq	.L17
 266 0026 032B     		cmp	r3, #3
 267 0028 18D0     		beq	.L18
 268              		.loc 1 214 0
 269 002a 1FE0     		b	.L19
 270              	.L16:
 201:Generated_Source\PSoC4/LCD_Char_1.c ****             break;
 271              		.loc 1 201 0
 272 002c BB1D     		adds	r3, r7, #6
 273 002e 1B78     		ldrb	r3, [r3]
 274 0030 803B     		subs	r3, r3, #128
 275 0032 DBB2     		uxtb	r3, r3
 276 0034 1800     		movs	r0, r3
 277 0036 FFF7FEFF 		bl	LCD_Char_1_WriteControl
 202:Generated_Source\PSoC4/LCD_Char_1.c ****         case (uint8) 1:
 278              		.loc 1 202 0
 279 003a 17E0     		b	.L19
 280              	.L14:
 204:Generated_Source\PSoC4/LCD_Char_1.c ****             break;
 281              		.loc 1 204 0
 282 003c BB1D     		adds	r3, r7, #6
 283 003e 1B78     		ldrb	r3, [r3]
 284 0040 403B     		subs	r3, r3, #64
 285 0042 DBB2     		uxtb	r3, r3
 286 0044 1800     		movs	r0, r3
 287 0046 FFF7FEFF 		bl	LCD_Char_1_WriteControl
 205:Generated_Source\PSoC4/LCD_Char_1.c ****         case (uint8) 2:
 288              		.loc 1 205 0
 289 004a 0FE0     		b	.L19
 290              	.L17:
 207:Generated_Source\PSoC4/LCD_Char_1.c ****             break;
 291              		.loc 1 207 0
 292 004c BB1D     		adds	r3, r7, #6
 293 004e 1B78     		ldrb	r3, [r3]
ARM GAS  C:\Users\bryan.lee\AppData\Local\Temp\ccik6674.s 			page 10


 294 0050 6C3B     		subs	r3, r3, #108
 295 0052 DBB2     		uxtb	r3, r3
 296 0054 1800     		movs	r0, r3
 297 0056 FFF7FEFF 		bl	LCD_Char_1_WriteControl
 208:Generated_Source\PSoC4/LCD_Char_1.c ****         case (uint8) 3:
 298              		.loc 1 208 0
 299 005a 07E0     		b	.L19
 300              	.L18:
 210:Generated_Source\PSoC4/LCD_Char_1.c ****             break;
 301              		.loc 1 210 0
 302 005c BB1D     		adds	r3, r7, #6
 303 005e 1B78     		ldrb	r3, [r3]
 304 0060 2C3B     		subs	r3, r3, #44
 305 0062 DBB2     		uxtb	r3, r3
 306 0064 1800     		movs	r0, r3
 307 0066 FFF7FEFF 		bl	LCD_Char_1_WriteControl
 211:Generated_Source\PSoC4/LCD_Char_1.c ****         default:
 308              		.loc 1 211 0
 309 006a C046     		nop
 310              	.L19:
 215:Generated_Source\PSoC4/LCD_Char_1.c ****     }
 216:Generated_Source\PSoC4/LCD_Char_1.c **** }
 311              		.loc 1 216 0
 312 006c C046     		nop
 313 006e BD46     		mov	sp, r7
 314 0070 02B0     		add	sp, sp, #8
 315              		@ sp needed
 316 0072 80BD     		pop	{r7, pc}
 317              		.cfi_endproc
 318              	.LFE6:
 319              		.size	LCD_Char_1_Position, .-LCD_Char_1_Position
 320              		.section	.text.LCD_Char_1_PrintString,"ax",%progbits
 321              		.align	2
 322              		.global	LCD_Char_1_PrintString
 323              		.code	16
 324              		.thumb_func
 325              		.type	LCD_Char_1_PrintString, %function
 326              	LCD_Char_1_PrintString:
 327              	.LFB7:
 217:Generated_Source\PSoC4/LCD_Char_1.c **** 
 218:Generated_Source\PSoC4/LCD_Char_1.c **** 
 219:Generated_Source\PSoC4/LCD_Char_1.c **** /*******************************************************************************
 220:Generated_Source\PSoC4/LCD_Char_1.c **** * Function Name: LCD_Char_1_PrintString
 221:Generated_Source\PSoC4/LCD_Char_1.c **** ********************************************************************************
 222:Generated_Source\PSoC4/LCD_Char_1.c **** *
 223:Generated_Source\PSoC4/LCD_Char_1.c **** * Summary:
 224:Generated_Source\PSoC4/LCD_Char_1.c **** *  Writes a zero terminated string to the LCD.
 225:Generated_Source\PSoC4/LCD_Char_1.c **** *
 226:Generated_Source\PSoC4/LCD_Char_1.c **** * Parameters:
 227:Generated_Source\PSoC4/LCD_Char_1.c **** *  string:  pointer to head of char8 array to be written to the LCD module
 228:Generated_Source\PSoC4/LCD_Char_1.c **** *
 229:Generated_Source\PSoC4/LCD_Char_1.c **** * Return:
 230:Generated_Source\PSoC4/LCD_Char_1.c **** *  None.
 231:Generated_Source\PSoC4/LCD_Char_1.c **** *
 232:Generated_Source\PSoC4/LCD_Char_1.c **** *******************************************************************************/
 233:Generated_Source\PSoC4/LCD_Char_1.c **** void LCD_Char_1_PrintString(char8 const string[]) 
 234:Generated_Source\PSoC4/LCD_Char_1.c **** {
ARM GAS  C:\Users\bryan.lee\AppData\Local\Temp\ccik6674.s 			page 11


 328              		.loc 1 234 0
 329              		.cfi_startproc
 330              		@ args = 0, pretend = 0, frame = 16
 331              		@ frame_needed = 1, uses_anonymous_args = 0
 332 0000 80B5     		push	{r7, lr}
 333              		.cfi_def_cfa_offset 8
 334              		.cfi_offset 7, -8
 335              		.cfi_offset 14, -4
 336 0002 84B0     		sub	sp, sp, #16
 337              		.cfi_def_cfa_offset 24
 338 0004 00AF     		add	r7, sp, #0
 339              		.cfi_def_cfa_register 7
 340 0006 7860     		str	r0, [r7, #4]
 235:Generated_Source\PSoC4/LCD_Char_1.c ****     uint8 indexU8 = 1u;
 341              		.loc 1 235 0
 342 0008 0F23     		movs	r3, #15
 343 000a FB18     		adds	r3, r7, r3
 344 000c 0122     		movs	r2, #1
 345 000e 1A70     		strb	r2, [r3]
 236:Generated_Source\PSoC4/LCD_Char_1.c ****     char8 current = *string;
 346              		.loc 1 236 0
 347 0010 0E23     		movs	r3, #14
 348 0012 FB18     		adds	r3, r7, r3
 349 0014 7A68     		ldr	r2, [r7, #4]
 350 0016 1278     		ldrb	r2, [r2]
 351 0018 1A70     		strb	r2, [r3]
 237:Generated_Source\PSoC4/LCD_Char_1.c **** 
 238:Generated_Source\PSoC4/LCD_Char_1.c ****     /* Until null is reached, print next character */
 239:Generated_Source\PSoC4/LCD_Char_1.c ****     while((char8) '\0' != current)
 352              		.loc 1 239 0
 353 001a 15E0     		b	.L21
 354              	.L22:
 240:Generated_Source\PSoC4/LCD_Char_1.c ****     {
 241:Generated_Source\PSoC4/LCD_Char_1.c ****         LCD_Char_1_WriteData((uint8)current);
 355              		.loc 1 241 0
 356 001c 0E23     		movs	r3, #14
 357 001e FB18     		adds	r3, r7, r3
 358 0020 1B78     		ldrb	r3, [r3]
 359 0022 1800     		movs	r0, r3
 360 0024 FFF7FEFF 		bl	LCD_Char_1_WriteData
 242:Generated_Source\PSoC4/LCD_Char_1.c ****         current = string[indexU8];
 361              		.loc 1 242 0
 362 0028 0F23     		movs	r3, #15
 363 002a FB18     		adds	r3, r7, r3
 364 002c 1B78     		ldrb	r3, [r3]
 365 002e 7A68     		ldr	r2, [r7, #4]
 366 0030 D218     		adds	r2, r2, r3
 367 0032 0E23     		movs	r3, #14
 368 0034 FB18     		adds	r3, r7, r3
 369 0036 1278     		ldrb	r2, [r2]
 370 0038 1A70     		strb	r2, [r3]
 243:Generated_Source\PSoC4/LCD_Char_1.c ****         indexU8++;
 371              		.loc 1 243 0
 372 003a 0F23     		movs	r3, #15
 373 003c FB18     		adds	r3, r7, r3
 374 003e 1A78     		ldrb	r2, [r3]
 375 0040 0F23     		movs	r3, #15
ARM GAS  C:\Users\bryan.lee\AppData\Local\Temp\ccik6674.s 			page 12


 376 0042 FB18     		adds	r3, r7, r3
 377 0044 0132     		adds	r2, r2, #1
 378 0046 1A70     		strb	r2, [r3]
 379              	.L21:
 239:Generated_Source\PSoC4/LCD_Char_1.c ****     {
 380              		.loc 1 239 0
 381 0048 0E23     		movs	r3, #14
 382 004a FB18     		adds	r3, r7, r3
 383 004c 1B78     		ldrb	r3, [r3]
 384 004e 002B     		cmp	r3, #0
 385 0050 E4D1     		bne	.L22
 244:Generated_Source\PSoC4/LCD_Char_1.c ****     }
 245:Generated_Source\PSoC4/LCD_Char_1.c **** }
 386              		.loc 1 245 0
 387 0052 C046     		nop
 388 0054 BD46     		mov	sp, r7
 389 0056 04B0     		add	sp, sp, #16
 390              		@ sp needed
 391 0058 80BD     		pop	{r7, pc}
 392              		.cfi_endproc
 393              	.LFE7:
 394              		.size	LCD_Char_1_PrintString, .-LCD_Char_1_PrintString
 395 005a C046     		.section	.text.LCD_Char_1_PutChar,"ax",%progbits
 396              		.align	2
 397              		.global	LCD_Char_1_PutChar
 398              		.code	16
 399              		.thumb_func
 400              		.type	LCD_Char_1_PutChar, %function
 401              	LCD_Char_1_PutChar:
 402              	.LFB8:
 246:Generated_Source\PSoC4/LCD_Char_1.c **** 
 247:Generated_Source\PSoC4/LCD_Char_1.c **** 
 248:Generated_Source\PSoC4/LCD_Char_1.c **** /*******************************************************************************
 249:Generated_Source\PSoC4/LCD_Char_1.c **** *  Function Name: LCD_Char_1_PutChar
 250:Generated_Source\PSoC4/LCD_Char_1.c **** ********************************************************************************
 251:Generated_Source\PSoC4/LCD_Char_1.c **** *
 252:Generated_Source\PSoC4/LCD_Char_1.c **** * Summary:
 253:Generated_Source\PSoC4/LCD_Char_1.c **** *  Writes a single character to the current cursor position of the LCD module.
 254:Generated_Source\PSoC4/LCD_Char_1.c **** *  Custom character names (_CUSTOM_0 through
 255:Generated_Source\PSoC4/LCD_Char_1.c **** *  _CUSTOM_7) are acceptable as inputs.
 256:Generated_Source\PSoC4/LCD_Char_1.c **** *
 257:Generated_Source\PSoC4/LCD_Char_1.c **** * Parameters:
 258:Generated_Source\PSoC4/LCD_Char_1.c **** *  character:  character to be written to the LCD
 259:Generated_Source\PSoC4/LCD_Char_1.c **** *
 260:Generated_Source\PSoC4/LCD_Char_1.c **** * Return:
 261:Generated_Source\PSoC4/LCD_Char_1.c **** *  None.
 262:Generated_Source\PSoC4/LCD_Char_1.c **** *
 263:Generated_Source\PSoC4/LCD_Char_1.c **** *******************************************************************************/
 264:Generated_Source\PSoC4/LCD_Char_1.c **** void LCD_Char_1_PutChar(char8 character) 
 265:Generated_Source\PSoC4/LCD_Char_1.c **** {
 403              		.loc 1 265 0
 404              		.cfi_startproc
 405              		@ args = 0, pretend = 0, frame = 8
 406              		@ frame_needed = 1, uses_anonymous_args = 0
 407 0000 80B5     		push	{r7, lr}
 408              		.cfi_def_cfa_offset 8
 409              		.cfi_offset 7, -8
ARM GAS  C:\Users\bryan.lee\AppData\Local\Temp\ccik6674.s 			page 13


 410              		.cfi_offset 14, -4
 411 0002 82B0     		sub	sp, sp, #8
 412              		.cfi_def_cfa_offset 16
 413 0004 00AF     		add	r7, sp, #0
 414              		.cfi_def_cfa_register 7
 415 0006 0200     		movs	r2, r0
 416 0008 FB1D     		adds	r3, r7, #7
 417 000a 1A70     		strb	r2, [r3]
 266:Generated_Source\PSoC4/LCD_Char_1.c ****     LCD_Char_1_WriteData((uint8)character);
 418              		.loc 1 266 0
 419 000c FB1D     		adds	r3, r7, #7
 420 000e 1B78     		ldrb	r3, [r3]
 421 0010 1800     		movs	r0, r3
 422 0012 FFF7FEFF 		bl	LCD_Char_1_WriteData
 267:Generated_Source\PSoC4/LCD_Char_1.c **** }
 423              		.loc 1 267 0
 424 0016 C046     		nop
 425 0018 BD46     		mov	sp, r7
 426 001a 02B0     		add	sp, sp, #8
 427              		@ sp needed
 428 001c 80BD     		pop	{r7, pc}
 429              		.cfi_endproc
 430              	.LFE8:
 431              		.size	LCD_Char_1_PutChar, .-LCD_Char_1_PutChar
 432 001e C046     		.section	.text.LCD_Char_1_WriteData,"ax",%progbits
 433              		.align	2
 434              		.global	LCD_Char_1_WriteData
 435              		.code	16
 436              		.thumb_func
 437              		.type	LCD_Char_1_WriteData, %function
 438              	LCD_Char_1_WriteData:
 439              	.LFB9:
 268:Generated_Source\PSoC4/LCD_Char_1.c **** 
 269:Generated_Source\PSoC4/LCD_Char_1.c **** 
 270:Generated_Source\PSoC4/LCD_Char_1.c **** /*******************************************************************************
 271:Generated_Source\PSoC4/LCD_Char_1.c **** *  Function Name: LCD_Char_1_WriteData
 272:Generated_Source\PSoC4/LCD_Char_1.c **** ********************************************************************************
 273:Generated_Source\PSoC4/LCD_Char_1.c **** *
 274:Generated_Source\PSoC4/LCD_Char_1.c **** * Summary:
 275:Generated_Source\PSoC4/LCD_Char_1.c **** *  Writes a data byte to the LCD module's Data Display RAM.
 276:Generated_Source\PSoC4/LCD_Char_1.c **** *
 277:Generated_Source\PSoC4/LCD_Char_1.c **** * Parameters:
 278:Generated_Source\PSoC4/LCD_Char_1.c **** *  dByte:  byte to be written to LCD module.
 279:Generated_Source\PSoC4/LCD_Char_1.c **** *
 280:Generated_Source\PSoC4/LCD_Char_1.c **** * Return:
 281:Generated_Source\PSoC4/LCD_Char_1.c **** *  None.
 282:Generated_Source\PSoC4/LCD_Char_1.c **** *
 283:Generated_Source\PSoC4/LCD_Char_1.c **** *******************************************************************************/
 284:Generated_Source\PSoC4/LCD_Char_1.c **** void LCD_Char_1_WriteData(uint8 dByte) 
 285:Generated_Source\PSoC4/LCD_Char_1.c **** {
 440              		.loc 1 285 0
 441              		.cfi_startproc
 442              		@ args = 0, pretend = 0, frame = 16
 443              		@ frame_needed = 1, uses_anonymous_args = 0
 444 0000 80B5     		push	{r7, lr}
 445              		.cfi_def_cfa_offset 8
 446              		.cfi_offset 7, -8
ARM GAS  C:\Users\bryan.lee\AppData\Local\Temp\ccik6674.s 			page 14


 447              		.cfi_offset 14, -4
 448 0002 84B0     		sub	sp, sp, #16
 449              		.cfi_def_cfa_offset 24
 450 0004 00AF     		add	r7, sp, #0
 451              		.cfi_def_cfa_register 7
 452 0006 0200     		movs	r2, r0
 453 0008 FB1D     		adds	r3, r7, #7
 454 000a 1A70     		strb	r2, [r3]
 286:Generated_Source\PSoC4/LCD_Char_1.c ****     uint8 nibble;
 287:Generated_Source\PSoC4/LCD_Char_1.c **** 
 288:Generated_Source\PSoC4/LCD_Char_1.c ****     /* Write high nibble */
 289:Generated_Source\PSoC4/LCD_Char_1.c **** 	nibble = dByte >> LCD_Char_1_NIBBLE_SHIFT;
 455              		.loc 1 289 0
 456 000c 0F23     		movs	r3, #15
 457 000e FB18     		adds	r3, r7, r3
 458 0010 FA1D     		adds	r2, r7, #7
 459 0012 1278     		ldrb	r2, [r2]
 460 0014 1209     		lsrs	r2, r2, #4
 461 0016 1A70     		strb	r2, [r3]
 290:Generated_Source\PSoC4/LCD_Char_1.c ****     LCD_Char_1_WrDatNib(nibble);
 462              		.loc 1 290 0
 463 0018 0F23     		movs	r3, #15
 464 001a FB18     		adds	r3, r7, r3
 465 001c 1B78     		ldrb	r3, [r3]
 466 001e 1800     		movs	r0, r3
 467 0020 FFF7FEFF 		bl	LCD_Char_1_WrDatNib
 291:Generated_Source\PSoC4/LCD_Char_1.c **** 
 292:Generated_Source\PSoC4/LCD_Char_1.c ****      CyDelayUs(LCD_Char_1_NIB_DELAY_US);
 468              		.loc 1 292 0
 469 0024 6420     		movs	r0, #100
 470 0026 FFF7FEFF 		bl	CyDelayUs
 293:Generated_Source\PSoC4/LCD_Char_1.c **** 	 
 294:Generated_Source\PSoC4/LCD_Char_1.c ****     /* Write low nibble */
 295:Generated_Source\PSoC4/LCD_Char_1.c **** 	nibble = dByte & LCD_Char_1_NIBBLE_MASK;
 471              		.loc 1 295 0
 472 002a 0F23     		movs	r3, #15
 473 002c FB18     		adds	r3, r7, r3
 474 002e FA1D     		adds	r2, r7, #7
 475 0030 1278     		ldrb	r2, [r2]
 476 0032 0F21     		movs	r1, #15
 477 0034 0A40     		ands	r2, r1
 478 0036 1A70     		strb	r2, [r3]
 296:Generated_Source\PSoC4/LCD_Char_1.c ****     LCD_Char_1_WrDatNib(nibble);
 479              		.loc 1 296 0
 480 0038 0F23     		movs	r3, #15
 481 003a FB18     		adds	r3, r7, r3
 482 003c 1B78     		ldrb	r3, [r3]
 483 003e 1800     		movs	r0, r3
 484 0040 FFF7FEFF 		bl	LCD_Char_1_WrDatNib
 297:Generated_Source\PSoC4/LCD_Char_1.c **** 	
 298:Generated_Source\PSoC4/LCD_Char_1.c **** 	CyDelayUs(LCD_Char_1_DATA_DELAY_US);
 485              		.loc 1 298 0
 486 0044 9620     		movs	r0, #150
 487 0046 FFF7FEFF 		bl	CyDelayUs
 299:Generated_Source\PSoC4/LCD_Char_1.c **** 
 300:Generated_Source\PSoC4/LCD_Char_1.c **** }
 488              		.loc 1 300 0
ARM GAS  C:\Users\bryan.lee\AppData\Local\Temp\ccik6674.s 			page 15


 489 004a C046     		nop
 490 004c BD46     		mov	sp, r7
 491 004e 04B0     		add	sp, sp, #16
 492              		@ sp needed
 493 0050 80BD     		pop	{r7, pc}
 494              		.cfi_endproc
 495              	.LFE9:
 496              		.size	LCD_Char_1_WriteData, .-LCD_Char_1_WriteData
 497 0052 C046     		.section	.text.LCD_Char_1_WriteControl,"ax",%progbits
 498              		.align	2
 499              		.global	LCD_Char_1_WriteControl
 500              		.code	16
 501              		.thumb_func
 502              		.type	LCD_Char_1_WriteControl, %function
 503              	LCD_Char_1_WriteControl:
 504              	.LFB10:
 301:Generated_Source\PSoC4/LCD_Char_1.c **** 
 302:Generated_Source\PSoC4/LCD_Char_1.c **** 
 303:Generated_Source\PSoC4/LCD_Char_1.c **** /*******************************************************************************
 304:Generated_Source\PSoC4/LCD_Char_1.c **** *  Function Name: LCD_Char_1_WriteControl
 305:Generated_Source\PSoC4/LCD_Char_1.c **** ********************************************************************************
 306:Generated_Source\PSoC4/LCD_Char_1.c **** *
 307:Generated_Source\PSoC4/LCD_Char_1.c **** * Summary:
 308:Generated_Source\PSoC4/LCD_Char_1.c **** *  Writes a command byte to the LCD module.
 309:Generated_Source\PSoC4/LCD_Char_1.c **** *
 310:Generated_Source\PSoC4/LCD_Char_1.c **** * Parameters:
 311:Generated_Source\PSoC4/LCD_Char_1.c **** *  cByte:   byte to be written to LCD module.
 312:Generated_Source\PSoC4/LCD_Char_1.c **** *
 313:Generated_Source\PSoC4/LCD_Char_1.c **** * Return:
 314:Generated_Source\PSoC4/LCD_Char_1.c **** *  None.
 315:Generated_Source\PSoC4/LCD_Char_1.c **** *
 316:Generated_Source\PSoC4/LCD_Char_1.c **** *******************************************************************************/
 317:Generated_Source\PSoC4/LCD_Char_1.c **** void LCD_Char_1_WriteControl(uint8 cByte) 
 318:Generated_Source\PSoC4/LCD_Char_1.c **** {
 505              		.loc 1 318 0
 506              		.cfi_startproc
 507              		@ args = 0, pretend = 0, frame = 16
 508              		@ frame_needed = 1, uses_anonymous_args = 0
 509 0000 80B5     		push	{r7, lr}
 510              		.cfi_def_cfa_offset 8
 511              		.cfi_offset 7, -8
 512              		.cfi_offset 14, -4
 513 0002 84B0     		sub	sp, sp, #16
 514              		.cfi_def_cfa_offset 24
 515 0004 00AF     		add	r7, sp, #0
 516              		.cfi_def_cfa_register 7
 517 0006 0200     		movs	r2, r0
 518 0008 FB1D     		adds	r3, r7, #7
 519 000a 1A70     		strb	r2, [r3]
 319:Generated_Source\PSoC4/LCD_Char_1.c ****     uint8 nibble;
 320:Generated_Source\PSoC4/LCD_Char_1.c **** 
 321:Generated_Source\PSoC4/LCD_Char_1.c ****     /* WrCntrlNib(High Nibble) */
 322:Generated_Source\PSoC4/LCD_Char_1.c **** 	 nibble = cByte >> LCD_Char_1_NIBBLE_SHIFT;
 520              		.loc 1 322 0
 521 000c 0F23     		movs	r3, #15
 522 000e FB18     		adds	r3, r7, r3
 523 0010 FA1D     		adds	r2, r7, #7
ARM GAS  C:\Users\bryan.lee\AppData\Local\Temp\ccik6674.s 			page 16


 524 0012 1278     		ldrb	r2, [r2]
 525 0014 1209     		lsrs	r2, r2, #4
 526 0016 1A70     		strb	r2, [r3]
 323:Generated_Source\PSoC4/LCD_Char_1.c ****     LCD_Char_1_WrCntrlNib(nibble);
 527              		.loc 1 323 0
 528 0018 0F23     		movs	r3, #15
 529 001a FB18     		adds	r3, r7, r3
 530 001c 1B78     		ldrb	r3, [r3]
 531 001e 1800     		movs	r0, r3
 532 0020 FFF7FEFF 		bl	LCD_Char_1_WrCntrlNib
 324:Generated_Source\PSoC4/LCD_Char_1.c **** 
 325:Generated_Source\PSoC4/LCD_Char_1.c ****     CyDelayUs(LCD_Char_1_NIB_DELAY_US);
 533              		.loc 1 325 0
 534 0024 6420     		movs	r0, #100
 535 0026 FFF7FEFF 		bl	CyDelayUs
 326:Generated_Source\PSoC4/LCD_Char_1.c **** 	
 327:Generated_Source\PSoC4/LCD_Char_1.c ****     /* WrCntrlNib(Low Nibble) */
 328:Generated_Source\PSoC4/LCD_Char_1.c **** 	nibble = cByte & LCD_Char_1_NIBBLE_MASK;
 536              		.loc 1 328 0
 537 002a 0F23     		movs	r3, #15
 538 002c FB18     		adds	r3, r7, r3
 539 002e FA1D     		adds	r2, r7, #7
 540 0030 1278     		ldrb	r2, [r2]
 541 0032 0F21     		movs	r1, #15
 542 0034 0A40     		ands	r2, r1
 543 0036 1A70     		strb	r2, [r3]
 329:Generated_Source\PSoC4/LCD_Char_1.c ****     LCD_Char_1_WrCntrlNib(nibble);
 544              		.loc 1 329 0
 545 0038 0F23     		movs	r3, #15
 546 003a FB18     		adds	r3, r7, r3
 547 003c 1B78     		ldrb	r3, [r3]
 548 003e 1800     		movs	r0, r3
 549 0040 FFF7FEFF 		bl	LCD_Char_1_WrCntrlNib
 330:Generated_Source\PSoC4/LCD_Char_1.c **** 
 331:Generated_Source\PSoC4/LCD_Char_1.c ****      CyDelayUs(LCD_Char_1_CMD_DELAY_US);
 550              		.loc 1 331 0
 551 0044 034B     		ldr	r3, .L26
 552 0046 1800     		movs	r0, r3
 553 0048 FFF7FEFF 		bl	CyDelayUs
 332:Generated_Source\PSoC4/LCD_Char_1.c **** }
 554              		.loc 1 332 0
 555 004c C046     		nop
 556 004e BD46     		mov	sp, r7
 557 0050 04B0     		add	sp, sp, #16
 558              		@ sp needed
 559 0052 80BD     		pop	{r7, pc}
 560              	.L27:
 561              		.align	2
 562              	.L26:
 563 0054 DC050000 		.word	1500
 564              		.cfi_endproc
 565              	.LFE10:
 566              		.size	LCD_Char_1_WriteControl, .-LCD_Char_1_WriteControl
 567              		.section	.text.LCD_Char_1_IsReady,"ax",%progbits
 568              		.align	2
 569              		.global	LCD_Char_1_IsReady
 570              		.code	16
ARM GAS  C:\Users\bryan.lee\AppData\Local\Temp\ccik6674.s 			page 17


 571              		.thumb_func
 572              		.type	LCD_Char_1_IsReady, %function
 573              	LCD_Char_1_IsReady:
 574              	.LFB11:
 333:Generated_Source\PSoC4/LCD_Char_1.c **** 
 334:Generated_Source\PSoC4/LCD_Char_1.c **** 
 335:Generated_Source\PSoC4/LCD_Char_1.c **** /*******************************************************************************
 336:Generated_Source\PSoC4/LCD_Char_1.c **** * Function Name: LCD_Char_1_IsReady
 337:Generated_Source\PSoC4/LCD_Char_1.c **** ********************************************************************************
 338:Generated_Source\PSoC4/LCD_Char_1.c **** *
 339:Generated_Source\PSoC4/LCD_Char_1.c **** * Summary:
 340:Generated_Source\PSoC4/LCD_Char_1.c **** *  Polls LCD until the ready bit is set.
 341:Generated_Source\PSoC4/LCD_Char_1.c **** *
 342:Generated_Source\PSoC4/LCD_Char_1.c **** * Parameters:
 343:Generated_Source\PSoC4/LCD_Char_1.c **** *  None.
 344:Generated_Source\PSoC4/LCD_Char_1.c **** *
 345:Generated_Source\PSoC4/LCD_Char_1.c **** * Return:
 346:Generated_Source\PSoC4/LCD_Char_1.c **** *  None.
 347:Generated_Source\PSoC4/LCD_Char_1.c **** *
 348:Generated_Source\PSoC4/LCD_Char_1.c **** * Note:
 349:Generated_Source\PSoC4/LCD_Char_1.c **** *  Changes pins to High-Z.
 350:Generated_Source\PSoC4/LCD_Char_1.c **** *
 351:Generated_Source\PSoC4/LCD_Char_1.c **** *******************************************************************************/
 352:Generated_Source\PSoC4/LCD_Char_1.c **** void LCD_Char_1_IsReady(void) 
 353:Generated_Source\PSoC4/LCD_Char_1.c **** {
 575              		.loc 1 353 0
 576              		.cfi_startproc
 577              		@ args = 0, pretend = 0, frame = 0
 578              		@ frame_needed = 1, uses_anonymous_args = 0
 579 0000 80B5     		push	{r7, lr}
 580              		.cfi_def_cfa_offset 8
 581              		.cfi_offset 7, -8
 582              		.cfi_offset 14, -4
 583 0002 00AF     		add	r7, sp, #0
 584              		.cfi_def_cfa_register 7
 354:Generated_Source\PSoC4/LCD_Char_1.c ****    
 355:Generated_Source\PSoC4/LCD_Char_1.c **** 	CyDelay(1u);
 585              		.loc 1 355 0
 586 0004 0120     		movs	r0, #1
 587 0006 FFF7FEFF 		bl	CyDelay
 356:Generated_Source\PSoC4/LCD_Char_1.c **** 	
 357:Generated_Source\PSoC4/LCD_Char_1.c **** }
 588              		.loc 1 357 0
 589 000a C046     		nop
 590 000c BD46     		mov	sp, r7
 591              		@ sp needed
 592 000e 80BD     		pop	{r7, pc}
 593              		.cfi_endproc
 594              	.LFE11:
 595              		.size	LCD_Char_1_IsReady, .-LCD_Char_1_IsReady
 596              		.section	.text.LCD_Char_1_WrDatNib,"ax",%progbits
 597              		.align	2
 598              		.code	16
 599              		.thumb_func
 600              		.type	LCD_Char_1_WrDatNib, %function
 601              	LCD_Char_1_WrDatNib:
 602              	.LFB12:
ARM GAS  C:\Users\bryan.lee\AppData\Local\Temp\ccik6674.s 			page 18


 358:Generated_Source\PSoC4/LCD_Char_1.c **** 
 359:Generated_Source\PSoC4/LCD_Char_1.c **** 
 360:Generated_Source\PSoC4/LCD_Char_1.c **** /*******************************************************************************
 361:Generated_Source\PSoC4/LCD_Char_1.c **** *  Function Name: LCD_Char_1_WrDatNib
 362:Generated_Source\PSoC4/LCD_Char_1.c **** ********************************************************************************
 363:Generated_Source\PSoC4/LCD_Char_1.c **** *
 364:Generated_Source\PSoC4/LCD_Char_1.c **** * Summary:
 365:Generated_Source\PSoC4/LCD_Char_1.c **** *  Writes a data nibble to the LCD module.
 366:Generated_Source\PSoC4/LCD_Char_1.c **** *
 367:Generated_Source\PSoC4/LCD_Char_1.c **** * Parameters:
 368:Generated_Source\PSoC4/LCD_Char_1.c **** *  nibble:  byte containing nibble in least significant nibble to be written
 369:Generated_Source\PSoC4/LCD_Char_1.c **** *           to LCD module.
 370:Generated_Source\PSoC4/LCD_Char_1.c **** *
 371:Generated_Source\PSoC4/LCD_Char_1.c **** * Return:
 372:Generated_Source\PSoC4/LCD_Char_1.c **** *  None.
 373:Generated_Source\PSoC4/LCD_Char_1.c **** *
 374:Generated_Source\PSoC4/LCD_Char_1.c **** *******************************************************************************/
 375:Generated_Source\PSoC4/LCD_Char_1.c **** static void LCD_Char_1_WrDatNib(uint8 nibble) 
 376:Generated_Source\PSoC4/LCD_Char_1.c **** {
 603              		.loc 1 376 0
 604              		.cfi_startproc
 605              		@ args = 0, pretend = 0, frame = 8
 606              		@ frame_needed = 1, uses_anonymous_args = 0
 607 0000 80B5     		push	{r7, lr}
 608              		.cfi_def_cfa_offset 8
 609              		.cfi_offset 7, -8
 610              		.cfi_offset 14, -4
 611 0002 82B0     		sub	sp, sp, #8
 612              		.cfi_def_cfa_offset 16
 613 0004 00AF     		add	r7, sp, #0
 614              		.cfi_def_cfa_register 7
 615 0006 0200     		movs	r2, r0
 616 0008 FB1D     		adds	r3, r7, #7
 617 000a 1A70     		strb	r2, [r3]
 377:Generated_Source\PSoC4/LCD_Char_1.c **** 
 378:Generated_Source\PSoC4/LCD_Char_1.c ****     /* RS shoul be low to select data register */
 379:Generated_Source\PSoC4/LCD_Char_1.c ****     LCD_Char_1_CNTL_REG |= LCD_Char_1_RS;
 618              		.loc 1 379 0
 619 000c 194A     		ldr	r2, .L30
 620 000e 194B     		ldr	r3, .L30
 621 0010 1B78     		ldrb	r3, [r3]
 622 0012 DBB2     		uxtb	r3, r3
 623 0014 2021     		movs	r1, #32
 624 0016 0B43     		orrs	r3, r1
 625 0018 DBB2     		uxtb	r3, r3
 626 001a 1370     		strb	r3, [r2]
 380:Generated_Source\PSoC4/LCD_Char_1.c ****     /* Reset RW for write operation */
 381:Generated_Source\PSoC4/LCD_Char_1.c ****     LCD_Char_1_CNTL_REG &= ~LCD_Char_1_RW;
 627              		.loc 1 381 0
 628 001c 154A     		ldr	r2, .L30
 629 001e 154B     		ldr	r3, .L30
 630 0020 1B78     		ldrb	r3, [r3]
 631 0022 DBB2     		uxtb	r3, r3
 632 0024 4021     		movs	r1, #64
 633 0026 8B43     		bics	r3, r1
 634 0028 DBB2     		uxtb	r3, r3
 635 002a 1370     		strb	r3, [r2]
ARM GAS  C:\Users\bryan.lee\AppData\Local\Temp\ccik6674.s 			page 19


 382:Generated_Source\PSoC4/LCD_Char_1.c **** 
 383:Generated_Source\PSoC4/LCD_Char_1.c ****     /* Two following lines of code will provide us with 40ns delay */
 384:Generated_Source\PSoC4/LCD_Char_1.c ****     /* Clear data pins */
 385:Generated_Source\PSoC4/LCD_Char_1.c ****     LCD_Char_1_CNTL_REG &= ~LCD_Char_1_DATA_MASK;
 636              		.loc 1 385 0
 637 002c 114A     		ldr	r2, .L30
 638 002e 114B     		ldr	r3, .L30
 639 0030 1B78     		ldrb	r3, [r3]
 640 0032 DBB2     		uxtb	r3, r3
 641 0034 0F21     		movs	r1, #15
 642 0036 8B43     		bics	r3, r1
 643 0038 DBB2     		uxtb	r3, r3
 644 003a 1370     		strb	r3, [r2]
 386:Generated_Source\PSoC4/LCD_Char_1.c **** 
 387:Generated_Source\PSoC4/LCD_Char_1.c ****     /* Write in data, bring E high*/
 388:Generated_Source\PSoC4/LCD_Char_1.c ****     LCD_Char_1_CNTL_REG |= (LCD_Char_1_E | nibble);
 645              		.loc 1 388 0
 646 003c 0D49     		ldr	r1, .L30
 647 003e 0D4B     		ldr	r3, .L30
 648 0040 1B78     		ldrb	r3, [r3]
 649 0042 DAB2     		uxtb	r2, r3
 650 0044 FB1D     		adds	r3, r7, #7
 651 0046 1B78     		ldrb	r3, [r3]
 652 0048 1343     		orrs	r3, r2
 653 004a DBB2     		uxtb	r3, r3
 654 004c 1022     		movs	r2, #16
 655 004e 1343     		orrs	r3, r2
 656 0050 DBB2     		uxtb	r3, r3
 657 0052 0B70     		strb	r3, [r1]
 389:Generated_Source\PSoC4/LCD_Char_1.c **** 
 390:Generated_Source\PSoC4/LCD_Char_1.c ****     /* Minimum of 230 ns delay */
 391:Generated_Source\PSoC4/LCD_Char_1.c ****     CyDelayUs(1u);
 658              		.loc 1 391 0
 659 0054 0120     		movs	r0, #1
 660 0056 FFF7FEFF 		bl	CyDelayUs
 392:Generated_Source\PSoC4/LCD_Char_1.c **** 
 393:Generated_Source\PSoC4/LCD_Char_1.c ****     LCD_Char_1_CNTL_REG &= ~LCD_Char_1_E;
 661              		.loc 1 393 0
 662 005a 064A     		ldr	r2, .L30
 663 005c 054B     		ldr	r3, .L30
 664 005e 1B78     		ldrb	r3, [r3]
 665 0060 DBB2     		uxtb	r3, r3
 666 0062 1021     		movs	r1, #16
 667 0064 8B43     		bics	r3, r1
 668 0066 DBB2     		uxtb	r3, r3
 669 0068 1370     		strb	r3, [r2]
 394:Generated_Source\PSoC4/LCD_Char_1.c **** 	
 395:Generated_Source\PSoC4/LCD_Char_1.c **** }
 670              		.loc 1 395 0
 671 006a C046     		nop
 672 006c BD46     		mov	sp, r7
 673 006e 02B0     		add	sp, sp, #8
 674              		@ sp needed
 675 0070 80BD     		pop	{r7, pc}
 676              	.L31:
 677 0072 C046     		.align	2
 678              	.L30:
ARM GAS  C:\Users\bryan.lee\AppData\Local\Temp\ccik6674.s 			page 20


 679 0074 72000F40 		.word	1074724978
 680              		.cfi_endproc
 681              	.LFE12:
 682              		.size	LCD_Char_1_WrDatNib, .-LCD_Char_1_WrDatNib
 683              		.section	.text.LCD_Char_1_WrCntrlNib,"ax",%progbits
 684              		.align	2
 685              		.code	16
 686              		.thumb_func
 687              		.type	LCD_Char_1_WrCntrlNib, %function
 688              	LCD_Char_1_WrCntrlNib:
 689              	.LFB13:
 396:Generated_Source\PSoC4/LCD_Char_1.c **** 
 397:Generated_Source\PSoC4/LCD_Char_1.c **** 
 398:Generated_Source\PSoC4/LCD_Char_1.c **** /*******************************************************************************
 399:Generated_Source\PSoC4/LCD_Char_1.c **** *  Function Name: LCD_Char_1_WrCntrlNib
 400:Generated_Source\PSoC4/LCD_Char_1.c **** ********************************************************************************
 401:Generated_Source\PSoC4/LCD_Char_1.c **** *
 402:Generated_Source\PSoC4/LCD_Char_1.c **** * Summary:
 403:Generated_Source\PSoC4/LCD_Char_1.c **** *  Writes a control nibble to the LCD module.
 404:Generated_Source\PSoC4/LCD_Char_1.c **** *
 405:Generated_Source\PSoC4/LCD_Char_1.c **** * Parameters:
 406:Generated_Source\PSoC4/LCD_Char_1.c **** *  nibble:  byte containing nibble in least significant nibble to be written
 407:Generated_Source\PSoC4/LCD_Char_1.c **** *           to LCD module.
 408:Generated_Source\PSoC4/LCD_Char_1.c **** *
 409:Generated_Source\PSoC4/LCD_Char_1.c **** * Return:
 410:Generated_Source\PSoC4/LCD_Char_1.c **** *  None.
 411:Generated_Source\PSoC4/LCD_Char_1.c **** *
 412:Generated_Source\PSoC4/LCD_Char_1.c **** *******************************************************************************/
 413:Generated_Source\PSoC4/LCD_Char_1.c **** static void LCD_Char_1_WrCntrlNib(uint8 nibble) 
 414:Generated_Source\PSoC4/LCD_Char_1.c **** {
 690              		.loc 1 414 0
 691              		.cfi_startproc
 692              		@ args = 0, pretend = 0, frame = 8
 693              		@ frame_needed = 1, uses_anonymous_args = 0
 694 0000 80B5     		push	{r7, lr}
 695              		.cfi_def_cfa_offset 8
 696              		.cfi_offset 7, -8
 697              		.cfi_offset 14, -4
 698 0002 82B0     		sub	sp, sp, #8
 699              		.cfi_def_cfa_offset 16
 700 0004 00AF     		add	r7, sp, #0
 701              		.cfi_def_cfa_register 7
 702 0006 0200     		movs	r2, r0
 703 0008 FB1D     		adds	r3, r7, #7
 704 000a 1A70     		strb	r2, [r3]
 415:Generated_Source\PSoC4/LCD_Char_1.c **** 	
 416:Generated_Source\PSoC4/LCD_Char_1.c **** 	/* RS and RW shoul be low to select instruction register and  write operation respectively */
 417:Generated_Source\PSoC4/LCD_Char_1.c ****     LCD_Char_1_CNTL_REG &= ~(LCD_Char_1_RS | LCD_Char_1_RW);
 705              		.loc 1 417 0
 706 000c 154A     		ldr	r2, .L33
 707 000e 154B     		ldr	r3, .L33
 708 0010 1B78     		ldrb	r3, [r3]
 709 0012 DBB2     		uxtb	r3, r3
 710 0014 6021     		movs	r1, #96
 711 0016 8B43     		bics	r3, r1
 712 0018 DBB2     		uxtb	r3, r3
 713 001a 1370     		strb	r3, [r2]
ARM GAS  C:\Users\bryan.lee\AppData\Local\Temp\ccik6674.s 			page 21


 418:Generated_Source\PSoC4/LCD_Char_1.c **** 
 419:Generated_Source\PSoC4/LCD_Char_1.c ****     /* Two following lines of code will give provide ua with 40ns delay */
 420:Generated_Source\PSoC4/LCD_Char_1.c ****     /* Clear data pins */
 421:Generated_Source\PSoC4/LCD_Char_1.c ****     LCD_Char_1_CNTL_REG &= ~LCD_Char_1_DATA_MASK;
 714              		.loc 1 421 0
 715 001c 114A     		ldr	r2, .L33
 716 001e 114B     		ldr	r3, .L33
 717 0020 1B78     		ldrb	r3, [r3]
 718 0022 DBB2     		uxtb	r3, r3
 719 0024 0F21     		movs	r1, #15
 720 0026 8B43     		bics	r3, r1
 721 0028 DBB2     		uxtb	r3, r3
 722 002a 1370     		strb	r3, [r2]
 422:Generated_Source\PSoC4/LCD_Char_1.c **** 
 423:Generated_Source\PSoC4/LCD_Char_1.c ****     /* Write control data and set enable signal */
 424:Generated_Source\PSoC4/LCD_Char_1.c ****     LCD_Char_1_CNTL_REG |= (LCD_Char_1_E | nibble);
 723              		.loc 1 424 0
 724 002c 0D49     		ldr	r1, .L33
 725 002e 0D4B     		ldr	r3, .L33
 726 0030 1B78     		ldrb	r3, [r3]
 727 0032 DAB2     		uxtb	r2, r3
 728 0034 FB1D     		adds	r3, r7, #7
 729 0036 1B78     		ldrb	r3, [r3]
 730 0038 1343     		orrs	r3, r2
 731 003a DBB2     		uxtb	r3, r3
 732 003c 1022     		movs	r2, #16
 733 003e 1343     		orrs	r3, r2
 734 0040 DBB2     		uxtb	r3, r3
 735 0042 0B70     		strb	r3, [r1]
 425:Generated_Source\PSoC4/LCD_Char_1.c **** 
 426:Generated_Source\PSoC4/LCD_Char_1.c ****     /* Minimum of 230 ns delay */
 427:Generated_Source\PSoC4/LCD_Char_1.c ****     CyDelayUs(1u);
 736              		.loc 1 427 0
 737 0044 0120     		movs	r0, #1
 738 0046 FFF7FEFF 		bl	CyDelayUs
 428:Generated_Source\PSoC4/LCD_Char_1.c **** 
 429:Generated_Source\PSoC4/LCD_Char_1.c ****     LCD_Char_1_CNTL_REG &= ~LCD_Char_1_E;
 739              		.loc 1 429 0
 740 004a 064A     		ldr	r2, .L33
 741 004c 054B     		ldr	r3, .L33
 742 004e 1B78     		ldrb	r3, [r3]
 743 0050 DBB2     		uxtb	r3, r3
 744 0052 1021     		movs	r1, #16
 745 0054 8B43     		bics	r3, r1
 746 0056 DBB2     		uxtb	r3, r3
 747 0058 1370     		strb	r3, [r2]
 430:Generated_Source\PSoC4/LCD_Char_1.c **** }
 748              		.loc 1 430 0
 749 005a C046     		nop
 750 005c BD46     		mov	sp, r7
 751 005e 02B0     		add	sp, sp, #8
 752              		@ sp needed
 753 0060 80BD     		pop	{r7, pc}
 754              	.L34:
 755 0062 C046     		.align	2
 756              	.L33:
 757 0064 72000F40 		.word	1074724978
ARM GAS  C:\Users\bryan.lee\AppData\Local\Temp\ccik6674.s 			page 22


 758              		.cfi_endproc
 759              	.LFE13:
 760              		.size	LCD_Char_1_WrCntrlNib, .-LCD_Char_1_WrCntrlNib
 761              		.section	.text.LCD_Char_1_PrintInt8,"ax",%progbits
 762              		.align	2
 763              		.global	LCD_Char_1_PrintInt8
 764              		.code	16
 765              		.thumb_func
 766              		.type	LCD_Char_1_PrintInt8, %function
 767              	LCD_Char_1_PrintInt8:
 768              	.LFB14:
 431:Generated_Source\PSoC4/LCD_Char_1.c **** 
 432:Generated_Source\PSoC4/LCD_Char_1.c **** 
 433:Generated_Source\PSoC4/LCD_Char_1.c **** #if(LCD_Char_1_CONVERSION_ROUTINES == 1u)
 434:Generated_Source\PSoC4/LCD_Char_1.c **** 
 435:Generated_Source\PSoC4/LCD_Char_1.c ****     /*******************************************************************************
 436:Generated_Source\PSoC4/LCD_Char_1.c ****     *  Function Name: LCD_Char_1_PrintInt8
 437:Generated_Source\PSoC4/LCD_Char_1.c ****     ********************************************************************************
 438:Generated_Source\PSoC4/LCD_Char_1.c ****     *
 439:Generated_Source\PSoC4/LCD_Char_1.c ****     * Summary:
 440:Generated_Source\PSoC4/LCD_Char_1.c ****     *  Print a byte as two ASCII characters.
 441:Generated_Source\PSoC4/LCD_Char_1.c ****     *
 442:Generated_Source\PSoC4/LCD_Char_1.c ****     * Parameters:
 443:Generated_Source\PSoC4/LCD_Char_1.c ****     *  value:  The byte to be printed out as ASCII characters.
 444:Generated_Source\PSoC4/LCD_Char_1.c ****     *
 445:Generated_Source\PSoC4/LCD_Char_1.c ****     * Return:
 446:Generated_Source\PSoC4/LCD_Char_1.c ****     *  None.
 447:Generated_Source\PSoC4/LCD_Char_1.c ****     *
 448:Generated_Source\PSoC4/LCD_Char_1.c ****     *******************************************************************************/
 449:Generated_Source\PSoC4/LCD_Char_1.c ****     void LCD_Char_1_PrintInt8(uint8 value) 
 450:Generated_Source\PSoC4/LCD_Char_1.c ****     {
 769              		.loc 1 450 0
 770              		.cfi_startproc
 771              		@ args = 0, pretend = 0, frame = 8
 772              		@ frame_needed = 1, uses_anonymous_args = 0
 773 0000 80B5     		push	{r7, lr}
 774              		.cfi_def_cfa_offset 8
 775              		.cfi_offset 7, -8
 776              		.cfi_offset 14, -4
 777 0002 82B0     		sub	sp, sp, #8
 778              		.cfi_def_cfa_offset 16
 779 0004 00AF     		add	r7, sp, #0
 780              		.cfi_def_cfa_register 7
 781 0006 0200     		movs	r2, r0
 782 0008 FB1D     		adds	r3, r7, #7
 783 000a 1A70     		strb	r2, [r3]
 451:Generated_Source\PSoC4/LCD_Char_1.c ****         static char8 const CYCODE LCD_Char_1_hex[16u] = "0123456789ABCDEF";
 452:Generated_Source\PSoC4/LCD_Char_1.c ****         
 453:Generated_Source\PSoC4/LCD_Char_1.c ****         LCD_Char_1_PutChar((char8) LCD_Char_1_hex[value >> LCD_Char_1_BYTE_UPPER_NIBBLE_SHIFT]);
 784              		.loc 1 453 0
 785 000c FB1D     		adds	r3, r7, #7
 786 000e 1B78     		ldrb	r3, [r3]
 787 0010 1B09     		lsrs	r3, r3, #4
 788 0012 DBB2     		uxtb	r3, r3
 789 0014 1A00     		movs	r2, r3
 790 0016 094B     		ldr	r3, .L36
 791 0018 9B5C     		ldrb	r3, [r3, r2]
ARM GAS  C:\Users\bryan.lee\AppData\Local\Temp\ccik6674.s 			page 23


 792 001a 1800     		movs	r0, r3
 793 001c FFF7FEFF 		bl	LCD_Char_1_PutChar
 454:Generated_Source\PSoC4/LCD_Char_1.c ****         LCD_Char_1_PutChar((char8) LCD_Char_1_hex[value & LCD_Char_1_BYTE_LOWER_NIBBLE_MASK]);
 794              		.loc 1 454 0
 795 0020 FB1D     		adds	r3, r7, #7
 796 0022 1B78     		ldrb	r3, [r3]
 797 0024 0F22     		movs	r2, #15
 798 0026 1340     		ands	r3, r2
 799 0028 044A     		ldr	r2, .L36
 800 002a D35C     		ldrb	r3, [r2, r3]
 801 002c 1800     		movs	r0, r3
 802 002e FFF7FEFF 		bl	LCD_Char_1_PutChar
 455:Generated_Source\PSoC4/LCD_Char_1.c ****     }
 803              		.loc 1 455 0
 804 0032 C046     		nop
 805 0034 BD46     		mov	sp, r7
 806 0036 02B0     		add	sp, sp, #8
 807              		@ sp needed
 808 0038 80BD     		pop	{r7, pc}
 809              	.L37:
 810 003a C046     		.align	2
 811              	.L36:
 812 003c 00000000 		.word	LCD_Char_1_hex.4940
 813              		.cfi_endproc
 814              	.LFE14:
 815              		.size	LCD_Char_1_PrintInt8, .-LCD_Char_1_PrintInt8
 816              		.section	.text.LCD_Char_1_PrintInt16,"ax",%progbits
 817              		.align	2
 818              		.global	LCD_Char_1_PrintInt16
 819              		.code	16
 820              		.thumb_func
 821              		.type	LCD_Char_1_PrintInt16, %function
 822              	LCD_Char_1_PrintInt16:
 823              	.LFB15:
 456:Generated_Source\PSoC4/LCD_Char_1.c **** 
 457:Generated_Source\PSoC4/LCD_Char_1.c **** 
 458:Generated_Source\PSoC4/LCD_Char_1.c ****     /*******************************************************************************
 459:Generated_Source\PSoC4/LCD_Char_1.c ****     *  Function Name: LCD_Char_1_PrintInt16
 460:Generated_Source\PSoC4/LCD_Char_1.c ****     ********************************************************************************
 461:Generated_Source\PSoC4/LCD_Char_1.c ****     *
 462:Generated_Source\PSoC4/LCD_Char_1.c ****     * Summary:
 463:Generated_Source\PSoC4/LCD_Char_1.c ****     *  Print a uint16 as four ASCII characters.
 464:Generated_Source\PSoC4/LCD_Char_1.c ****     *
 465:Generated_Source\PSoC4/LCD_Char_1.c ****     * Parameters:
 466:Generated_Source\PSoC4/LCD_Char_1.c ****     *  value:   The uint16 to be printed out as ASCII characters.
 467:Generated_Source\PSoC4/LCD_Char_1.c ****     *
 468:Generated_Source\PSoC4/LCD_Char_1.c ****     * Return:
 469:Generated_Source\PSoC4/LCD_Char_1.c ****     *  None.
 470:Generated_Source\PSoC4/LCD_Char_1.c ****     *
 471:Generated_Source\PSoC4/LCD_Char_1.c ****     *******************************************************************************/
 472:Generated_Source\PSoC4/LCD_Char_1.c ****     void LCD_Char_1_PrintInt16(uint16 value) 
 473:Generated_Source\PSoC4/LCD_Char_1.c ****     {
 824              		.loc 1 473 0
 825              		.cfi_startproc
 826              		@ args = 0, pretend = 0, frame = 8
 827              		@ frame_needed = 1, uses_anonymous_args = 0
 828 0000 80B5     		push	{r7, lr}
ARM GAS  C:\Users\bryan.lee\AppData\Local\Temp\ccik6674.s 			page 24


 829              		.cfi_def_cfa_offset 8
 830              		.cfi_offset 7, -8
 831              		.cfi_offset 14, -4
 832 0002 82B0     		sub	sp, sp, #8
 833              		.cfi_def_cfa_offset 16
 834 0004 00AF     		add	r7, sp, #0
 835              		.cfi_def_cfa_register 7
 836 0006 0200     		movs	r2, r0
 837 0008 BB1D     		adds	r3, r7, #6
 838 000a 1A80     		strh	r2, [r3]
 474:Generated_Source\PSoC4/LCD_Char_1.c ****         LCD_Char_1_PrintInt8((uint8)(value >> LCD_Char_1_U16_UPPER_BYTE_SHIFT));
 839              		.loc 1 474 0
 840 000c BB1D     		adds	r3, r7, #6
 841 000e 1B88     		ldrh	r3, [r3]
 842 0010 1B0A     		lsrs	r3, r3, #8
 843 0012 9BB2     		uxth	r3, r3
 844 0014 DBB2     		uxtb	r3, r3
 845 0016 1800     		movs	r0, r3
 846 0018 FFF7FEFF 		bl	LCD_Char_1_PrintInt8
 475:Generated_Source\PSoC4/LCD_Char_1.c ****         LCD_Char_1_PrintInt8((uint8)(value & LCD_Char_1_U16_LOWER_BYTE_MASK));
 847              		.loc 1 475 0
 848 001c BB1D     		adds	r3, r7, #6
 849 001e 1B88     		ldrh	r3, [r3]
 850 0020 DBB2     		uxtb	r3, r3
 851 0022 1800     		movs	r0, r3
 852 0024 FFF7FEFF 		bl	LCD_Char_1_PrintInt8
 476:Generated_Source\PSoC4/LCD_Char_1.c ****     }
 853              		.loc 1 476 0
 854 0028 C046     		nop
 855 002a BD46     		mov	sp, r7
 856 002c 02B0     		add	sp, sp, #8
 857              		@ sp needed
 858 002e 80BD     		pop	{r7, pc}
 859              		.cfi_endproc
 860              	.LFE15:
 861              		.size	LCD_Char_1_PrintInt16, .-LCD_Char_1_PrintInt16
 862              		.global	__aeabi_uidivmod
 863              		.global	__aeabi_uidiv
 864              		.section	.text.LCD_Char_1_PrintNumber,"ax",%progbits
 865              		.align	2
 866              		.global	LCD_Char_1_PrintNumber
 867              		.code	16
 868              		.thumb_func
 869              		.type	LCD_Char_1_PrintNumber, %function
 870              	LCD_Char_1_PrintNumber:
 871              	.LFB16:
 477:Generated_Source\PSoC4/LCD_Char_1.c **** 
 478:Generated_Source\PSoC4/LCD_Char_1.c **** 
 479:Generated_Source\PSoC4/LCD_Char_1.c ****     /*******************************************************************************
 480:Generated_Source\PSoC4/LCD_Char_1.c ****     *  Function Name: LCD_Char_1_PrintNumber
 481:Generated_Source\PSoC4/LCD_Char_1.c ****     ********************************************************************************
 482:Generated_Source\PSoC4/LCD_Char_1.c ****     *
 483:Generated_Source\PSoC4/LCD_Char_1.c ****     * Summary:
 484:Generated_Source\PSoC4/LCD_Char_1.c ****     *  Print an uint32 value as a left-justified decimal value.
 485:Generated_Source\PSoC4/LCD_Char_1.c ****     *
 486:Generated_Source\PSoC4/LCD_Char_1.c ****     * Parameters:
 487:Generated_Source\PSoC4/LCD_Char_1.c ****     *  value:  The byte to be printed out as ASCII characters.
ARM GAS  C:\Users\bryan.lee\AppData\Local\Temp\ccik6674.s 			page 25


 488:Generated_Source\PSoC4/LCD_Char_1.c ****     *
 489:Generated_Source\PSoC4/LCD_Char_1.c ****     * Return:
 490:Generated_Source\PSoC4/LCD_Char_1.c ****     *  None.
 491:Generated_Source\PSoC4/LCD_Char_1.c ****     *
 492:Generated_Source\PSoC4/LCD_Char_1.c ****     *******************************************************************************/
 493:Generated_Source\PSoC4/LCD_Char_1.c ****     void LCD_Char_1_PrintNumber(uint16 value) 
 494:Generated_Source\PSoC4/LCD_Char_1.c ****     {
 872              		.loc 1 494 0
 873              		.cfi_startproc
 874              		@ args = 0, pretend = 0, frame = 24
 875              		@ frame_needed = 1, uses_anonymous_args = 0
 876 0000 90B5     		push	{r4, r7, lr}
 877              		.cfi_def_cfa_offset 12
 878              		.cfi_offset 4, -12
 879              		.cfi_offset 7, -8
 880              		.cfi_offset 14, -4
 881 0002 87B0     		sub	sp, sp, #28
 882              		.cfi_def_cfa_offset 40
 883 0004 00AF     		add	r7, sp, #0
 884              		.cfi_def_cfa_register 7
 885 0006 0200     		movs	r2, r0
 886 0008 BB1D     		adds	r3, r7, #6
 887 000a 1A80     		strh	r2, [r3]
 495:Generated_Source\PSoC4/LCD_Char_1.c **** 
 496:Generated_Source\PSoC4/LCD_Char_1.c ****         char8 number[LCD_Char_1_NUMBER_OF_REMAINDERS];
 497:Generated_Source\PSoC4/LCD_Char_1.c ****         char8 temp[LCD_Char_1_NUMBER_OF_REMAINDERS];
 498:Generated_Source\PSoC4/LCD_Char_1.c **** 
 499:Generated_Source\PSoC4/LCD_Char_1.c ****         uint8 digIndex = 0u;
 888              		.loc 1 499 0
 889 000c 1723     		movs	r3, #23
 890 000e FB18     		adds	r3, r7, r3
 891 0010 0022     		movs	r2, #0
 892 0012 1A70     		strb	r2, [r3]
 500:Generated_Source\PSoC4/LCD_Char_1.c ****         uint8 numDigits;
 501:Generated_Source\PSoC4/LCD_Char_1.c **** 
 502:Generated_Source\PSoC4/LCD_Char_1.c ****         /* Load these in reverse order */
 503:Generated_Source\PSoC4/LCD_Char_1.c ****         while(value >= LCD_Char_1_TEN)
 893              		.loc 1 503 0
 894 0014 20E0     		b	.L40
 895              	.L41:
 504:Generated_Source\PSoC4/LCD_Char_1.c ****         {
 505:Generated_Source\PSoC4/LCD_Char_1.c ****             temp[digIndex] = (value % LCD_Char_1_TEN) + '0';
 896              		.loc 1 505 0
 897 0016 1723     		movs	r3, #23
 898 0018 FB18     		adds	r3, r7, r3
 899 001a 1C78     		ldrb	r4, [r3]
 900 001c BB1D     		adds	r3, r7, #6
 901 001e 1B88     		ldrh	r3, [r3]
 902 0020 0A21     		movs	r1, #10
 903 0022 1800     		movs	r0, r3
 904 0024 FFF7FEFF 		bl	__aeabi_uidivmod
 905 0028 0B00     		movs	r3, r1
 906 002a 9BB2     		uxth	r3, r3
 907 002c DBB2     		uxtb	r3, r3
 908 002e 3033     		adds	r3, r3, #48
 909 0030 DAB2     		uxtb	r2, r3
 910 0032 0823     		movs	r3, #8
ARM GAS  C:\Users\bryan.lee\AppData\Local\Temp\ccik6674.s 			page 26


 911 0034 FB18     		adds	r3, r7, r3
 912 0036 1A55     		strb	r2, [r3, r4]
 506:Generated_Source\PSoC4/LCD_Char_1.c ****             value /= LCD_Char_1_TEN;
 913              		.loc 1 506 0
 914 0038 BC1D     		adds	r4, r7, #6
 915 003a BB1D     		adds	r3, r7, #6
 916 003c 1B88     		ldrh	r3, [r3]
 917 003e 0A21     		movs	r1, #10
 918 0040 1800     		movs	r0, r3
 919 0042 FFF7FEFF 		bl	__aeabi_uidiv
 920 0046 0300     		movs	r3, r0
 921 0048 2380     		strh	r3, [r4]
 507:Generated_Source\PSoC4/LCD_Char_1.c ****             digIndex++;
 922              		.loc 1 507 0
 923 004a 1723     		movs	r3, #23
 924 004c FB18     		adds	r3, r7, r3
 925 004e 1A78     		ldrb	r2, [r3]
 926 0050 1723     		movs	r3, #23
 927 0052 FB18     		adds	r3, r7, r3
 928 0054 0132     		adds	r2, r2, #1
 929 0056 1A70     		strb	r2, [r3]
 930              	.L40:
 503:Generated_Source\PSoC4/LCD_Char_1.c ****         {
 931              		.loc 1 503 0
 932 0058 BB1D     		adds	r3, r7, #6
 933 005a 1B88     		ldrh	r3, [r3]
 934 005c 092B     		cmp	r3, #9
 935 005e DAD8     		bhi	.L41
 508:Generated_Source\PSoC4/LCD_Char_1.c ****         }
 509:Generated_Source\PSoC4/LCD_Char_1.c **** 
 510:Generated_Source\PSoC4/LCD_Char_1.c ****         temp[digIndex] = (value % LCD_Char_1_TEN) + '0';
 936              		.loc 1 510 0
 937 0060 1723     		movs	r3, #23
 938 0062 FB18     		adds	r3, r7, r3
 939 0064 1C78     		ldrb	r4, [r3]
 940 0066 BB1D     		adds	r3, r7, #6
 941 0068 1B88     		ldrh	r3, [r3]
 942 006a 0A21     		movs	r1, #10
 943 006c 1800     		movs	r0, r3
 944 006e FFF7FEFF 		bl	__aeabi_uidivmod
 945 0072 0B00     		movs	r3, r1
 946 0074 9BB2     		uxth	r3, r3
 947 0076 DBB2     		uxtb	r3, r3
 948 0078 3033     		adds	r3, r3, #48
 949 007a DAB2     		uxtb	r2, r3
 950 007c 0823     		movs	r3, #8
 951 007e FB18     		adds	r3, r7, r3
 952 0080 1A55     		strb	r2, [r3, r4]
 511:Generated_Source\PSoC4/LCD_Char_1.c ****         numDigits = digIndex;
 953              		.loc 1 511 0
 954 0082 1623     		movs	r3, #22
 955 0084 FB18     		adds	r3, r7, r3
 956 0086 1722     		movs	r2, #23
 957 0088 BA18     		adds	r2, r7, r2
 958 008a 1278     		ldrb	r2, [r2]
 959 008c 1A70     		strb	r2, [r3]
 512:Generated_Source\PSoC4/LCD_Char_1.c **** 
ARM GAS  C:\Users\bryan.lee\AppData\Local\Temp\ccik6674.s 			page 27


 513:Generated_Source\PSoC4/LCD_Char_1.c ****         /* While index is greater than or equal to zero copy number
 514:Generated_Source\PSoC4/LCD_Char_1.c ****         * from temporary array to number[].
 515:Generated_Source\PSoC4/LCD_Char_1.c ****         */
 516:Generated_Source\PSoC4/LCD_Char_1.c ****         while (digIndex != 0u)
 960              		.loc 1 516 0
 961 008e 16E0     		b	.L42
 962              	.L43:
 517:Generated_Source\PSoC4/LCD_Char_1.c ****         {
 518:Generated_Source\PSoC4/LCD_Char_1.c ****             number[numDigits - digIndex] = temp[digIndex];
 963              		.loc 1 518 0
 964 0090 1623     		movs	r3, #22
 965 0092 FB18     		adds	r3, r7, r3
 966 0094 1A78     		ldrb	r2, [r3]
 967 0096 1723     		movs	r3, #23
 968 0098 FB18     		adds	r3, r7, r3
 969 009a 1B78     		ldrb	r3, [r3]
 970 009c D31A     		subs	r3, r2, r3
 971 009e 1722     		movs	r2, #23
 972 00a0 BA18     		adds	r2, r7, r2
 973 00a2 1278     		ldrb	r2, [r2]
 974 00a4 0821     		movs	r1, #8
 975 00a6 7918     		adds	r1, r7, r1
 976 00a8 895C     		ldrb	r1, [r1, r2]
 977 00aa 1022     		movs	r2, #16
 978 00ac BA18     		adds	r2, r7, r2
 979 00ae D154     		strb	r1, [r2, r3]
 519:Generated_Source\PSoC4/LCD_Char_1.c ****             digIndex--;
 980              		.loc 1 519 0
 981 00b0 1723     		movs	r3, #23
 982 00b2 FB18     		adds	r3, r7, r3
 983 00b4 1A78     		ldrb	r2, [r3]
 984 00b6 1723     		movs	r3, #23
 985 00b8 FB18     		adds	r3, r7, r3
 986 00ba 013A     		subs	r2, r2, #1
 987 00bc 1A70     		strb	r2, [r3]
 988              	.L42:
 516:Generated_Source\PSoC4/LCD_Char_1.c ****         {
 989              		.loc 1 516 0
 990 00be 1723     		movs	r3, #23
 991 00c0 FB18     		adds	r3, r7, r3
 992 00c2 1B78     		ldrb	r3, [r3]
 993 00c4 002B     		cmp	r3, #0
 994 00c6 E3D1     		bne	.L43
 520:Generated_Source\PSoC4/LCD_Char_1.c ****         }
 521:Generated_Source\PSoC4/LCD_Char_1.c ****         
 522:Generated_Source\PSoC4/LCD_Char_1.c ****         /* Copy last digit */
 523:Generated_Source\PSoC4/LCD_Char_1.c ****         number[numDigits] = temp[0u];
 995              		.loc 1 523 0
 996 00c8 1623     		movs	r3, #22
 997 00ca FB18     		adds	r3, r7, r3
 998 00cc 1B78     		ldrb	r3, [r3]
 999 00ce 0822     		movs	r2, #8
 1000 00d0 BA18     		adds	r2, r7, r2
 1001 00d2 1178     		ldrb	r1, [r2]
 1002 00d4 1022     		movs	r2, #16
 1003 00d6 BA18     		adds	r2, r7, r2
 1004 00d8 D154     		strb	r1, [r2, r3]
ARM GAS  C:\Users\bryan.lee\AppData\Local\Temp\ccik6674.s 			page 28


 524:Generated_Source\PSoC4/LCD_Char_1.c **** 
 525:Generated_Source\PSoC4/LCD_Char_1.c ****         /* Null Termination */
 526:Generated_Source\PSoC4/LCD_Char_1.c ****         number[numDigits + 1u] = (char8) '\0';
 1005              		.loc 1 526 0
 1006 00da 1623     		movs	r3, #22
 1007 00dc FB18     		adds	r3, r7, r3
 1008 00de 1B78     		ldrb	r3, [r3]
 1009 00e0 0133     		adds	r3, r3, #1
 1010 00e2 1022     		movs	r2, #16
 1011 00e4 BA18     		adds	r2, r7, r2
 1012 00e6 0021     		movs	r1, #0
 1013 00e8 D154     		strb	r1, [r2, r3]
 527:Generated_Source\PSoC4/LCD_Char_1.c **** 
 528:Generated_Source\PSoC4/LCD_Char_1.c ****         /* Print out number */
 529:Generated_Source\PSoC4/LCD_Char_1.c ****         LCD_Char_1_PrintString(&number[0u]);
 1014              		.loc 1 529 0
 1015 00ea 1023     		movs	r3, #16
 1016 00ec FB18     		adds	r3, r7, r3
 1017 00ee 1800     		movs	r0, r3
 1018 00f0 FFF7FEFF 		bl	LCD_Char_1_PrintString
 530:Generated_Source\PSoC4/LCD_Char_1.c ****     }
 1019              		.loc 1 530 0
 1020 00f4 C046     		nop
 1021 00f6 BD46     		mov	sp, r7
 1022 00f8 07B0     		add	sp, sp, #28
 1023              		@ sp needed
 1024 00fa 90BD     		pop	{r4, r7, pc}
 1025              		.cfi_endproc
 1026              	.LFE16:
 1027              		.size	LCD_Char_1_PrintNumber, .-LCD_Char_1_PrintNumber
 1028              		.section	.rodata
 1029              		.align	2
 1030              		.type	LCD_Char_1_hex.4940, %object
 1031              		.size	LCD_Char_1_hex.4940, 16
 1032              	LCD_Char_1_hex.4940:
 1033 0000 30313233 		.ascii	"0123456789ABCDEF"
 1033      34353637 
 1033      38394142 
 1033      43444546 
 1034              		.text
 1035              	.Letext0:
 1036              		.file 2 "Generated_Source\\PSoC4\\cytypes.h"
 1037              		.section	.debug_info,"",%progbits
 1038              	.Ldebug_info0:
 1039 0000 76030000 		.4byte	0x376
 1040 0004 0400     		.2byte	0x4
 1041 0006 00000000 		.4byte	.Ldebug_abbrev0
 1042 000a 04       		.byte	0x4
 1043 000b 01       		.uleb128 0x1
 1044 000c 7C010000 		.4byte	.LASF49
 1045 0010 0C       		.byte	0xc
 1046 0011 2B000000 		.4byte	.LASF50
 1047 0015 18020000 		.4byte	.LASF51
 1048 0019 00000000 		.4byte	.Ldebug_ranges0+0
 1049 001d 00000000 		.4byte	0
 1050 0021 00000000 		.4byte	.Ldebug_line0
 1051 0025 02       		.uleb128 0x2
ARM GAS  C:\Users\bryan.lee\AppData\Local\Temp\ccik6674.s 			page 29


 1052 0026 01       		.byte	0x1
 1053 0027 06       		.byte	0x6
 1054 0028 6A030000 		.4byte	.LASF0
 1055 002c 02       		.uleb128 0x2
 1056 002d 01       		.byte	0x1
 1057 002e 08       		.byte	0x8
 1058 002f 0A020000 		.4byte	.LASF1
 1059 0033 02       		.uleb128 0x2
 1060 0034 02       		.byte	0x2
 1061 0035 05       		.byte	0x5
 1062 0036 2C030000 		.4byte	.LASF2
 1063 003a 02       		.uleb128 0x2
 1064 003b 02       		.byte	0x2
 1065 003c 07       		.byte	0x7
 1066 003d 93000000 		.4byte	.LASF3
 1067 0041 02       		.uleb128 0x2
 1068 0042 04       		.byte	0x4
 1069 0043 05       		.byte	0x5
 1070 0044 3E030000 		.4byte	.LASF4
 1071 0048 02       		.uleb128 0x2
 1072 0049 04       		.byte	0x4
 1073 004a 07       		.byte	0x7
 1074 004b 21010000 		.4byte	.LASF5
 1075 004f 02       		.uleb128 0x2
 1076 0050 08       		.byte	0x8
 1077 0051 05       		.byte	0x5
 1078 0052 F5020000 		.4byte	.LASF6
 1079 0056 02       		.uleb128 0x2
 1080 0057 08       		.byte	0x8
 1081 0058 07       		.byte	0x7
 1082 0059 B2020000 		.4byte	.LASF7
 1083 005d 03       		.uleb128 0x3
 1084 005e 04       		.byte	0x4
 1085 005f 05       		.byte	0x5
 1086 0060 696E7400 		.ascii	"int\000"
 1087 0064 02       		.uleb128 0x2
 1088 0065 04       		.byte	0x4
 1089 0066 07       		.byte	0x7
 1090 0067 90020000 		.4byte	.LASF8
 1091 006b 04       		.uleb128 0x4
 1092 006c 38010000 		.4byte	.LASF9
 1093 0070 02       		.byte	0x2
 1094 0071 E401     		.2byte	0x1e4
 1095 0073 2C000000 		.4byte	0x2c
 1096 0077 04       		.uleb128 0x4
 1097 0078 80020000 		.4byte	.LASF10
 1098 007c 02       		.byte	0x2
 1099 007d E501     		.2byte	0x1e5
 1100 007f 3A000000 		.4byte	0x3a
 1101 0083 02       		.uleb128 0x2
 1102 0084 04       		.byte	0x4
 1103 0085 04       		.byte	0x4
 1104 0086 E4000000 		.4byte	.LASF11
 1105 008a 02       		.uleb128 0x2
 1106 008b 08       		.byte	0x8
 1107 008c 04       		.byte	0x4
 1108 008d 66020000 		.4byte	.LASF12
ARM GAS  C:\Users\bryan.lee\AppData\Local\Temp\ccik6674.s 			page 30


 1109 0091 04       		.uleb128 0x4
 1110 0092 EF020000 		.4byte	.LASF13
 1111 0096 02       		.byte	0x2
 1112 0097 F501     		.2byte	0x1f5
 1113 0099 9D000000 		.4byte	0x9d
 1114 009d 02       		.uleb128 0x2
 1115 009e 01       		.byte	0x1
 1116 009f 08       		.byte	0x8
 1117 00a0 03030000 		.4byte	.LASF14
 1118 00a4 04       		.uleb128 0x4
 1119 00a5 12010000 		.4byte	.LASF15
 1120 00a9 02       		.byte	0x2
 1121 00aa 8E02     		.2byte	0x28e
 1122 00ac B0000000 		.4byte	0xb0
 1123 00b0 05       		.uleb128 0x5
 1124 00b1 6B000000 		.4byte	0x6b
 1125 00b5 02       		.uleb128 0x2
 1126 00b6 08       		.byte	0x8
 1127 00b7 04       		.byte	0x4
 1128 00b8 5E030000 		.4byte	.LASF16
 1129 00bc 02       		.uleb128 0x2
 1130 00bd 04       		.byte	0x4
 1131 00be 07       		.byte	0x7
 1132 00bf E6020000 		.4byte	.LASF17
 1133 00c3 06       		.uleb128 0x6
 1134 00c4 1C030000 		.4byte	.LASF18
 1135 00c8 01       		.byte	0x1
 1136 00c9 37       		.byte	0x37
 1137 00ca 00000000 		.4byte	.LFB2
 1138 00ce 70000000 		.4byte	.LFE2-.LFB2
 1139 00d2 01       		.uleb128 0x1
 1140 00d3 9C       		.byte	0x9c
 1141 00d4 06       		.uleb128 0x6
 1142 00d5 A6000000 		.4byte	.LASF19
 1143 00d9 01       		.byte	0x1
 1144 00da 68       		.byte	0x68
 1145 00db 00000000 		.4byte	.LFB3
 1146 00df 1C000000 		.4byte	.LFE3-.LFB3
 1147 00e3 01       		.uleb128 0x1
 1148 00e4 9C       		.byte	0x9c
 1149 00e5 06       		.uleb128 0x6
 1150 00e6 EA000000 		.4byte	.LASF20
 1151 00ea 01       		.byte	0x1
 1152 00eb 89       		.byte	0x89
 1153 00ec 00000000 		.4byte	.LFB4
 1154 00f0 24000000 		.4byte	.LFE4-.LFB4
 1155 00f4 01       		.uleb128 0x1
 1156 00f5 9C       		.byte	0x9c
 1157 00f6 06       		.uleb128 0x6
 1158 00f7 83000000 		.4byte	.LASF21
 1159 00fb 01       		.byte	0x1
 1160 00fc A8       		.byte	0xa8
 1161 00fd 00000000 		.4byte	.LFB5
 1162 0101 1C000000 		.4byte	.LFE5-.LFB5
 1163 0105 01       		.uleb128 0x1
 1164 0106 9C       		.byte	0x9c
 1165 0107 07       		.uleb128 0x7
ARM GAS  C:\Users\bryan.lee\AppData\Local\Temp\ccik6674.s 			page 31


 1166 0108 08030000 		.4byte	.LASF23
 1167 010c 01       		.byte	0x1
 1168 010d C4       		.byte	0xc4
 1169 010e 00000000 		.4byte	.LFB6
 1170 0112 74000000 		.4byte	.LFE6-.LFB6
 1171 0116 01       		.uleb128 0x1
 1172 0117 9C       		.byte	0x9c
 1173 0118 39010000 		.4byte	0x139
 1174 011c 08       		.uleb128 0x8
 1175 011d 726F7700 		.ascii	"row\000"
 1176 0121 01       		.byte	0x1
 1177 0122 C4       		.byte	0xc4
 1178 0123 6B000000 		.4byte	0x6b
 1179 0127 02       		.uleb128 0x2
 1180 0128 91       		.byte	0x91
 1181 0129 77       		.sleb128 -9
 1182 012a 09       		.uleb128 0x9
 1183 012b DD000000 		.4byte	.LASF22
 1184 012f 01       		.byte	0x1
 1185 0130 C4       		.byte	0xc4
 1186 0131 6B000000 		.4byte	0x6b
 1187 0135 02       		.uleb128 0x2
 1188 0136 91       		.byte	0x91
 1189 0137 76       		.sleb128 -10
 1190 0138 00       		.byte	0
 1191 0139 07       		.uleb128 0x7
 1192 013a FB000000 		.4byte	.LASF24
 1193 013e 01       		.byte	0x1
 1194 013f E9       		.byte	0xe9
 1195 0140 00000000 		.4byte	.LFB7
 1196 0144 5A000000 		.4byte	.LFE7-.LFB7
 1197 0148 01       		.uleb128 0x1
 1198 0149 9C       		.byte	0x9c
 1199 014a 79010000 		.4byte	0x179
 1200 014e 09       		.uleb128 0x9
 1201 014f D6000000 		.4byte	.LASF25
 1202 0153 01       		.byte	0x1
 1203 0154 E9       		.byte	0xe9
 1204 0155 79010000 		.4byte	0x179
 1205 0159 02       		.uleb128 0x2
 1206 015a 91       		.byte	0x91
 1207 015b 6C       		.sleb128 -20
 1208 015c 0A       		.uleb128 0xa
 1209 015d B8000000 		.4byte	.LASF26
 1210 0161 01       		.byte	0x1
 1211 0162 EB       		.byte	0xeb
 1212 0163 6B000000 		.4byte	0x6b
 1213 0167 02       		.uleb128 0x2
 1214 0168 91       		.byte	0x91
 1215 0169 77       		.sleb128 -9
 1216 016a 0A       		.uleb128 0xa
 1217 016b 36030000 		.4byte	.LASF27
 1218 016f 01       		.byte	0x1
 1219 0170 EC       		.byte	0xec
 1220 0171 91000000 		.4byte	0x91
 1221 0175 02       		.uleb128 0x2
 1222 0176 91       		.byte	0x91
ARM GAS  C:\Users\bryan.lee\AppData\Local\Temp\ccik6674.s 			page 32


 1223 0177 76       		.sleb128 -10
 1224 0178 00       		.byte	0
 1225 0179 0B       		.uleb128 0xb
 1226 017a 04       		.byte	0x4
 1227 017b 7F010000 		.4byte	0x17f
 1228 017f 0C       		.uleb128 0xc
 1229 0180 91000000 		.4byte	0x91
 1230 0184 0D       		.uleb128 0xd
 1231 0185 6D020000 		.4byte	.LASF28
 1232 0189 01       		.byte	0x1
 1233 018a 0801     		.2byte	0x108
 1234 018c 00000000 		.4byte	.LFB8
 1235 0190 1E000000 		.4byte	.LFE8-.LFB8
 1236 0194 01       		.uleb128 0x1
 1237 0195 9C       		.byte	0x9c
 1238 0196 AA010000 		.4byte	0x1aa
 1239 019a 0E       		.uleb128 0xe
 1240 019b 64000000 		.4byte	.LASF29
 1241 019f 01       		.byte	0x1
 1242 01a0 0801     		.2byte	0x108
 1243 01a2 91000000 		.4byte	0x91
 1244 01a6 02       		.uleb128 0x2
 1245 01a7 91       		.byte	0x91
 1246 01a8 77       		.sleb128 -9
 1247 01a9 00       		.byte	0
 1248 01aa 0D       		.uleb128 0xd
 1249 01ab 9D020000 		.4byte	.LASF30
 1250 01af 01       		.byte	0x1
 1251 01b0 1C01     		.2byte	0x11c
 1252 01b2 00000000 		.4byte	.LFB9
 1253 01b6 52000000 		.4byte	.LFE9-.LFB9
 1254 01ba 01       		.uleb128 0x1
 1255 01bb 9C       		.byte	0x9c
 1256 01bc DF010000 		.4byte	0x1df
 1257 01c0 0E       		.uleb128 0xe
 1258 01c1 76030000 		.4byte	.LASF31
 1259 01c5 01       		.byte	0x1
 1260 01c6 1C01     		.2byte	0x11c
 1261 01c8 6B000000 		.4byte	0x6b
 1262 01cc 02       		.uleb128 0x2
 1263 01cd 91       		.byte	0x91
 1264 01ce 6F       		.sleb128 -17
 1265 01cf 0F       		.uleb128 0xf
 1266 01d0 82030000 		.4byte	.LASF32
 1267 01d4 01       		.byte	0x1
 1268 01d5 1E01     		.2byte	0x11e
 1269 01d7 6B000000 		.4byte	0x6b
 1270 01db 02       		.uleb128 0x2
 1271 01dc 91       		.byte	0x91
 1272 01dd 77       		.sleb128 -9
 1273 01de 00       		.byte	0
 1274 01df 0D       		.uleb128 0xd
 1275 01e0 13000000 		.4byte	.LASF33
 1276 01e4 01       		.byte	0x1
 1277 01e5 3D01     		.2byte	0x13d
 1278 01e7 00000000 		.4byte	.LFB10
 1279 01eb 58000000 		.4byte	.LFE10-.LFB10
ARM GAS  C:\Users\bryan.lee\AppData\Local\Temp\ccik6674.s 			page 33


 1280 01ef 01       		.uleb128 0x1
 1281 01f0 9C       		.byte	0x9c
 1282 01f1 14020000 		.4byte	0x214
 1283 01f5 0E       		.uleb128 0xe
 1284 01f6 7C030000 		.4byte	.LASF34
 1285 01fa 01       		.byte	0x1
 1286 01fb 3D01     		.2byte	0x13d
 1287 01fd 6B000000 		.4byte	0x6b
 1288 0201 02       		.uleb128 0x2
 1289 0202 91       		.byte	0x91
 1290 0203 6F       		.sleb128 -17
 1291 0204 0F       		.uleb128 0xf
 1292 0205 82030000 		.4byte	.LASF32
 1293 0209 01       		.byte	0x1
 1294 020a 3F01     		.2byte	0x13f
 1295 020c 6B000000 		.4byte	0x6b
 1296 0210 02       		.uleb128 0x2
 1297 0211 91       		.byte	0x91
 1298 0212 77       		.sleb128 -9
 1299 0213 00       		.byte	0
 1300 0214 10       		.uleb128 0x10
 1301 0215 69010000 		.4byte	.LASF35
 1302 0219 01       		.byte	0x1
 1303 021a 6001     		.2byte	0x160
 1304 021c 00000000 		.4byte	.LFB11
 1305 0220 10000000 		.4byte	.LFE11-.LFB11
 1306 0224 01       		.uleb128 0x1
 1307 0225 9C       		.byte	0x9c
 1308 0226 11       		.uleb128 0x11
 1309 0227 3E010000 		.4byte	.LASF36
 1310 022b 01       		.byte	0x1
 1311 022c 7701     		.2byte	0x177
 1312 022e 00000000 		.4byte	.LFB12
 1313 0232 78000000 		.4byte	.LFE12-.LFB12
 1314 0236 01       		.uleb128 0x1
 1315 0237 9C       		.byte	0x9c
 1316 0238 4C020000 		.4byte	0x24c
 1317 023c 0E       		.uleb128 0xe
 1318 023d 82030000 		.4byte	.LASF32
 1319 0241 01       		.byte	0x1
 1320 0242 7701     		.2byte	0x177
 1321 0244 6B000000 		.4byte	0x6b
 1322 0248 02       		.uleb128 0x2
 1323 0249 91       		.byte	0x91
 1324 024a 77       		.sleb128 -9
 1325 024b 00       		.byte	0
 1326 024c 11       		.uleb128 0x11
 1327 024d D0020000 		.4byte	.LASF37
 1328 0251 01       		.byte	0x1
 1329 0252 9D01     		.2byte	0x19d
 1330 0254 00000000 		.4byte	.LFB13
 1331 0258 68000000 		.4byte	.LFE13-.LFB13
 1332 025c 01       		.uleb128 0x1
 1333 025d 9C       		.byte	0x9c
 1334 025e 72020000 		.4byte	0x272
 1335 0262 0E       		.uleb128 0xe
 1336 0263 82030000 		.4byte	.LASF32
ARM GAS  C:\Users\bryan.lee\AppData\Local\Temp\ccik6674.s 			page 34


 1337 0267 01       		.byte	0x1
 1338 0268 9D01     		.2byte	0x19d
 1339 026a 6B000000 		.4byte	0x6b
 1340 026e 02       		.uleb128 0x2
 1341 026f 91       		.byte	0x91
 1342 0270 77       		.sleb128 -9
 1343 0271 00       		.byte	0
 1344 0272 0D       		.uleb128 0xd
 1345 0273 4F000000 		.4byte	.LASF38
 1346 0277 01       		.byte	0x1
 1347 0278 C101     		.2byte	0x1c1
 1348 027a 00000000 		.4byte	.LFB14
 1349 027e 40000000 		.4byte	.LFE14-.LFB14
 1350 0282 01       		.uleb128 0x1
 1351 0283 9C       		.byte	0x9c
 1352 0284 AA020000 		.4byte	0x2aa
 1353 0288 0E       		.uleb128 0xe
 1354 0289 7D000000 		.4byte	.LASF39
 1355 028d 01       		.byte	0x1
 1356 028e C101     		.2byte	0x1c1
 1357 0290 6B000000 		.4byte	0x6b
 1358 0294 02       		.uleb128 0x2
 1359 0295 91       		.byte	0x91
 1360 0296 77       		.sleb128 -9
 1361 0297 0F       		.uleb128 0xf
 1362 0298 6E000000 		.4byte	.LASF40
 1363 029c 01       		.byte	0x1
 1364 029d C301     		.2byte	0x1c3
 1365 029f BA020000 		.4byte	0x2ba
 1366 02a3 05       		.uleb128 0x5
 1367 02a4 03       		.byte	0x3
 1368 02a5 00000000 		.4byte	LCD_Char_1_hex.4940
 1369 02a9 00       		.byte	0
 1370 02aa 12       		.uleb128 0x12
 1371 02ab 7F010000 		.4byte	0x17f
 1372 02af BA020000 		.4byte	0x2ba
 1373 02b3 13       		.uleb128 0x13
 1374 02b4 BC000000 		.4byte	0xbc
 1375 02b8 0F       		.byte	0xf
 1376 02b9 00       		.byte	0
 1377 02ba 0C       		.uleb128 0xc
 1378 02bb AA020000 		.4byte	0x2aa
 1379 02bf 0D       		.uleb128 0xd
 1380 02c0 C0000000 		.4byte	.LASF41
 1381 02c4 01       		.byte	0x1
 1382 02c5 D801     		.2byte	0x1d8
 1383 02c7 00000000 		.4byte	.LFB15
 1384 02cb 30000000 		.4byte	.LFE15-.LFB15
 1385 02cf 01       		.uleb128 0x1
 1386 02d0 9C       		.byte	0x9c
 1387 02d1 E5020000 		.4byte	0x2e5
 1388 02d5 0E       		.uleb128 0xe
 1389 02d6 7D000000 		.4byte	.LASF39
 1390 02da 01       		.byte	0x1
 1391 02db D801     		.2byte	0x1d8
 1392 02dd 77000000 		.4byte	0x77
 1393 02e1 02       		.uleb128 0x2
ARM GAS  C:\Users\bryan.lee\AppData\Local\Temp\ccik6674.s 			page 35


 1394 02e2 91       		.byte	0x91
 1395 02e3 76       		.sleb128 -10
 1396 02e4 00       		.byte	0
 1397 02e5 0D       		.uleb128 0xd
 1398 02e6 47030000 		.4byte	.LASF42
 1399 02ea 01       		.byte	0x1
 1400 02eb ED01     		.2byte	0x1ed
 1401 02ed 00000000 		.4byte	.LFB16
 1402 02f1 FC000000 		.4byte	.LFE16-.LFB16
 1403 02f5 01       		.uleb128 0x1
 1404 02f6 9C       		.byte	0x9c
 1405 02f7 47030000 		.4byte	0x347
 1406 02fb 0E       		.uleb128 0xe
 1407 02fc 7D000000 		.4byte	.LASF39
 1408 0300 01       		.byte	0x1
 1409 0301 ED01     		.2byte	0x1ed
 1410 0303 77000000 		.4byte	0x77
 1411 0307 02       		.uleb128 0x2
 1412 0308 91       		.byte	0x91
 1413 0309 5E       		.sleb128 -34
 1414 030a 0F       		.uleb128 0xf
 1415 030b C9020000 		.4byte	.LASF43
 1416 030f 01       		.byte	0x1
 1417 0310 F001     		.2byte	0x1f0
 1418 0312 47030000 		.4byte	0x347
 1419 0316 02       		.uleb128 0x2
 1420 0317 91       		.byte	0x91
 1421 0318 68       		.sleb128 -24
 1422 0319 0F       		.uleb128 0xf
 1423 031a 33010000 		.4byte	.LASF44
 1424 031e 01       		.byte	0x1
 1425 031f F101     		.2byte	0x1f1
 1426 0321 47030000 		.4byte	0x347
 1427 0325 02       		.uleb128 0x2
 1428 0326 91       		.byte	0x91
 1429 0327 60       		.sleb128 -32
 1430 0328 0F       		.uleb128 0xf
 1431 0329 87020000 		.4byte	.LASF45
 1432 032d 01       		.byte	0x1
 1433 032e F301     		.2byte	0x1f3
 1434 0330 6B000000 		.4byte	0x6b
 1435 0334 02       		.uleb128 0x2
 1436 0335 91       		.byte	0x91
 1437 0336 6F       		.sleb128 -17
 1438 0337 0F       		.uleb128 0xf
 1439 0338 17010000 		.4byte	.LASF46
 1440 033c 01       		.byte	0x1
 1441 033d F401     		.2byte	0x1f4
 1442 033f 6B000000 		.4byte	0x6b
 1443 0343 02       		.uleb128 0x2
 1444 0344 91       		.byte	0x91
 1445 0345 6E       		.sleb128 -18
 1446 0346 00       		.byte	0
 1447 0347 12       		.uleb128 0x12
 1448 0348 91000000 		.4byte	0x91
 1449 034c 57030000 		.4byte	0x357
 1450 0350 13       		.uleb128 0x13
ARM GAS  C:\Users\bryan.lee\AppData\Local\Temp\ccik6674.s 			page 36


 1451 0351 BC000000 		.4byte	0xbc
 1452 0355 04       		.byte	0x4
 1453 0356 00       		.byte	0
 1454 0357 14       		.uleb128 0x14
 1455 0358 00000000 		.4byte	.LASF47
 1456 035c 01       		.byte	0x1
 1457 035d 1D       		.byte	0x1d
 1458 035e 6B000000 		.4byte	0x6b
 1459 0362 05       		.uleb128 0x5
 1460 0363 03       		.byte	0x3
 1461 0364 00000000 		.4byte	LCD_Char_1_initVar
 1462 0368 14       		.uleb128 0x14
 1463 0369 52010000 		.4byte	.LASF48
 1464 036d 01       		.byte	0x1
 1465 036e 1B       		.byte	0x1b
 1466 036f 6B000000 		.4byte	0x6b
 1467 0373 05       		.uleb128 0x5
 1468 0374 03       		.byte	0x3
 1469 0375 00000000 		.4byte	LCD_Char_1_enableState
 1470 0379 00       		.byte	0
 1471              		.section	.debug_abbrev,"",%progbits
 1472              	.Ldebug_abbrev0:
 1473 0000 01       		.uleb128 0x1
 1474 0001 11       		.uleb128 0x11
 1475 0002 01       		.byte	0x1
 1476 0003 25       		.uleb128 0x25
 1477 0004 0E       		.uleb128 0xe
 1478 0005 13       		.uleb128 0x13
 1479 0006 0B       		.uleb128 0xb
 1480 0007 03       		.uleb128 0x3
 1481 0008 0E       		.uleb128 0xe
 1482 0009 1B       		.uleb128 0x1b
 1483 000a 0E       		.uleb128 0xe
 1484 000b 55       		.uleb128 0x55
 1485 000c 17       		.uleb128 0x17
 1486 000d 11       		.uleb128 0x11
 1487 000e 01       		.uleb128 0x1
 1488 000f 10       		.uleb128 0x10
 1489 0010 17       		.uleb128 0x17
 1490 0011 00       		.byte	0
 1491 0012 00       		.byte	0
 1492 0013 02       		.uleb128 0x2
 1493 0014 24       		.uleb128 0x24
 1494 0015 00       		.byte	0
 1495 0016 0B       		.uleb128 0xb
 1496 0017 0B       		.uleb128 0xb
 1497 0018 3E       		.uleb128 0x3e
 1498 0019 0B       		.uleb128 0xb
 1499 001a 03       		.uleb128 0x3
 1500 001b 0E       		.uleb128 0xe
 1501 001c 00       		.byte	0
 1502 001d 00       		.byte	0
 1503 001e 03       		.uleb128 0x3
 1504 001f 24       		.uleb128 0x24
 1505 0020 00       		.byte	0
 1506 0021 0B       		.uleb128 0xb
 1507 0022 0B       		.uleb128 0xb
ARM GAS  C:\Users\bryan.lee\AppData\Local\Temp\ccik6674.s 			page 37


 1508 0023 3E       		.uleb128 0x3e
 1509 0024 0B       		.uleb128 0xb
 1510 0025 03       		.uleb128 0x3
 1511 0026 08       		.uleb128 0x8
 1512 0027 00       		.byte	0
 1513 0028 00       		.byte	0
 1514 0029 04       		.uleb128 0x4
 1515 002a 16       		.uleb128 0x16
 1516 002b 00       		.byte	0
 1517 002c 03       		.uleb128 0x3
 1518 002d 0E       		.uleb128 0xe
 1519 002e 3A       		.uleb128 0x3a
 1520 002f 0B       		.uleb128 0xb
 1521 0030 3B       		.uleb128 0x3b
 1522 0031 05       		.uleb128 0x5
 1523 0032 49       		.uleb128 0x49
 1524 0033 13       		.uleb128 0x13
 1525 0034 00       		.byte	0
 1526 0035 00       		.byte	0
 1527 0036 05       		.uleb128 0x5
 1528 0037 35       		.uleb128 0x35
 1529 0038 00       		.byte	0
 1530 0039 49       		.uleb128 0x49
 1531 003a 13       		.uleb128 0x13
 1532 003b 00       		.byte	0
 1533 003c 00       		.byte	0
 1534 003d 06       		.uleb128 0x6
 1535 003e 2E       		.uleb128 0x2e
 1536 003f 00       		.byte	0
 1537 0040 3F       		.uleb128 0x3f
 1538 0041 19       		.uleb128 0x19
 1539 0042 03       		.uleb128 0x3
 1540 0043 0E       		.uleb128 0xe
 1541 0044 3A       		.uleb128 0x3a
 1542 0045 0B       		.uleb128 0xb
 1543 0046 3B       		.uleb128 0x3b
 1544 0047 0B       		.uleb128 0xb
 1545 0048 27       		.uleb128 0x27
 1546 0049 19       		.uleb128 0x19
 1547 004a 11       		.uleb128 0x11
 1548 004b 01       		.uleb128 0x1
 1549 004c 12       		.uleb128 0x12
 1550 004d 06       		.uleb128 0x6
 1551 004e 40       		.uleb128 0x40
 1552 004f 18       		.uleb128 0x18
 1553 0050 9642     		.uleb128 0x2116
 1554 0052 19       		.uleb128 0x19
 1555 0053 00       		.byte	0
 1556 0054 00       		.byte	0
 1557 0055 07       		.uleb128 0x7
 1558 0056 2E       		.uleb128 0x2e
 1559 0057 01       		.byte	0x1
 1560 0058 3F       		.uleb128 0x3f
 1561 0059 19       		.uleb128 0x19
 1562 005a 03       		.uleb128 0x3
 1563 005b 0E       		.uleb128 0xe
 1564 005c 3A       		.uleb128 0x3a
ARM GAS  C:\Users\bryan.lee\AppData\Local\Temp\ccik6674.s 			page 38


 1565 005d 0B       		.uleb128 0xb
 1566 005e 3B       		.uleb128 0x3b
 1567 005f 0B       		.uleb128 0xb
 1568 0060 27       		.uleb128 0x27
 1569 0061 19       		.uleb128 0x19
 1570 0062 11       		.uleb128 0x11
 1571 0063 01       		.uleb128 0x1
 1572 0064 12       		.uleb128 0x12
 1573 0065 06       		.uleb128 0x6
 1574 0066 40       		.uleb128 0x40
 1575 0067 18       		.uleb128 0x18
 1576 0068 9642     		.uleb128 0x2116
 1577 006a 19       		.uleb128 0x19
 1578 006b 01       		.uleb128 0x1
 1579 006c 13       		.uleb128 0x13
 1580 006d 00       		.byte	0
 1581 006e 00       		.byte	0
 1582 006f 08       		.uleb128 0x8
 1583 0070 05       		.uleb128 0x5
 1584 0071 00       		.byte	0
 1585 0072 03       		.uleb128 0x3
 1586 0073 08       		.uleb128 0x8
 1587 0074 3A       		.uleb128 0x3a
 1588 0075 0B       		.uleb128 0xb
 1589 0076 3B       		.uleb128 0x3b
 1590 0077 0B       		.uleb128 0xb
 1591 0078 49       		.uleb128 0x49
 1592 0079 13       		.uleb128 0x13
 1593 007a 02       		.uleb128 0x2
 1594 007b 18       		.uleb128 0x18
 1595 007c 00       		.byte	0
 1596 007d 00       		.byte	0
 1597 007e 09       		.uleb128 0x9
 1598 007f 05       		.uleb128 0x5
 1599 0080 00       		.byte	0
 1600 0081 03       		.uleb128 0x3
 1601 0082 0E       		.uleb128 0xe
 1602 0083 3A       		.uleb128 0x3a
 1603 0084 0B       		.uleb128 0xb
 1604 0085 3B       		.uleb128 0x3b
 1605 0086 0B       		.uleb128 0xb
 1606 0087 49       		.uleb128 0x49
 1607 0088 13       		.uleb128 0x13
 1608 0089 02       		.uleb128 0x2
 1609 008a 18       		.uleb128 0x18
 1610 008b 00       		.byte	0
 1611 008c 00       		.byte	0
 1612 008d 0A       		.uleb128 0xa
 1613 008e 34       		.uleb128 0x34
 1614 008f 00       		.byte	0
 1615 0090 03       		.uleb128 0x3
 1616 0091 0E       		.uleb128 0xe
 1617 0092 3A       		.uleb128 0x3a
 1618 0093 0B       		.uleb128 0xb
 1619 0094 3B       		.uleb128 0x3b
 1620 0095 0B       		.uleb128 0xb
 1621 0096 49       		.uleb128 0x49
ARM GAS  C:\Users\bryan.lee\AppData\Local\Temp\ccik6674.s 			page 39


 1622 0097 13       		.uleb128 0x13
 1623 0098 02       		.uleb128 0x2
 1624 0099 18       		.uleb128 0x18
 1625 009a 00       		.byte	0
 1626 009b 00       		.byte	0
 1627 009c 0B       		.uleb128 0xb
 1628 009d 0F       		.uleb128 0xf
 1629 009e 00       		.byte	0
 1630 009f 0B       		.uleb128 0xb
 1631 00a0 0B       		.uleb128 0xb
 1632 00a1 49       		.uleb128 0x49
 1633 00a2 13       		.uleb128 0x13
 1634 00a3 00       		.byte	0
 1635 00a4 00       		.byte	0
 1636 00a5 0C       		.uleb128 0xc
 1637 00a6 26       		.uleb128 0x26
 1638 00a7 00       		.byte	0
 1639 00a8 49       		.uleb128 0x49
 1640 00a9 13       		.uleb128 0x13
 1641 00aa 00       		.byte	0
 1642 00ab 00       		.byte	0
 1643 00ac 0D       		.uleb128 0xd
 1644 00ad 2E       		.uleb128 0x2e
 1645 00ae 01       		.byte	0x1
 1646 00af 3F       		.uleb128 0x3f
 1647 00b0 19       		.uleb128 0x19
 1648 00b1 03       		.uleb128 0x3
 1649 00b2 0E       		.uleb128 0xe
 1650 00b3 3A       		.uleb128 0x3a
 1651 00b4 0B       		.uleb128 0xb
 1652 00b5 3B       		.uleb128 0x3b
 1653 00b6 05       		.uleb128 0x5
 1654 00b7 27       		.uleb128 0x27
 1655 00b8 19       		.uleb128 0x19
 1656 00b9 11       		.uleb128 0x11
 1657 00ba 01       		.uleb128 0x1
 1658 00bb 12       		.uleb128 0x12
 1659 00bc 06       		.uleb128 0x6
 1660 00bd 40       		.uleb128 0x40
 1661 00be 18       		.uleb128 0x18
 1662 00bf 9642     		.uleb128 0x2116
 1663 00c1 19       		.uleb128 0x19
 1664 00c2 01       		.uleb128 0x1
 1665 00c3 13       		.uleb128 0x13
 1666 00c4 00       		.byte	0
 1667 00c5 00       		.byte	0
 1668 00c6 0E       		.uleb128 0xe
 1669 00c7 05       		.uleb128 0x5
 1670 00c8 00       		.byte	0
 1671 00c9 03       		.uleb128 0x3
 1672 00ca 0E       		.uleb128 0xe
 1673 00cb 3A       		.uleb128 0x3a
 1674 00cc 0B       		.uleb128 0xb
 1675 00cd 3B       		.uleb128 0x3b
 1676 00ce 05       		.uleb128 0x5
 1677 00cf 49       		.uleb128 0x49
 1678 00d0 13       		.uleb128 0x13
ARM GAS  C:\Users\bryan.lee\AppData\Local\Temp\ccik6674.s 			page 40


 1679 00d1 02       		.uleb128 0x2
 1680 00d2 18       		.uleb128 0x18
 1681 00d3 00       		.byte	0
 1682 00d4 00       		.byte	0
 1683 00d5 0F       		.uleb128 0xf
 1684 00d6 34       		.uleb128 0x34
 1685 00d7 00       		.byte	0
 1686 00d8 03       		.uleb128 0x3
 1687 00d9 0E       		.uleb128 0xe
 1688 00da 3A       		.uleb128 0x3a
 1689 00db 0B       		.uleb128 0xb
 1690 00dc 3B       		.uleb128 0x3b
 1691 00dd 05       		.uleb128 0x5
 1692 00de 49       		.uleb128 0x49
 1693 00df 13       		.uleb128 0x13
 1694 00e0 02       		.uleb128 0x2
 1695 00e1 18       		.uleb128 0x18
 1696 00e2 00       		.byte	0
 1697 00e3 00       		.byte	0
 1698 00e4 10       		.uleb128 0x10
 1699 00e5 2E       		.uleb128 0x2e
 1700 00e6 00       		.byte	0
 1701 00e7 3F       		.uleb128 0x3f
 1702 00e8 19       		.uleb128 0x19
 1703 00e9 03       		.uleb128 0x3
 1704 00ea 0E       		.uleb128 0xe
 1705 00eb 3A       		.uleb128 0x3a
 1706 00ec 0B       		.uleb128 0xb
 1707 00ed 3B       		.uleb128 0x3b
 1708 00ee 05       		.uleb128 0x5
 1709 00ef 27       		.uleb128 0x27
 1710 00f0 19       		.uleb128 0x19
 1711 00f1 11       		.uleb128 0x11
 1712 00f2 01       		.uleb128 0x1
 1713 00f3 12       		.uleb128 0x12
 1714 00f4 06       		.uleb128 0x6
 1715 00f5 40       		.uleb128 0x40
 1716 00f6 18       		.uleb128 0x18
 1717 00f7 9642     		.uleb128 0x2116
 1718 00f9 19       		.uleb128 0x19
 1719 00fa 00       		.byte	0
 1720 00fb 00       		.byte	0
 1721 00fc 11       		.uleb128 0x11
 1722 00fd 2E       		.uleb128 0x2e
 1723 00fe 01       		.byte	0x1
 1724 00ff 03       		.uleb128 0x3
 1725 0100 0E       		.uleb128 0xe
 1726 0101 3A       		.uleb128 0x3a
 1727 0102 0B       		.uleb128 0xb
 1728 0103 3B       		.uleb128 0x3b
 1729 0104 05       		.uleb128 0x5
 1730 0105 27       		.uleb128 0x27
 1731 0106 19       		.uleb128 0x19
 1732 0107 11       		.uleb128 0x11
 1733 0108 01       		.uleb128 0x1
 1734 0109 12       		.uleb128 0x12
 1735 010a 06       		.uleb128 0x6
ARM GAS  C:\Users\bryan.lee\AppData\Local\Temp\ccik6674.s 			page 41


 1736 010b 40       		.uleb128 0x40
 1737 010c 18       		.uleb128 0x18
 1738 010d 9642     		.uleb128 0x2116
 1739 010f 19       		.uleb128 0x19
 1740 0110 01       		.uleb128 0x1
 1741 0111 13       		.uleb128 0x13
 1742 0112 00       		.byte	0
 1743 0113 00       		.byte	0
 1744 0114 12       		.uleb128 0x12
 1745 0115 01       		.uleb128 0x1
 1746 0116 01       		.byte	0x1
 1747 0117 49       		.uleb128 0x49
 1748 0118 13       		.uleb128 0x13
 1749 0119 01       		.uleb128 0x1
 1750 011a 13       		.uleb128 0x13
 1751 011b 00       		.byte	0
 1752 011c 00       		.byte	0
 1753 011d 13       		.uleb128 0x13
 1754 011e 21       		.uleb128 0x21
 1755 011f 00       		.byte	0
 1756 0120 49       		.uleb128 0x49
 1757 0121 13       		.uleb128 0x13
 1758 0122 2F       		.uleb128 0x2f
 1759 0123 0B       		.uleb128 0xb
 1760 0124 00       		.byte	0
 1761 0125 00       		.byte	0
 1762 0126 14       		.uleb128 0x14
 1763 0127 34       		.uleb128 0x34
 1764 0128 00       		.byte	0
 1765 0129 03       		.uleb128 0x3
 1766 012a 0E       		.uleb128 0xe
 1767 012b 3A       		.uleb128 0x3a
 1768 012c 0B       		.uleb128 0xb
 1769 012d 3B       		.uleb128 0x3b
 1770 012e 0B       		.uleb128 0xb
 1771 012f 49       		.uleb128 0x49
 1772 0130 13       		.uleb128 0x13
 1773 0131 3F       		.uleb128 0x3f
 1774 0132 19       		.uleb128 0x19
 1775 0133 02       		.uleb128 0x2
 1776 0134 18       		.uleb128 0x18
 1777 0135 00       		.byte	0
 1778 0136 00       		.byte	0
 1779 0137 00       		.byte	0
 1780              		.section	.debug_aranges,"",%progbits
 1781 0000 8C000000 		.4byte	0x8c
 1782 0004 0200     		.2byte	0x2
 1783 0006 00000000 		.4byte	.Ldebug_info0
 1784 000a 04       		.byte	0x4
 1785 000b 00       		.byte	0
 1786 000c 0000     		.2byte	0
 1787 000e 0000     		.2byte	0
 1788 0010 00000000 		.4byte	.LFB2
 1789 0014 70000000 		.4byte	.LFE2-.LFB2
 1790 0018 00000000 		.4byte	.LFB3
 1791 001c 1C000000 		.4byte	.LFE3-.LFB3
 1792 0020 00000000 		.4byte	.LFB4
ARM GAS  C:\Users\bryan.lee\AppData\Local\Temp\ccik6674.s 			page 42


 1793 0024 24000000 		.4byte	.LFE4-.LFB4
 1794 0028 00000000 		.4byte	.LFB5
 1795 002c 1C000000 		.4byte	.LFE5-.LFB5
 1796 0030 00000000 		.4byte	.LFB6
 1797 0034 74000000 		.4byte	.LFE6-.LFB6
 1798 0038 00000000 		.4byte	.LFB7
 1799 003c 5A000000 		.4byte	.LFE7-.LFB7
 1800 0040 00000000 		.4byte	.LFB8
 1801 0044 1E000000 		.4byte	.LFE8-.LFB8
 1802 0048 00000000 		.4byte	.LFB9
 1803 004c 52000000 		.4byte	.LFE9-.LFB9
 1804 0050 00000000 		.4byte	.LFB10
 1805 0054 58000000 		.4byte	.LFE10-.LFB10
 1806 0058 00000000 		.4byte	.LFB11
 1807 005c 10000000 		.4byte	.LFE11-.LFB11
 1808 0060 00000000 		.4byte	.LFB12
 1809 0064 78000000 		.4byte	.LFE12-.LFB12
 1810 0068 00000000 		.4byte	.LFB13
 1811 006c 68000000 		.4byte	.LFE13-.LFB13
 1812 0070 00000000 		.4byte	.LFB14
 1813 0074 40000000 		.4byte	.LFE14-.LFB14
 1814 0078 00000000 		.4byte	.LFB15
 1815 007c 30000000 		.4byte	.LFE15-.LFB15
 1816 0080 00000000 		.4byte	.LFB16
 1817 0084 FC000000 		.4byte	.LFE16-.LFB16
 1818 0088 00000000 		.4byte	0
 1819 008c 00000000 		.4byte	0
 1820              		.section	.debug_ranges,"",%progbits
 1821              	.Ldebug_ranges0:
 1822 0000 00000000 		.4byte	.LFB2
 1823 0004 70000000 		.4byte	.LFE2
 1824 0008 00000000 		.4byte	.LFB3
 1825 000c 1C000000 		.4byte	.LFE3
 1826 0010 00000000 		.4byte	.LFB4
 1827 0014 24000000 		.4byte	.LFE4
 1828 0018 00000000 		.4byte	.LFB5
 1829 001c 1C000000 		.4byte	.LFE5
 1830 0020 00000000 		.4byte	.LFB6
 1831 0024 74000000 		.4byte	.LFE6
 1832 0028 00000000 		.4byte	.LFB7
 1833 002c 5A000000 		.4byte	.LFE7
 1834 0030 00000000 		.4byte	.LFB8
 1835 0034 1E000000 		.4byte	.LFE8
 1836 0038 00000000 		.4byte	.LFB9
 1837 003c 52000000 		.4byte	.LFE9
 1838 0040 00000000 		.4byte	.LFB10
 1839 0044 58000000 		.4byte	.LFE10
 1840 0048 00000000 		.4byte	.LFB11
 1841 004c 10000000 		.4byte	.LFE11
 1842 0050 00000000 		.4byte	.LFB12
 1843 0054 78000000 		.4byte	.LFE12
 1844 0058 00000000 		.4byte	.LFB13
 1845 005c 68000000 		.4byte	.LFE13
 1846 0060 00000000 		.4byte	.LFB14
 1847 0064 40000000 		.4byte	.LFE14
 1848 0068 00000000 		.4byte	.LFB15
 1849 006c 30000000 		.4byte	.LFE15
ARM GAS  C:\Users\bryan.lee\AppData\Local\Temp\ccik6674.s 			page 43


 1850 0070 00000000 		.4byte	.LFB16
 1851 0074 FC000000 		.4byte	.LFE16
 1852 0078 00000000 		.4byte	0
 1853 007c 00000000 		.4byte	0
 1854              		.section	.debug_line,"",%progbits
 1855              	.Ldebug_line0:
 1856 0000 AD010000 		.section	.debug_str,"MS",%progbits,1
 1856      02004700 
 1856      00000201 
 1856      FB0E0D00 
 1856      01010101 
 1857              	.LASF47:
 1858 0000 4C43445F 		.ascii	"LCD_Char_1_initVar\000"
 1858      43686172 
 1858      5F315F69 
 1858      6E697456 
 1858      617200
 1859              	.LASF33:
 1860 0013 4C43445F 		.ascii	"LCD_Char_1_WriteControl\000"
 1860      43686172 
 1860      5F315F57 
 1860      72697465 
 1860      436F6E74 
 1861              	.LASF50:
 1862 002b 47656E65 		.ascii	"Generated_Source\\PSoC4\\LCD_Char_1.c\000"
 1862      72617465 
 1862      645F536F 
 1862      75726365 
 1862      5C50536F 
 1863              	.LASF38:
 1864 004f 4C43445F 		.ascii	"LCD_Char_1_PrintInt8\000"
 1864      43686172 
 1864      5F315F50 
 1864      72696E74 
 1864      496E7438 
 1865              	.LASF29:
 1866 0064 63686172 		.ascii	"character\000"
 1866      61637465 
 1866      7200
 1867              	.LASF40:
 1868 006e 4C43445F 		.ascii	"LCD_Char_1_hex\000"
 1868      43686172 
 1868      5F315F68 
 1868      657800
 1869              	.LASF39:
 1870 007d 76616C75 		.ascii	"value\000"
 1870      6500
 1871              	.LASF21:
 1872 0083 4C43445F 		.ascii	"LCD_Char_1_Stop\000"
 1872      43686172 
 1872      5F315F53 
 1872      746F7000 
 1873              	.LASF3:
 1874 0093 73686F72 		.ascii	"short unsigned int\000"
 1874      7420756E 
 1874      7369676E 
 1874      65642069 
ARM GAS  C:\Users\bryan.lee\AppData\Local\Temp\ccik6674.s 			page 44


 1874      6E7400
 1875              	.LASF19:
 1876 00a6 4C43445F 		.ascii	"LCD_Char_1_Enable\000"
 1876      43686172 
 1876      5F315F45 
 1876      6E61626C 
 1876      6500
 1877              	.LASF26:
 1878 00b8 696E6465 		.ascii	"indexU8\000"
 1878      78553800 
 1879              	.LASF41:
 1880 00c0 4C43445F 		.ascii	"LCD_Char_1_PrintInt16\000"
 1880      43686172 
 1880      5F315F50 
 1880      72696E74 
 1880      496E7431 
 1881              	.LASF25:
 1882 00d6 73747269 		.ascii	"string\000"
 1882      6E6700
 1883              	.LASF22:
 1884 00dd 636F6C75 		.ascii	"column\000"
 1884      6D6E00
 1885              	.LASF11:
 1886 00e4 666C6F61 		.ascii	"float\000"
 1886      7400
 1887              	.LASF20:
 1888 00ea 4C43445F 		.ascii	"LCD_Char_1_Start\000"
 1888      43686172 
 1888      5F315F53 
 1888      74617274 
 1888      00
 1889              	.LASF24:
 1890 00fb 4C43445F 		.ascii	"LCD_Char_1_PrintString\000"
 1890      43686172 
 1890      5F315F50 
 1890      72696E74 
 1890      53747269 
 1891              	.LASF15:
 1892 0112 72656738 		.ascii	"reg8\000"
 1892      00
 1893              	.LASF46:
 1894 0117 6E756D44 		.ascii	"numDigits\000"
 1894      69676974 
 1894      7300
 1895              	.LASF5:
 1896 0121 6C6F6E67 		.ascii	"long unsigned int\000"
 1896      20756E73 
 1896      69676E65 
 1896      6420696E 
 1896      7400
 1897              	.LASF44:
 1898 0133 74656D70 		.ascii	"temp\000"
 1898      00
 1899              	.LASF9:
 1900 0138 75696E74 		.ascii	"uint8\000"
 1900      3800
 1901              	.LASF36:
ARM GAS  C:\Users\bryan.lee\AppData\Local\Temp\ccik6674.s 			page 45


 1902 013e 4C43445F 		.ascii	"LCD_Char_1_WrDatNib\000"
 1902      43686172 
 1902      5F315F57 
 1902      72446174 
 1902      4E696200 
 1903              	.LASF48:
 1904 0152 4C43445F 		.ascii	"LCD_Char_1_enableState\000"
 1904      43686172 
 1904      5F315F65 
 1904      6E61626C 
 1904      65537461 
 1905              	.LASF35:
 1906 0169 4C43445F 		.ascii	"LCD_Char_1_IsReady\000"
 1906      43686172 
 1906      5F315F49 
 1906      73526561 
 1906      647900
 1907              	.LASF49:
 1908 017c 474E5520 		.ascii	"GNU C11 5.4.1 20160609 (release) [ARM/embedded-5-br"
 1908      43313120 
 1908      352E342E 
 1908      31203230 
 1908      31363036 
 1909 01af 616E6368 		.ascii	"anch revision 237715] -mcpu=cortex-m0 -mthumb -g -O"
 1909      20726576 
 1909      6973696F 
 1909      6E203233 
 1909      37373135 
 1910 01e2 30202D66 		.ascii	"0 -ffunction-sections -ffat-lto-objects\000"
 1910      66756E63 
 1910      74696F6E 
 1910      2D736563 
 1910      74696F6E 
 1911              	.LASF1:
 1912 020a 756E7369 		.ascii	"unsigned char\000"
 1912      676E6564 
 1912      20636861 
 1912      7200
 1913              	.LASF51:
 1914 0218 433A5C55 		.ascii	"C:\\Users\\bryan.lee\\Desktop\\Fan_Test_No_Display\\"
 1914      73657273 
 1914      5C627279 
 1914      616E2E6C 
 1914      65655C44 
 1915 0247 43617053 		.ascii	"CapSense_CSD_P4_Design01.cydsn\000"
 1915      656E7365 
 1915      5F435344 
 1915      5F50345F 
 1915      44657369 
 1916              	.LASF12:
 1917 0266 646F7562 		.ascii	"double\000"
 1917      6C6500
 1918              	.LASF28:
 1919 026d 4C43445F 		.ascii	"LCD_Char_1_PutChar\000"
 1919      43686172 
 1919      5F315F50 
 1919      75744368 
ARM GAS  C:\Users\bryan.lee\AppData\Local\Temp\ccik6674.s 			page 46


 1919      617200
 1920              	.LASF10:
 1921 0280 75696E74 		.ascii	"uint16\000"
 1921      313600
 1922              	.LASF45:
 1923 0287 64696749 		.ascii	"digIndex\000"
 1923      6E646578 
 1923      00
 1924              	.LASF8:
 1925 0290 756E7369 		.ascii	"unsigned int\000"
 1925      676E6564 
 1925      20696E74 
 1925      00
 1926              	.LASF30:
 1927 029d 4C43445F 		.ascii	"LCD_Char_1_WriteData\000"
 1927      43686172 
 1927      5F315F57 
 1927      72697465 
 1927      44617461 
 1928              	.LASF7:
 1929 02b2 6C6F6E67 		.ascii	"long long unsigned int\000"
 1929      206C6F6E 
 1929      6720756E 
 1929      7369676E 
 1929      65642069 
 1930              	.LASF43:
 1931 02c9 6E756D62 		.ascii	"number\000"
 1931      657200
 1932              	.LASF37:
 1933 02d0 4C43445F 		.ascii	"LCD_Char_1_WrCntrlNib\000"
 1933      43686172 
 1933      5F315F57 
 1933      72436E74 
 1933      726C4E69 
 1934              	.LASF17:
 1935 02e6 73697A65 		.ascii	"sizetype\000"
 1935      74797065 
 1935      00
 1936              	.LASF13:
 1937 02ef 63686172 		.ascii	"char8\000"
 1937      3800
 1938              	.LASF6:
 1939 02f5 6C6F6E67 		.ascii	"long long int\000"
 1939      206C6F6E 
 1939      6720696E 
 1939      7400
 1940              	.LASF14:
 1941 0303 63686172 		.ascii	"char\000"
 1941      00
 1942              	.LASF23:
 1943 0308 4C43445F 		.ascii	"LCD_Char_1_Position\000"
 1943      43686172 
 1943      5F315F50 
 1943      6F736974 
 1943      696F6E00 
 1944              	.LASF18:
 1945 031c 4C43445F 		.ascii	"LCD_Char_1_Init\000"
ARM GAS  C:\Users\bryan.lee\AppData\Local\Temp\ccik6674.s 			page 47


 1945      43686172 
 1945      5F315F49 
 1945      6E697400 
 1946              	.LASF2:
 1947 032c 73686F72 		.ascii	"short int\000"
 1947      7420696E 
 1947      7400
 1948              	.LASF27:
 1949 0336 63757272 		.ascii	"current\000"
 1949      656E7400 
 1950              	.LASF4:
 1951 033e 6C6F6E67 		.ascii	"long int\000"
 1951      20696E74 
 1951      00
 1952              	.LASF42:
 1953 0347 4C43445F 		.ascii	"LCD_Char_1_PrintNumber\000"
 1953      43686172 
 1953      5F315F50 
 1953      72696E74 
 1953      4E756D62 
 1954              	.LASF16:
 1955 035e 6C6F6E67 		.ascii	"long double\000"
 1955      20646F75 
 1955      626C6500 
 1956              	.LASF0:
 1957 036a 7369676E 		.ascii	"signed char\000"
 1957      65642063 
 1957      68617200 
 1958              	.LASF31:
 1959 0376 64427974 		.ascii	"dByte\000"
 1959      6500
 1960              	.LASF34:
 1961 037c 63427974 		.ascii	"cByte\000"
 1961      6500
 1962              	.LASF32:
 1963 0382 6E696262 		.ascii	"nibble\000"
 1963      6C6500
 1964              		.ident	"GCC: (GNU Tools for ARM Embedded Processors) 5.4.1 20160609 (release) [ARM/embedded-5-bran
