ARM GAS  C:\Users\bryan.lee\AppData\Local\Temp\ccWKhefE.s 			page 1


   1              		.syntax unified
   2              		.cpu cortex-m0plus
   3              		.fpu softvfp
   4              		.eabi_attribute 20, 1
   5              		.eabi_attribute 21, 1
   6              		.eabi_attribute 23, 3
   7              		.eabi_attribute 24, 1
   8              		.eabi_attribute 25, 1
   9              		.eabi_attribute 26, 1
  10              		.eabi_attribute 30, 1
  11              		.eabi_attribute 34, 0
  12              		.eabi_attribute 18, 4
  13              		.thumb
  14              		.syntax unified
  15              		.file	"CY_EINK_SPIM.c"
  16              		.text
  17              	.Ltext0:
  18              		.cfi_sections	.debug_frame
  19              		.section	.text.CY_EINK_SPIM_Interrupt,"ax",%progbits
  20              		.align	2
  21              		.code	16
  22              		.thumb_func
  23              		.type	CY_EINK_SPIM_Interrupt, %function
  24              	CY_EINK_SPIM_Interrupt:
  25              	.LFB171:
  26              		.file 1 "Generated_Source\\PSoC6\\CY_EINK_SPIM.h"
   1:Generated_Source\PSoC6/CY_EINK_SPIM.h **** /***************************************************************************//**
   2:Generated_Source\PSoC6/CY_EINK_SPIM.h **** * \file CY_EINK_SPIM.h
   3:Generated_Source\PSoC6/CY_EINK_SPIM.h **** * \version 2.0
   4:Generated_Source\PSoC6/CY_EINK_SPIM.h **** *
   5:Generated_Source\PSoC6/CY_EINK_SPIM.h **** *  This file provides constants and parameter values for the SPI component.
   6:Generated_Source\PSoC6/CY_EINK_SPIM.h **** *
   7:Generated_Source\PSoC6/CY_EINK_SPIM.h **** ********************************************************************************
   8:Generated_Source\PSoC6/CY_EINK_SPIM.h **** * \copyright
   9:Generated_Source\PSoC6/CY_EINK_SPIM.h **** * Copyright 2016-2017, Cypress Semiconductor Corporation. All rights reserved.
  10:Generated_Source\PSoC6/CY_EINK_SPIM.h **** * You may use this file only in accordance with the license, terms, conditions,
  11:Generated_Source\PSoC6/CY_EINK_SPIM.h **** * disclaimers, and limitations in the end user license agreement accompanying
  12:Generated_Source\PSoC6/CY_EINK_SPIM.h **** * the software package with which this file was provided.
  13:Generated_Source\PSoC6/CY_EINK_SPIM.h **** *******************************************************************************/
  14:Generated_Source\PSoC6/CY_EINK_SPIM.h **** 
  15:Generated_Source\PSoC6/CY_EINK_SPIM.h **** #if !defined(CY_EINK_SPIM_CY_SCB_SPI_PDL_H)
  16:Generated_Source\PSoC6/CY_EINK_SPIM.h **** #define CY_EINK_SPIM_CY_SCB_SPI_PDL_H
  17:Generated_Source\PSoC6/CY_EINK_SPIM.h **** 
  18:Generated_Source\PSoC6/CY_EINK_SPIM.h **** #include "cyfitter.h"
  19:Generated_Source\PSoC6/CY_EINK_SPIM.h **** #include "scb/cy_scb_spi.h"
  20:Generated_Source\PSoC6/CY_EINK_SPIM.h **** 
  21:Generated_Source\PSoC6/CY_EINK_SPIM.h **** #if defined(__cplusplus)
  22:Generated_Source\PSoC6/CY_EINK_SPIM.h **** extern "C" {
  23:Generated_Source\PSoC6/CY_EINK_SPIM.h **** #endif
  24:Generated_Source\PSoC6/CY_EINK_SPIM.h **** 
  25:Generated_Source\PSoC6/CY_EINK_SPIM.h **** /***************************************
  26:Generated_Source\PSoC6/CY_EINK_SPIM.h **** *        Function Prototypes
  27:Generated_Source\PSoC6/CY_EINK_SPIM.h **** ***************************************/
  28:Generated_Source\PSoC6/CY_EINK_SPIM.h **** /**
  29:Generated_Source\PSoC6/CY_EINK_SPIM.h **** * \addtogroup group_general
  30:Generated_Source\PSoC6/CY_EINK_SPIM.h **** * @{
  31:Generated_Source\PSoC6/CY_EINK_SPIM.h **** */
ARM GAS  C:\Users\bryan.lee\AppData\Local\Temp\ccWKhefE.s 			page 2


  32:Generated_Source\PSoC6/CY_EINK_SPIM.h **** /* Component specific functions. */
  33:Generated_Source\PSoC6/CY_EINK_SPIM.h **** void CY_EINK_SPIM_Start(void);
  34:Generated_Source\PSoC6/CY_EINK_SPIM.h **** 
  35:Generated_Source\PSoC6/CY_EINK_SPIM.h **** /* Basic functions. */
  36:Generated_Source\PSoC6/CY_EINK_SPIM.h **** __STATIC_INLINE cy_en_scb_spi_status_t CY_EINK_SPIM_Init(cy_stc_scb_spi_config_t const *config);
  37:Generated_Source\PSoC6/CY_EINK_SPIM.h **** __STATIC_INLINE void CY_EINK_SPIM_DeInit(void);
  38:Generated_Source\PSoC6/CY_EINK_SPIM.h **** __STATIC_INLINE void CY_EINK_SPIM_Enable(void);
  39:Generated_Source\PSoC6/CY_EINK_SPIM.h **** __STATIC_INLINE void CY_EINK_SPIM_Disable(void);
  40:Generated_Source\PSoC6/CY_EINK_SPIM.h **** 
  41:Generated_Source\PSoC6/CY_EINK_SPIM.h **** /* Register callback. */
  42:Generated_Source\PSoC6/CY_EINK_SPIM.h **** __STATIC_INLINE void CY_EINK_SPIM_RegisterCallback(cy_cb_scb_spi_handle_events_t callback);
  43:Generated_Source\PSoC6/CY_EINK_SPIM.h **** 
  44:Generated_Source\PSoC6/CY_EINK_SPIM.h **** /* Bus state. */
  45:Generated_Source\PSoC6/CY_EINK_SPIM.h **** __STATIC_INLINE bool CY_EINK_SPIM_IsBusBusy(void);
  46:Generated_Source\PSoC6/CY_EINK_SPIM.h **** 
  47:Generated_Source\PSoC6/CY_EINK_SPIM.h **** /* Slave select control. */
  48:Generated_Source\PSoC6/CY_EINK_SPIM.h **** __STATIC_INLINE void CY_EINK_SPIM_SetActiveSlaveSelect(cy_en_scb_spi_slave_select_t slaveSelect);
  49:Generated_Source\PSoC6/CY_EINK_SPIM.h **** __STATIC_INLINE void CY_EINK_SPIM_SetActiveSlaveSelectPolarity(cy_en_scb_spi_slave_select_t slaveSe
  50:Generated_Source\PSoC6/CY_EINK_SPIM.h ****                                                                    cy_en_scb_spi_polarity_t polarit
  51:Generated_Source\PSoC6/CY_EINK_SPIM.h **** 
  52:Generated_Source\PSoC6/CY_EINK_SPIM.h **** /* Low level: read. */
  53:Generated_Source\PSoC6/CY_EINK_SPIM.h **** __STATIC_INLINE uint32_t CY_EINK_SPIM_Read(void);
  54:Generated_Source\PSoC6/CY_EINK_SPIM.h **** __STATIC_INLINE uint32_t CY_EINK_SPIM_ReadArray(void *buffer, uint32_t size);
  55:Generated_Source\PSoC6/CY_EINK_SPIM.h **** __STATIC_INLINE uint32_t CY_EINK_SPIM_GetRxFifoStatus(void);
  56:Generated_Source\PSoC6/CY_EINK_SPIM.h **** __STATIC_INLINE void     CY_EINK_SPIM_ClearRxFifoStatus(uint32_t clearMask);
  57:Generated_Source\PSoC6/CY_EINK_SPIM.h **** __STATIC_INLINE uint32_t CY_EINK_SPIM_GetNumInRxFifo(void);
  58:Generated_Source\PSoC6/CY_EINK_SPIM.h **** __STATIC_INLINE void     CY_EINK_SPIM_ClearRxFifo(void);
  59:Generated_Source\PSoC6/CY_EINK_SPIM.h **** 
  60:Generated_Source\PSoC6/CY_EINK_SPIM.h **** /* Low level: write. */
  61:Generated_Source\PSoC6/CY_EINK_SPIM.h **** __STATIC_INLINE uint32_t CY_EINK_SPIM_Write(uint32_t data);
  62:Generated_Source\PSoC6/CY_EINK_SPIM.h **** __STATIC_INLINE uint32_t CY_EINK_SPIM_WriteArray(void *buffer, uint32_t size);
  63:Generated_Source\PSoC6/CY_EINK_SPIM.h **** __STATIC_INLINE void     CY_EINK_SPIM_WriteArrayBlocking(void *buffer, uint32_t size);
  64:Generated_Source\PSoC6/CY_EINK_SPIM.h **** __STATIC_INLINE uint32_t CY_EINK_SPIM_GetTxFifoStatus(void);
  65:Generated_Source\PSoC6/CY_EINK_SPIM.h **** __STATIC_INLINE void     CY_EINK_SPIM_ClearTxFifoStatus(uint32_t clearMask);
  66:Generated_Source\PSoC6/CY_EINK_SPIM.h **** __STATIC_INLINE uint32_t CY_EINK_SPIM_GetNumInTxFifo(void);
  67:Generated_Source\PSoC6/CY_EINK_SPIM.h **** __STATIC_INLINE bool     CY_EINK_SPIM_IsTxComplete(void);
  68:Generated_Source\PSoC6/CY_EINK_SPIM.h **** __STATIC_INLINE void     CY_EINK_SPIM_ClearTxFifo(void);
  69:Generated_Source\PSoC6/CY_EINK_SPIM.h **** 
  70:Generated_Source\PSoC6/CY_EINK_SPIM.h **** /* Master/slave specific status. */
  71:Generated_Source\PSoC6/CY_EINK_SPIM.h **** __STATIC_INLINE uint32_t CY_EINK_SPIM_GetSlaveMasterStatus(void);
  72:Generated_Source\PSoC6/CY_EINK_SPIM.h **** __STATIC_INLINE void     CY_EINK_SPIM_ClearSlaveMasterStatus(uint32_t clearMask);
  73:Generated_Source\PSoC6/CY_EINK_SPIM.h **** 
  74:Generated_Source\PSoC6/CY_EINK_SPIM.h **** /* High level: transfer functions. */
  75:Generated_Source\PSoC6/CY_EINK_SPIM.h **** __STATIC_INLINE cy_en_scb_spi_status_t CY_EINK_SPIM_Transfer(void *txBuffer, void *rxBuffer, uint32
  76:Generated_Source\PSoC6/CY_EINK_SPIM.h **** __STATIC_INLINE void     CY_EINK_SPIM_AbortTransfer(void);
  77:Generated_Source\PSoC6/CY_EINK_SPIM.h **** __STATIC_INLINE uint32_t CY_EINK_SPIM_GetTransferStatus(void);
  78:Generated_Source\PSoC6/CY_EINK_SPIM.h **** __STATIC_INLINE uint32_t CY_EINK_SPIM_GetNumTransfered(void);
  79:Generated_Source\PSoC6/CY_EINK_SPIM.h **** 
  80:Generated_Source\PSoC6/CY_EINK_SPIM.h **** /* Interrupt handler */
  81:Generated_Source\PSoC6/CY_EINK_SPIM.h **** __STATIC_INLINE void CY_EINK_SPIM_Interrupt(void);
  82:Generated_Source\PSoC6/CY_EINK_SPIM.h **** /** @} group_general */
  83:Generated_Source\PSoC6/CY_EINK_SPIM.h **** 
  84:Generated_Source\PSoC6/CY_EINK_SPIM.h **** 
  85:Generated_Source\PSoC6/CY_EINK_SPIM.h **** /***************************************
  86:Generated_Source\PSoC6/CY_EINK_SPIM.h **** *    Variables with External Linkage
  87:Generated_Source\PSoC6/CY_EINK_SPIM.h **** ***************************************/
  88:Generated_Source\PSoC6/CY_EINK_SPIM.h **** /**
ARM GAS  C:\Users\bryan.lee\AppData\Local\Temp\ccWKhefE.s 			page 3


  89:Generated_Source\PSoC6/CY_EINK_SPIM.h **** * \addtogroup group_globals
  90:Generated_Source\PSoC6/CY_EINK_SPIM.h **** * @{
  91:Generated_Source\PSoC6/CY_EINK_SPIM.h **** */
  92:Generated_Source\PSoC6/CY_EINK_SPIM.h **** extern uint8_t CY_EINK_SPIM_initVar;
  93:Generated_Source\PSoC6/CY_EINK_SPIM.h **** extern cy_stc_scb_spi_config_t const CY_EINK_SPIM_config;
  94:Generated_Source\PSoC6/CY_EINK_SPIM.h **** extern cy_stc_scb_spi_context_t CY_EINK_SPIM_context;
  95:Generated_Source\PSoC6/CY_EINK_SPIM.h **** /** @} group_globals */
  96:Generated_Source\PSoC6/CY_EINK_SPIM.h **** 
  97:Generated_Source\PSoC6/CY_EINK_SPIM.h **** 
  98:Generated_Source\PSoC6/CY_EINK_SPIM.h **** /***************************************
  99:Generated_Source\PSoC6/CY_EINK_SPIM.h **** *         Preprocessor Macros
 100:Generated_Source\PSoC6/CY_EINK_SPIM.h **** ***************************************/
 101:Generated_Source\PSoC6/CY_EINK_SPIM.h **** /**
 102:Generated_Source\PSoC6/CY_EINK_SPIM.h **** * \addtogroup group_macros
 103:Generated_Source\PSoC6/CY_EINK_SPIM.h **** * @{
 104:Generated_Source\PSoC6/CY_EINK_SPIM.h **** */
 105:Generated_Source\PSoC6/CY_EINK_SPIM.h **** /** The pointer to the base address of the hardware */
 106:Generated_Source\PSoC6/CY_EINK_SPIM.h **** #define CY_EINK_SPIM_HW     ((CySCB_Type *) CY_EINK_SPIM_SCB__HW)
 107:Generated_Source\PSoC6/CY_EINK_SPIM.h **** 
 108:Generated_Source\PSoC6/CY_EINK_SPIM.h **** /** The slave select line 0 constant which takes into account pin placement */
 109:Generated_Source\PSoC6/CY_EINK_SPIM.h **** #define CY_EINK_SPIM_SPI_SLAVE_SELECT0    ( (cy_en_scb_spi_slave_select_t) CY_EINK_SPIM_SCB__SS0_PO
 110:Generated_Source\PSoC6/CY_EINK_SPIM.h **** 
 111:Generated_Source\PSoC6/CY_EINK_SPIM.h **** /** The slave select line 1 constant which takes into account pin placement */
 112:Generated_Source\PSoC6/CY_EINK_SPIM.h **** #define CY_EINK_SPIM_SPI_SLAVE_SELECT1    ( (cy_en_scb_spi_slave_select_t) CY_EINK_SPIM_SCB__SS1_PO
 113:Generated_Source\PSoC6/CY_EINK_SPIM.h **** 
 114:Generated_Source\PSoC6/CY_EINK_SPIM.h **** /** The slave select line 2 constant which takes into account pin placement */
 115:Generated_Source\PSoC6/CY_EINK_SPIM.h **** #define CY_EINK_SPIM_SPI_SLAVE_SELECT2    ( (cy_en_scb_spi_slave_select_t) CY_EINK_SPIM_SCB__SS2_PO
 116:Generated_Source\PSoC6/CY_EINK_SPIM.h **** 
 117:Generated_Source\PSoC6/CY_EINK_SPIM.h **** /** The slave select line 3 constant which takes into account pin placement */
 118:Generated_Source\PSoC6/CY_EINK_SPIM.h **** #define CY_EINK_SPIM_SPI_SLAVE_SELECT3    ((cy_en_scb_spi_slave_select_t) CY_EINK_SPIM_SCB__SS3_POS
 119:Generated_Source\PSoC6/CY_EINK_SPIM.h **** /** @} group_macros */
 120:Generated_Source\PSoC6/CY_EINK_SPIM.h **** 
 121:Generated_Source\PSoC6/CY_EINK_SPIM.h **** 
 122:Generated_Source\PSoC6/CY_EINK_SPIM.h **** /***************************************
 123:Generated_Source\PSoC6/CY_EINK_SPIM.h **** *    In-line Function Implementation
 124:Generated_Source\PSoC6/CY_EINK_SPIM.h **** ***************************************/
 125:Generated_Source\PSoC6/CY_EINK_SPIM.h **** 
 126:Generated_Source\PSoC6/CY_EINK_SPIM.h **** /*******************************************************************************
 127:Generated_Source\PSoC6/CY_EINK_SPIM.h **** * Function Name: CY_EINK_SPIM_Init
 128:Generated_Source\PSoC6/CY_EINK_SPIM.h **** ****************************************************************************//**
 129:Generated_Source\PSoC6/CY_EINK_SPIM.h **** *
 130:Generated_Source\PSoC6/CY_EINK_SPIM.h **** * Invokes the Cy_SCB_SPI_Init() PDL driver function.
 131:Generated_Source\PSoC6/CY_EINK_SPIM.h **** *
 132:Generated_Source\PSoC6/CY_EINK_SPIM.h **** *******************************************************************************/
 133:Generated_Source\PSoC6/CY_EINK_SPIM.h **** __STATIC_INLINE cy_en_scb_spi_status_t CY_EINK_SPIM_Init(cy_stc_scb_spi_config_t const *config)
 134:Generated_Source\PSoC6/CY_EINK_SPIM.h **** {
 135:Generated_Source\PSoC6/CY_EINK_SPIM.h ****     return Cy_SCB_SPI_Init(CY_EINK_SPIM_HW, config, &CY_EINK_SPIM_context);
 136:Generated_Source\PSoC6/CY_EINK_SPIM.h **** }
 137:Generated_Source\PSoC6/CY_EINK_SPIM.h **** 
 138:Generated_Source\PSoC6/CY_EINK_SPIM.h **** 
 139:Generated_Source\PSoC6/CY_EINK_SPIM.h **** /*******************************************************************************
 140:Generated_Source\PSoC6/CY_EINK_SPIM.h **** * Function Name: CY_EINK_SPIM_DeInit
 141:Generated_Source\PSoC6/CY_EINK_SPIM.h **** ****************************************************************************//**
 142:Generated_Source\PSoC6/CY_EINK_SPIM.h **** *
 143:Generated_Source\PSoC6/CY_EINK_SPIM.h **** * Invokes the Cy_SCB_SPI_DeInit() PDL driver function.
 144:Generated_Source\PSoC6/CY_EINK_SPIM.h **** *
 145:Generated_Source\PSoC6/CY_EINK_SPIM.h **** *******************************************************************************/
ARM GAS  C:\Users\bryan.lee\AppData\Local\Temp\ccWKhefE.s 			page 4


 146:Generated_Source\PSoC6/CY_EINK_SPIM.h **** __STATIC_INLINE void CY_EINK_SPIM_DeInit(void)
 147:Generated_Source\PSoC6/CY_EINK_SPIM.h **** {
 148:Generated_Source\PSoC6/CY_EINK_SPIM.h ****     Cy_SCB_SPI_DeInit(CY_EINK_SPIM_HW);
 149:Generated_Source\PSoC6/CY_EINK_SPIM.h **** }
 150:Generated_Source\PSoC6/CY_EINK_SPIM.h **** 
 151:Generated_Source\PSoC6/CY_EINK_SPIM.h **** 
 152:Generated_Source\PSoC6/CY_EINK_SPIM.h **** /*******************************************************************************
 153:Generated_Source\PSoC6/CY_EINK_SPIM.h **** * Function Name: CY_EINK_SPIM_Enable
 154:Generated_Source\PSoC6/CY_EINK_SPIM.h **** ****************************************************************************//**
 155:Generated_Source\PSoC6/CY_EINK_SPIM.h **** *
 156:Generated_Source\PSoC6/CY_EINK_SPIM.h **** * Invokes the Cy_SCB_SPI_Enable() PDL driver function.
 157:Generated_Source\PSoC6/CY_EINK_SPIM.h **** *
 158:Generated_Source\PSoC6/CY_EINK_SPIM.h **** *******************************************************************************/
 159:Generated_Source\PSoC6/CY_EINK_SPIM.h **** __STATIC_INLINE void CY_EINK_SPIM_Enable(void)
 160:Generated_Source\PSoC6/CY_EINK_SPIM.h **** {
 161:Generated_Source\PSoC6/CY_EINK_SPIM.h ****     Cy_SCB_SPI_Enable(CY_EINK_SPIM_HW);
 162:Generated_Source\PSoC6/CY_EINK_SPIM.h **** }
 163:Generated_Source\PSoC6/CY_EINK_SPIM.h **** 
 164:Generated_Source\PSoC6/CY_EINK_SPIM.h **** 
 165:Generated_Source\PSoC6/CY_EINK_SPIM.h **** /*******************************************************************************
 166:Generated_Source\PSoC6/CY_EINK_SPIM.h **** * Function Name: CY_EINK_SPIM_Disable
 167:Generated_Source\PSoC6/CY_EINK_SPIM.h **** ****************************************************************************//**
 168:Generated_Source\PSoC6/CY_EINK_SPIM.h **** *
 169:Generated_Source\PSoC6/CY_EINK_SPIM.h **** * Invokes the Cy_SCB_SPI_Disable() PDL driver function.
 170:Generated_Source\PSoC6/CY_EINK_SPIM.h **** *
 171:Generated_Source\PSoC6/CY_EINK_SPIM.h **** *******************************************************************************/
 172:Generated_Source\PSoC6/CY_EINK_SPIM.h **** __STATIC_INLINE void CY_EINK_SPIM_Disable(void)
 173:Generated_Source\PSoC6/CY_EINK_SPIM.h **** {
 174:Generated_Source\PSoC6/CY_EINK_SPIM.h ****     Cy_SCB_SPI_Disable(CY_EINK_SPIM_HW, &CY_EINK_SPIM_context);
 175:Generated_Source\PSoC6/CY_EINK_SPIM.h **** }
 176:Generated_Source\PSoC6/CY_EINK_SPIM.h **** 
 177:Generated_Source\PSoC6/CY_EINK_SPIM.h **** 
 178:Generated_Source\PSoC6/CY_EINK_SPIM.h **** /*******************************************************************************
 179:Generated_Source\PSoC6/CY_EINK_SPIM.h **** * Function Name: CY_EINK_SPIM_RegisterCallback
 180:Generated_Source\PSoC6/CY_EINK_SPIM.h **** ****************************************************************************//**
 181:Generated_Source\PSoC6/CY_EINK_SPIM.h **** *
 182:Generated_Source\PSoC6/CY_EINK_SPIM.h **** * Invokes the Cy_SCB_SPI_RegisterCallback() PDL driver function.
 183:Generated_Source\PSoC6/CY_EINK_SPIM.h **** *
 184:Generated_Source\PSoC6/CY_EINK_SPIM.h **** *******************************************************************************/
 185:Generated_Source\PSoC6/CY_EINK_SPIM.h **** __STATIC_INLINE void CY_EINK_SPIM_RegisterCallback(cy_cb_scb_spi_handle_events_t callback)
 186:Generated_Source\PSoC6/CY_EINK_SPIM.h **** {
 187:Generated_Source\PSoC6/CY_EINK_SPIM.h ****     Cy_SCB_SPI_RegisterCallback(CY_EINK_SPIM_HW, callback, &CY_EINK_SPIM_context);
 188:Generated_Source\PSoC6/CY_EINK_SPIM.h **** }
 189:Generated_Source\PSoC6/CY_EINK_SPIM.h **** 
 190:Generated_Source\PSoC6/CY_EINK_SPIM.h **** 
 191:Generated_Source\PSoC6/CY_EINK_SPIM.h **** /*******************************************************************************
 192:Generated_Source\PSoC6/CY_EINK_SPIM.h **** * Function Name: CY_EINK_SPIM_IsBusBusy
 193:Generated_Source\PSoC6/CY_EINK_SPIM.h **** ****************************************************************************//**
 194:Generated_Source\PSoC6/CY_EINK_SPIM.h **** *
 195:Generated_Source\PSoC6/CY_EINK_SPIM.h **** * Invokes the Cy_SCB_SPI_IsBusBusy() PDL driver function.
 196:Generated_Source\PSoC6/CY_EINK_SPIM.h **** *
 197:Generated_Source\PSoC6/CY_EINK_SPIM.h **** *******************************************************************************/
 198:Generated_Source\PSoC6/CY_EINK_SPIM.h **** __STATIC_INLINE bool CY_EINK_SPIM_IsBusBusy(void)
 199:Generated_Source\PSoC6/CY_EINK_SPIM.h **** {
 200:Generated_Source\PSoC6/CY_EINK_SPIM.h ****     return Cy_SCB_SPI_IsBusBusy(CY_EINK_SPIM_HW);
 201:Generated_Source\PSoC6/CY_EINK_SPIM.h **** }
 202:Generated_Source\PSoC6/CY_EINK_SPIM.h **** 
ARM GAS  C:\Users\bryan.lee\AppData\Local\Temp\ccWKhefE.s 			page 5


 203:Generated_Source\PSoC6/CY_EINK_SPIM.h **** 
 204:Generated_Source\PSoC6/CY_EINK_SPIM.h **** /*******************************************************************************
 205:Generated_Source\PSoC6/CY_EINK_SPIM.h **** * Function Name: CY_EINK_SPIM_SetActiveSlaveSelect
 206:Generated_Source\PSoC6/CY_EINK_SPIM.h **** ****************************************************************************//**
 207:Generated_Source\PSoC6/CY_EINK_SPIM.h **** *
 208:Generated_Source\PSoC6/CY_EINK_SPIM.h **** * Invokes the Cy_SCB_SPI_SetActiveSlaveSelect() PDL driver function.
 209:Generated_Source\PSoC6/CY_EINK_SPIM.h **** *
 210:Generated_Source\PSoC6/CY_EINK_SPIM.h **** *******************************************************************************/
 211:Generated_Source\PSoC6/CY_EINK_SPIM.h **** __STATIC_INLINE void CY_EINK_SPIM_SetActiveSlaveSelect(cy_en_scb_spi_slave_select_t slaveSelect)
 212:Generated_Source\PSoC6/CY_EINK_SPIM.h **** {
 213:Generated_Source\PSoC6/CY_EINK_SPIM.h ****     Cy_SCB_SPI_SetActiveSlaveSelect(CY_EINK_SPIM_HW, slaveSelect);
 214:Generated_Source\PSoC6/CY_EINK_SPIM.h **** }
 215:Generated_Source\PSoC6/CY_EINK_SPIM.h **** 
 216:Generated_Source\PSoC6/CY_EINK_SPIM.h **** 
 217:Generated_Source\PSoC6/CY_EINK_SPIM.h **** /*******************************************************************************
 218:Generated_Source\PSoC6/CY_EINK_SPIM.h **** * Function Name: CY_EINK_SPIM_SetActiveSlaveSelectPolarity
 219:Generated_Source\PSoC6/CY_EINK_SPIM.h **** ****************************************************************************//**
 220:Generated_Source\PSoC6/CY_EINK_SPIM.h **** *
 221:Generated_Source\PSoC6/CY_EINK_SPIM.h **** * Invokes the Cy_SCB_SPI_SetActiveSlaveSelectPolarity() PDL driver function.
 222:Generated_Source\PSoC6/CY_EINK_SPIM.h **** *
 223:Generated_Source\PSoC6/CY_EINK_SPIM.h **** *******************************************************************************/
 224:Generated_Source\PSoC6/CY_EINK_SPIM.h **** __STATIC_INLINE void CY_EINK_SPIM_SetActiveSlaveSelectPolarity(cy_en_scb_spi_slave_select_t slaveSe
 225:Generated_Source\PSoC6/CY_EINK_SPIM.h ****                                                                    cy_en_scb_spi_polarity_t polarit
 226:Generated_Source\PSoC6/CY_EINK_SPIM.h **** {
 227:Generated_Source\PSoC6/CY_EINK_SPIM.h ****     Cy_SCB_SPI_SetActiveSlaveSelectPolarity(CY_EINK_SPIM_HW, slaveSelect, polarity);
 228:Generated_Source\PSoC6/CY_EINK_SPIM.h **** }
 229:Generated_Source\PSoC6/CY_EINK_SPIM.h **** 
 230:Generated_Source\PSoC6/CY_EINK_SPIM.h **** 
 231:Generated_Source\PSoC6/CY_EINK_SPIM.h **** /*******************************************************************************
 232:Generated_Source\PSoC6/CY_EINK_SPIM.h **** * Function Name: CY_EINK_SPIM_Read
 233:Generated_Source\PSoC6/CY_EINK_SPIM.h **** ****************************************************************************//**
 234:Generated_Source\PSoC6/CY_EINK_SPIM.h **** *
 235:Generated_Source\PSoC6/CY_EINK_SPIM.h **** * Invokes the Cy_SCB_SPI_Read() PDL driver function.
 236:Generated_Source\PSoC6/CY_EINK_SPIM.h **** *
 237:Generated_Source\PSoC6/CY_EINK_SPIM.h **** *******************************************************************************/
 238:Generated_Source\PSoC6/CY_EINK_SPIM.h **** __STATIC_INLINE uint32_t CY_EINK_SPIM_Read(void)
 239:Generated_Source\PSoC6/CY_EINK_SPIM.h **** {
 240:Generated_Source\PSoC6/CY_EINK_SPIM.h ****     return Cy_SCB_SPI_Read(CY_EINK_SPIM_HW);
 241:Generated_Source\PSoC6/CY_EINK_SPIM.h **** }
 242:Generated_Source\PSoC6/CY_EINK_SPIM.h **** 
 243:Generated_Source\PSoC6/CY_EINK_SPIM.h **** 
 244:Generated_Source\PSoC6/CY_EINK_SPIM.h **** /*******************************************************************************
 245:Generated_Source\PSoC6/CY_EINK_SPIM.h **** * Function Name: CY_EINK_SPIM_ReadArray
 246:Generated_Source\PSoC6/CY_EINK_SPIM.h **** ****************************************************************************//**
 247:Generated_Source\PSoC6/CY_EINK_SPIM.h **** *
 248:Generated_Source\PSoC6/CY_EINK_SPIM.h **** * Invokes the Cy_SCB_SPI_ReadArray() PDL driver function.
 249:Generated_Source\PSoC6/CY_EINK_SPIM.h **** *
 250:Generated_Source\PSoC6/CY_EINK_SPIM.h **** *******************************************************************************/
 251:Generated_Source\PSoC6/CY_EINK_SPIM.h **** __STATIC_INLINE uint32_t CY_EINK_SPIM_ReadArray(void *buffer, uint32_t size)
 252:Generated_Source\PSoC6/CY_EINK_SPIM.h **** {
 253:Generated_Source\PSoC6/CY_EINK_SPIM.h ****     return Cy_SCB_SPI_ReadArray(CY_EINK_SPIM_HW, buffer, size);
 254:Generated_Source\PSoC6/CY_EINK_SPIM.h **** }
 255:Generated_Source\PSoC6/CY_EINK_SPIM.h **** 
 256:Generated_Source\PSoC6/CY_EINK_SPIM.h **** 
 257:Generated_Source\PSoC6/CY_EINK_SPIM.h **** /*******************************************************************************
 258:Generated_Source\PSoC6/CY_EINK_SPIM.h **** * Function Name: CY_EINK_SPIM_GetRxFifoStatus
 259:Generated_Source\PSoC6/CY_EINK_SPIM.h **** ****************************************************************************//**
ARM GAS  C:\Users\bryan.lee\AppData\Local\Temp\ccWKhefE.s 			page 6


 260:Generated_Source\PSoC6/CY_EINK_SPIM.h **** *
 261:Generated_Source\PSoC6/CY_EINK_SPIM.h **** * Invokes the Cy_SCB_SPI_GetRxFifoStatus() PDL driver function.
 262:Generated_Source\PSoC6/CY_EINK_SPIM.h **** *
 263:Generated_Source\PSoC6/CY_EINK_SPIM.h **** *******************************************************************************/
 264:Generated_Source\PSoC6/CY_EINK_SPIM.h **** __STATIC_INLINE uint32_t CY_EINK_SPIM_GetRxFifoStatus(void)
 265:Generated_Source\PSoC6/CY_EINK_SPIM.h **** {
 266:Generated_Source\PSoC6/CY_EINK_SPIM.h ****     return Cy_SCB_SPI_GetRxFifoStatus(CY_EINK_SPIM_HW);
 267:Generated_Source\PSoC6/CY_EINK_SPIM.h **** }
 268:Generated_Source\PSoC6/CY_EINK_SPIM.h **** 
 269:Generated_Source\PSoC6/CY_EINK_SPIM.h **** 
 270:Generated_Source\PSoC6/CY_EINK_SPIM.h **** /*******************************************************************************
 271:Generated_Source\PSoC6/CY_EINK_SPIM.h **** * Function Name: CY_EINK_SPIM_ClearRxFifoStatus
 272:Generated_Source\PSoC6/CY_EINK_SPIM.h **** ****************************************************************************//**
 273:Generated_Source\PSoC6/CY_EINK_SPIM.h **** *
 274:Generated_Source\PSoC6/CY_EINK_SPIM.h **** * Invokes the Cy_SCB_SPI_ClearRxFifoStatus() PDL driver function.
 275:Generated_Source\PSoC6/CY_EINK_SPIM.h **** *
 276:Generated_Source\PSoC6/CY_EINK_SPIM.h **** *******************************************************************************/
 277:Generated_Source\PSoC6/CY_EINK_SPIM.h **** __STATIC_INLINE void CY_EINK_SPIM_ClearRxFifoStatus(uint32_t clearMask)
 278:Generated_Source\PSoC6/CY_EINK_SPIM.h **** {
 279:Generated_Source\PSoC6/CY_EINK_SPIM.h ****     Cy_SCB_SPI_ClearRxFifoStatus(CY_EINK_SPIM_HW, clearMask);
 280:Generated_Source\PSoC6/CY_EINK_SPIM.h **** }
 281:Generated_Source\PSoC6/CY_EINK_SPIM.h **** 
 282:Generated_Source\PSoC6/CY_EINK_SPIM.h **** 
 283:Generated_Source\PSoC6/CY_EINK_SPIM.h **** /*******************************************************************************
 284:Generated_Source\PSoC6/CY_EINK_SPIM.h **** * Function Name: CY_EINK_SPIM_GetNumInRxFifo
 285:Generated_Source\PSoC6/CY_EINK_SPIM.h **** ****************************************************************************//**
 286:Generated_Source\PSoC6/CY_EINK_SPIM.h **** *
 287:Generated_Source\PSoC6/CY_EINK_SPIM.h **** * Invokes the Cy_SCB_GetNumInRxFifo() PDL driver function.
 288:Generated_Source\PSoC6/CY_EINK_SPIM.h **** *
 289:Generated_Source\PSoC6/CY_EINK_SPIM.h **** *******************************************************************************/
 290:Generated_Source\PSoC6/CY_EINK_SPIM.h **** __STATIC_INLINE uint32_t CY_EINK_SPIM_GetNumInRxFifo(void)
 291:Generated_Source\PSoC6/CY_EINK_SPIM.h **** {
 292:Generated_Source\PSoC6/CY_EINK_SPIM.h ****     return Cy_SCB_GetNumInRxFifo(CY_EINK_SPIM_HW);
 293:Generated_Source\PSoC6/CY_EINK_SPIM.h **** }
 294:Generated_Source\PSoC6/CY_EINK_SPIM.h **** 
 295:Generated_Source\PSoC6/CY_EINK_SPIM.h **** 
 296:Generated_Source\PSoC6/CY_EINK_SPIM.h **** /*******************************************************************************
 297:Generated_Source\PSoC6/CY_EINK_SPIM.h **** * Function Name: CY_EINK_SPIM_ClearRxFifo
 298:Generated_Source\PSoC6/CY_EINK_SPIM.h **** ****************************************************************************//**
 299:Generated_Source\PSoC6/CY_EINK_SPIM.h **** *
 300:Generated_Source\PSoC6/CY_EINK_SPIM.h **** * Invokes the Cy_SCB_SPI_ClearRxFifo() PDL driver function.
 301:Generated_Source\PSoC6/CY_EINK_SPIM.h **** *
 302:Generated_Source\PSoC6/CY_EINK_SPIM.h **** *******************************************************************************/
 303:Generated_Source\PSoC6/CY_EINK_SPIM.h **** __STATIC_INLINE void CY_EINK_SPIM_ClearRxFifo(void)
 304:Generated_Source\PSoC6/CY_EINK_SPIM.h **** {
 305:Generated_Source\PSoC6/CY_EINK_SPIM.h ****     Cy_SCB_SPI_ClearRxFifo(CY_EINK_SPIM_HW);
 306:Generated_Source\PSoC6/CY_EINK_SPIM.h **** }
 307:Generated_Source\PSoC6/CY_EINK_SPIM.h **** 
 308:Generated_Source\PSoC6/CY_EINK_SPIM.h **** 
 309:Generated_Source\PSoC6/CY_EINK_SPIM.h **** /*******************************************************************************
 310:Generated_Source\PSoC6/CY_EINK_SPIM.h **** * Function Name: CY_EINK_SPIM_Write
 311:Generated_Source\PSoC6/CY_EINK_SPIM.h **** ****************************************************************************//**
 312:Generated_Source\PSoC6/CY_EINK_SPIM.h **** *
 313:Generated_Source\PSoC6/CY_EINK_SPIM.h **** * Invokes the Cy_SCB_SPI_Write() PDL driver function.
 314:Generated_Source\PSoC6/CY_EINK_SPIM.h **** *
 315:Generated_Source\PSoC6/CY_EINK_SPIM.h **** *******************************************************************************/
 316:Generated_Source\PSoC6/CY_EINK_SPIM.h **** __STATIC_INLINE uint32_t CY_EINK_SPIM_Write(uint32_t data)
ARM GAS  C:\Users\bryan.lee\AppData\Local\Temp\ccWKhefE.s 			page 7


 317:Generated_Source\PSoC6/CY_EINK_SPIM.h **** {
 318:Generated_Source\PSoC6/CY_EINK_SPIM.h ****     return Cy_SCB_SPI_Write(CY_EINK_SPIM_HW, data);
 319:Generated_Source\PSoC6/CY_EINK_SPIM.h **** }
 320:Generated_Source\PSoC6/CY_EINK_SPIM.h **** 
 321:Generated_Source\PSoC6/CY_EINK_SPIM.h **** 
 322:Generated_Source\PSoC6/CY_EINK_SPIM.h **** /*******************************************************************************
 323:Generated_Source\PSoC6/CY_EINK_SPIM.h **** * Function Name: CY_EINK_SPIM_WriteArray
 324:Generated_Source\PSoC6/CY_EINK_SPIM.h **** ****************************************************************************//**
 325:Generated_Source\PSoC6/CY_EINK_SPIM.h **** *
 326:Generated_Source\PSoC6/CY_EINK_SPIM.h **** * Invokes the Cy_SCB_SPI_WriteArray() PDL driver function.
 327:Generated_Source\PSoC6/CY_EINK_SPIM.h **** *
 328:Generated_Source\PSoC6/CY_EINK_SPIM.h **** *******************************************************************************/
 329:Generated_Source\PSoC6/CY_EINK_SPIM.h **** __STATIC_INLINE uint32_t CY_EINK_SPIM_WriteArray(void *buffer, uint32_t size)
 330:Generated_Source\PSoC6/CY_EINK_SPIM.h **** {
 331:Generated_Source\PSoC6/CY_EINK_SPIM.h ****     return Cy_SCB_SPI_WriteArray(CY_EINK_SPIM_HW, buffer, size);
 332:Generated_Source\PSoC6/CY_EINK_SPIM.h **** }
 333:Generated_Source\PSoC6/CY_EINK_SPIM.h **** 
 334:Generated_Source\PSoC6/CY_EINK_SPIM.h **** 
 335:Generated_Source\PSoC6/CY_EINK_SPIM.h **** /*******************************************************************************
 336:Generated_Source\PSoC6/CY_EINK_SPIM.h **** * Function Name: CY_EINK_SPIM_WriteArrayBlocking
 337:Generated_Source\PSoC6/CY_EINK_SPIM.h **** ****************************************************************************//**
 338:Generated_Source\PSoC6/CY_EINK_SPIM.h **** *
 339:Generated_Source\PSoC6/CY_EINK_SPIM.h **** * Invokes the Cy_SCB_SPI_WriteArrayBlocking() PDL driver function.
 340:Generated_Source\PSoC6/CY_EINK_SPIM.h **** *
 341:Generated_Source\PSoC6/CY_EINK_SPIM.h **** *******************************************************************************/
 342:Generated_Source\PSoC6/CY_EINK_SPIM.h **** __STATIC_INLINE void CY_EINK_SPIM_WriteArrayBlocking(void *buffer, uint32_t size)
 343:Generated_Source\PSoC6/CY_EINK_SPIM.h **** {
 344:Generated_Source\PSoC6/CY_EINK_SPIM.h ****     Cy_SCB_SPI_WriteArrayBlocking(CY_EINK_SPIM_HW, buffer, size);
 345:Generated_Source\PSoC6/CY_EINK_SPIM.h **** }
 346:Generated_Source\PSoC6/CY_EINK_SPIM.h **** 
 347:Generated_Source\PSoC6/CY_EINK_SPIM.h **** 
 348:Generated_Source\PSoC6/CY_EINK_SPIM.h **** /*******************************************************************************
 349:Generated_Source\PSoC6/CY_EINK_SPIM.h **** * Function Name: CY_EINK_SPIM_GetTxFifoStatus
 350:Generated_Source\PSoC6/CY_EINK_SPIM.h **** ****************************************************************************//**
 351:Generated_Source\PSoC6/CY_EINK_SPIM.h **** *
 352:Generated_Source\PSoC6/CY_EINK_SPIM.h **** * Invokes the Cy_SCB_SPI_GetTxFifoStatus() PDL driver function.
 353:Generated_Source\PSoC6/CY_EINK_SPIM.h **** *
 354:Generated_Source\PSoC6/CY_EINK_SPIM.h **** *******************************************************************************/
 355:Generated_Source\PSoC6/CY_EINK_SPIM.h **** __STATIC_INLINE uint32_t CY_EINK_SPIM_GetTxFifoStatus(void)
 356:Generated_Source\PSoC6/CY_EINK_SPIM.h **** {
 357:Generated_Source\PSoC6/CY_EINK_SPIM.h ****     return Cy_SCB_SPI_GetTxFifoStatus(CY_EINK_SPIM_HW);
 358:Generated_Source\PSoC6/CY_EINK_SPIM.h **** }
 359:Generated_Source\PSoC6/CY_EINK_SPIM.h **** 
 360:Generated_Source\PSoC6/CY_EINK_SPIM.h **** 
 361:Generated_Source\PSoC6/CY_EINK_SPIM.h **** /*******************************************************************************
 362:Generated_Source\PSoC6/CY_EINK_SPIM.h **** * Function Name: CY_EINK_SPIM_ClearTxFifoStatus
 363:Generated_Source\PSoC6/CY_EINK_SPIM.h **** ****************************************************************************//**
 364:Generated_Source\PSoC6/CY_EINK_SPIM.h **** *
 365:Generated_Source\PSoC6/CY_EINK_SPIM.h **** * Invokes the Cy_SCB_SPI_ClearTxFifoStatus() PDL driver function.
 366:Generated_Source\PSoC6/CY_EINK_SPIM.h **** *
 367:Generated_Source\PSoC6/CY_EINK_SPIM.h **** *******************************************************************************/
 368:Generated_Source\PSoC6/CY_EINK_SPIM.h **** __STATIC_INLINE void CY_EINK_SPIM_ClearTxFifoStatus(uint32_t clearMask)
 369:Generated_Source\PSoC6/CY_EINK_SPIM.h **** {
 370:Generated_Source\PSoC6/CY_EINK_SPIM.h ****     Cy_SCB_SPI_ClearTxFifoStatus(CY_EINK_SPIM_HW, clearMask);
 371:Generated_Source\PSoC6/CY_EINK_SPIM.h **** }
 372:Generated_Source\PSoC6/CY_EINK_SPIM.h **** 
 373:Generated_Source\PSoC6/CY_EINK_SPIM.h **** 
ARM GAS  C:\Users\bryan.lee\AppData\Local\Temp\ccWKhefE.s 			page 8


 374:Generated_Source\PSoC6/CY_EINK_SPIM.h **** /*******************************************************************************
 375:Generated_Source\PSoC6/CY_EINK_SPIM.h **** * Function Name: CY_EINK_SPIM_GetNumInTxFifo
 376:Generated_Source\PSoC6/CY_EINK_SPIM.h **** ****************************************************************************//**
 377:Generated_Source\PSoC6/CY_EINK_SPIM.h **** *
 378:Generated_Source\PSoC6/CY_EINK_SPIM.h **** * Invokes the Cy_SCB_SPI_GetNumInTxFifo() PDL driver function.
 379:Generated_Source\PSoC6/CY_EINK_SPIM.h **** *
 380:Generated_Source\PSoC6/CY_EINK_SPIM.h **** *******************************************************************************/
 381:Generated_Source\PSoC6/CY_EINK_SPIM.h **** __STATIC_INLINE uint32_t CY_EINK_SPIM_GetNumInTxFifo(void)
 382:Generated_Source\PSoC6/CY_EINK_SPIM.h **** {
 383:Generated_Source\PSoC6/CY_EINK_SPIM.h ****     return Cy_SCB_SPI_GetNumInTxFifo(CY_EINK_SPIM_HW);
 384:Generated_Source\PSoC6/CY_EINK_SPIM.h **** }
 385:Generated_Source\PSoC6/CY_EINK_SPIM.h **** 
 386:Generated_Source\PSoC6/CY_EINK_SPIM.h **** 
 387:Generated_Source\PSoC6/CY_EINK_SPIM.h **** /*******************************************************************************
 388:Generated_Source\PSoC6/CY_EINK_SPIM.h **** * Function Name: CY_EINK_SPIM_IsTxComplete
 389:Generated_Source\PSoC6/CY_EINK_SPIM.h **** ****************************************************************************//**
 390:Generated_Source\PSoC6/CY_EINK_SPIM.h **** *
 391:Generated_Source\PSoC6/CY_EINK_SPIM.h **** * Invokes the Cy_SCB_SPI_IsTxComplete() PDL driver function.
 392:Generated_Source\PSoC6/CY_EINK_SPIM.h **** *
 393:Generated_Source\PSoC6/CY_EINK_SPIM.h **** *******************************************************************************/
 394:Generated_Source\PSoC6/CY_EINK_SPIM.h **** __STATIC_INLINE bool CY_EINK_SPIM_IsTxComplete(void)
 395:Generated_Source\PSoC6/CY_EINK_SPIM.h **** {
 396:Generated_Source\PSoC6/CY_EINK_SPIM.h ****     return Cy_SCB_SPI_IsTxComplete(CY_EINK_SPIM_HW);
 397:Generated_Source\PSoC6/CY_EINK_SPIM.h **** }
 398:Generated_Source\PSoC6/CY_EINK_SPIM.h **** 
 399:Generated_Source\PSoC6/CY_EINK_SPIM.h **** 
 400:Generated_Source\PSoC6/CY_EINK_SPIM.h **** /*******************************************************************************
 401:Generated_Source\PSoC6/CY_EINK_SPIM.h **** * Function Name: CY_EINK_SPIM_ClearTxFifo
 402:Generated_Source\PSoC6/CY_EINK_SPIM.h **** ****************************************************************************//**
 403:Generated_Source\PSoC6/CY_EINK_SPIM.h **** *
 404:Generated_Source\PSoC6/CY_EINK_SPIM.h **** * Invokes the Cy_SCB_SPI_ClearTxFifo() PDL driver function.
 405:Generated_Source\PSoC6/CY_EINK_SPIM.h **** *
 406:Generated_Source\PSoC6/CY_EINK_SPIM.h **** *******************************************************************************/
 407:Generated_Source\PSoC6/CY_EINK_SPIM.h **** __STATIC_INLINE void CY_EINK_SPIM_ClearTxFifo(void)
 408:Generated_Source\PSoC6/CY_EINK_SPIM.h **** {
 409:Generated_Source\PSoC6/CY_EINK_SPIM.h ****     Cy_SCB_SPI_ClearTxFifo(CY_EINK_SPIM_HW);
 410:Generated_Source\PSoC6/CY_EINK_SPIM.h **** }
 411:Generated_Source\PSoC6/CY_EINK_SPIM.h **** 
 412:Generated_Source\PSoC6/CY_EINK_SPIM.h **** 
 413:Generated_Source\PSoC6/CY_EINK_SPIM.h **** /*******************************************************************************
 414:Generated_Source\PSoC6/CY_EINK_SPIM.h **** * Function Name: CY_EINK_SPIM_GetSlaveMasterStatus
 415:Generated_Source\PSoC6/CY_EINK_SPIM.h **** ****************************************************************************//**
 416:Generated_Source\PSoC6/CY_EINK_SPIM.h **** *
 417:Generated_Source\PSoC6/CY_EINK_SPIM.h **** * Invokes the Cy_SCB_SPI_GetSlaveMasterStatus() PDL driver function.
 418:Generated_Source\PSoC6/CY_EINK_SPIM.h **** *
 419:Generated_Source\PSoC6/CY_EINK_SPIM.h **** *******************************************************************************/
 420:Generated_Source\PSoC6/CY_EINK_SPIM.h **** __STATIC_INLINE uint32_t CY_EINK_SPIM_GetSlaveMasterStatus(void)
 421:Generated_Source\PSoC6/CY_EINK_SPIM.h **** {
 422:Generated_Source\PSoC6/CY_EINK_SPIM.h ****     return Cy_SCB_SPI_GetSlaveMasterStatus(CY_EINK_SPIM_HW);
 423:Generated_Source\PSoC6/CY_EINK_SPIM.h **** }
 424:Generated_Source\PSoC6/CY_EINK_SPIM.h **** 
 425:Generated_Source\PSoC6/CY_EINK_SPIM.h **** 
 426:Generated_Source\PSoC6/CY_EINK_SPIM.h **** /*******************************************************************************
 427:Generated_Source\PSoC6/CY_EINK_SPIM.h **** * Function Name: CY_EINK_SPIM_ClearSlaveMasterStatus
 428:Generated_Source\PSoC6/CY_EINK_SPIM.h **** ****************************************************************************//**
 429:Generated_Source\PSoC6/CY_EINK_SPIM.h **** *
 430:Generated_Source\PSoC6/CY_EINK_SPIM.h **** * Invokes the Cy_SCB_SPI_ClearSlaveMasterStatus() PDL driver function.
ARM GAS  C:\Users\bryan.lee\AppData\Local\Temp\ccWKhefE.s 			page 9


 431:Generated_Source\PSoC6/CY_EINK_SPIM.h **** *
 432:Generated_Source\PSoC6/CY_EINK_SPIM.h **** *******************************************************************************/
 433:Generated_Source\PSoC6/CY_EINK_SPIM.h **** __STATIC_INLINE void CY_EINK_SPIM_ClearSlaveMasterStatus(uint32_t clearMask)
 434:Generated_Source\PSoC6/CY_EINK_SPIM.h **** {
 435:Generated_Source\PSoC6/CY_EINK_SPIM.h ****     Cy_SCB_SPI_ClearSlaveMasterStatus(CY_EINK_SPIM_HW, clearMask);
 436:Generated_Source\PSoC6/CY_EINK_SPIM.h **** }
 437:Generated_Source\PSoC6/CY_EINK_SPIM.h **** 
 438:Generated_Source\PSoC6/CY_EINK_SPIM.h **** 
 439:Generated_Source\PSoC6/CY_EINK_SPIM.h **** /*******************************************************************************
 440:Generated_Source\PSoC6/CY_EINK_SPIM.h **** * Function Name: CY_EINK_SPIM_Transfer
 441:Generated_Source\PSoC6/CY_EINK_SPIM.h **** ****************************************************************************//**
 442:Generated_Source\PSoC6/CY_EINK_SPIM.h **** *
 443:Generated_Source\PSoC6/CY_EINK_SPIM.h **** * Invokes the Cy_SCB_SPI_Transfer() PDL driver function.
 444:Generated_Source\PSoC6/CY_EINK_SPIM.h **** *
 445:Generated_Source\PSoC6/CY_EINK_SPIM.h **** *******************************************************************************/
 446:Generated_Source\PSoC6/CY_EINK_SPIM.h **** __STATIC_INLINE cy_en_scb_spi_status_t CY_EINK_SPIM_Transfer(void *txBuffer, void *rxBuffer, uint32
 447:Generated_Source\PSoC6/CY_EINK_SPIM.h **** {
 448:Generated_Source\PSoC6/CY_EINK_SPIM.h ****     return Cy_SCB_SPI_Transfer(CY_EINK_SPIM_HW, txBuffer, rxBuffer, size, &CY_EINK_SPIM_context);
 449:Generated_Source\PSoC6/CY_EINK_SPIM.h **** }
 450:Generated_Source\PSoC6/CY_EINK_SPIM.h **** 
 451:Generated_Source\PSoC6/CY_EINK_SPIM.h **** /*******************************************************************************
 452:Generated_Source\PSoC6/CY_EINK_SPIM.h **** * Function Name: CY_EINK_SPIM_AbortTransfer
 453:Generated_Source\PSoC6/CY_EINK_SPIM.h **** ****************************************************************************//**
 454:Generated_Source\PSoC6/CY_EINK_SPIM.h **** *
 455:Generated_Source\PSoC6/CY_EINK_SPIM.h **** * Invokes the Cy_SCB_SPI_AbortTransfer() PDL driver function.
 456:Generated_Source\PSoC6/CY_EINK_SPIM.h **** *
 457:Generated_Source\PSoC6/CY_EINK_SPIM.h **** *******************************************************************************/
 458:Generated_Source\PSoC6/CY_EINK_SPIM.h **** __STATIC_INLINE void CY_EINK_SPIM_AbortTransfer(void)
 459:Generated_Source\PSoC6/CY_EINK_SPIM.h **** {
 460:Generated_Source\PSoC6/CY_EINK_SPIM.h ****     Cy_SCB_SPI_AbortTransfer(CY_EINK_SPIM_HW, &CY_EINK_SPIM_context);
 461:Generated_Source\PSoC6/CY_EINK_SPIM.h **** }
 462:Generated_Source\PSoC6/CY_EINK_SPIM.h **** 
 463:Generated_Source\PSoC6/CY_EINK_SPIM.h **** 
 464:Generated_Source\PSoC6/CY_EINK_SPIM.h **** /*******************************************************************************
 465:Generated_Source\PSoC6/CY_EINK_SPIM.h **** * Function Name: CY_EINK_SPIM_GetTransferStatus
 466:Generated_Source\PSoC6/CY_EINK_SPIM.h **** ****************************************************************************//**
 467:Generated_Source\PSoC6/CY_EINK_SPIM.h **** *
 468:Generated_Source\PSoC6/CY_EINK_SPIM.h **** * Invokes the Cy_SCB_SPI_GetTransferStatus() PDL driver function.
 469:Generated_Source\PSoC6/CY_EINK_SPIM.h **** *
 470:Generated_Source\PSoC6/CY_EINK_SPIM.h **** *******************************************************************************/
 471:Generated_Source\PSoC6/CY_EINK_SPIM.h **** __STATIC_INLINE uint32_t CY_EINK_SPIM_GetTransferStatus(void)
 472:Generated_Source\PSoC6/CY_EINK_SPIM.h **** {
 473:Generated_Source\PSoC6/CY_EINK_SPIM.h ****     return Cy_SCB_SPI_GetTransferStatus(CY_EINK_SPIM_HW, &CY_EINK_SPIM_context);
 474:Generated_Source\PSoC6/CY_EINK_SPIM.h **** }
 475:Generated_Source\PSoC6/CY_EINK_SPIM.h **** 
 476:Generated_Source\PSoC6/CY_EINK_SPIM.h **** 
 477:Generated_Source\PSoC6/CY_EINK_SPIM.h **** /*******************************************************************************
 478:Generated_Source\PSoC6/CY_EINK_SPIM.h **** * Function Name: CY_EINK_SPIM_GetNumTransfered
 479:Generated_Source\PSoC6/CY_EINK_SPIM.h **** ****************************************************************************//**
 480:Generated_Source\PSoC6/CY_EINK_SPIM.h **** *
 481:Generated_Source\PSoC6/CY_EINK_SPIM.h **** * Invokes the Cy_SCB_SPI_GetNumTransfered() PDL driver function.
 482:Generated_Source\PSoC6/CY_EINK_SPIM.h **** *
 483:Generated_Source\PSoC6/CY_EINK_SPIM.h **** *******************************************************************************/
 484:Generated_Source\PSoC6/CY_EINK_SPIM.h **** __STATIC_INLINE uint32_t CY_EINK_SPIM_GetNumTransfered(void)
 485:Generated_Source\PSoC6/CY_EINK_SPIM.h **** {
 486:Generated_Source\PSoC6/CY_EINK_SPIM.h ****     return Cy_SCB_SPI_GetNumTransfered(CY_EINK_SPIM_HW, &CY_EINK_SPIM_context);
 487:Generated_Source\PSoC6/CY_EINK_SPIM.h **** }
ARM GAS  C:\Users\bryan.lee\AppData\Local\Temp\ccWKhefE.s 			page 10


 488:Generated_Source\PSoC6/CY_EINK_SPIM.h **** 
 489:Generated_Source\PSoC6/CY_EINK_SPIM.h **** 
 490:Generated_Source\PSoC6/CY_EINK_SPIM.h **** /*******************************************************************************
 491:Generated_Source\PSoC6/CY_EINK_SPIM.h **** * Function Name: CY_EINK_SPIM_Interrupt
 492:Generated_Source\PSoC6/CY_EINK_SPIM.h **** ****************************************************************************//**
 493:Generated_Source\PSoC6/CY_EINK_SPIM.h **** *
 494:Generated_Source\PSoC6/CY_EINK_SPIM.h **** * Invokes the Cy_SCB_SPI_Interrupt() PDL driver function.
 495:Generated_Source\PSoC6/CY_EINK_SPIM.h **** *
 496:Generated_Source\PSoC6/CY_EINK_SPIM.h **** *******************************************************************************/
 497:Generated_Source\PSoC6/CY_EINK_SPIM.h **** __STATIC_INLINE void CY_EINK_SPIM_Interrupt(void)
 498:Generated_Source\PSoC6/CY_EINK_SPIM.h **** {
  27              		.loc 1 498 0
  28              		.cfi_startproc
  29              		@ args = 0, pretend = 0, frame = 0
  30              		@ frame_needed = 0, uses_anonymous_args = 0
  31 0000 10B5     		push	{r4, lr}
  32              		.cfi_def_cfa_offset 8
  33              		.cfi_offset 4, -8
  34              		.cfi_offset 14, -4
 499:Generated_Source\PSoC6/CY_EINK_SPIM.h ****     Cy_SCB_SPI_Interrupt(CY_EINK_SPIM_HW, &CY_EINK_SPIM_context);
  35              		.loc 1 499 0
  36 0002 0249     		ldr	r1, .L2
  37 0004 0248     		ldr	r0, .L2+4
  38 0006 FFF7FEFF 		bl	Cy_SCB_SPI_Interrupt
  39              	.LVL0:
 500:Generated_Source\PSoC6/CY_EINK_SPIM.h **** }
  40              		.loc 1 500 0
  41              		@ sp needed
  42 000a 10BD     		pop	{r4, pc}
  43              	.L3:
  44              		.align	2
  45              	.L2:
  46 000c 00000000 		.word	CY_EINK_SPIM_context
  47 0010 00006740 		.word	1080492032
  48              		.cfi_endproc
  49              	.LFE171:
  50              		.size	CY_EINK_SPIM_Interrupt, .-CY_EINK_SPIM_Interrupt
  51              		.section	.text.CY_EINK_SPIM_Start,"ax",%progbits
  52              		.align	2
  53              		.global	CY_EINK_SPIM_Start
  54              		.code	16
  55              		.thumb_func
  56              		.type	CY_EINK_SPIM_Start, %function
  57              	CY_EINK_SPIM_Start:
  58              	.LFB174:
  59              		.file 2 "Generated_Source\\PSoC6\\CY_EINK_SPIM.c"
   1:Generated_Source\PSoC6/CY_EINK_SPIM.c **** /***************************************************************************//**
   2:Generated_Source\PSoC6/CY_EINK_SPIM.c **** * \file CY_EINK_SPIM.c
   3:Generated_Source\PSoC6/CY_EINK_SPIM.c **** * \version 2.0
   4:Generated_Source\PSoC6/CY_EINK_SPIM.c **** *
   5:Generated_Source\PSoC6/CY_EINK_SPIM.c **** *  This file provides the source code to the API for the SPI Component.
   6:Generated_Source\PSoC6/CY_EINK_SPIM.c **** *
   7:Generated_Source\PSoC6/CY_EINK_SPIM.c **** ********************************************************************************
   8:Generated_Source\PSoC6/CY_EINK_SPIM.c **** * \copyright
   9:Generated_Source\PSoC6/CY_EINK_SPIM.c **** * Copyright 2016-2017, Cypress Semiconductor Corporation. All rights reserved.
  10:Generated_Source\PSoC6/CY_EINK_SPIM.c **** * You may use this file only in accordance with the license, terms, conditions,
  11:Generated_Source\PSoC6/CY_EINK_SPIM.c **** * disclaimers, and limitations in the end user license agreement accompanying
ARM GAS  C:\Users\bryan.lee\AppData\Local\Temp\ccWKhefE.s 			page 11


  12:Generated_Source\PSoC6/CY_EINK_SPIM.c **** * the software package with which this file was provided.
  13:Generated_Source\PSoC6/CY_EINK_SPIM.c **** *******************************************************************************/
  14:Generated_Source\PSoC6/CY_EINK_SPIM.c **** 
  15:Generated_Source\PSoC6/CY_EINK_SPIM.c **** #include "CY_EINK_SPIM.h"
  16:Generated_Source\PSoC6/CY_EINK_SPIM.c **** #include "sysint/cy_sysint.h"
  17:Generated_Source\PSoC6/CY_EINK_SPIM.c **** #include "cyfitter_sysint.h"
  18:Generated_Source\PSoC6/CY_EINK_SPIM.c **** #include "cyfitter_sysint_cfg.h"
  19:Generated_Source\PSoC6/CY_EINK_SPIM.c **** 
  20:Generated_Source\PSoC6/CY_EINK_SPIM.c **** #if defined(__cplusplus)
  21:Generated_Source\PSoC6/CY_EINK_SPIM.c **** extern "C" {
  22:Generated_Source\PSoC6/CY_EINK_SPIM.c **** #endif
  23:Generated_Source\PSoC6/CY_EINK_SPIM.c **** 
  24:Generated_Source\PSoC6/CY_EINK_SPIM.c **** /***************************************
  25:Generated_Source\PSoC6/CY_EINK_SPIM.c **** *     Global variables
  26:Generated_Source\PSoC6/CY_EINK_SPIM.c **** ***************************************/
  27:Generated_Source\PSoC6/CY_EINK_SPIM.c **** 
  28:Generated_Source\PSoC6/CY_EINK_SPIM.c **** /** CY_EINK_SPIM_initVar indicates whether the CY_EINK_SPIM
  29:Generated_Source\PSoC6/CY_EINK_SPIM.c **** *  component has been initialized. The variable is initialized to 0
  30:Generated_Source\PSoC6/CY_EINK_SPIM.c **** *  and set to 1 the first time CY_EINK_SPIM_Start() is called.
  31:Generated_Source\PSoC6/CY_EINK_SPIM.c **** *  This allows  the component to restart without reinitialization
  32:Generated_Source\PSoC6/CY_EINK_SPIM.c **** *  after the first call to the CY_EINK_SPIM_Start() routine.
  33:Generated_Source\PSoC6/CY_EINK_SPIM.c **** *
  34:Generated_Source\PSoC6/CY_EINK_SPIM.c **** *  If re-initialization of the component is required, then the
  35:Generated_Source\PSoC6/CY_EINK_SPIM.c **** *  CY_EINK_SPIM_Init() function can be called before the
  36:Generated_Source\PSoC6/CY_EINK_SPIM.c **** *  CY_EINK_SPIM_Start() or CY_EINK_SPIM_Enable() function.
  37:Generated_Source\PSoC6/CY_EINK_SPIM.c **** */
  38:Generated_Source\PSoC6/CY_EINK_SPIM.c **** uint8_t CY_EINK_SPIM_initVar = 0U;
  39:Generated_Source\PSoC6/CY_EINK_SPIM.c **** 
  40:Generated_Source\PSoC6/CY_EINK_SPIM.c **** /** The instance-specific configuration structure.
  41:Generated_Source\PSoC6/CY_EINK_SPIM.c **** * The pointer to this structure should be passed to Cy_SCB_SPI_Init function
  42:Generated_Source\PSoC6/CY_EINK_SPIM.c **** * to initialize component with GUI selected settings.
  43:Generated_Source\PSoC6/CY_EINK_SPIM.c **** */
  44:Generated_Source\PSoC6/CY_EINK_SPIM.c **** cy_stc_scb_spi_config_t const CY_EINK_SPIM_config =
  45:Generated_Source\PSoC6/CY_EINK_SPIM.c **** {
  46:Generated_Source\PSoC6/CY_EINK_SPIM.c ****     .spiMode  = CY_SCB_SPI_MASTER,
  47:Generated_Source\PSoC6/CY_EINK_SPIM.c ****     .subMode  = CY_SCB_SPI_MOTOROLA,
  48:Generated_Source\PSoC6/CY_EINK_SPIM.c ****     .sclkMode = CY_SCB_SPI_CPHA0_CPOL0,
  49:Generated_Source\PSoC6/CY_EINK_SPIM.c **** 
  50:Generated_Source\PSoC6/CY_EINK_SPIM.c ****     .oversample = 6UL,
  51:Generated_Source\PSoC6/CY_EINK_SPIM.c **** 
  52:Generated_Source\PSoC6/CY_EINK_SPIM.c ****     .rxDataWidth              = 8UL,
  53:Generated_Source\PSoC6/CY_EINK_SPIM.c ****     .txDataWidth              = 8UL,
  54:Generated_Source\PSoC6/CY_EINK_SPIM.c ****     .enableMsbFirst           = true,
  55:Generated_Source\PSoC6/CY_EINK_SPIM.c ****     .enableInputFilter        = false,
  56:Generated_Source\PSoC6/CY_EINK_SPIM.c **** 
  57:Generated_Source\PSoC6/CY_EINK_SPIM.c ****     .enableFreeRunSclk        = false,
  58:Generated_Source\PSoC6/CY_EINK_SPIM.c ****     .enableMisoLateSample     = false,
  59:Generated_Source\PSoC6/CY_EINK_SPIM.c ****     .enableTransferSeperation = false,
  60:Generated_Source\PSoC6/CY_EINK_SPIM.c ****     .ssPolarity               = ((((uint32_t) CY_SCB_SPI_ACTIVE_LOW) << CY_EINK_SPIM_SPI_SLAVE_SELE
  61:Generated_Source\PSoC6/CY_EINK_SPIM.c ****                                  (((uint32_t) CY_SCB_SPI_ACTIVE_LOW) << CY_EINK_SPIM_SPI_SLAVE_SELE
  62:Generated_Source\PSoC6/CY_EINK_SPIM.c ****                                  (((uint32_t) CY_SCB_SPI_ACTIVE_LOW) << CY_EINK_SPIM_SPI_SLAVE_SELE
  63:Generated_Source\PSoC6/CY_EINK_SPIM.c ****                                  (((uint32_t) CY_SCB_SPI_ACTIVE_LOW) << CY_EINK_SPIM_SPI_SLAVE_SELE
  64:Generated_Source\PSoC6/CY_EINK_SPIM.c **** 
  65:Generated_Source\PSoC6/CY_EINK_SPIM.c ****     .enableWakeFromSleep = false,
  66:Generated_Source\PSoC6/CY_EINK_SPIM.c **** 
  67:Generated_Source\PSoC6/CY_EINK_SPIM.c ****     .rxFifoTriggerLevel  = 0UL,
  68:Generated_Source\PSoC6/CY_EINK_SPIM.c ****     .rxFifoIntEnableMask = 0x0UL,
ARM GAS  C:\Users\bryan.lee\AppData\Local\Temp\ccWKhefE.s 			page 12


  69:Generated_Source\PSoC6/CY_EINK_SPIM.c **** 
  70:Generated_Source\PSoC6/CY_EINK_SPIM.c ****     .txFifoTriggerLevel  = 0UL,
  71:Generated_Source\PSoC6/CY_EINK_SPIM.c ****     .txFifoIntEnableMask = 0x0UL,
  72:Generated_Source\PSoC6/CY_EINK_SPIM.c **** 
  73:Generated_Source\PSoC6/CY_EINK_SPIM.c ****     .masterSlaveIntEnableMask = 0x0UL
  74:Generated_Source\PSoC6/CY_EINK_SPIM.c **** };
  75:Generated_Source\PSoC6/CY_EINK_SPIM.c **** 
  76:Generated_Source\PSoC6/CY_EINK_SPIM.c **** /** The instance-specific context structure.
  77:Generated_Source\PSoC6/CY_EINK_SPIM.c **** * It is used while the driver operation for internal configuration and
  78:Generated_Source\PSoC6/CY_EINK_SPIM.c **** * data keeping for the SPI. The user should not modify anything in this 
  79:Generated_Source\PSoC6/CY_EINK_SPIM.c **** * structure.
  80:Generated_Source\PSoC6/CY_EINK_SPIM.c **** */
  81:Generated_Source\PSoC6/CY_EINK_SPIM.c **** cy_stc_scb_spi_context_t CY_EINK_SPIM_context;
  82:Generated_Source\PSoC6/CY_EINK_SPIM.c **** 
  83:Generated_Source\PSoC6/CY_EINK_SPIM.c **** 
  84:Generated_Source\PSoC6/CY_EINK_SPIM.c **** /*******************************************************************************
  85:Generated_Source\PSoC6/CY_EINK_SPIM.c **** * Function Name: CY_EINK_SPIM_Start
  86:Generated_Source\PSoC6/CY_EINK_SPIM.c **** ****************************************************************************//**
  87:Generated_Source\PSoC6/CY_EINK_SPIM.c **** *
  88:Generated_Source\PSoC6/CY_EINK_SPIM.c **** * Invokes CY_EINK_SPIM_Init() and CY_EINK_SPIM_Enable().
  89:Generated_Source\PSoC6/CY_EINK_SPIM.c **** * Also configures interrupt if it is internal.
  90:Generated_Source\PSoC6/CY_EINK_SPIM.c **** * After this function call the component is enabled and ready for operation.
  91:Generated_Source\PSoC6/CY_EINK_SPIM.c **** * This is the preferred method to begin component operation.
  92:Generated_Source\PSoC6/CY_EINK_SPIM.c **** *
  93:Generated_Source\PSoC6/CY_EINK_SPIM.c **** * \globalvars
  94:Generated_Source\PSoC6/CY_EINK_SPIM.c **** * \ref CY_EINK_SPIM_initVar - used to check initial configuration,
  95:Generated_Source\PSoC6/CY_EINK_SPIM.c **** * modified  on first function call.
  96:Generated_Source\PSoC6/CY_EINK_SPIM.c **** *
  97:Generated_Source\PSoC6/CY_EINK_SPIM.c **** *******************************************************************************/
  98:Generated_Source\PSoC6/CY_EINK_SPIM.c **** void CY_EINK_SPIM_Start(void)
  99:Generated_Source\PSoC6/CY_EINK_SPIM.c **** {
  60              		.loc 2 99 0
  61              		.cfi_startproc
  62              		@ args = 0, pretend = 0, frame = 0
  63              		@ frame_needed = 0, uses_anonymous_args = 0
  64 0000 10B5     		push	{r4, lr}
  65              		.cfi_def_cfa_offset 8
  66              		.cfi_offset 4, -8
  67              		.cfi_offset 14, -4
 100:Generated_Source\PSoC6/CY_EINK_SPIM.c ****     if (0U == CY_EINK_SPIM_initVar)
  68              		.loc 2 100 0
  69 0002 134B     		ldr	r3, .L7
  70 0004 1B78     		ldrb	r3, [r3]
  71 0006 002B     		cmp	r3, #0
  72 0008 10D1     		bne	.L5
 101:Generated_Source\PSoC6/CY_EINK_SPIM.c ****     {
 102:Generated_Source\PSoC6/CY_EINK_SPIM.c ****         /* Configure component */
 103:Generated_Source\PSoC6/CY_EINK_SPIM.c ****         (void) Cy_SCB_SPI_Init(CY_EINK_SPIM_HW, &CY_EINK_SPIM_config, &CY_EINK_SPIM_context);
  73              		.loc 2 103 0
  74 000a 124C     		ldr	r4, .L7+4
  75 000c 124A     		ldr	r2, .L7+8
  76 000e 1349     		ldr	r1, .L7+12
  77 0010 2000     		movs	r0, r4
  78 0012 FFF7FEFF 		bl	Cy_SCB_SPI_Init
  79              	.LVL1:
  80              	.LBB8:
  81              	.LBB9:
ARM GAS  C:\Users\bryan.lee\AppData\Local\Temp\ccWKhefE.s 			page 13


  82              		.file 3 "Generated_Source\\PSoC6\\pdl\\drivers/peripheral/scb/cy_scb_spi.h"
   1:Generated_Source\PSoC6\pdl\drivers/peripheral/scb/cy_scb_spi.h **** /***************************************************************************//**
   2:Generated_Source\PSoC6\pdl\drivers/peripheral/scb/cy_scb_spi.h **** * \file cy_scb_spi.h
   3:Generated_Source\PSoC6\pdl\drivers/peripheral/scb/cy_scb_spi.h **** * \version 2.10
   4:Generated_Source\PSoC6\pdl\drivers/peripheral/scb/cy_scb_spi.h **** *
   5:Generated_Source\PSoC6\pdl\drivers/peripheral/scb/cy_scb_spi.h **** * Provides SPI API declarations of the SCB driver.
   6:Generated_Source\PSoC6\pdl\drivers/peripheral/scb/cy_scb_spi.h **** *
   7:Generated_Source\PSoC6\pdl\drivers/peripheral/scb/cy_scb_spi.h **** ********************************************************************************
   8:Generated_Source\PSoC6\pdl\drivers/peripheral/scb/cy_scb_spi.h **** * \copyright
   9:Generated_Source\PSoC6\pdl\drivers/peripheral/scb/cy_scb_spi.h **** * Copyright 2016-2018, Cypress Semiconductor Corporation.  All rights reserved.
  10:Generated_Source\PSoC6\pdl\drivers/peripheral/scb/cy_scb_spi.h **** * You may use this file only in accordance with the license, terms, conditions,
  11:Generated_Source\PSoC6\pdl\drivers/peripheral/scb/cy_scb_spi.h **** * disclaimers, and limitations in the end user license agreement accompanying
  12:Generated_Source\PSoC6\pdl\drivers/peripheral/scb/cy_scb_spi.h **** * the software package with which this file was provided.
  13:Generated_Source\PSoC6\pdl\drivers/peripheral/scb/cy_scb_spi.h **** *******************************************************************************/
  14:Generated_Source\PSoC6\pdl\drivers/peripheral/scb/cy_scb_spi.h **** 
  15:Generated_Source\PSoC6\pdl\drivers/peripheral/scb/cy_scb_spi.h **** /**
  16:Generated_Source\PSoC6\pdl\drivers/peripheral/scb/cy_scb_spi.h **** * \addtogroup group_scb_spi
  17:Generated_Source\PSoC6\pdl\drivers/peripheral/scb/cy_scb_spi.h **** * \{
  18:Generated_Source\PSoC6\pdl\drivers/peripheral/scb/cy_scb_spi.h **** * Driver API for SPI Bus Peripheral.
  19:Generated_Source\PSoC6\pdl\drivers/peripheral/scb/cy_scb_spi.h **** *
  20:Generated_Source\PSoC6\pdl\drivers/peripheral/scb/cy_scb_spi.h **** * Three different SPI protocols or modes are supported:
  21:Generated_Source\PSoC6\pdl\drivers/peripheral/scb/cy_scb_spi.h **** * * The original SPI protocol as defined by Motorola.
  22:Generated_Source\PSoC6\pdl\drivers/peripheral/scb/cy_scb_spi.h **** * * TI: Uses a short pulse on "spi_select" to indicate a start of transaction.
  23:Generated_Source\PSoC6\pdl\drivers/peripheral/scb/cy_scb_spi.h **** * * National Semiconductor (Microwire): Transmissions and Receptions occur
  24:Generated_Source\PSoC6\pdl\drivers/peripheral/scb/cy_scb_spi.h **** *   separately.
  25:Generated_Source\PSoC6\pdl\drivers/peripheral/scb/cy_scb_spi.h **** * In addition to the standard 8-bit word length, the component supports a
  26:Generated_Source\PSoC6\pdl\drivers/peripheral/scb/cy_scb_spi.h **** * configurable 4- to 16-bit data width for communicating at non-standard SPI
  27:Generated_Source\PSoC6\pdl\drivers/peripheral/scb/cy_scb_spi.h **** * data widths.
  28:Generated_Source\PSoC6\pdl\drivers/peripheral/scb/cy_scb_spi.h **** *
  29:Generated_Source\PSoC6\pdl\drivers/peripheral/scb/cy_scb_spi.h **** * \section group_scb_spi_configuration Configuration Considerations
  30:Generated_Source\PSoC6\pdl\drivers/peripheral/scb/cy_scb_spi.h **** * The SPI driver configuration can be divided to number of sequential
  31:Generated_Source\PSoC6\pdl\drivers/peripheral/scb/cy_scb_spi.h **** * steps listed below:
  32:Generated_Source\PSoC6\pdl\drivers/peripheral/scb/cy_scb_spi.h **** * * \ref group_scb_spi_config
  33:Generated_Source\PSoC6\pdl\drivers/peripheral/scb/cy_scb_spi.h **** * * \ref group_scb_spi_pins
  34:Generated_Source\PSoC6\pdl\drivers/peripheral/scb/cy_scb_spi.h **** * * \ref group_scb_spi_clock
  35:Generated_Source\PSoC6\pdl\drivers/peripheral/scb/cy_scb_spi.h **** * * \ref group_scb_spi_data_rate
  36:Generated_Source\PSoC6\pdl\drivers/peripheral/scb/cy_scb_spi.h **** * * \ref group_scb_spi_intr
  37:Generated_Source\PSoC6\pdl\drivers/peripheral/scb/cy_scb_spi.h **** * * \ref group_scb_spi_enable
  38:Generated_Source\PSoC6\pdl\drivers/peripheral/scb/cy_scb_spi.h **** *
  39:Generated_Source\PSoC6\pdl\drivers/peripheral/scb/cy_scb_spi.h **** * \note
  40:Generated_Source\PSoC6\pdl\drivers/peripheral/scb/cy_scb_spi.h **** * The SPI driver is built on top of the SCB hardware block. The SCB1 instance is
  41:Generated_Source\PSoC6\pdl\drivers/peripheral/scb/cy_scb_spi.h **** * used as an example for all code snippets. Modify the code to match your
  42:Generated_Source\PSoC6\pdl\drivers/peripheral/scb/cy_scb_spi.h **** * design.
  43:Generated_Source\PSoC6\pdl\drivers/peripheral/scb/cy_scb_spi.h **** *
  44:Generated_Source\PSoC6\pdl\drivers/peripheral/scb/cy_scb_spi.h **** * \subsection group_scb_spi_config Configure SPI
  45:Generated_Source\PSoC6\pdl\drivers/peripheral/scb/cy_scb_spi.h **** * To set up the SPI slave driver, provide the configuration parameters in the
  46:Generated_Source\PSoC6\pdl\drivers/peripheral/scb/cy_scb_spi.h **** * \ref cy_stc_scb_spi_config_t structure. For example: provide spiMode,
  47:Generated_Source\PSoC6\pdl\drivers/peripheral/scb/cy_scb_spi.h **** * subMode, sclkMode, oversample, rxDataWidth, and txDataWidth. The other
  48:Generated_Source\PSoC6\pdl\drivers/peripheral/scb/cy_scb_spi.h **** * parameters are optional for operation. To initialize the driver, call
  49:Generated_Source\PSoC6\pdl\drivers/peripheral/scb/cy_scb_spi.h **** * \ref Cy_SCB_SPI_Init function providing a pointer to the filled
  50:Generated_Source\PSoC6\pdl\drivers/peripheral/scb/cy_scb_spi.h **** * \ref cy_stc_scb_spi_config_t structure and allocated \ref cy_stc_scb_spi_context_t.
  51:Generated_Source\PSoC6\pdl\drivers/peripheral/scb/cy_scb_spi.h **** *
  52:Generated_Source\PSoC6\pdl\drivers/peripheral/scb/cy_scb_spi.h **** * \snippet SCB_CompDatasheet_sut_01_revA.cydsn\spi_snippets.c SPI_CFG
  53:Generated_Source\PSoC6\pdl\drivers/peripheral/scb/cy_scb_spi.h **** *
  54:Generated_Source\PSoC6\pdl\drivers/peripheral/scb/cy_scb_spi.h **** * \subsection group_scb_spi_pins Assign and Configure Pins
  55:Generated_Source\PSoC6\pdl\drivers/peripheral/scb/cy_scb_spi.h **** * Only dedicated SCB pins can be used for SPI operation. The HSIOM
  56:Generated_Source\PSoC6\pdl\drivers/peripheral/scb/cy_scb_spi.h **** * register must be configured to connect block to the pins. Also the SPI output
ARM GAS  C:\Users\bryan.lee\AppData\Local\Temp\ccWKhefE.s 			page 14


  57:Generated_Source\PSoC6\pdl\drivers/peripheral/scb/cy_scb_spi.h **** * pins must be configured in Strong Drive mode and SPI input pins in
  58:Generated_Source\PSoC6\pdl\drivers/peripheral/scb/cy_scb_spi.h **** * Digital High-Z:
  59:Generated_Source\PSoC6\pdl\drivers/peripheral/scb/cy_scb_spi.h **** *
  60:Generated_Source\PSoC6\pdl\drivers/peripheral/scb/cy_scb_spi.h **** * \snippet SCB_CompDatasheet_sut_01_revA.cydsn\spi_snippets.c SPI_CFG_PINS
  61:Generated_Source\PSoC6\pdl\drivers/peripheral/scb/cy_scb_spi.h **** *
  62:Generated_Source\PSoC6\pdl\drivers/peripheral/scb/cy_scb_spi.h **** * \note
  63:Generated_Source\PSoC6\pdl\drivers/peripheral/scb/cy_scb_spi.h **** * The SCB stops driving pins when it is disabled or enters low power mode (except
  64:Generated_Source\PSoC6\pdl\drivers/peripheral/scb/cy_scb_spi.h **** * Alternate Active or Sleep). To keep the pins' states, they should be reconfigured or
  65:Generated_Source\PSoC6\pdl\drivers/peripheral/scb/cy_scb_spi.h **** * be frozen.
  66:Generated_Source\PSoC6\pdl\drivers/peripheral/scb/cy_scb_spi.h **** *
  67:Generated_Source\PSoC6\pdl\drivers/peripheral/scb/cy_scb_spi.h **** * \subsection group_scb_spi_clock Assign Clock Divider
  68:Generated_Source\PSoC6\pdl\drivers/peripheral/scb/cy_scb_spi.h **** * The clock source must be connected to the SCB block to oversample input and
  69:Generated_Source\PSoC6\pdl\drivers/peripheral/scb/cy_scb_spi.h **** * output signals. You must use one of the 8-bit or 16-bit dividers <em><b>(the
  70:Generated_Source\PSoC6\pdl\drivers/peripheral/scb/cy_scb_spi.h **** * source clock of this divider must be Clk_Peri)</b></em>. Use the
  71:Generated_Source\PSoC6\pdl\drivers/peripheral/scb/cy_scb_spi.h **** * \ref group_sysclk driver API to do that.
  72:Generated_Source\PSoC6\pdl\drivers/peripheral/scb/cy_scb_spi.h **** *
  73:Generated_Source\PSoC6\pdl\drivers/peripheral/scb/cy_scb_spi.h **** * \snippet SCB_CompDatasheet_sut_01_revA.cydsn\spi_snippets.c SPI_CFG_ASSIGN_CLOCK
  74:Generated_Source\PSoC6\pdl\drivers/peripheral/scb/cy_scb_spi.h **** *
  75:Generated_Source\PSoC6\pdl\drivers/peripheral/scb/cy_scb_spi.h **** * \subsection group_scb_spi_data_rate Configure Data Rate
  76:Generated_Source\PSoC6\pdl\drivers/peripheral/scb/cy_scb_spi.h **** * To get the SPI slave to operate with the desired data rate, the source clock must be
  77:Generated_Source\PSoC6\pdl\drivers/peripheral/scb/cy_scb_spi.h **** * fast enough to provide sufficient oversampling. Therefore, the clock divider
  78:Generated_Source\PSoC6\pdl\drivers/peripheral/scb/cy_scb_spi.h **** * must be configured to provide desired clock frequency. Use the
  79:Generated_Source\PSoC6\pdl\drivers/peripheral/scb/cy_scb_spi.h **** * \ref group_sysclk driver API to do that.
  80:Generated_Source\PSoC6\pdl\drivers/peripheral/scb/cy_scb_spi.h **** *
  81:Generated_Source\PSoC6\pdl\drivers/peripheral/scb/cy_scb_spi.h **** * \snippet SCB_CompDatasheet_sut_01_revA.cydsn\spi_snippets.c SPI_CFG_DATA_RATE_SLAVE
  82:Generated_Source\PSoC6\pdl\drivers/peripheral/scb/cy_scb_spi.h **** *
  83:Generated_Source\PSoC6\pdl\drivers/peripheral/scb/cy_scb_spi.h **** * To get the SPI master to operate with the desired data rate, the source clock frequency
  84:Generated_Source\PSoC6\pdl\drivers/peripheral/scb/cy_scb_spi.h **** * and the SCLK (SPI clock) period must be configured. Use the
  85:Generated_Source\PSoC6\pdl\drivers/peripheral/scb/cy_scb_spi.h **** * \ref group_sysclk driver API to configure source clock frequency. Set the
  86:Generated_Source\PSoC6\pdl\drivers/peripheral/scb/cy_scb_spi.h **** * <em><b>oversample parameter in configuration structure</b></em> to define number of SCB
  87:Generated_Source\PSoC6\pdl\drivers/peripheral/scb/cy_scb_spi.h **** * clocks in one SCLK period. When this value is even, the first and second phases
  88:Generated_Source\PSoC6\pdl\drivers/peripheral/scb/cy_scb_spi.h **** * of the SCLK period are the same. Otherwise, the first phase is one SCB clock
  89:Generated_Source\PSoC6\pdl\drivers/peripheral/scb/cy_scb_spi.h **** * cycle longer than the second phase. The level of the first phase of the clock
  90:Generated_Source\PSoC6\pdl\drivers/peripheral/scb/cy_scb_spi.h **** * period depends on CPOL settings: 0 - low level and 1 - high level.
  91:Generated_Source\PSoC6\pdl\drivers/peripheral/scb/cy_scb_spi.h **** *
  92:Generated_Source\PSoC6\pdl\drivers/peripheral/scb/cy_scb_spi.h **** * \snippet SCB_CompDatasheet_sut_01_revA.cydsn\spi_snippets.c SPI_CFG_DATA_RATE_MASTER
  93:Generated_Source\PSoC6\pdl\drivers/peripheral/scb/cy_scb_spi.h **** *
  94:Generated_Source\PSoC6\pdl\drivers/peripheral/scb/cy_scb_spi.h **** * Refer to the technical reference manual (TRM) section SPI sub-section
  95:Generated_Source\PSoC6\pdl\drivers/peripheral/scb/cy_scb_spi.h **** * Oversampling and Bit Rate to get information about how to configure SPI to run with
  96:Generated_Source\PSoC6\pdl\drivers/peripheral/scb/cy_scb_spi.h **** * desired data rate.
  97:Generated_Source\PSoC6\pdl\drivers/peripheral/scb/cy_scb_spi.h **** *
  98:Generated_Source\PSoC6\pdl\drivers/peripheral/scb/cy_scb_spi.h **** * \subsection group_scb_spi_intr Configure Interrupt
  99:Generated_Source\PSoC6\pdl\drivers/peripheral/scb/cy_scb_spi.h **** * The interrupt is optional for the SPI operation. To configure the interrupt,
 100:Generated_Source\PSoC6\pdl\drivers/peripheral/scb/cy_scb_spi.h **** * the \ref Cy_SCB_SPI_Interrupt function must be called in the interrupt
 101:Generated_Source\PSoC6\pdl\drivers/peripheral/scb/cy_scb_spi.h **** * handler for the selected SCB instance. Also, this interrupt must be enabled
 102:Generated_Source\PSoC6\pdl\drivers/peripheral/scb/cy_scb_spi.h **** * in the NVIC.
 103:Generated_Source\PSoC6\pdl\drivers/peripheral/scb/cy_scb_spi.h **** *
 104:Generated_Source\PSoC6\pdl\drivers/peripheral/scb/cy_scb_spi.h **** * \snippet SCB_CompDatasheet_sut_01_revA.cydsn\spi_snippets.c SPI_INTR_A
 105:Generated_Source\PSoC6\pdl\drivers/peripheral/scb/cy_scb_spi.h **** * \snippet SCB_CompDatasheet_sut_01_revA.cydsn\spi_snippets.c SPI_INTR_B
 106:Generated_Source\PSoC6\pdl\drivers/peripheral/scb/cy_scb_spi.h **** *
 107:Generated_Source\PSoC6\pdl\drivers/peripheral/scb/cy_scb_spi.h **** * \subsection group_scb_spi_enable Enable SPI
 108:Generated_Source\PSoC6\pdl\drivers/peripheral/scb/cy_scb_spi.h **** * Finally, enable the SPI operation calling \ref Cy_SCB_SPI_Enable.
 109:Generated_Source\PSoC6\pdl\drivers/peripheral/scb/cy_scb_spi.h **** * For the slave, this means that SPI device starts respond to the transfers.
 110:Generated_Source\PSoC6\pdl\drivers/peripheral/scb/cy_scb_spi.h **** * For the master, it is ready to execute transfers.
 111:Generated_Source\PSoC6\pdl\drivers/peripheral/scb/cy_scb_spi.h **** *
 112:Generated_Source\PSoC6\pdl\drivers/peripheral/scb/cy_scb_spi.h **** * \snippet SCB_CompDatasheet_sut_01_revA.cydsn\spi_snippets.c SPI_ENABLE
 113:Generated_Source\PSoC6\pdl\drivers/peripheral/scb/cy_scb_spi.h **** *
ARM GAS  C:\Users\bryan.lee\AppData\Local\Temp\ccWKhefE.s 			page 15


 114:Generated_Source\PSoC6\pdl\drivers/peripheral/scb/cy_scb_spi.h **** * \section group_scb_spi_use_cases Common Use Cases
 115:Generated_Source\PSoC6\pdl\drivers/peripheral/scb/cy_scb_spi.h **** * The SPI API is the same for the master and slave mode operation and
 116:Generated_Source\PSoC6\pdl\drivers/peripheral/scb/cy_scb_spi.h **** * is divided into two categories: \ref group_scb_spi_low_level_functions
 117:Generated_Source\PSoC6\pdl\drivers/peripheral/scb/cy_scb_spi.h **** * and \ref group_scb_spi_high_level_functions. \n
 118:Generated_Source\PSoC6\pdl\drivers/peripheral/scb/cy_scb_spi.h **** * <em>Do not mix <b>High-Level</b> and <b>Low-Level</b> API because a Low-Level
 119:Generated_Source\PSoC6\pdl\drivers/peripheral/scb/cy_scb_spi.h **** * API can adversely affect the operation of a High-Level API.</em>
 120:Generated_Source\PSoC6\pdl\drivers/peripheral/scb/cy_scb_spi.h **** *
 121:Generated_Source\PSoC6\pdl\drivers/peripheral/scb/cy_scb_spi.h **** * \subsection group_scb_spi_ll Low-Level API
 122:Generated_Source\PSoC6\pdl\drivers/peripheral/scb/cy_scb_spi.h **** * The \ref group_scb_spi_low_level_functions API allows
 123:Generated_Source\PSoC6\pdl\drivers/peripheral/scb/cy_scb_spi.h **** * interacting directly with the hardware and do not use interrupt.
 124:Generated_Source\PSoC6\pdl\drivers/peripheral/scb/cy_scb_spi.h **** * These functions do not require context for operation. Thus, NULL can be
 125:Generated_Source\PSoC6\pdl\drivers/peripheral/scb/cy_scb_spi.h **** * passed in \ref Cy_SCB_SPI_Init and \ref Cy_SCB_SPI_Disable instead of
 126:Generated_Source\PSoC6\pdl\drivers/peripheral/scb/cy_scb_spi.h **** * a pointer to the context structure.
 127:Generated_Source\PSoC6\pdl\drivers/peripheral/scb/cy_scb_spi.h **** *
 128:Generated_Source\PSoC6\pdl\drivers/peripheral/scb/cy_scb_spi.h **** * * To write data into the TX FIFO, use one of the provided functions:
 129:Generated_Source\PSoC6\pdl\drivers/peripheral/scb/cy_scb_spi.h **** *   \ref Cy_SCB_SPI_Write, \ref Cy_SCB_SPI_WriteArray or
 130:Generated_Source\PSoC6\pdl\drivers/peripheral/scb/cy_scb_spi.h **** *   \ref Cy_SCB_SPI_WriteArrayBlocking.
 131:Generated_Source\PSoC6\pdl\drivers/peripheral/scb/cy_scb_spi.h **** *   Note that in the master mode, putting data into the TX FIFO starts a
 132:Generated_Source\PSoC6\pdl\drivers/peripheral/scb/cy_scb_spi.h **** *   transfer. Due to the SPI nature, the received data is put into the RX FIFO.
 133:Generated_Source\PSoC6\pdl\drivers/peripheral/scb/cy_scb_spi.h **** *
 134:Generated_Source\PSoC6\pdl\drivers/peripheral/scb/cy_scb_spi.h **** * * To read data from the RX FIFO, use one of the provided functions:
 135:Generated_Source\PSoC6\pdl\drivers/peripheral/scb/cy_scb_spi.h **** *   \ref Cy_SCB_SPI_Read or \ref Cy_SCB_SPI_ReadArray.
 136:Generated_Source\PSoC6\pdl\drivers/peripheral/scb/cy_scb_spi.h **** *
 137:Generated_Source\PSoC6\pdl\drivers/peripheral/scb/cy_scb_spi.h **** * * The statuses can be polled using: \ref Cy_SCB_SPI_GetRxFifoStatus,
 138:Generated_Source\PSoC6\pdl\drivers/peripheral/scb/cy_scb_spi.h **** *   \ref Cy_SCB_SPI_GetTxFifoStatus and \ref Cy_SCB_SPI_GetSlaveMasterStatus.
 139:Generated_Source\PSoC6\pdl\drivers/peripheral/scb/cy_scb_spi.h **** *   <em>The statuses are <b>W1C (Write 1 to Clear)</b> and after a status
 140:Generated_Source\PSoC6\pdl\drivers/peripheral/scb/cy_scb_spi.h **** *   is set, it must be cleared.</em> Note that there are statuses evaluated as level.
 141:Generated_Source\PSoC6\pdl\drivers/peripheral/scb/cy_scb_spi.h **** *   These statuses remain set until an event is true. Therefore, after the clear
 142:Generated_Source\PSoC6\pdl\drivers/peripheral/scb/cy_scb_spi.h **** *   operation, the status is cleared but then it is restored (if the event is still
 143:Generated_Source\PSoC6\pdl\drivers/peripheral/scb/cy_scb_spi.h **** *   true).
 144:Generated_Source\PSoC6\pdl\drivers/peripheral/scb/cy_scb_spi.h **** *   For example: the TX FIFO empty interrupt source can be cleared when the
 145:Generated_Source\PSoC6\pdl\drivers/peripheral/scb/cy_scb_spi.h **** *   TX FIFO is not empty. Put at least two data elements (one goes to the
 146:Generated_Source\PSoC6\pdl\drivers/peripheral/scb/cy_scb_spi.h **** *   shifter and next to FIFO) before clearing this status. \n
 147:Generated_Source\PSoC6\pdl\drivers/peripheral/scb/cy_scb_spi.h **** *   Also, following functions can be used for polling as well
 148:Generated_Source\PSoC6\pdl\drivers/peripheral/scb/cy_scb_spi.h **** *   \ref Cy_SCB_SPI_IsBusBusy, \ref Cy_SCB_SPI_IsTxComplete,
 149:Generated_Source\PSoC6\pdl\drivers/peripheral/scb/cy_scb_spi.h **** *   \ref Cy_SCB_SPI_GetNumInRxFifo and \ref Cy_SCB_SPI_GetNumInTxFifo.
 150:Generated_Source\PSoC6\pdl\drivers/peripheral/scb/cy_scb_spi.h **** *
 151:Generated_Source\PSoC6\pdl\drivers/peripheral/scb/cy_scb_spi.h **** * \snippet SCB_CompDatasheet_sut_01_revA.cydsn\spi_snippets.c SPI_TRANFER_DATA_LL
 152:Generated_Source\PSoC6\pdl\drivers/peripheral/scb/cy_scb_spi.h **** *
 153:Generated_Source\PSoC6\pdl\drivers/peripheral/scb/cy_scb_spi.h **** * \subsection group_scb_spi_hl High-Level API
 154:Generated_Source\PSoC6\pdl\drivers/peripheral/scb/cy_scb_spi.h **** * The \ref group_scb_spi_high_level_functions API uses an interrupt to execute
 155:Generated_Source\PSoC6\pdl\drivers/peripheral/scb/cy_scb_spi.h **** * a transfer. Call \ref Cy_SCB_SPI_Transfer to start communication: for the
 156:Generated_Source\PSoC6\pdl\drivers/peripheral/scb/cy_scb_spi.h **** * master mode, a transfer to the slave starts but for the slave mode,
 157:Generated_Source\PSoC6\pdl\drivers/peripheral/scb/cy_scb_spi.h **** * the Read and Write buffers are prepared for the following communication
 158:Generated_Source\PSoC6\pdl\drivers/peripheral/scb/cy_scb_spi.h **** * with the master.
 159:Generated_Source\PSoC6\pdl\drivers/peripheral/scb/cy_scb_spi.h **** * After a transfer is started, the \ref Cy_SCB_SPI_Interrupt handles the
 160:Generated_Source\PSoC6\pdl\drivers/peripheral/scb/cy_scb_spi.h **** * transfer until its completion. Therefore, it must be called inside the
 161:Generated_Source\PSoC6\pdl\drivers/peripheral/scb/cy_scb_spi.h **** * user interrupt handler to make the High-Level API work. To monitor the status
 162:Generated_Source\PSoC6\pdl\drivers/peripheral/scb/cy_scb_spi.h **** * of the transfer operation, use \ref Cy_SCB_SPI_GetTransferStatus.
 163:Generated_Source\PSoC6\pdl\drivers/peripheral/scb/cy_scb_spi.h **** * Alternatively, use \ref Cy_SCB_SPI_RegisterCallback to register a callback
 164:Generated_Source\PSoC6\pdl\drivers/peripheral/scb/cy_scb_spi.h **** * function to be notified about \ref group_scb_spi_macros_callback_events.
 165:Generated_Source\PSoC6\pdl\drivers/peripheral/scb/cy_scb_spi.h **** *
 166:Generated_Source\PSoC6\pdl\drivers/peripheral/scb/cy_scb_spi.h **** * \snippet SCB_CompDatasheet_sut_01_revA.cydsn\spi_snippets.c SPI_TRANFER_DATA
 167:Generated_Source\PSoC6\pdl\drivers/peripheral/scb/cy_scb_spi.h **** *
 168:Generated_Source\PSoC6\pdl\drivers/peripheral/scb/cy_scb_spi.h **** * \section group_scb_spi_dma_trig DMA Trigger
 169:Generated_Source\PSoC6\pdl\drivers/peripheral/scb/cy_scb_spi.h **** * The SCB provides TX and RX output trigger signals that can be routed to the
 170:Generated_Source\PSoC6\pdl\drivers/peripheral/scb/cy_scb_spi.h **** * DMA controller inputs. These signals are assigned based on the data availability
ARM GAS  C:\Users\bryan.lee\AppData\Local\Temp\ccWKhefE.s 			page 16


 171:Generated_Source\PSoC6\pdl\drivers/peripheral/scb/cy_scb_spi.h **** * in the TX and RX FIFOs appropriately.
 172:Generated_Source\PSoC6\pdl\drivers/peripheral/scb/cy_scb_spi.h **** *
 173:Generated_Source\PSoC6\pdl\drivers/peripheral/scb/cy_scb_spi.h **** * * The RX trigger signal remains active until the number of data
 174:Generated_Source\PSoC6\pdl\drivers/peripheral/scb/cy_scb_spi.h **** *   elements in the RX FIFO is greater than the value of RX FIFO level. Use
 175:Generated_Source\PSoC6\pdl\drivers/peripheral/scb/cy_scb_spi.h **** *   function \ref Cy_SCB_SetRxFifoLevel or set configuration structure
 176:Generated_Source\PSoC6\pdl\drivers/peripheral/scb/cy_scb_spi.h **** *   rxFifoTriggerLevel parameter to configure RX FIFO level value. \n
 177:Generated_Source\PSoC6\pdl\drivers/peripheral/scb/cy_scb_spi.h **** *   <em>For example, the RX FIFO has 8 data elements and the RX FIFO level is 0.
 178:Generated_Source\PSoC6\pdl\drivers/peripheral/scb/cy_scb_spi.h **** *   The RX trigger signal remains active until DMA does not read all data from
 179:Generated_Source\PSoC6\pdl\drivers/peripheral/scb/cy_scb_spi.h **** *   the RX FIFO.</em>
 180:Generated_Source\PSoC6\pdl\drivers/peripheral/scb/cy_scb_spi.h **** *
 181:Generated_Source\PSoC6\pdl\drivers/peripheral/scb/cy_scb_spi.h **** * * The TX trigger signal remains active until the number of data elements
 182:Generated_Source\PSoC6\pdl\drivers/peripheral/scb/cy_scb_spi.h **** *   in the TX FIFO is less than the value of TX FIFO level. Use function
 183:Generated_Source\PSoC6\pdl\drivers/peripheral/scb/cy_scb_spi.h **** *   \ref Cy_SCB_SetTxFifoLevel or set configuration structure txFifoTriggerLevel
 184:Generated_Source\PSoC6\pdl\drivers/peripheral/scb/cy_scb_spi.h **** *   parameter to configure TX FIFO level value. \n
 185:Generated_Source\PSoC6\pdl\drivers/peripheral/scb/cy_scb_spi.h **** *   <em>For example, the TX FIFO has 0 data elements (empty) and the TX FIFO level
 186:Generated_Source\PSoC6\pdl\drivers/peripheral/scb/cy_scb_spi.h **** *   is 7. The TX trigger signal remains active until DMA does not load TX FIFO
 187:Generated_Source\PSoC6\pdl\drivers/peripheral/scb/cy_scb_spi.h **** *   with 7 data elements (note that after the first TX load operation, the data 
 188:Generated_Source\PSoC6\pdl\drivers/peripheral/scb/cy_scb_spi.h **** *   element goes to the shift register and TX FIFO remains empty).</em>
 189:Generated_Source\PSoC6\pdl\drivers/peripheral/scb/cy_scb_spi.h **** *
 190:Generated_Source\PSoC6\pdl\drivers/peripheral/scb/cy_scb_spi.h **** * To route SCB TX or RX trigger signals to the DMA controller, use \ref group_trigmux
 191:Generated_Source\PSoC6\pdl\drivers/peripheral/scb/cy_scb_spi.h **** * driver API.
 192:Generated_Source\PSoC6\pdl\drivers/peripheral/scb/cy_scb_spi.h **** *
 193:Generated_Source\PSoC6\pdl\drivers/peripheral/scb/cy_scb_spi.h **** * \note
 194:Generated_Source\PSoC6\pdl\drivers/peripheral/scb/cy_scb_spi.h **** * To properly handle DMA level request signal activation and de-activation from the SCB
 195:Generated_Source\PSoC6\pdl\drivers/peripheral/scb/cy_scb_spi.h **** * peripheral block the DMA Descriptor typically must be configured to re-trigger
 196:Generated_Source\PSoC6\pdl\drivers/peripheral/scb/cy_scb_spi.h **** * after 16 Clk_Slow cycles.
 197:Generated_Source\PSoC6\pdl\drivers/peripheral/scb/cy_scb_spi.h **** *
 198:Generated_Source\PSoC6\pdl\drivers/peripheral/scb/cy_scb_spi.h **** * \section group_scb_spi_lp Low Power Support
 199:Generated_Source\PSoC6\pdl\drivers/peripheral/scb/cy_scb_spi.h **** * The SPI driver provides the callback functions to handle power mode transition.
 200:Generated_Source\PSoC6\pdl\drivers/peripheral/scb/cy_scb_spi.h **** * The callback \ref Cy_SCB_SPI_DeepSleepCallback must be called
 201:Generated_Source\PSoC6\pdl\drivers/peripheral/scb/cy_scb_spi.h **** * during execution of \ref Cy_SysPm_DeepSleep; \ref Cy_SCB_SPI_HibernateCallback
 202:Generated_Source\PSoC6\pdl\drivers/peripheral/scb/cy_scb_spi.h **** * must be called during execution of \ref Cy_SysPm_Hibernate. To trigger the
 203:Generated_Source\PSoC6\pdl\drivers/peripheral/scb/cy_scb_spi.h **** * callback execution, the callback must be registered before calling the
 204:Generated_Source\PSoC6\pdl\drivers/peripheral/scb/cy_scb_spi.h **** * power mode transition function. Refer to \ref group_syspm driver for more
 205:Generated_Source\PSoC6\pdl\drivers/peripheral/scb/cy_scb_spi.h **** * information about power mode transitions and callback registration.
 206:Generated_Source\PSoC6\pdl\drivers/peripheral/scb/cy_scb_spi.h **** * 
 207:Generated_Source\PSoC6\pdl\drivers/peripheral/scb/cy_scb_spi.h **** * The SPI master is disabled during Deep Sleep and Hibernate and stops driving 
 208:Generated_Source\PSoC6\pdl\drivers/peripheral/scb/cy_scb_spi.h **** * the output pins. The state of the SPI master output pins SCLK, SS, and MOSI is 
 209:Generated_Source\PSoC6\pdl\drivers/peripheral/scb/cy_scb_spi.h **** * High-Z, which can cause unexpected behavior of the SPI Slave due to possible 
 210:Generated_Source\PSoC6\pdl\drivers/peripheral/scb/cy_scb_spi.h **** * glitches on these lines. These pins must be set to the inactive state before 
 211:Generated_Source\PSoC6\pdl\drivers/peripheral/scb/cy_scb_spi.h **** * entering Deep Sleep or Hibernate mode. To do that, configure the SPI master  
 212:Generated_Source\PSoC6\pdl\drivers/peripheral/scb/cy_scb_spi.h **** * pins output to drive the inactive state and High-Speed Input Output 
 213:Generated_Source\PSoC6\pdl\drivers/peripheral/scb/cy_scb_spi.h **** * Multiplexer (HSIOM) to control output by GPIO (use \ref group_gpio 
 214:Generated_Source\PSoC6\pdl\drivers/peripheral/scb/cy_scb_spi.h **** * driver API). The pins configuration must be restored after exiting Deep Sleep 
 215:Generated_Source\PSoC6\pdl\drivers/peripheral/scb/cy_scb_spi.h **** * mode to return the SPI master control of the pins (after exiting Hibernate 
 216:Generated_Source\PSoC6\pdl\drivers/peripheral/scb/cy_scb_spi.h **** * mode, the system init code does the same). 
 217:Generated_Source\PSoC6\pdl\drivers/peripheral/scb/cy_scb_spi.h **** * Note that the SPI master must be enabled to drive the pins during 
 218:Generated_Source\PSoC6\pdl\drivers/peripheral/scb/cy_scb_spi.h **** * configuration change not to cause glitches on the lines. Copy either or 
 219:Generated_Source\PSoC6\pdl\drivers/peripheral/scb/cy_scb_spi.h **** * both \ref Cy_SCB_SPI_DeepSleepCallback and \ref Cy_SCB_SPI_HibernateCallback 
 220:Generated_Source\PSoC6\pdl\drivers/peripheral/scb/cy_scb_spi.h **** * as appropriate, and make the changes described above inside the function.
 221:Generated_Source\PSoC6\pdl\drivers/peripheral/scb/cy_scb_spi.h **** * Alternately, external pull-up or pull-down resistors can be connected 
 222:Generated_Source\PSoC6\pdl\drivers/peripheral/scb/cy_scb_spi.h **** * to the appropriate SPI lines to keep them inactive during Deep-Sleep or 
 223:Generated_Source\PSoC6\pdl\drivers/peripheral/scb/cy_scb_spi.h **** * Hibernate.
 224:Generated_Source\PSoC6\pdl\drivers/peripheral/scb/cy_scb_spi.h **** *
 225:Generated_Source\PSoC6\pdl\drivers/peripheral/scb/cy_scb_spi.h **** * \note
 226:Generated_Source\PSoC6\pdl\drivers/peripheral/scb/cy_scb_spi.h **** * Only applicable for <b>rev-08 of the CY8CKIT-062-BLE</b>.
 227:Generated_Source\PSoC6\pdl\drivers/peripheral/scb/cy_scb_spi.h **** * For proper operation, when the SPI slave is configured to be a wakeup
ARM GAS  C:\Users\bryan.lee\AppData\Local\Temp\ccWKhefE.s 			page 17


 228:Generated_Source\PSoC6\pdl\drivers/peripheral/scb/cy_scb_spi.h **** * source from Deep Sleep mode, the \ref Cy_SCB_SPI_DeepSleepCallback must be
 229:Generated_Source\PSoC6\pdl\drivers/peripheral/scb/cy_scb_spi.h **** * copied and modified. Refer to the function description to get the details.
 230:Generated_Source\PSoC6\pdl\drivers/peripheral/scb/cy_scb_spi.h **** *
 231:Generated_Source\PSoC6\pdl\drivers/peripheral/scb/cy_scb_spi.h **** * \section group_scb_spi_more_information More Information
 232:Generated_Source\PSoC6\pdl\drivers/peripheral/scb/cy_scb_spi.h **** * For more information on the SCB peripheral, refer to the technical reference
 233:Generated_Source\PSoC6\pdl\drivers/peripheral/scb/cy_scb_spi.h **** * manual (TRM).
 234:Generated_Source\PSoC6\pdl\drivers/peripheral/scb/cy_scb_spi.h **** *
 235:Generated_Source\PSoC6\pdl\drivers/peripheral/scb/cy_scb_spi.h **** * \section group_scb_spi_MISRA MISRA-C Compliance
 236:Generated_Source\PSoC6\pdl\drivers/peripheral/scb/cy_scb_spi.h **** * <table class="doxtable">
 237:Generated_Source\PSoC6\pdl\drivers/peripheral/scb/cy_scb_spi.h **** *   <tr>
 238:Generated_Source\PSoC6\pdl\drivers/peripheral/scb/cy_scb_spi.h **** *     <th>MISRA Rule</th>
 239:Generated_Source\PSoC6\pdl\drivers/peripheral/scb/cy_scb_spi.h **** *     <th>Rule Class (Required/Advisory)</th>
 240:Generated_Source\PSoC6\pdl\drivers/peripheral/scb/cy_scb_spi.h **** *     <th>Rule Description</th>
 241:Generated_Source\PSoC6\pdl\drivers/peripheral/scb/cy_scb_spi.h **** *     <th>Description of Deviation(s)</th>
 242:Generated_Source\PSoC6\pdl\drivers/peripheral/scb/cy_scb_spi.h **** *   </tr>
 243:Generated_Source\PSoC6\pdl\drivers/peripheral/scb/cy_scb_spi.h **** *   <tr>
 244:Generated_Source\PSoC6\pdl\drivers/peripheral/scb/cy_scb_spi.h **** *     <td>11.4</td>
 245:Generated_Source\PSoC6\pdl\drivers/peripheral/scb/cy_scb_spi.h **** *     <td>A</td>
 246:Generated_Source\PSoC6\pdl\drivers/peripheral/scb/cy_scb_spi.h **** *     <td>A cast should not be performed between a pointer to object type and
 247:Generated_Source\PSoC6\pdl\drivers/peripheral/scb/cy_scb_spi.h **** *         a different pointer to object type.</td>
 248:Generated_Source\PSoC6\pdl\drivers/peripheral/scb/cy_scb_spi.h **** *     <td>
 249:Generated_Source\PSoC6\pdl\drivers/peripheral/scb/cy_scb_spi.h **** *         * The pointer to the buffer memory is void to allow handling
 250:Generated_Source\PSoC6\pdl\drivers/peripheral/scb/cy_scb_spi.h **** *         different data types: uint8_t (4-8 bits) or uint16_t (9-16 bits).
 251:Generated_Source\PSoC6\pdl\drivers/peripheral/scb/cy_scb_spi.h **** *         The cast operation is safe because the configuration is verified
 252:Generated_Source\PSoC6\pdl\drivers/peripheral/scb/cy_scb_spi.h **** *         before operation is performed.
 253:Generated_Source\PSoC6\pdl\drivers/peripheral/scb/cy_scb_spi.h **** *         * The functions \ref Cy_SCB_SPI_DeepSleepCallback and
 254:Generated_Source\PSoC6\pdl\drivers/peripheral/scb/cy_scb_spi.h **** *         \ref Cy_SCB_SPI_HibernateCallback are callback of
 255:Generated_Source\PSoC6\pdl\drivers/peripheral/scb/cy_scb_spi.h **** *         \ref cy_en_syspm_status_t type. The cast operation safety in these
 256:Generated_Source\PSoC6\pdl\drivers/peripheral/scb/cy_scb_spi.h **** *         functions becomes the user's responsibility because pointers are
 257:Generated_Source\PSoC6\pdl\drivers/peripheral/scb/cy_scb_spi.h **** *         initialized when callback is registered in SysPm driver.</td>
 258:Generated_Source\PSoC6\pdl\drivers/peripheral/scb/cy_scb_spi.h **** *   </tr>
 259:Generated_Source\PSoC6\pdl\drivers/peripheral/scb/cy_scb_spi.h **** *   <tr>
 260:Generated_Source\PSoC6\pdl\drivers/peripheral/scb/cy_scb_spi.h **** *     <td>13.7</td>
 261:Generated_Source\PSoC6\pdl\drivers/peripheral/scb/cy_scb_spi.h **** *     <td>R</td>
 262:Generated_Source\PSoC6\pdl\drivers/peripheral/scb/cy_scb_spi.h **** *     <td>Boolean operations whose results are invariant shall not be
 263:Generated_Source\PSoC6\pdl\drivers/peripheral/scb/cy_scb_spi.h **** *         permitted.</td>
 264:Generated_Source\PSoC6\pdl\drivers/peripheral/scb/cy_scb_spi.h **** *     <td>The SCB block parameters can be a constant false or true depends on
 265:Generated_Source\PSoC6\pdl\drivers/peripheral/scb/cy_scb_spi.h **** *         the selected device and cause this violation.</td>
 266:Generated_Source\PSoC6\pdl\drivers/peripheral/scb/cy_scb_spi.h **** *   </tr>
 267:Generated_Source\PSoC6\pdl\drivers/peripheral/scb/cy_scb_spi.h **** *   <tr>
 268:Generated_Source\PSoC6\pdl\drivers/peripheral/scb/cy_scb_spi.h **** *     <td>14.1</td>
 269:Generated_Source\PSoC6\pdl\drivers/peripheral/scb/cy_scb_spi.h **** *     <td>R</td>
 270:Generated_Source\PSoC6\pdl\drivers/peripheral/scb/cy_scb_spi.h **** *     <td>There shall be no unreachable code.</td>
 271:Generated_Source\PSoC6\pdl\drivers/peripheral/scb/cy_scb_spi.h **** *     <td>The SCB block parameters can be a constant false or true depends on
 272:Generated_Source\PSoC6\pdl\drivers/peripheral/scb/cy_scb_spi.h **** *         the selected device and cause code to be unreachable.</td>
 273:Generated_Source\PSoC6\pdl\drivers/peripheral/scb/cy_scb_spi.h **** *   </tr>
 274:Generated_Source\PSoC6\pdl\drivers/peripheral/scb/cy_scb_spi.h **** *   <tr>
 275:Generated_Source\PSoC6\pdl\drivers/peripheral/scb/cy_scb_spi.h **** *     <td>14.2</td>
 276:Generated_Source\PSoC6\pdl\drivers/peripheral/scb/cy_scb_spi.h **** *     <td>R</td>
 277:Generated_Source\PSoC6\pdl\drivers/peripheral/scb/cy_scb_spi.h **** *     <td>All non-null statements shall either: a) have at least one side-effect
 278:Generated_Source\PSoC6\pdl\drivers/peripheral/scb/cy_scb_spi.h **** *         however executed, or b) cause control flow to change.</td>
 279:Generated_Source\PSoC6\pdl\drivers/peripheral/scb/cy_scb_spi.h **** *     <td>The unused function parameters are cast to void. This statement
 280:Generated_Source\PSoC6\pdl\drivers/peripheral/scb/cy_scb_spi.h **** *         has no side-effect and is used to suppress a compiler warning.</td>
 281:Generated_Source\PSoC6\pdl\drivers/peripheral/scb/cy_scb_spi.h **** *   </tr>
 282:Generated_Source\PSoC6\pdl\drivers/peripheral/scb/cy_scb_spi.h **** *   <tr>
 283:Generated_Source\PSoC6\pdl\drivers/peripheral/scb/cy_scb_spi.h **** *     <td>14.7</td>
 284:Generated_Source\PSoC6\pdl\drivers/peripheral/scb/cy_scb_spi.h **** *     <td>R</td>
ARM GAS  C:\Users\bryan.lee\AppData\Local\Temp\ccWKhefE.s 			page 18


 285:Generated_Source\PSoC6\pdl\drivers/peripheral/scb/cy_scb_spi.h **** *     <td>A function shall have a single point of exit at the end of the
 286:Generated_Source\PSoC6\pdl\drivers/peripheral/scb/cy_scb_spi.h **** *         function.</td>
 287:Generated_Source\PSoC6\pdl\drivers/peripheral/scb/cy_scb_spi.h **** *     <td>The functions can return from several points. This is done to improve
 288:Generated_Source\PSoC6\pdl\drivers/peripheral/scb/cy_scb_spi.h **** *         code clarity when returning error status code if input parameters
 289:Generated_Source\PSoC6\pdl\drivers/peripheral/scb/cy_scb_spi.h **** *         validation is failed.</td>
 290:Generated_Source\PSoC6\pdl\drivers/peripheral/scb/cy_scb_spi.h **** *   </tr>
 291:Generated_Source\PSoC6\pdl\drivers/peripheral/scb/cy_scb_spi.h **** * </table>
 292:Generated_Source\PSoC6\pdl\drivers/peripheral/scb/cy_scb_spi.h **** *
 293:Generated_Source\PSoC6\pdl\drivers/peripheral/scb/cy_scb_spi.h **** * \section group_scb_spi_changelog Changelog
 294:Generated_Source\PSoC6\pdl\drivers/peripheral/scb/cy_scb_spi.h **** * <table class="doxtable">
 295:Generated_Source\PSoC6\pdl\drivers/peripheral/scb/cy_scb_spi.h **** *   <tr><th>Version</th><th>Changes</th><th>Reason for Change</th></tr>
 296:Generated_Source\PSoC6\pdl\drivers/peripheral/scb/cy_scb_spi.h **** *   <tr>
 297:Generated_Source\PSoC6\pdl\drivers/peripheral/scb/cy_scb_spi.h **** *     <td>2.10</td>
 298:Generated_Source\PSoC6\pdl\drivers/peripheral/scb/cy_scb_spi.h **** *     <td>None.</td>
 299:Generated_Source\PSoC6\pdl\drivers/peripheral/scb/cy_scb_spi.h **** *     <td>SCB I2C driver updated.</td>
 300:Generated_Source\PSoC6\pdl\drivers/peripheral/scb/cy_scb_spi.h **** *   </tr>
 301:Generated_Source\PSoC6\pdl\drivers/peripheral/scb/cy_scb_spi.h **** *   <tr>
 302:Generated_Source\PSoC6\pdl\drivers/peripheral/scb/cy_scb_spi.h **** *     <td rowspan="4"> 2.0</td>
 303:Generated_Source\PSoC6\pdl\drivers/peripheral/scb/cy_scb_spi.h **** *     <td>Fixed SPI callback notification when error event occurred.</td>
 304:Generated_Source\PSoC6\pdl\drivers/peripheral/scb/cy_scb_spi.h **** *     <td>The SPI callback passed incorrect event value if error event occurred.</td>
 305:Generated_Source\PSoC6\pdl\drivers/peripheral/scb/cy_scb_spi.h **** *   </tr>
 306:Generated_Source\PSoC6\pdl\drivers/peripheral/scb/cy_scb_spi.h **** *   <tr>
 307:Generated_Source\PSoC6\pdl\drivers/peripheral/scb/cy_scb_spi.h **** *     <td>Added parameters validation for public API.</td>
 308:Generated_Source\PSoC6\pdl\drivers/peripheral/scb/cy_scb_spi.h **** *     <td></td>
 309:Generated_Source\PSoC6\pdl\drivers/peripheral/scb/cy_scb_spi.h **** *   </tr>
 310:Generated_Source\PSoC6\pdl\drivers/peripheral/scb/cy_scb_spi.h **** *   <tr>
 311:Generated_Source\PSoC6\pdl\drivers/peripheral/scb/cy_scb_spi.h **** *     <td>Replaced variables that have limited range of values with enumerated
 312:Generated_Source\PSoC6\pdl\drivers/peripheral/scb/cy_scb_spi.h **** *         types.</td>
 313:Generated_Source\PSoC6\pdl\drivers/peripheral/scb/cy_scb_spi.h **** *     <td></td>
 314:Generated_Source\PSoC6\pdl\drivers/peripheral/scb/cy_scb_spi.h **** *   </tr>
 315:Generated_Source\PSoC6\pdl\drivers/peripheral/scb/cy_scb_spi.h **** *   <tr>
 316:Generated_Source\PSoC6\pdl\drivers/peripheral/scb/cy_scb_spi.h **** *     <td>Added missing "cy_cb_" to the callback function type names.</td>
 317:Generated_Source\PSoC6\pdl\drivers/peripheral/scb/cy_scb_spi.h **** *     <td></td>
 318:Generated_Source\PSoC6\pdl\drivers/peripheral/scb/cy_scb_spi.h **** *   </tr>
 319:Generated_Source\PSoC6\pdl\drivers/peripheral/scb/cy_scb_spi.h **** *   <tr>
 320:Generated_Source\PSoC6\pdl\drivers/peripheral/scb/cy_scb_spi.h **** *     <td>1.0</td>
 321:Generated_Source\PSoC6\pdl\drivers/peripheral/scb/cy_scb_spi.h **** *     <td>Initial version.</td>
 322:Generated_Source\PSoC6\pdl\drivers/peripheral/scb/cy_scb_spi.h **** *     <td></td>
 323:Generated_Source\PSoC6\pdl\drivers/peripheral/scb/cy_scb_spi.h **** *   </tr>
 324:Generated_Source\PSoC6\pdl\drivers/peripheral/scb/cy_scb_spi.h **** * </table>
 325:Generated_Source\PSoC6\pdl\drivers/peripheral/scb/cy_scb_spi.h **** *
 326:Generated_Source\PSoC6\pdl\drivers/peripheral/scb/cy_scb_spi.h **** * \defgroup group_scb_spi_macros Macros
 327:Generated_Source\PSoC6\pdl\drivers/peripheral/scb/cy_scb_spi.h **** * \defgroup group_scb_spi_functions Functions
 328:Generated_Source\PSoC6\pdl\drivers/peripheral/scb/cy_scb_spi.h **** * \{
 329:Generated_Source\PSoC6\pdl\drivers/peripheral/scb/cy_scb_spi.h **** * \defgroup group_scb_spi_general_functions General
 330:Generated_Source\PSoC6\pdl\drivers/peripheral/scb/cy_scb_spi.h **** * \defgroup group_scb_spi_high_level_functions High-Level
 331:Generated_Source\PSoC6\pdl\drivers/peripheral/scb/cy_scb_spi.h **** * \defgroup group_scb_spi_low_level_functions Low-Level
 332:Generated_Source\PSoC6\pdl\drivers/peripheral/scb/cy_scb_spi.h **** * \defgroup group_scb_spi_interrupt_functions Interrupt
 333:Generated_Source\PSoC6\pdl\drivers/peripheral/scb/cy_scb_spi.h **** * \defgroup group_scb_spi_low_power_functions Low Power Callbacks
 334:Generated_Source\PSoC6\pdl\drivers/peripheral/scb/cy_scb_spi.h **** * \}
 335:Generated_Source\PSoC6\pdl\drivers/peripheral/scb/cy_scb_spi.h **** * \defgroup group_scb_spi_data_structures Data Structures
 336:Generated_Source\PSoC6\pdl\drivers/peripheral/scb/cy_scb_spi.h **** * \defgroup group_scb_spi_enums Enumerated Types
 337:Generated_Source\PSoC6\pdl\drivers/peripheral/scb/cy_scb_spi.h **** */
 338:Generated_Source\PSoC6\pdl\drivers/peripheral/scb/cy_scb_spi.h **** 
 339:Generated_Source\PSoC6\pdl\drivers/peripheral/scb/cy_scb_spi.h **** #if !defined(CY_SCB_SPI_H)
 340:Generated_Source\PSoC6\pdl\drivers/peripheral/scb/cy_scb_spi.h **** #define CY_SCB_SPI_H
 341:Generated_Source\PSoC6\pdl\drivers/peripheral/scb/cy_scb_spi.h **** 
ARM GAS  C:\Users\bryan.lee\AppData\Local\Temp\ccWKhefE.s 			page 19


 342:Generated_Source\PSoC6\pdl\drivers/peripheral/scb/cy_scb_spi.h **** #include "cy_scb_common.h"
 343:Generated_Source\PSoC6\pdl\drivers/peripheral/scb/cy_scb_spi.h **** 
 344:Generated_Source\PSoC6\pdl\drivers/peripheral/scb/cy_scb_spi.h **** #if defined(__cplusplus)
 345:Generated_Source\PSoC6\pdl\drivers/peripheral/scb/cy_scb_spi.h **** extern "C" {
 346:Generated_Source\PSoC6\pdl\drivers/peripheral/scb/cy_scb_spi.h **** #endif
 347:Generated_Source\PSoC6\pdl\drivers/peripheral/scb/cy_scb_spi.h **** 
 348:Generated_Source\PSoC6\pdl\drivers/peripheral/scb/cy_scb_spi.h **** /***************************************
 349:Generated_Source\PSoC6\pdl\drivers/peripheral/scb/cy_scb_spi.h **** *          Enumerated Types
 350:Generated_Source\PSoC6\pdl\drivers/peripheral/scb/cy_scb_spi.h **** ***************************************/
 351:Generated_Source\PSoC6\pdl\drivers/peripheral/scb/cy_scb_spi.h **** 
 352:Generated_Source\PSoC6\pdl\drivers/peripheral/scb/cy_scb_spi.h **** /**
 353:Generated_Source\PSoC6\pdl\drivers/peripheral/scb/cy_scb_spi.h **** * \addtogroup group_scb_spi_enums
 354:Generated_Source\PSoC6\pdl\drivers/peripheral/scb/cy_scb_spi.h **** * \{
 355:Generated_Source\PSoC6\pdl\drivers/peripheral/scb/cy_scb_spi.h **** */
 356:Generated_Source\PSoC6\pdl\drivers/peripheral/scb/cy_scb_spi.h **** 
 357:Generated_Source\PSoC6\pdl\drivers/peripheral/scb/cy_scb_spi.h **** /** SPI status codes */
 358:Generated_Source\PSoC6\pdl\drivers/peripheral/scb/cy_scb_spi.h **** typedef enum
 359:Generated_Source\PSoC6\pdl\drivers/peripheral/scb/cy_scb_spi.h **** {
 360:Generated_Source\PSoC6\pdl\drivers/peripheral/scb/cy_scb_spi.h ****     /** Operation completed successfully */
 361:Generated_Source\PSoC6\pdl\drivers/peripheral/scb/cy_scb_spi.h ****     CY_SCB_SPI_SUCCESS = 0U,
 362:Generated_Source\PSoC6\pdl\drivers/peripheral/scb/cy_scb_spi.h **** 
 363:Generated_Source\PSoC6\pdl\drivers/peripheral/scb/cy_scb_spi.h ****     /** One or more of input parameters are invalid */
 364:Generated_Source\PSoC6\pdl\drivers/peripheral/scb/cy_scb_spi.h ****     CY_SCB_SPI_BAD_PARAM = (CY_SCB_ID | CY_PDL_STATUS_ERROR | CY_SCB_SPI_ID | 1U),
 365:Generated_Source\PSoC6\pdl\drivers/peripheral/scb/cy_scb_spi.h **** 
 366:Generated_Source\PSoC6\pdl\drivers/peripheral/scb/cy_scb_spi.h ****     /**
 367:Generated_Source\PSoC6\pdl\drivers/peripheral/scb/cy_scb_spi.h ****     * The SPI is busy processing a transfer. Call \ref Cy_SCB_SPI_Transfer
 368:Generated_Source\PSoC6\pdl\drivers/peripheral/scb/cy_scb_spi.h ****     * function again once that transfer is completed or aborted.
 369:Generated_Source\PSoC6\pdl\drivers/peripheral/scb/cy_scb_spi.h ****     */
 370:Generated_Source\PSoC6\pdl\drivers/peripheral/scb/cy_scb_spi.h ****     CY_SCB_SPI_TRANSFER_BUSY = (CY_SCB_ID | CY_PDL_STATUS_ERROR | CY_SCB_SPI_ID | 2U)
 371:Generated_Source\PSoC6\pdl\drivers/peripheral/scb/cy_scb_spi.h **** } cy_en_scb_spi_status_t;
 372:Generated_Source\PSoC6\pdl\drivers/peripheral/scb/cy_scb_spi.h **** 
 373:Generated_Source\PSoC6\pdl\drivers/peripheral/scb/cy_scb_spi.h **** /** SPI Modes */
 374:Generated_Source\PSoC6\pdl\drivers/peripheral/scb/cy_scb_spi.h **** typedef enum
 375:Generated_Source\PSoC6\pdl\drivers/peripheral/scb/cy_scb_spi.h **** {
 376:Generated_Source\PSoC6\pdl\drivers/peripheral/scb/cy_scb_spi.h ****     CY_SCB_SPI_SLAVE,   /**< Configures SCB for SPI Slave operation  */
 377:Generated_Source\PSoC6\pdl\drivers/peripheral/scb/cy_scb_spi.h ****     CY_SCB_SPI_MASTER,  /**< Configures SCB for SPI Master operation */
 378:Generated_Source\PSoC6\pdl\drivers/peripheral/scb/cy_scb_spi.h **** } cy_en_scb_spi_mode_t;
 379:Generated_Source\PSoC6\pdl\drivers/peripheral/scb/cy_scb_spi.h **** 
 380:Generated_Source\PSoC6\pdl\drivers/peripheral/scb/cy_scb_spi.h **** /** SPI Submodes */
 381:Generated_Source\PSoC6\pdl\drivers/peripheral/scb/cy_scb_spi.h **** typedef enum
 382:Generated_Source\PSoC6\pdl\drivers/peripheral/scb/cy_scb_spi.h **** {
 383:Generated_Source\PSoC6\pdl\drivers/peripheral/scb/cy_scb_spi.h ****     /** Configures an SPI for a standard Motorola SPI operation */
 384:Generated_Source\PSoC6\pdl\drivers/peripheral/scb/cy_scb_spi.h ****     CY_SCB_SPI_MOTOROLA     = 0x0U,
 385:Generated_Source\PSoC6\pdl\drivers/peripheral/scb/cy_scb_spi.h **** 
 386:Generated_Source\PSoC6\pdl\drivers/peripheral/scb/cy_scb_spi.h ****     /**
 387:Generated_Source\PSoC6\pdl\drivers/peripheral/scb/cy_scb_spi.h ****     * Configures the SPI for the TI SPI operation. In the TI mode, the slave
 388:Generated_Source\PSoC6\pdl\drivers/peripheral/scb/cy_scb_spi.h ****     * select is a pulse. In this case, the pulse coincides with the first bit.
 389:Generated_Source\PSoC6\pdl\drivers/peripheral/scb/cy_scb_spi.h ****     */
 390:Generated_Source\PSoC6\pdl\drivers/peripheral/scb/cy_scb_spi.h ****     CY_SCB_SPI_TI_COINCIDES = 0x01U,
 391:Generated_Source\PSoC6\pdl\drivers/peripheral/scb/cy_scb_spi.h **** 
 392:Generated_Source\PSoC6\pdl\drivers/peripheral/scb/cy_scb_spi.h ****     /**
 393:Generated_Source\PSoC6\pdl\drivers/peripheral/scb/cy_scb_spi.h ****     * Configures an SPI for the National SPI operation. This is a half-duplex
 394:Generated_Source\PSoC6\pdl\drivers/peripheral/scb/cy_scb_spi.h ****     * mode of operation.
 395:Generated_Source\PSoC6\pdl\drivers/peripheral/scb/cy_scb_spi.h ****     */
 396:Generated_Source\PSoC6\pdl\drivers/peripheral/scb/cy_scb_spi.h ****     CY_SCB_SPI_NATIONAL     = 0x02U,
 397:Generated_Source\PSoC6\pdl\drivers/peripheral/scb/cy_scb_spi.h **** 
 398:Generated_Source\PSoC6\pdl\drivers/peripheral/scb/cy_scb_spi.h ****     /**
ARM GAS  C:\Users\bryan.lee\AppData\Local\Temp\ccWKhefE.s 			page 20


 399:Generated_Source\PSoC6\pdl\drivers/peripheral/scb/cy_scb_spi.h ****     * Configures an SPI for the TI SPI operation, in the TI mode. The slave
 400:Generated_Source\PSoC6\pdl\drivers/peripheral/scb/cy_scb_spi.h ****     * select is a pulse. In this case the pulse precedes the first bit.
 401:Generated_Source\PSoC6\pdl\drivers/peripheral/scb/cy_scb_spi.h ****     */
 402:Generated_Source\PSoC6\pdl\drivers/peripheral/scb/cy_scb_spi.h ****     CY_SCB_SPI_TI_PRECEDES  = 0x05U,
 403:Generated_Source\PSoC6\pdl\drivers/peripheral/scb/cy_scb_spi.h **** } cy_en_scb_spi_sub_mode_t;
 404:Generated_Source\PSoC6\pdl\drivers/peripheral/scb/cy_scb_spi.h **** 
 405:Generated_Source\PSoC6\pdl\drivers/peripheral/scb/cy_scb_spi.h **** /** SPI SCLK Modes */
 406:Generated_Source\PSoC6\pdl\drivers/peripheral/scb/cy_scb_spi.h **** typedef enum
 407:Generated_Source\PSoC6\pdl\drivers/peripheral/scb/cy_scb_spi.h **** {
 408:Generated_Source\PSoC6\pdl\drivers/peripheral/scb/cy_scb_spi.h ****     CY_SCB_SPI_CPHA0_CPOL0 = 0U,   /**< Clock is active low, data is changed on first edge   */
 409:Generated_Source\PSoC6\pdl\drivers/peripheral/scb/cy_scb_spi.h ****     CY_SCB_SPI_CPHA0_CPOL1 = 1U,   /**< Clock is active high, data is changed on first edge  */
 410:Generated_Source\PSoC6\pdl\drivers/peripheral/scb/cy_scb_spi.h ****     CY_SCB_SPI_CPHA1_CPOL0 = 2U,   /**< Clock is active low, data is changed on second edge  */
 411:Generated_Source\PSoC6\pdl\drivers/peripheral/scb/cy_scb_spi.h ****     CY_SCB_SPI_CPHA1_CPOL1 = 3U,   /**< Clock is active high, data is changed on second edge */
 412:Generated_Source\PSoC6\pdl\drivers/peripheral/scb/cy_scb_spi.h **** } cy_en_scb_spi_sclk_mode_t;
 413:Generated_Source\PSoC6\pdl\drivers/peripheral/scb/cy_scb_spi.h **** 
 414:Generated_Source\PSoC6\pdl\drivers/peripheral/scb/cy_scb_spi.h **** /** SPI Slave Selects */
 415:Generated_Source\PSoC6\pdl\drivers/peripheral/scb/cy_scb_spi.h **** typedef enum
 416:Generated_Source\PSoC6\pdl\drivers/peripheral/scb/cy_scb_spi.h **** {
 417:Generated_Source\PSoC6\pdl\drivers/peripheral/scb/cy_scb_spi.h ****     CY_SCB_SPI_SLAVE_SELECT0 = 0U,   /**< Master will use Slave Select 0 */
 418:Generated_Source\PSoC6\pdl\drivers/peripheral/scb/cy_scb_spi.h ****     CY_SCB_SPI_SLAVE_SELECT1 = 1U,   /**< Master will use Slave Select 1 */
 419:Generated_Source\PSoC6\pdl\drivers/peripheral/scb/cy_scb_spi.h ****     CY_SCB_SPI_SLAVE_SELECT2 = 2U,   /**< Master will use Slave Select 2 */
 420:Generated_Source\PSoC6\pdl\drivers/peripheral/scb/cy_scb_spi.h ****     CY_SCB_SPI_SLAVE_SELECT3 = 3U,   /**< Master will use Slave Select 3 */
 421:Generated_Source\PSoC6\pdl\drivers/peripheral/scb/cy_scb_spi.h **** } cy_en_scb_spi_slave_select_t;
 422:Generated_Source\PSoC6\pdl\drivers/peripheral/scb/cy_scb_spi.h **** 
 423:Generated_Source\PSoC6\pdl\drivers/peripheral/scb/cy_scb_spi.h **** /** SPI Polarity */
 424:Generated_Source\PSoC6\pdl\drivers/peripheral/scb/cy_scb_spi.h **** typedef enum
 425:Generated_Source\PSoC6\pdl\drivers/peripheral/scb/cy_scb_spi.h **** {
 426:Generated_Source\PSoC6\pdl\drivers/peripheral/scb/cy_scb_spi.h ****     CY_SCB_SPI_ACTIVE_LOW  = 0U,    /**< Signal in question is active low */
 427:Generated_Source\PSoC6\pdl\drivers/peripheral/scb/cy_scb_spi.h ****     CY_SCB_SPI_ACTIVE_HIGH = 1U,    /**< Signal in question is active high */
 428:Generated_Source\PSoC6\pdl\drivers/peripheral/scb/cy_scb_spi.h **** } cy_en_scb_spi_polarity_t;
 429:Generated_Source\PSoC6\pdl\drivers/peripheral/scb/cy_scb_spi.h **** 
 430:Generated_Source\PSoC6\pdl\drivers/peripheral/scb/cy_scb_spi.h **** /** \} group_scb_spi_enums */
 431:Generated_Source\PSoC6\pdl\drivers/peripheral/scb/cy_scb_spi.h **** 
 432:Generated_Source\PSoC6\pdl\drivers/peripheral/scb/cy_scb_spi.h **** 
 433:Generated_Source\PSoC6\pdl\drivers/peripheral/scb/cy_scb_spi.h **** /***************************************
 434:Generated_Source\PSoC6\pdl\drivers/peripheral/scb/cy_scb_spi.h **** *       Type Definitions
 435:Generated_Source\PSoC6\pdl\drivers/peripheral/scb/cy_scb_spi.h **** ***************************************/
 436:Generated_Source\PSoC6\pdl\drivers/peripheral/scb/cy_scb_spi.h **** 
 437:Generated_Source\PSoC6\pdl\drivers/peripheral/scb/cy_scb_spi.h **** /**
 438:Generated_Source\PSoC6\pdl\drivers/peripheral/scb/cy_scb_spi.h **** * \addtogroup group_scb_spi_data_structures
 439:Generated_Source\PSoC6\pdl\drivers/peripheral/scb/cy_scb_spi.h **** * \{
 440:Generated_Source\PSoC6\pdl\drivers/peripheral/scb/cy_scb_spi.h **** */
 441:Generated_Source\PSoC6\pdl\drivers/peripheral/scb/cy_scb_spi.h **** 
 442:Generated_Source\PSoC6\pdl\drivers/peripheral/scb/cy_scb_spi.h **** /**
 443:Generated_Source\PSoC6\pdl\drivers/peripheral/scb/cy_scb_spi.h **** * Provides the typedef for the callback function called in the
 444:Generated_Source\PSoC6\pdl\drivers/peripheral/scb/cy_scb_spi.h **** * \ref Cy_SCB_SPI_Interrupt to notify the user about occurrences of
 445:Generated_Source\PSoC6\pdl\drivers/peripheral/scb/cy_scb_spi.h **** * \ref group_scb_spi_macros_callback_events.
 446:Generated_Source\PSoC6\pdl\drivers/peripheral/scb/cy_scb_spi.h **** */
 447:Generated_Source\PSoC6\pdl\drivers/peripheral/scb/cy_scb_spi.h **** typedef void (* cy_cb_scb_spi_handle_events_t)(uint32_t event);
 448:Generated_Source\PSoC6\pdl\drivers/peripheral/scb/cy_scb_spi.h **** 
 449:Generated_Source\PSoC6\pdl\drivers/peripheral/scb/cy_scb_spi.h **** 
 450:Generated_Source\PSoC6\pdl\drivers/peripheral/scb/cy_scb_spi.h **** /** SPI configuration structure */
 451:Generated_Source\PSoC6\pdl\drivers/peripheral/scb/cy_scb_spi.h **** typedef struct cy_stc_scb_spi_config
 452:Generated_Source\PSoC6\pdl\drivers/peripheral/scb/cy_scb_spi.h **** {
 453:Generated_Source\PSoC6\pdl\drivers/peripheral/scb/cy_scb_spi.h ****     /** Specifies the mode of operation */
 454:Generated_Source\PSoC6\pdl\drivers/peripheral/scb/cy_scb_spi.h ****     cy_en_scb_spi_mode_t    spiMode;
 455:Generated_Source\PSoC6\pdl\drivers/peripheral/scb/cy_scb_spi.h **** 
ARM GAS  C:\Users\bryan.lee\AppData\Local\Temp\ccWKhefE.s 			page 21


 456:Generated_Source\PSoC6\pdl\drivers/peripheral/scb/cy_scb_spi.h ****     /** Specifies the submode of SPI operation */
 457:Generated_Source\PSoC6\pdl\drivers/peripheral/scb/cy_scb_spi.h ****     cy_en_scb_spi_sub_mode_t    subMode;
 458:Generated_Source\PSoC6\pdl\drivers/peripheral/scb/cy_scb_spi.h **** 
 459:Generated_Source\PSoC6\pdl\drivers/peripheral/scb/cy_scb_spi.h ****     /**
 460:Generated_Source\PSoC6\pdl\drivers/peripheral/scb/cy_scb_spi.h ****     * Configures the SCLK operation for Motorola sub-mode, ignored for all
 461:Generated_Source\PSoC6\pdl\drivers/peripheral/scb/cy_scb_spi.h ****     * other submodes
 462:Generated_Source\PSoC6\pdl\drivers/peripheral/scb/cy_scb_spi.h ****     */
 463:Generated_Source\PSoC6\pdl\drivers/peripheral/scb/cy_scb_spi.h ****     cy_en_scb_spi_sclk_mode_t    sclkMode;
 464:Generated_Source\PSoC6\pdl\drivers/peripheral/scb/cy_scb_spi.h **** 
 465:Generated_Source\PSoC6\pdl\drivers/peripheral/scb/cy_scb_spi.h ****     /**
 466:Generated_Source\PSoC6\pdl\drivers/peripheral/scb/cy_scb_spi.h ****     * Oversample factor for SPI.
 467:Generated_Source\PSoC6\pdl\drivers/peripheral/scb/cy_scb_spi.h ****     * * For the master mode, the data rate is the SCB clock / oversample
 468:Generated_Source\PSoC6\pdl\drivers/peripheral/scb/cy_scb_spi.h ****     *   (valid range is 4-16).
 469:Generated_Source\PSoC6\pdl\drivers/peripheral/scb/cy_scb_spi.h ****     * * For the slave mode, the oversample value is ignored. The data rate is
 470:Generated_Source\PSoC6\pdl\drivers/peripheral/scb/cy_scb_spi.h ****     *   determined by the SCB clock frequency. See the device datasheet for
 471:Generated_Source\PSoC6\pdl\drivers/peripheral/scb/cy_scb_spi.h ****     *   more details.
 472:Generated_Source\PSoC6\pdl\drivers/peripheral/scb/cy_scb_spi.h ****     */
 473:Generated_Source\PSoC6\pdl\drivers/peripheral/scb/cy_scb_spi.h ****     uint32_t    oversample;
 474:Generated_Source\PSoC6\pdl\drivers/peripheral/scb/cy_scb_spi.h **** 
 475:Generated_Source\PSoC6\pdl\drivers/peripheral/scb/cy_scb_spi.h ****     /**
 476:Generated_Source\PSoC6\pdl\drivers/peripheral/scb/cy_scb_spi.h ****     * The width of RX data (valid range 4-16). It must be the same as
 477:Generated_Source\PSoC6\pdl\drivers/peripheral/scb/cy_scb_spi.h ****     * \ref txDataWidth except in National sub-mode.
 478:Generated_Source\PSoC6\pdl\drivers/peripheral/scb/cy_scb_spi.h ****     */
 479:Generated_Source\PSoC6\pdl\drivers/peripheral/scb/cy_scb_spi.h ****     uint32_t    rxDataWidth;
 480:Generated_Source\PSoC6\pdl\drivers/peripheral/scb/cy_scb_spi.h **** 
 481:Generated_Source\PSoC6\pdl\drivers/peripheral/scb/cy_scb_spi.h ****     /**
 482:Generated_Source\PSoC6\pdl\drivers/peripheral/scb/cy_scb_spi.h ****     * The width of TX data (valid range 4-16). It must be the same as
 483:Generated_Source\PSoC6\pdl\drivers/peripheral/scb/cy_scb_spi.h ****     * \ref rxDataWidth except in National sub-mode.
 484:Generated_Source\PSoC6\pdl\drivers/peripheral/scb/cy_scb_spi.h ****     */
 485:Generated_Source\PSoC6\pdl\drivers/peripheral/scb/cy_scb_spi.h ****     uint32_t    txDataWidth;
 486:Generated_Source\PSoC6\pdl\drivers/peripheral/scb/cy_scb_spi.h **** 
 487:Generated_Source\PSoC6\pdl\drivers/peripheral/scb/cy_scb_spi.h ****     /**
 488:Generated_Source\PSoC6\pdl\drivers/peripheral/scb/cy_scb_spi.h ****     * Enables the hardware to shift out the data element MSB first, otherwise,
 489:Generated_Source\PSoC6\pdl\drivers/peripheral/scb/cy_scb_spi.h ****     * LSB first
 490:Generated_Source\PSoC6\pdl\drivers/peripheral/scb/cy_scb_spi.h ****     */
 491:Generated_Source\PSoC6\pdl\drivers/peripheral/scb/cy_scb_spi.h ****     bool        enableMsbFirst;
 492:Generated_Source\PSoC6\pdl\drivers/peripheral/scb/cy_scb_spi.h **** 
 493:Generated_Source\PSoC6\pdl\drivers/peripheral/scb/cy_scb_spi.h ****     /**
 494:Generated_Source\PSoC6\pdl\drivers/peripheral/scb/cy_scb_spi.h ****     * Enables the master to generate a continuous SCLK regardless of whether
 495:Generated_Source\PSoC6\pdl\drivers/peripheral/scb/cy_scb_spi.h ****     * there is data to send
 496:Generated_Source\PSoC6\pdl\drivers/peripheral/scb/cy_scb_spi.h ****     */
 497:Generated_Source\PSoC6\pdl\drivers/peripheral/scb/cy_scb_spi.h ****     bool        enableFreeRunSclk;
 498:Generated_Source\PSoC6\pdl\drivers/peripheral/scb/cy_scb_spi.h **** 
 499:Generated_Source\PSoC6\pdl\drivers/peripheral/scb/cy_scb_spi.h ****     /**
 500:Generated_Source\PSoC6\pdl\drivers/peripheral/scb/cy_scb_spi.h ****     * Enables a digital 3-tap median filter to be applied to the input
 501:Generated_Source\PSoC6\pdl\drivers/peripheral/scb/cy_scb_spi.h ****     * of the RX FIFO to filter glitches on the line.
 502:Generated_Source\PSoC6\pdl\drivers/peripheral/scb/cy_scb_spi.h ****     */
 503:Generated_Source\PSoC6\pdl\drivers/peripheral/scb/cy_scb_spi.h ****     bool        enableInputFilter;
 504:Generated_Source\PSoC6\pdl\drivers/peripheral/scb/cy_scb_spi.h **** 
 505:Generated_Source\PSoC6\pdl\drivers/peripheral/scb/cy_scb_spi.h ****     /**
 506:Generated_Source\PSoC6\pdl\drivers/peripheral/scb/cy_scb_spi.h ****     * Enables the master to sample MISO line one half clock later to allow
 507:Generated_Source\PSoC6\pdl\drivers/peripheral/scb/cy_scb_spi.h ****     * better timings.
 508:Generated_Source\PSoC6\pdl\drivers/peripheral/scb/cy_scb_spi.h ****     */
 509:Generated_Source\PSoC6\pdl\drivers/peripheral/scb/cy_scb_spi.h ****     bool        enableMisoLateSample;
 510:Generated_Source\PSoC6\pdl\drivers/peripheral/scb/cy_scb_spi.h **** 
 511:Generated_Source\PSoC6\pdl\drivers/peripheral/scb/cy_scb_spi.h ****     /**
 512:Generated_Source\PSoC6\pdl\drivers/peripheral/scb/cy_scb_spi.h ****     * Enables the master to transmit each data element separated by a
ARM GAS  C:\Users\bryan.lee\AppData\Local\Temp\ccWKhefE.s 			page 22


 513:Generated_Source\PSoC6\pdl\drivers/peripheral/scb/cy_scb_spi.h ****     * de-assertion of the slave select line (only applicable for the master
 514:Generated_Source\PSoC6\pdl\drivers/peripheral/scb/cy_scb_spi.h ****     * mode)
 515:Generated_Source\PSoC6\pdl\drivers/peripheral/scb/cy_scb_spi.h ****     */
 516:Generated_Source\PSoC6\pdl\drivers/peripheral/scb/cy_scb_spi.h ****     bool        enableTransferSeperation;
 517:Generated_Source\PSoC6\pdl\drivers/peripheral/scb/cy_scb_spi.h **** 
 518:Generated_Source\PSoC6\pdl\drivers/peripheral/scb/cy_scb_spi.h ****     /**
 519:Generated_Source\PSoC6\pdl\drivers/peripheral/scb/cy_scb_spi.h ****     * Sets active polarity of each SS line.
 520:Generated_Source\PSoC6\pdl\drivers/peripheral/scb/cy_scb_spi.h ****     * This is a bit mask: bit 0 corresponds to SS0 and so on to SS3.
 521:Generated_Source\PSoC6\pdl\drivers/peripheral/scb/cy_scb_spi.h ****     * 1 means active high, a 0 means active low.
 522:Generated_Source\PSoC6\pdl\drivers/peripheral/scb/cy_scb_spi.h ****     */
 523:Generated_Source\PSoC6\pdl\drivers/peripheral/scb/cy_scb_spi.h ****     uint32_t    ssPolarity;
 524:Generated_Source\PSoC6\pdl\drivers/peripheral/scb/cy_scb_spi.h **** 
 525:Generated_Source\PSoC6\pdl\drivers/peripheral/scb/cy_scb_spi.h ****     /**
 526:Generated_Source\PSoC6\pdl\drivers/peripheral/scb/cy_scb_spi.h ****     * When set, the slave will wake the device when the slave select line
 527:Generated_Source\PSoC6\pdl\drivers/peripheral/scb/cy_scb_spi.h ****     * becomes active.
 528:Generated_Source\PSoC6\pdl\drivers/peripheral/scb/cy_scb_spi.h ****     * Note that not all SCBs support this mode. Consult the device
 529:Generated_Source\PSoC6\pdl\drivers/peripheral/scb/cy_scb_spi.h ****     * datasheet to determine which SCBs support wake from Deep Sleep.
 530:Generated_Source\PSoC6\pdl\drivers/peripheral/scb/cy_scb_spi.h ****     */
 531:Generated_Source\PSoC6\pdl\drivers/peripheral/scb/cy_scb_spi.h ****     bool        enableWakeFromSleep;
 532:Generated_Source\PSoC6\pdl\drivers/peripheral/scb/cy_scb_spi.h **** 
 533:Generated_Source\PSoC6\pdl\drivers/peripheral/scb/cy_scb_spi.h ****     /**
 534:Generated_Source\PSoC6\pdl\drivers/peripheral/scb/cy_scb_spi.h ****     * When there are more entries in the RX FIFO, then at this level
 535:Generated_Source\PSoC6\pdl\drivers/peripheral/scb/cy_scb_spi.h ****     * the RX trigger output goes high. This output can be connected
 536:Generated_Source\PSoC6\pdl\drivers/peripheral/scb/cy_scb_spi.h ****     * to a DMA channel through a trigger mux.
 537:Generated_Source\PSoC6\pdl\drivers/peripheral/scb/cy_scb_spi.h ****     * Also, it controls the \ref CY_SCB_SPI_RX_TRIGGER interrupt source.
 538:Generated_Source\PSoC6\pdl\drivers/peripheral/scb/cy_scb_spi.h ****     */
 539:Generated_Source\PSoC6\pdl\drivers/peripheral/scb/cy_scb_spi.h ****     uint32_t    rxFifoTriggerLevel;
 540:Generated_Source\PSoC6\pdl\drivers/peripheral/scb/cy_scb_spi.h **** 
 541:Generated_Source\PSoC6\pdl\drivers/peripheral/scb/cy_scb_spi.h ****     /**
 542:Generated_Source\PSoC6\pdl\drivers/peripheral/scb/cy_scb_spi.h ****     * Bits set in this mask will allow events to cause an interrupt
 543:Generated_Source\PSoC6\pdl\drivers/peripheral/scb/cy_scb_spi.h ****     * (See \ref group_scb_spi_macros_rx_fifo_status for the set of constant)
 544:Generated_Source\PSoC6\pdl\drivers/peripheral/scb/cy_scb_spi.h ****     */
 545:Generated_Source\PSoC6\pdl\drivers/peripheral/scb/cy_scb_spi.h ****     uint32_t    rxFifoIntEnableMask;
 546:Generated_Source\PSoC6\pdl\drivers/peripheral/scb/cy_scb_spi.h **** 
 547:Generated_Source\PSoC6\pdl\drivers/peripheral/scb/cy_scb_spi.h ****     /**
 548:Generated_Source\PSoC6\pdl\drivers/peripheral/scb/cy_scb_spi.h ****     * When there are fewer entries in the TX FIFO, then at this level
 549:Generated_Source\PSoC6\pdl\drivers/peripheral/scb/cy_scb_spi.h ****     * the TX trigger output goes high. This output can be connected
 550:Generated_Source\PSoC6\pdl\drivers/peripheral/scb/cy_scb_spi.h ****     * to a DMA channel through a trigger mux.
 551:Generated_Source\PSoC6\pdl\drivers/peripheral/scb/cy_scb_spi.h ****     * Also, it controls the \ref CY_SCB_SPI_TX_TRIGGER interrupt source.
 552:Generated_Source\PSoC6\pdl\drivers/peripheral/scb/cy_scb_spi.h ****     */
 553:Generated_Source\PSoC6\pdl\drivers/peripheral/scb/cy_scb_spi.h ****     uint32_t    txFifoTriggerLevel;
 554:Generated_Source\PSoC6\pdl\drivers/peripheral/scb/cy_scb_spi.h **** 
 555:Generated_Source\PSoC6\pdl\drivers/peripheral/scb/cy_scb_spi.h ****     /**
 556:Generated_Source\PSoC6\pdl\drivers/peripheral/scb/cy_scb_spi.h ****     * Bits set in this mask allow events to cause an interrupt
 557:Generated_Source\PSoC6\pdl\drivers/peripheral/scb/cy_scb_spi.h ****     * (See \ref group_scb_spi_macros_tx_fifo_status for the set of constants)
 558:Generated_Source\PSoC6\pdl\drivers/peripheral/scb/cy_scb_spi.h ****     */
 559:Generated_Source\PSoC6\pdl\drivers/peripheral/scb/cy_scb_spi.h ****     uint32_t    txFifoIntEnableMask;
 560:Generated_Source\PSoC6\pdl\drivers/peripheral/scb/cy_scb_spi.h **** 
 561:Generated_Source\PSoC6\pdl\drivers/peripheral/scb/cy_scb_spi.h ****     /**
 562:Generated_Source\PSoC6\pdl\drivers/peripheral/scb/cy_scb_spi.h ****     * Bits set in this mask allow events to cause an interrupt
 563:Generated_Source\PSoC6\pdl\drivers/peripheral/scb/cy_scb_spi.h ****     * (See \ref group_scb_spi_macros_master_slave_status for the set of
 564:Generated_Source\PSoC6\pdl\drivers/peripheral/scb/cy_scb_spi.h ****     * constants)
 565:Generated_Source\PSoC6\pdl\drivers/peripheral/scb/cy_scb_spi.h ****     */
 566:Generated_Source\PSoC6\pdl\drivers/peripheral/scb/cy_scb_spi.h ****     uint32_t    masterSlaveIntEnableMask;
 567:Generated_Source\PSoC6\pdl\drivers/peripheral/scb/cy_scb_spi.h **** 
 568:Generated_Source\PSoC6\pdl\drivers/peripheral/scb/cy_scb_spi.h **** }cy_stc_scb_spi_config_t;
 569:Generated_Source\PSoC6\pdl\drivers/peripheral/scb/cy_scb_spi.h **** 
ARM GAS  C:\Users\bryan.lee\AppData\Local\Temp\ccWKhefE.s 			page 23


 570:Generated_Source\PSoC6\pdl\drivers/peripheral/scb/cy_scb_spi.h **** /** SPI context structure.
 571:Generated_Source\PSoC6\pdl\drivers/peripheral/scb/cy_scb_spi.h **** * All fields for the context structure are internal. Firmware never reads or
 572:Generated_Source\PSoC6\pdl\drivers/peripheral/scb/cy_scb_spi.h **** * writes these values. Firmware allocates the structure and provides the
 573:Generated_Source\PSoC6\pdl\drivers/peripheral/scb/cy_scb_spi.h **** * address of the structure to the driver in function calls. Firmware must
 574:Generated_Source\PSoC6\pdl\drivers/peripheral/scb/cy_scb_spi.h **** * ensure that the defined instance of this structure remains in scope
 575:Generated_Source\PSoC6\pdl\drivers/peripheral/scb/cy_scb_spi.h **** * while the drive is in use.
 576:Generated_Source\PSoC6\pdl\drivers/peripheral/scb/cy_scb_spi.h **** */
 577:Generated_Source\PSoC6\pdl\drivers/peripheral/scb/cy_scb_spi.h **** typedef struct cy_stc_scb_spi_context
 578:Generated_Source\PSoC6\pdl\drivers/peripheral/scb/cy_scb_spi.h **** {
 579:Generated_Source\PSoC6\pdl\drivers/peripheral/scb/cy_scb_spi.h ****     /** \cond INTERNAL */
 580:Generated_Source\PSoC6\pdl\drivers/peripheral/scb/cy_scb_spi.h ****     uint32_t volatile status;       /**< The receive status */
 581:Generated_Source\PSoC6\pdl\drivers/peripheral/scb/cy_scb_spi.h **** 
 582:Generated_Source\PSoC6\pdl\drivers/peripheral/scb/cy_scb_spi.h ****     void    *rxBuf;                 /**< The pointer to the receive buffer */
 583:Generated_Source\PSoC6\pdl\drivers/peripheral/scb/cy_scb_spi.h ****     uint32_t rxBufSize;             /**< The receive buffer size */
 584:Generated_Source\PSoC6\pdl\drivers/peripheral/scb/cy_scb_spi.h ****     uint32_t volatile rxBufIdx;     /**< The current location in the receive buffer */
 585:Generated_Source\PSoC6\pdl\drivers/peripheral/scb/cy_scb_spi.h **** 
 586:Generated_Source\PSoC6\pdl\drivers/peripheral/scb/cy_scb_spi.h ****     void    *txBuf;                 /**< The pointer to the transmit buffer */
 587:Generated_Source\PSoC6\pdl\drivers/peripheral/scb/cy_scb_spi.h ****     uint32_t txBufSize;             /**< The transmit buffer size */
 588:Generated_Source\PSoC6\pdl\drivers/peripheral/scb/cy_scb_spi.h ****     uint32_t volatile txBufIdx;     /**< The current location in the transmit buffer */
 589:Generated_Source\PSoC6\pdl\drivers/peripheral/scb/cy_scb_spi.h **** 
 590:Generated_Source\PSoC6\pdl\drivers/peripheral/scb/cy_scb_spi.h ****     /**
 591:Generated_Source\PSoC6\pdl\drivers/peripheral/scb/cy_scb_spi.h ****     * The pointer to an event callback that is called when any of
 592:Generated_Source\PSoC6\pdl\drivers/peripheral/scb/cy_scb_spi.h ****     * \ref group_scb_spi_macros_callback_events occurs
 593:Generated_Source\PSoC6\pdl\drivers/peripheral/scb/cy_scb_spi.h ****     */
 594:Generated_Source\PSoC6\pdl\drivers/peripheral/scb/cy_scb_spi.h ****     cy_cb_scb_spi_handle_events_t cbEvents;
 595:Generated_Source\PSoC6\pdl\drivers/peripheral/scb/cy_scb_spi.h **** 
 596:Generated_Source\PSoC6\pdl\drivers/peripheral/scb/cy_scb_spi.h **** #if !defined(NDEBUG)
 597:Generated_Source\PSoC6\pdl\drivers/peripheral/scb/cy_scb_spi.h ****     uint32_t initKey;               /**< Tracks the context initialization */
 598:Generated_Source\PSoC6\pdl\drivers/peripheral/scb/cy_scb_spi.h **** #endif /* !(NDEBUG) */
 599:Generated_Source\PSoC6\pdl\drivers/peripheral/scb/cy_scb_spi.h ****     /** \endcond */
 600:Generated_Source\PSoC6\pdl\drivers/peripheral/scb/cy_scb_spi.h **** } cy_stc_scb_spi_context_t;
 601:Generated_Source\PSoC6\pdl\drivers/peripheral/scb/cy_scb_spi.h **** 
 602:Generated_Source\PSoC6\pdl\drivers/peripheral/scb/cy_scb_spi.h **** /** \} group_scb_spi_data_structures */
 603:Generated_Source\PSoC6\pdl\drivers/peripheral/scb/cy_scb_spi.h **** 
 604:Generated_Source\PSoC6\pdl\drivers/peripheral/scb/cy_scb_spi.h **** 
 605:Generated_Source\PSoC6\pdl\drivers/peripheral/scb/cy_scb_spi.h **** /***************************************
 606:Generated_Source\PSoC6\pdl\drivers/peripheral/scb/cy_scb_spi.h **** *        Function Prototypes
 607:Generated_Source\PSoC6\pdl\drivers/peripheral/scb/cy_scb_spi.h **** ***************************************/
 608:Generated_Source\PSoC6\pdl\drivers/peripheral/scb/cy_scb_spi.h **** 
 609:Generated_Source\PSoC6\pdl\drivers/peripheral/scb/cy_scb_spi.h **** /**
 610:Generated_Source\PSoC6\pdl\drivers/peripheral/scb/cy_scb_spi.h **** * \addtogroup group_scb_spi_general_functions
 611:Generated_Source\PSoC6\pdl\drivers/peripheral/scb/cy_scb_spi.h **** * \{
 612:Generated_Source\PSoC6\pdl\drivers/peripheral/scb/cy_scb_spi.h **** */
 613:Generated_Source\PSoC6\pdl\drivers/peripheral/scb/cy_scb_spi.h **** cy_en_scb_spi_status_t Cy_SCB_SPI_Init(CySCB_Type *base, cy_stc_scb_spi_config_t const *config,
 614:Generated_Source\PSoC6\pdl\drivers/peripheral/scb/cy_scb_spi.h ****                                        cy_stc_scb_spi_context_t *context);
 615:Generated_Source\PSoC6\pdl\drivers/peripheral/scb/cy_scb_spi.h **** void Cy_SCB_SPI_DeInit (CySCB_Type *base);
 616:Generated_Source\PSoC6\pdl\drivers/peripheral/scb/cy_scb_spi.h **** __STATIC_INLINE void Cy_SCB_SPI_Enable(CySCB_Type *base);
 617:Generated_Source\PSoC6\pdl\drivers/peripheral/scb/cy_scb_spi.h **** void Cy_SCB_SPI_Disable(CySCB_Type *base, cy_stc_scb_spi_context_t *context);
 618:Generated_Source\PSoC6\pdl\drivers/peripheral/scb/cy_scb_spi.h **** 
 619:Generated_Source\PSoC6\pdl\drivers/peripheral/scb/cy_scb_spi.h **** __STATIC_INLINE void Cy_SCB_SPI_SetActiveSlaveSelect(CySCB_Type *base,
 620:Generated_Source\PSoC6\pdl\drivers/peripheral/scb/cy_scb_spi.h ****                                     cy_en_scb_spi_slave_select_t slaveSelect);
 621:Generated_Source\PSoC6\pdl\drivers/peripheral/scb/cy_scb_spi.h **** __STATIC_INLINE void Cy_SCB_SPI_SetActiveSlaveSelectPolarity(CySCB_Type *base,
 622:Generated_Source\PSoC6\pdl\drivers/peripheral/scb/cy_scb_spi.h ****                                     cy_en_scb_spi_slave_select_t slaveSelect,
 623:Generated_Source\PSoC6\pdl\drivers/peripheral/scb/cy_scb_spi.h ****                                     cy_en_scb_spi_polarity_t polarity);
 624:Generated_Source\PSoC6\pdl\drivers/peripheral/scb/cy_scb_spi.h **** 
 625:Generated_Source\PSoC6\pdl\drivers/peripheral/scb/cy_scb_spi.h **** __STATIC_INLINE bool Cy_SCB_SPI_IsBusBusy(CySCB_Type const *base);
 626:Generated_Source\PSoC6\pdl\drivers/peripheral/scb/cy_scb_spi.h **** /** \} group_scb_spi_general_functions */
ARM GAS  C:\Users\bryan.lee\AppData\Local\Temp\ccWKhefE.s 			page 24


 627:Generated_Source\PSoC6\pdl\drivers/peripheral/scb/cy_scb_spi.h **** 
 628:Generated_Source\PSoC6\pdl\drivers/peripheral/scb/cy_scb_spi.h **** /**
 629:Generated_Source\PSoC6\pdl\drivers/peripheral/scb/cy_scb_spi.h **** * \addtogroup group_scb_spi_high_level_functions
 630:Generated_Source\PSoC6\pdl\drivers/peripheral/scb/cy_scb_spi.h **** * \{
 631:Generated_Source\PSoC6\pdl\drivers/peripheral/scb/cy_scb_spi.h **** */
 632:Generated_Source\PSoC6\pdl\drivers/peripheral/scb/cy_scb_spi.h **** cy_en_scb_spi_status_t Cy_SCB_SPI_Transfer(CySCB_Type *base, void *txBuffer, void *rxBuffer, uint32
 633:Generated_Source\PSoC6\pdl\drivers/peripheral/scb/cy_scb_spi.h ****                                            cy_stc_scb_spi_context_t *context);
 634:Generated_Source\PSoC6\pdl\drivers/peripheral/scb/cy_scb_spi.h **** void     Cy_SCB_SPI_AbortTransfer    (CySCB_Type *base, cy_stc_scb_spi_context_t *context);
 635:Generated_Source\PSoC6\pdl\drivers/peripheral/scb/cy_scb_spi.h **** uint32_t Cy_SCB_SPI_GetTransferStatus(CySCB_Type const *base, cy_stc_scb_spi_context_t const *conte
 636:Generated_Source\PSoC6\pdl\drivers/peripheral/scb/cy_scb_spi.h **** uint32_t Cy_SCB_SPI_GetNumTransfered (CySCB_Type const *base, cy_stc_scb_spi_context_t const *conte
 637:Generated_Source\PSoC6\pdl\drivers/peripheral/scb/cy_scb_spi.h **** /** \} group_scb_spi_high_level_functions */
 638:Generated_Source\PSoC6\pdl\drivers/peripheral/scb/cy_scb_spi.h **** 
 639:Generated_Source\PSoC6\pdl\drivers/peripheral/scb/cy_scb_spi.h **** /**
 640:Generated_Source\PSoC6\pdl\drivers/peripheral/scb/cy_scb_spi.h **** * \addtogroup group_scb_spi_low_level_functions
 641:Generated_Source\PSoC6\pdl\drivers/peripheral/scb/cy_scb_spi.h **** * \{
 642:Generated_Source\PSoC6\pdl\drivers/peripheral/scb/cy_scb_spi.h **** */
 643:Generated_Source\PSoC6\pdl\drivers/peripheral/scb/cy_scb_spi.h **** __STATIC_INLINE uint32_t Cy_SCB_SPI_Read     (CySCB_Type const *base);
 644:Generated_Source\PSoC6\pdl\drivers/peripheral/scb/cy_scb_spi.h **** __STATIC_INLINE uint32_t Cy_SCB_SPI_ReadArray(CySCB_Type const *base, void *buffer, uint32_t size);
 645:Generated_Source\PSoC6\pdl\drivers/peripheral/scb/cy_scb_spi.h **** 
 646:Generated_Source\PSoC6\pdl\drivers/peripheral/scb/cy_scb_spi.h **** __STATIC_INLINE uint32_t Cy_SCB_SPI_Write     (CySCB_Type *base, uint32_t data);
 647:Generated_Source\PSoC6\pdl\drivers/peripheral/scb/cy_scb_spi.h **** __STATIC_INLINE uint32_t Cy_SCB_SPI_WriteArray(CySCB_Type *base, void *buffer, uint32_t size);
 648:Generated_Source\PSoC6\pdl\drivers/peripheral/scb/cy_scb_spi.h **** __STATIC_INLINE void     Cy_SCB_SPI_WriteArrayBlocking(CySCB_Type *base, void *buffer, uint32_t siz
 649:Generated_Source\PSoC6\pdl\drivers/peripheral/scb/cy_scb_spi.h **** 
 650:Generated_Source\PSoC6\pdl\drivers/peripheral/scb/cy_scb_spi.h **** __STATIC_INLINE uint32_t Cy_SCB_SPI_GetTxFifoStatus  (CySCB_Type const *base);
 651:Generated_Source\PSoC6\pdl\drivers/peripheral/scb/cy_scb_spi.h **** __STATIC_INLINE void     Cy_SCB_SPI_ClearTxFifoStatus(CySCB_Type *base, uint32_t clearMask);
 652:Generated_Source\PSoC6\pdl\drivers/peripheral/scb/cy_scb_spi.h **** 
 653:Generated_Source\PSoC6\pdl\drivers/peripheral/scb/cy_scb_spi.h **** __STATIC_INLINE uint32_t Cy_SCB_SPI_GetRxFifoStatus  (CySCB_Type const *base);
 654:Generated_Source\PSoC6\pdl\drivers/peripheral/scb/cy_scb_spi.h **** __STATIC_INLINE void     Cy_SCB_SPI_ClearRxFifoStatus(CySCB_Type *base, uint32_t clearMask);
 655:Generated_Source\PSoC6\pdl\drivers/peripheral/scb/cy_scb_spi.h **** 
 656:Generated_Source\PSoC6\pdl\drivers/peripheral/scb/cy_scb_spi.h **** __STATIC_INLINE uint32_t Cy_SCB_SPI_GetSlaveMasterStatus  (CySCB_Type const *base);
 657:Generated_Source\PSoC6\pdl\drivers/peripheral/scb/cy_scb_spi.h **** __STATIC_INLINE void     Cy_SCB_SPI_ClearSlaveMasterStatus(CySCB_Type *base, uint32_t clearMask);
 658:Generated_Source\PSoC6\pdl\drivers/peripheral/scb/cy_scb_spi.h **** 
 659:Generated_Source\PSoC6\pdl\drivers/peripheral/scb/cy_scb_spi.h **** __STATIC_INLINE uint32_t Cy_SCB_SPI_GetNumInTxFifo(CySCB_Type const *base);
 660:Generated_Source\PSoC6\pdl\drivers/peripheral/scb/cy_scb_spi.h **** __STATIC_INLINE bool     Cy_SCB_SPI_IsTxComplete  (CySCB_Type const *base);
 661:Generated_Source\PSoC6\pdl\drivers/peripheral/scb/cy_scb_spi.h **** 
 662:Generated_Source\PSoC6\pdl\drivers/peripheral/scb/cy_scb_spi.h **** __STATIC_INLINE uint32_t Cy_SCB_SPI_GetNumInRxFifo(CySCB_Type const *base);
 663:Generated_Source\PSoC6\pdl\drivers/peripheral/scb/cy_scb_spi.h **** 
 664:Generated_Source\PSoC6\pdl\drivers/peripheral/scb/cy_scb_spi.h **** __STATIC_INLINE void Cy_SCB_SPI_ClearRxFifo(CySCB_Type *base);
 665:Generated_Source\PSoC6\pdl\drivers/peripheral/scb/cy_scb_spi.h **** __STATIC_INLINE void Cy_SCB_SPI_ClearTxFifo(CySCB_Type *base);
 666:Generated_Source\PSoC6\pdl\drivers/peripheral/scb/cy_scb_spi.h **** /** \} group_scb_spi_low_level_functions */
 667:Generated_Source\PSoC6\pdl\drivers/peripheral/scb/cy_scb_spi.h **** 
 668:Generated_Source\PSoC6\pdl\drivers/peripheral/scb/cy_scb_spi.h **** /**
 669:Generated_Source\PSoC6\pdl\drivers/peripheral/scb/cy_scb_spi.h **** * \addtogroup group_scb_spi_interrupt_functions
 670:Generated_Source\PSoC6\pdl\drivers/peripheral/scb/cy_scb_spi.h **** * \{
 671:Generated_Source\PSoC6\pdl\drivers/peripheral/scb/cy_scb_spi.h **** */
 672:Generated_Source\PSoC6\pdl\drivers/peripheral/scb/cy_scb_spi.h **** void Cy_SCB_SPI_Interrupt(CySCB_Type *base, cy_stc_scb_spi_context_t *context);
 673:Generated_Source\PSoC6\pdl\drivers/peripheral/scb/cy_scb_spi.h **** 
 674:Generated_Source\PSoC6\pdl\drivers/peripheral/scb/cy_scb_spi.h **** __STATIC_INLINE void Cy_SCB_SPI_RegisterCallback(CySCB_Type const *base, cy_cb_scb_spi_handle_event
 675:Generated_Source\PSoC6\pdl\drivers/peripheral/scb/cy_scb_spi.h ****                                                  cy_stc_scb_spi_context_t *context);
 676:Generated_Source\PSoC6\pdl\drivers/peripheral/scb/cy_scb_spi.h **** /** \} group_scb_spi_interrupt_functions */
 677:Generated_Source\PSoC6\pdl\drivers/peripheral/scb/cy_scb_spi.h **** 
 678:Generated_Source\PSoC6\pdl\drivers/peripheral/scb/cy_scb_spi.h **** /**
 679:Generated_Source\PSoC6\pdl\drivers/peripheral/scb/cy_scb_spi.h **** * \addtogroup group_scb_spi_low_power_functions
 680:Generated_Source\PSoC6\pdl\drivers/peripheral/scb/cy_scb_spi.h **** * \{
 681:Generated_Source\PSoC6\pdl\drivers/peripheral/scb/cy_scb_spi.h **** */
 682:Generated_Source\PSoC6\pdl\drivers/peripheral/scb/cy_scb_spi.h **** cy_en_syspm_status_t Cy_SCB_SPI_DeepSleepCallback(cy_stc_syspm_callback_params_t *callbackParams);
 683:Generated_Source\PSoC6\pdl\drivers/peripheral/scb/cy_scb_spi.h **** cy_en_syspm_status_t Cy_SCB_SPI_HibernateCallback(cy_stc_syspm_callback_params_t *callbackParams);
ARM GAS  C:\Users\bryan.lee\AppData\Local\Temp\ccWKhefE.s 			page 25


 684:Generated_Source\PSoC6\pdl\drivers/peripheral/scb/cy_scb_spi.h **** /** \} group_scb_spi_low_power_functions */
 685:Generated_Source\PSoC6\pdl\drivers/peripheral/scb/cy_scb_spi.h **** 
 686:Generated_Source\PSoC6\pdl\drivers/peripheral/scb/cy_scb_spi.h **** 
 687:Generated_Source\PSoC6\pdl\drivers/peripheral/scb/cy_scb_spi.h **** /***************************************
 688:Generated_Source\PSoC6\pdl\drivers/peripheral/scb/cy_scb_spi.h **** *            API Constants
 689:Generated_Source\PSoC6\pdl\drivers/peripheral/scb/cy_scb_spi.h **** ***************************************/
 690:Generated_Source\PSoC6\pdl\drivers/peripheral/scb/cy_scb_spi.h **** 
 691:Generated_Source\PSoC6\pdl\drivers/peripheral/scb/cy_scb_spi.h **** /**
 692:Generated_Source\PSoC6\pdl\drivers/peripheral/scb/cy_scb_spi.h **** * \addtogroup group_scb_spi_macros
 693:Generated_Source\PSoC6\pdl\drivers/peripheral/scb/cy_scb_spi.h **** * \{
 694:Generated_Source\PSoC6\pdl\drivers/peripheral/scb/cy_scb_spi.h **** */
 695:Generated_Source\PSoC6\pdl\drivers/peripheral/scb/cy_scb_spi.h **** 
 696:Generated_Source\PSoC6\pdl\drivers/peripheral/scb/cy_scb_spi.h **** /**
 697:Generated_Source\PSoC6\pdl\drivers/peripheral/scb/cy_scb_spi.h **** * \defgroup group_scb_spi_macros_tx_fifo_status SPI TX FIFO Statuses
 698:Generated_Source\PSoC6\pdl\drivers/peripheral/scb/cy_scb_spi.h **** * Each SPI TX FIFO status is encoded in a separate bit. Therefore multiple bits
 699:Generated_Source\PSoC6\pdl\drivers/peripheral/scb/cy_scb_spi.h **** * may be set to indicate the current status.
 700:Generated_Source\PSoC6\pdl\drivers/peripheral/scb/cy_scb_spi.h **** * \{
 701:Generated_Source\PSoC6\pdl\drivers/peripheral/scb/cy_scb_spi.h **** */
 702:Generated_Source\PSoC6\pdl\drivers/peripheral/scb/cy_scb_spi.h **** /** The number of entries in the TX FIFO is less than the TX FIFO trigger level
 703:Generated_Source\PSoC6\pdl\drivers/peripheral/scb/cy_scb_spi.h **** * value
 704:Generated_Source\PSoC6\pdl\drivers/peripheral/scb/cy_scb_spi.h **** */
 705:Generated_Source\PSoC6\pdl\drivers/peripheral/scb/cy_scb_spi.h **** #define CY_SCB_SPI_TX_TRIGGER       (SCB_INTR_TX_TRIGGER_Msk)
 706:Generated_Source\PSoC6\pdl\drivers/peripheral/scb/cy_scb_spi.h **** 
 707:Generated_Source\PSoC6\pdl\drivers/peripheral/scb/cy_scb_spi.h **** /** The TX FIFO is not full, there is a space for more data */
 708:Generated_Source\PSoC6\pdl\drivers/peripheral/scb/cy_scb_spi.h **** #define CY_SCB_SPI_TX_NOT_FULL      (SCB_INTR_TX_NOT_FULL_Msk)
 709:Generated_Source\PSoC6\pdl\drivers/peripheral/scb/cy_scb_spi.h **** 
 710:Generated_Source\PSoC6\pdl\drivers/peripheral/scb/cy_scb_spi.h **** /**
 711:Generated_Source\PSoC6\pdl\drivers/peripheral/scb/cy_scb_spi.h **** * The TX FIFO is empty, note that there may still be data in the shift register.
 712:Generated_Source\PSoC6\pdl\drivers/peripheral/scb/cy_scb_spi.h **** */
 713:Generated_Source\PSoC6\pdl\drivers/peripheral/scb/cy_scb_spi.h **** #define CY_SCB_SPI_TX_EMPTY         (SCB_INTR_TX_EMPTY_Msk)
 714:Generated_Source\PSoC6\pdl\drivers/peripheral/scb/cy_scb_spi.h **** 
 715:Generated_Source\PSoC6\pdl\drivers/peripheral/scb/cy_scb_spi.h **** /** An attempt to write to the full TX FIFO */
 716:Generated_Source\PSoC6\pdl\drivers/peripheral/scb/cy_scb_spi.h **** #define CY_SCB_SPI_TX_OVERFLOW      (SCB_INTR_TX_OVERFLOW_Msk)
 717:Generated_Source\PSoC6\pdl\drivers/peripheral/scb/cy_scb_spi.h **** 
 718:Generated_Source\PSoC6\pdl\drivers/peripheral/scb/cy_scb_spi.h **** /**
 719:Generated_Source\PSoC6\pdl\drivers/peripheral/scb/cy_scb_spi.h **** * Applicable only for the slave mode. The master tried to read more
 720:Generated_Source\PSoC6\pdl\drivers/peripheral/scb/cy_scb_spi.h **** * data elements than available.
 721:Generated_Source\PSoC6\pdl\drivers/peripheral/scb/cy_scb_spi.h **** */
 722:Generated_Source\PSoC6\pdl\drivers/peripheral/scb/cy_scb_spi.h **** #define CY_SCB_SPI_TX_UNDERFLOW     (SCB_INTR_TX_UNDERFLOW_Msk)
 723:Generated_Source\PSoC6\pdl\drivers/peripheral/scb/cy_scb_spi.h **** /** \} group_scb_spi_macros_tx_fifo_status */
 724:Generated_Source\PSoC6\pdl\drivers/peripheral/scb/cy_scb_spi.h **** 
 725:Generated_Source\PSoC6\pdl\drivers/peripheral/scb/cy_scb_spi.h **** /**
 726:Generated_Source\PSoC6\pdl\drivers/peripheral/scb/cy_scb_spi.h **** * \defgroup group_scb_spi_macros_rx_fifo_status SPI RX FIFO Statuses
 727:Generated_Source\PSoC6\pdl\drivers/peripheral/scb/cy_scb_spi.h **** * \{
 728:Generated_Source\PSoC6\pdl\drivers/peripheral/scb/cy_scb_spi.h **** * Each SPI RX FIFO status is encoded in a separate bit. Therefore, multiple
 729:Generated_Source\PSoC6\pdl\drivers/peripheral/scb/cy_scb_spi.h **** * bits may be set to indicate the current status.
 730:Generated_Source\PSoC6\pdl\drivers/peripheral/scb/cy_scb_spi.h **** */
 731:Generated_Source\PSoC6\pdl\drivers/peripheral/scb/cy_scb_spi.h **** /** The number of entries in the RX FIFO is more than the RX FIFO trigger
 732:Generated_Source\PSoC6\pdl\drivers/peripheral/scb/cy_scb_spi.h **** * level value.
 733:Generated_Source\PSoC6\pdl\drivers/peripheral/scb/cy_scb_spi.h **** */
 734:Generated_Source\PSoC6\pdl\drivers/peripheral/scb/cy_scb_spi.h **** #define CY_SCB_SPI_RX_TRIGGER       (SCB_INTR_RX_TRIGGER_Msk)
 735:Generated_Source\PSoC6\pdl\drivers/peripheral/scb/cy_scb_spi.h **** 
 736:Generated_Source\PSoC6\pdl\drivers/peripheral/scb/cy_scb_spi.h **** /** The RX FIFO is not empty, there is data to read */
 737:Generated_Source\PSoC6\pdl\drivers/peripheral/scb/cy_scb_spi.h **** #define CY_SCB_SPI_RX_NOT_EMPTY     (SCB_INTR_RX_NOT_EMPTY_Msk)
 738:Generated_Source\PSoC6\pdl\drivers/peripheral/scb/cy_scb_spi.h **** 
 739:Generated_Source\PSoC6\pdl\drivers/peripheral/scb/cy_scb_spi.h **** /**
 740:Generated_Source\PSoC6\pdl\drivers/peripheral/scb/cy_scb_spi.h **** * The RX FIFO is full. There is no more space for additional data.
ARM GAS  C:\Users\bryan.lee\AppData\Local\Temp\ccWKhefE.s 			page 26


 741:Generated_Source\PSoC6\pdl\drivers/peripheral/scb/cy_scb_spi.h **** * Any additional data will be dropped.
 742:Generated_Source\PSoC6\pdl\drivers/peripheral/scb/cy_scb_spi.h **** */
 743:Generated_Source\PSoC6\pdl\drivers/peripheral/scb/cy_scb_spi.h **** #define CY_SCB_SPI_RX_FULL          (SCB_INTR_RX_FULL_Msk)
 744:Generated_Source\PSoC6\pdl\drivers/peripheral/scb/cy_scb_spi.h **** 
 745:Generated_Source\PSoC6\pdl\drivers/peripheral/scb/cy_scb_spi.h **** /**
 746:Generated_Source\PSoC6\pdl\drivers/peripheral/scb/cy_scb_spi.h **** * The RX FIFO was full and there was an attempt to write to it.
 747:Generated_Source\PSoC6\pdl\drivers/peripheral/scb/cy_scb_spi.h **** * This additional data was dropped.
 748:Generated_Source\PSoC6\pdl\drivers/peripheral/scb/cy_scb_spi.h **** */
 749:Generated_Source\PSoC6\pdl\drivers/peripheral/scb/cy_scb_spi.h **** #define CY_SCB_SPI_RX_OVERFLOW      (SCB_INTR_RX_OVERFLOW_Msk)
 750:Generated_Source\PSoC6\pdl\drivers/peripheral/scb/cy_scb_spi.h **** 
 751:Generated_Source\PSoC6\pdl\drivers/peripheral/scb/cy_scb_spi.h **** /** An attempt to read from an empty RX FIFO */
 752:Generated_Source\PSoC6\pdl\drivers/peripheral/scb/cy_scb_spi.h **** #define CY_SCB_SPI_RX_UNDERFLOW     (SCB_INTR_RX_UNDERFLOW_Msk)
 753:Generated_Source\PSoC6\pdl\drivers/peripheral/scb/cy_scb_spi.h **** /** \} group_scb_spi_macros_rx_fifo_status */
 754:Generated_Source\PSoC6\pdl\drivers/peripheral/scb/cy_scb_spi.h **** 
 755:Generated_Source\PSoC6\pdl\drivers/peripheral/scb/cy_scb_spi.h **** /**
 756:Generated_Source\PSoC6\pdl\drivers/peripheral/scb/cy_scb_spi.h **** * \defgroup group_scb_spi_macros_master_slave_status SPI Master and Slave Statuses
 757:Generated_Source\PSoC6\pdl\drivers/peripheral/scb/cy_scb_spi.h **** * \{
 758:Generated_Source\PSoC6\pdl\drivers/peripheral/scb/cy_scb_spi.h **** */
 759:Generated_Source\PSoC6\pdl\drivers/peripheral/scb/cy_scb_spi.h **** /** The slave was deselected at the wrong time */
 760:Generated_Source\PSoC6\pdl\drivers/peripheral/scb/cy_scb_spi.h **** #define CY_SCB_SPI_SLAVE_ERR       (SCB_INTR_S_SPI_BUS_ERROR_Msk)
 761:Generated_Source\PSoC6\pdl\drivers/peripheral/scb/cy_scb_spi.h **** 
 762:Generated_Source\PSoC6\pdl\drivers/peripheral/scb/cy_scb_spi.h **** /** The master has transmitted all data elements from FIFO and shifter */
 763:Generated_Source\PSoC6\pdl\drivers/peripheral/scb/cy_scb_spi.h **** #define CY_SCB_SPI_MASTER_DONE     (SCB_INTR_M_SPI_DONE_Msk)
 764:Generated_Source\PSoC6\pdl\drivers/peripheral/scb/cy_scb_spi.h **** /** \} group_scb_spi_macros_master_slave_status */
 765:Generated_Source\PSoC6\pdl\drivers/peripheral/scb/cy_scb_spi.h **** 
 766:Generated_Source\PSoC6\pdl\drivers/peripheral/scb/cy_scb_spi.h **** /**
 767:Generated_Source\PSoC6\pdl\drivers/peripheral/scb/cy_scb_spi.h **** * \defgroup group_scb_spi_macros_xfer_status SPI Transfer Status
 768:Generated_Source\PSoC6\pdl\drivers/peripheral/scb/cy_scb_spi.h **** * \{
 769:Generated_Source\PSoC6\pdl\drivers/peripheral/scb/cy_scb_spi.h **** * Each SPI transfer status is encoded in a separate bit, therefore multiple bits
 770:Generated_Source\PSoC6\pdl\drivers/peripheral/scb/cy_scb_spi.h **** * may be set to indicate the current status.
 771:Generated_Source\PSoC6\pdl\drivers/peripheral/scb/cy_scb_spi.h **** */
 772:Generated_Source\PSoC6\pdl\drivers/peripheral/scb/cy_scb_spi.h **** /**
 773:Generated_Source\PSoC6\pdl\drivers/peripheral/scb/cy_scb_spi.h **** * Transfer operation started by \ref Cy_SCB_SPI_Transfer is in progress
 774:Generated_Source\PSoC6\pdl\drivers/peripheral/scb/cy_scb_spi.h **** */
 775:Generated_Source\PSoC6\pdl\drivers/peripheral/scb/cy_scb_spi.h **** #define CY_SCB_SPI_TRANSFER_ACTIVE     (0x01UL)
 776:Generated_Source\PSoC6\pdl\drivers/peripheral/scb/cy_scb_spi.h **** 
 777:Generated_Source\PSoC6\pdl\drivers/peripheral/scb/cy_scb_spi.h **** /**
 778:Generated_Source\PSoC6\pdl\drivers/peripheral/scb/cy_scb_spi.h **** * All data elements specified by \ref Cy_SCB_SPI_Transfer for transmission
 779:Generated_Source\PSoC6\pdl\drivers/peripheral/scb/cy_scb_spi.h **** * have been loaded into the TX FIFO
 780:Generated_Source\PSoC6\pdl\drivers/peripheral/scb/cy_scb_spi.h **** */
 781:Generated_Source\PSoC6\pdl\drivers/peripheral/scb/cy_scb_spi.h **** #define CY_SCB_SPI_TRANSFER_IN_FIFO    (0x02UL)
 782:Generated_Source\PSoC6\pdl\drivers/peripheral/scb/cy_scb_spi.h **** 
 783:Generated_Source\PSoC6\pdl\drivers/peripheral/scb/cy_scb_spi.h **** /** The slave was deselected at the wrong time. */
 784:Generated_Source\PSoC6\pdl\drivers/peripheral/scb/cy_scb_spi.h **** #define CY_SCB_SPI_SLAVE_TRANSFER_ERR  (SCB_INTR_S_SPI_BUS_ERROR_Msk)
 785:Generated_Source\PSoC6\pdl\drivers/peripheral/scb/cy_scb_spi.h **** 
 786:Generated_Source\PSoC6\pdl\drivers/peripheral/scb/cy_scb_spi.h **** /**
 787:Generated_Source\PSoC6\pdl\drivers/peripheral/scb/cy_scb_spi.h **** * RX FIFO was full and there was an attempt to write to it.
 788:Generated_Source\PSoC6\pdl\drivers/peripheral/scb/cy_scb_spi.h **** * This additional data was dropped.
 789:Generated_Source\PSoC6\pdl\drivers/peripheral/scb/cy_scb_spi.h **** */
 790:Generated_Source\PSoC6\pdl\drivers/peripheral/scb/cy_scb_spi.h **** #define CY_SCB_SPI_TRANSFER_OVERFLOW   (SCB_INTR_RX_OVERFLOW_Msk)
 791:Generated_Source\PSoC6\pdl\drivers/peripheral/scb/cy_scb_spi.h **** 
 792:Generated_Source\PSoC6\pdl\drivers/peripheral/scb/cy_scb_spi.h **** /**
 793:Generated_Source\PSoC6\pdl\drivers/peripheral/scb/cy_scb_spi.h **** * Applicable only for the slave mode. The master tried to read more
 794:Generated_Source\PSoC6\pdl\drivers/peripheral/scb/cy_scb_spi.h **** * data elements than available in the TX FIFO.
 795:Generated_Source\PSoC6\pdl\drivers/peripheral/scb/cy_scb_spi.h **** */
 796:Generated_Source\PSoC6\pdl\drivers/peripheral/scb/cy_scb_spi.h **** #define CY_SCB_SPI_TRANSFER_UNDERFLOW  (SCB_INTR_TX_UNDERFLOW_Msk)
 797:Generated_Source\PSoC6\pdl\drivers/peripheral/scb/cy_scb_spi.h **** /** \} group_scb_spi_macros_xfer_status */
ARM GAS  C:\Users\bryan.lee\AppData\Local\Temp\ccWKhefE.s 			page 27


 798:Generated_Source\PSoC6\pdl\drivers/peripheral/scb/cy_scb_spi.h **** 
 799:Generated_Source\PSoC6\pdl\drivers/peripheral/scb/cy_scb_spi.h **** /**
 800:Generated_Source\PSoC6\pdl\drivers/peripheral/scb/cy_scb_spi.h **** * \defgroup group_scb_spi_macros_callback_events SPI Callback Events
 801:Generated_Source\PSoC6\pdl\drivers/peripheral/scb/cy_scb_spi.h **** * \{
 802:Generated_Source\PSoC6\pdl\drivers/peripheral/scb/cy_scb_spi.h **** * Only single event is notified by the callback.
 803:Generated_Source\PSoC6\pdl\drivers/peripheral/scb/cy_scb_spi.h **** */
 804:Generated_Source\PSoC6\pdl\drivers/peripheral/scb/cy_scb_spi.h **** /**
 805:Generated_Source\PSoC6\pdl\drivers/peripheral/scb/cy_scb_spi.h **** * All data elements specified by \ref Cy_SCB_SPI_Transfer for transmission
 806:Generated_Source\PSoC6\pdl\drivers/peripheral/scb/cy_scb_spi.h **** * have been loaded into the TX FIFO
 807:Generated_Source\PSoC6\pdl\drivers/peripheral/scb/cy_scb_spi.h **** */
 808:Generated_Source\PSoC6\pdl\drivers/peripheral/scb/cy_scb_spi.h **** #define CY_SCB_SPI_TRANSFER_IN_FIFO_EVENT  (0x01U)
 809:Generated_Source\PSoC6\pdl\drivers/peripheral/scb/cy_scb_spi.h **** 
 810:Generated_Source\PSoC6\pdl\drivers/peripheral/scb/cy_scb_spi.h **** /** The transfer operation started by \ref Cy_SCB_SPI_Transfer is complete */
 811:Generated_Source\PSoC6\pdl\drivers/peripheral/scb/cy_scb_spi.h **** #define CY_SCB_SPI_TRANSFER_CMPLT_EVENT    (0x02U)
 812:Generated_Source\PSoC6\pdl\drivers/peripheral/scb/cy_scb_spi.h **** 
 813:Generated_Source\PSoC6\pdl\drivers/peripheral/scb/cy_scb_spi.h **** /**
 814:Generated_Source\PSoC6\pdl\drivers/peripheral/scb/cy_scb_spi.h **** * An error occurred during the transfer. This includes overflow, underflow
 815:Generated_Source\PSoC6\pdl\drivers/peripheral/scb/cy_scb_spi.h **** * and a transfer error. Check \ref Cy_SCB_SPI_GetTransferStatus.
 816:Generated_Source\PSoC6\pdl\drivers/peripheral/scb/cy_scb_spi.h **** */
 817:Generated_Source\PSoC6\pdl\drivers/peripheral/scb/cy_scb_spi.h **** #define CY_SCB_SPI_TRANSFER_ERR_EVENT      (0x04U)
 818:Generated_Source\PSoC6\pdl\drivers/peripheral/scb/cy_scb_spi.h **** /** \} group_scb_spi_macros_callback_events */
 819:Generated_Source\PSoC6\pdl\drivers/peripheral/scb/cy_scb_spi.h **** 
 820:Generated_Source\PSoC6\pdl\drivers/peripheral/scb/cy_scb_spi.h **** 
 821:Generated_Source\PSoC6\pdl\drivers/peripheral/scb/cy_scb_spi.h **** /** Default TX value when no TX buffer is defined */
 822:Generated_Source\PSoC6\pdl\drivers/peripheral/scb/cy_scb_spi.h **** #define CY_SCB_SPI_DEFAULT_TX  (0x0000FFFFUL)
 823:Generated_Source\PSoC6\pdl\drivers/peripheral/scb/cy_scb_spi.h **** 
 824:Generated_Source\PSoC6\pdl\drivers/peripheral/scb/cy_scb_spi.h **** /** Data returned by the hardware when an empty RX FIFO is read */
 825:Generated_Source\PSoC6\pdl\drivers/peripheral/scb/cy_scb_spi.h **** #define CY_SCB_SPI_RX_NO_DATA  (0xFFFFFFFFUL)
 826:Generated_Source\PSoC6\pdl\drivers/peripheral/scb/cy_scb_spi.h **** 
 827:Generated_Source\PSoC6\pdl\drivers/peripheral/scb/cy_scb_spi.h **** 
 828:Generated_Source\PSoC6\pdl\drivers/peripheral/scb/cy_scb_spi.h **** /***************************************
 829:Generated_Source\PSoC6\pdl\drivers/peripheral/scb/cy_scb_spi.h **** *         Internal Constants
 830:Generated_Source\PSoC6\pdl\drivers/peripheral/scb/cy_scb_spi.h **** ***************************************/
 831:Generated_Source\PSoC6\pdl\drivers/peripheral/scb/cy_scb_spi.h **** 
 832:Generated_Source\PSoC6\pdl\drivers/peripheral/scb/cy_scb_spi.h **** /** \cond INTERNAL */
 833:Generated_Source\PSoC6\pdl\drivers/peripheral/scb/cy_scb_spi.h **** #define CY_SCB_SPI_RX_INTR_MASK  (CY_SCB_SPI_RX_TRIGGER  | CY_SCB_SPI_RX_NOT_EMPTY | CY_SCB_SPI_RX_
 834:Generated_Source\PSoC6\pdl\drivers/peripheral/scb/cy_scb_spi.h ****                                   CY_SCB_SPI_RX_OVERFLOW | CY_SCB_SPI_RX_UNDERFLOW)
 835:Generated_Source\PSoC6\pdl\drivers/peripheral/scb/cy_scb_spi.h **** 
 836:Generated_Source\PSoC6\pdl\drivers/peripheral/scb/cy_scb_spi.h **** #define CY_SCB_SPI_TX_INTR_MASK  (CY_SCB_SPI_TX_TRIGGER  | CY_SCB_SPI_TX_NOT_FULL | CY_SCB_SPI_TX_E
 837:Generated_Source\PSoC6\pdl\drivers/peripheral/scb/cy_scb_spi.h ****                                   CY_SCB_SPI_TX_OVERFLOW | CY_SCB_SPI_TX_UNDERFLOW)
 838:Generated_Source\PSoC6\pdl\drivers/peripheral/scb/cy_scb_spi.h **** 
 839:Generated_Source\PSoC6\pdl\drivers/peripheral/scb/cy_scb_spi.h **** #define CY_SCB_SPI_MASTER_SLAVE_INTR_MASK (CY_SCB_SPI_MASTER_DONE | CY_SCB_SPI_SLAVE_ERR)
 840:Generated_Source\PSoC6\pdl\drivers/peripheral/scb/cy_scb_spi.h **** 
 841:Generated_Source\PSoC6\pdl\drivers/peripheral/scb/cy_scb_spi.h **** #define CY_SCB_SPI_TRANSFER_ERR    (CY_SCB_SPI_SLAVE_TRANSFER_ERR | CY_SCB_SPI_TRANSFER_OVERFLOW | 
 842:Generated_Source\PSoC6\pdl\drivers/peripheral/scb/cy_scb_spi.h ****                                     CY_SCB_SPI_TRANSFER_UNDERFLOW)
 843:Generated_Source\PSoC6\pdl\drivers/peripheral/scb/cy_scb_spi.h **** 
 844:Generated_Source\PSoC6\pdl\drivers/peripheral/scb/cy_scb_spi.h **** #define CY_SCB_SPI_INIT_KEY        (0x00ABCDEFUL)
 845:Generated_Source\PSoC6\pdl\drivers/peripheral/scb/cy_scb_spi.h **** 
 846:Generated_Source\PSoC6\pdl\drivers/peripheral/scb/cy_scb_spi.h **** #define CY_SCB_SPI_IS_MODE_VALID(mode)          ( (CY_SCB_SPI_SLAVE  == (mode)) || \
 847:Generated_Source\PSoC6\pdl\drivers/peripheral/scb/cy_scb_spi.h ****                                                   (CY_SCB_SPI_MASTER == (mode)) )
 848:Generated_Source\PSoC6\pdl\drivers/peripheral/scb/cy_scb_spi.h **** 
 849:Generated_Source\PSoC6\pdl\drivers/peripheral/scb/cy_scb_spi.h **** #define CY_SCB_SPI_IS_SUB_MODE_VALID(subMode)   ( (CY_SCB_SPI_MOTOROLA     == (subMode)) || \
 850:Generated_Source\PSoC6\pdl\drivers/peripheral/scb/cy_scb_spi.h ****                                                   (CY_SCB_SPI_TI_COINCIDES == (subMode)) || \
 851:Generated_Source\PSoC6\pdl\drivers/peripheral/scb/cy_scb_spi.h ****                                                   (CY_SCB_SPI_TI_PRECEDES  == (subMode)) || \
 852:Generated_Source\PSoC6\pdl\drivers/peripheral/scb/cy_scb_spi.h ****                                                   (CY_SCB_SPI_NATIONAL     == (subMode)) )
 853:Generated_Source\PSoC6\pdl\drivers/peripheral/scb/cy_scb_spi.h **** 
 854:Generated_Source\PSoC6\pdl\drivers/peripheral/scb/cy_scb_spi.h **** #define CY_SCB_SPI_IS_SCLK_MODE_VALID(clkMode)  ( (CY_SCB_SPI_CPHA0_CPOL0 == (clkMode)) || \
ARM GAS  C:\Users\bryan.lee\AppData\Local\Temp\ccWKhefE.s 			page 28


 855:Generated_Source\PSoC6\pdl\drivers/peripheral/scb/cy_scb_spi.h ****                                                   (CY_SCB_SPI_CPHA0_CPOL1 == (clkMode)) || \
 856:Generated_Source\PSoC6\pdl\drivers/peripheral/scb/cy_scb_spi.h ****                                                   (CY_SCB_SPI_CPHA1_CPOL0 == (clkMode)) || \
 857:Generated_Source\PSoC6\pdl\drivers/peripheral/scb/cy_scb_spi.h ****                                                   (CY_SCB_SPI_CPHA1_CPOL1 == (clkMode)) )
 858:Generated_Source\PSoC6\pdl\drivers/peripheral/scb/cy_scb_spi.h **** 
 859:Generated_Source\PSoC6\pdl\drivers/peripheral/scb/cy_scb_spi.h **** #define CY_SCB_SPI_IS_POLARITY_VALID(polarity)  ( (CY_SCB_SPI_ACTIVE_LOW  == (polarity)) || \
 860:Generated_Source\PSoC6\pdl\drivers/peripheral/scb/cy_scb_spi.h ****                                                   (CY_SCB_SPI_ACTIVE_HIGH == (polarity)) )
 861:Generated_Source\PSoC6\pdl\drivers/peripheral/scb/cy_scb_spi.h **** 
 862:Generated_Source\PSoC6\pdl\drivers/peripheral/scb/cy_scb_spi.h **** #define CY_SCB_SPI_IS_SLAVE_SEL_VALID(ss)       ( (CY_SCB_SPI_SLAVE_SELECT0 == (ss)) || \
 863:Generated_Source\PSoC6\pdl\drivers/peripheral/scb/cy_scb_spi.h ****                                                   (CY_SCB_SPI_SLAVE_SELECT1 == (ss)) || \
 864:Generated_Source\PSoC6\pdl\drivers/peripheral/scb/cy_scb_spi.h ****                                                   (CY_SCB_SPI_SLAVE_SELECT2 == (ss)) || \
 865:Generated_Source\PSoC6\pdl\drivers/peripheral/scb/cy_scb_spi.h ****                                                   (CY_SCB_SPI_SLAVE_SELECT3 == (ss)) )
 866:Generated_Source\PSoC6\pdl\drivers/peripheral/scb/cy_scb_spi.h **** 
 867:Generated_Source\PSoC6\pdl\drivers/peripheral/scb/cy_scb_spi.h **** #define CY_SCB_SPI_IS_OVERSAMPLE_VALID(ovs, mode)   ( (CY_SCB_SPI_MASTER == (mode)) ? (((ovs) >= 2U
 868:Generated_Source\PSoC6\pdl\drivers/peripheral/scb/cy_scb_spi.h **** #define CY_SCB_SPI_IS_DATA_WIDTH_VALID(width)       ( ((width) >= 4UL) && ((width) <= 16UL) )
 869:Generated_Source\PSoC6\pdl\drivers/peripheral/scb/cy_scb_spi.h **** #define CY_SCB_SPI_IS_SS_POLARITY_VALID(polarity)   ( (0UL == ((polarity) & (~0x0FUL))) )
 870:Generated_Source\PSoC6\pdl\drivers/peripheral/scb/cy_scb_spi.h **** #define CY_SCB_SPI_IS_BUFFER_VALID(txBuffer, rxBuffer, size)  ( ((size) > 0UL)  && \
 871:Generated_Source\PSoC6\pdl\drivers/peripheral/scb/cy_scb_spi.h ****                                                                  (false == ((NULL == (txBuffer)) &&
 872:Generated_Source\PSoC6\pdl\drivers/peripheral/scb/cy_scb_spi.h **** 
 873:Generated_Source\PSoC6\pdl\drivers/peripheral/scb/cy_scb_spi.h **** #define CY_SCB_SPI_IS_BOTH_DATA_WIDTH_VALID(subMode, rxWidth, txWidth)  ( (CY_SCB_SPI_NATIONAL != (
 874:Generated_Source\PSoC6\pdl\drivers/peripheral/scb/cy_scb_spi.h ****                                                                                     ((rxWidth) == (
 875:Generated_Source\PSoC6\pdl\drivers/peripheral/scb/cy_scb_spi.h **** 
 876:Generated_Source\PSoC6\pdl\drivers/peripheral/scb/cy_scb_spi.h **** /** \endcond */
 877:Generated_Source\PSoC6\pdl\drivers/peripheral/scb/cy_scb_spi.h **** 
 878:Generated_Source\PSoC6\pdl\drivers/peripheral/scb/cy_scb_spi.h **** /** \} group_scb_spi_macros */
 879:Generated_Source\PSoC6\pdl\drivers/peripheral/scb/cy_scb_spi.h **** 
 880:Generated_Source\PSoC6\pdl\drivers/peripheral/scb/cy_scb_spi.h **** 
 881:Generated_Source\PSoC6\pdl\drivers/peripheral/scb/cy_scb_spi.h **** /***************************************
 882:Generated_Source\PSoC6\pdl\drivers/peripheral/scb/cy_scb_spi.h **** *    In-line Function Implementation
 883:Generated_Source\PSoC6\pdl\drivers/peripheral/scb/cy_scb_spi.h **** ***************************************/
 884:Generated_Source\PSoC6\pdl\drivers/peripheral/scb/cy_scb_spi.h **** 
 885:Generated_Source\PSoC6\pdl\drivers/peripheral/scb/cy_scb_spi.h **** /**
 886:Generated_Source\PSoC6\pdl\drivers/peripheral/scb/cy_scb_spi.h **** * \addtogroup group_scb_spi_general_functions
 887:Generated_Source\PSoC6\pdl\drivers/peripheral/scb/cy_scb_spi.h **** * \{
 888:Generated_Source\PSoC6\pdl\drivers/peripheral/scb/cy_scb_spi.h **** */
 889:Generated_Source\PSoC6\pdl\drivers/peripheral/scb/cy_scb_spi.h **** 
 890:Generated_Source\PSoC6\pdl\drivers/peripheral/scb/cy_scb_spi.h **** /*******************************************************************************
 891:Generated_Source\PSoC6\pdl\drivers/peripheral/scb/cy_scb_spi.h **** * Function Name: Cy_SCB_SPI_Enable
 892:Generated_Source\PSoC6\pdl\drivers/peripheral/scb/cy_scb_spi.h **** ****************************************************************************//**
 893:Generated_Source\PSoC6\pdl\drivers/peripheral/scb/cy_scb_spi.h **** *
 894:Generated_Source\PSoC6\pdl\drivers/peripheral/scb/cy_scb_spi.h **** * Enables the SCB block for the SPI operation.
 895:Generated_Source\PSoC6\pdl\drivers/peripheral/scb/cy_scb_spi.h **** *
 896:Generated_Source\PSoC6\pdl\drivers/peripheral/scb/cy_scb_spi.h **** * \param base
 897:Generated_Source\PSoC6\pdl\drivers/peripheral/scb/cy_scb_spi.h **** * The pointer to the SPI SCB instance.
 898:Generated_Source\PSoC6\pdl\drivers/peripheral/scb/cy_scb_spi.h **** *
 899:Generated_Source\PSoC6\pdl\drivers/peripheral/scb/cy_scb_spi.h **** *******************************************************************************/
 900:Generated_Source\PSoC6\pdl\drivers/peripheral/scb/cy_scb_spi.h **** __STATIC_INLINE void Cy_SCB_SPI_Enable(CySCB_Type *base)
 901:Generated_Source\PSoC6\pdl\drivers/peripheral/scb/cy_scb_spi.h **** {
 902:Generated_Source\PSoC6\pdl\drivers/peripheral/scb/cy_scb_spi.h ****     base->CTRL |= SCB_CTRL_ENABLED_Msk;
 903:Generated_Source\PSoC6\pdl\drivers/peripheral/scb/cy_scb_spi.h **** }
 904:Generated_Source\PSoC6\pdl\drivers/peripheral/scb/cy_scb_spi.h **** 
 905:Generated_Source\PSoC6\pdl\drivers/peripheral/scb/cy_scb_spi.h **** 
 906:Generated_Source\PSoC6\pdl\drivers/peripheral/scb/cy_scb_spi.h **** /*******************************************************************************
 907:Generated_Source\PSoC6\pdl\drivers/peripheral/scb/cy_scb_spi.h **** * Function Name: Cy_SCB_SPI_IsBusBusy
 908:Generated_Source\PSoC6\pdl\drivers/peripheral/scb/cy_scb_spi.h **** ****************************************************************************//**
 909:Generated_Source\PSoC6\pdl\drivers/peripheral/scb/cy_scb_spi.h **** *
 910:Generated_Source\PSoC6\pdl\drivers/peripheral/scb/cy_scb_spi.h **** * Returns whether the SPI bus is busy or not. The bus busy is determined using
 911:Generated_Source\PSoC6\pdl\drivers/peripheral/scb/cy_scb_spi.h **** * the slave select signal.
ARM GAS  C:\Users\bryan.lee\AppData\Local\Temp\ccWKhefE.s 			page 29


 912:Generated_Source\PSoC6\pdl\drivers/peripheral/scb/cy_scb_spi.h **** * * Motorola and National Semiconductor sub-modes: the bus is busy after the
 913:Generated_Source\PSoC6\pdl\drivers/peripheral/scb/cy_scb_spi.h **** *   slave select line is activated and lasts until the slave select line is
 914:Generated_Source\PSoC6\pdl\drivers/peripheral/scb/cy_scb_spi.h **** *   deactivated.
 915:Generated_Source\PSoC6\pdl\drivers/peripheral/scb/cy_scb_spi.h **** * * Texas Instrument sub-modes: The bus is busy at the moment of the initial
 916:Generated_Source\PSoC6\pdl\drivers/peripheral/scb/cy_scb_spi.h **** *   pulse on the slave select line and lasts until the transfer is complete.
 917:Generated_Source\PSoC6\pdl\drivers/peripheral/scb/cy_scb_spi.h **** *
 918:Generated_Source\PSoC6\pdl\drivers/peripheral/scb/cy_scb_spi.h **** * \param base
 919:Generated_Source\PSoC6\pdl\drivers/peripheral/scb/cy_scb_spi.h **** * The pointer to the SPI SCB instance.
 920:Generated_Source\PSoC6\pdl\drivers/peripheral/scb/cy_scb_spi.h **** *
 921:Generated_Source\PSoC6\pdl\drivers/peripheral/scb/cy_scb_spi.h **** * \return
 922:Generated_Source\PSoC6\pdl\drivers/peripheral/scb/cy_scb_spi.h **** * True - the bus is busy; false - the bus is idle.
 923:Generated_Source\PSoC6\pdl\drivers/peripheral/scb/cy_scb_spi.h **** *
 924:Generated_Source\PSoC6\pdl\drivers/peripheral/scb/cy_scb_spi.h **** * \note
 925:Generated_Source\PSoC6\pdl\drivers/peripheral/scb/cy_scb_spi.h **** * * The SPI master does not assign the slave select line immediately after
 926:Generated_Source\PSoC6\pdl\drivers/peripheral/scb/cy_scb_spi.h **** *   the first data element is written into the TX FIFO. It takes up to two SCLK
 927:Generated_Source\PSoC6\pdl\drivers/peripheral/scb/cy_scb_spi.h **** *   clocks to assign the slave select line. Before this happens, the bus
 928:Generated_Source\PSoC6\pdl\drivers/peripheral/scb/cy_scb_spi.h **** *   is considered idle.
 929:Generated_Source\PSoC6\pdl\drivers/peripheral/scb/cy_scb_spi.h **** * * If the SPI master is configured to separate a data elements transfer,
 930:Generated_Source\PSoC6\pdl\drivers/peripheral/scb/cy_scb_spi.h **** *   the bus is busy during each element transfer and is free between them.
 931:Generated_Source\PSoC6\pdl\drivers/peripheral/scb/cy_scb_spi.h **** *
 932:Generated_Source\PSoC6\pdl\drivers/peripheral/scb/cy_scb_spi.h **** *******************************************************************************/
 933:Generated_Source\PSoC6\pdl\drivers/peripheral/scb/cy_scb_spi.h **** __STATIC_INLINE bool Cy_SCB_SPI_IsBusBusy(CySCB_Type const *base)
 934:Generated_Source\PSoC6\pdl\drivers/peripheral/scb/cy_scb_spi.h **** {
 935:Generated_Source\PSoC6\pdl\drivers/peripheral/scb/cy_scb_spi.h ****     return _FLD2BOOL(SCB_SPI_STATUS_BUS_BUSY, base->SPI_STATUS);
 936:Generated_Source\PSoC6\pdl\drivers/peripheral/scb/cy_scb_spi.h **** }
 937:Generated_Source\PSoC6\pdl\drivers/peripheral/scb/cy_scb_spi.h **** 
 938:Generated_Source\PSoC6\pdl\drivers/peripheral/scb/cy_scb_spi.h **** 
 939:Generated_Source\PSoC6\pdl\drivers/peripheral/scb/cy_scb_spi.h **** /*******************************************************************************
 940:Generated_Source\PSoC6\pdl\drivers/peripheral/scb/cy_scb_spi.h **** * Function Name: Cy_SCB_SPI_SetActiveSlaveSelect
 941:Generated_Source\PSoC6\pdl\drivers/peripheral/scb/cy_scb_spi.h **** ****************************************************************************//**
 942:Generated_Source\PSoC6\pdl\drivers/peripheral/scb/cy_scb_spi.h **** *
 943:Generated_Source\PSoC6\pdl\drivers/peripheral/scb/cy_scb_spi.h **** * Selects an active slave select line from one of four available.
 944:Generated_Source\PSoC6\pdl\drivers/peripheral/scb/cy_scb_spi.h **** * This function is applicable for the master and slave.
 945:Generated_Source\PSoC6\pdl\drivers/peripheral/scb/cy_scb_spi.h **** *
 946:Generated_Source\PSoC6\pdl\drivers/peripheral/scb/cy_scb_spi.h **** * \param base
 947:Generated_Source\PSoC6\pdl\drivers/peripheral/scb/cy_scb_spi.h **** * The pointer to the SPI SCB instance.
 948:Generated_Source\PSoC6\pdl\drivers/peripheral/scb/cy_scb_spi.h **** *
 949:Generated_Source\PSoC6\pdl\drivers/peripheral/scb/cy_scb_spi.h **** * \param slaveSelect
 950:Generated_Source\PSoC6\pdl\drivers/peripheral/scb/cy_scb_spi.h **** * The slave select line number.
 951:Generated_Source\PSoC6\pdl\drivers/peripheral/scb/cy_scb_spi.h **** * See \ref cy_en_scb_spi_slave_select_t for the set of constants.
 952:Generated_Source\PSoC6\pdl\drivers/peripheral/scb/cy_scb_spi.h **** *
 953:Generated_Source\PSoC6\pdl\drivers/peripheral/scb/cy_scb_spi.h **** * \note
 954:Generated_Source\PSoC6\pdl\drivers/peripheral/scb/cy_scb_spi.h **** * The SCB be idle or disabled before calling this function.
 955:Generated_Source\PSoC6\pdl\drivers/peripheral/scb/cy_scb_spi.h **** *
 956:Generated_Source\PSoC6\pdl\drivers/peripheral/scb/cy_scb_spi.h **** *******************************************************************************/
 957:Generated_Source\PSoC6\pdl\drivers/peripheral/scb/cy_scb_spi.h **** __STATIC_INLINE void Cy_SCB_SPI_SetActiveSlaveSelect(CySCB_Type *base, cy_en_scb_spi_slave_select_t
 958:Generated_Source\PSoC6\pdl\drivers/peripheral/scb/cy_scb_spi.h **** {
 959:Generated_Source\PSoC6\pdl\drivers/peripheral/scb/cy_scb_spi.h ****     CY_ASSERT_L3(CY_SCB_SPI_IS_SLAVE_SEL_VALID(slaveSelect));
 960:Generated_Source\PSoC6\pdl\drivers/peripheral/scb/cy_scb_spi.h **** 
 961:Generated_Source\PSoC6\pdl\drivers/peripheral/scb/cy_scb_spi.h ****     base->SPI_CTRL = _CLR_SET_FLD32U(base->SPI_CTRL, SCB_SPI_CTRL_SSEL, (uint32_t) slaveSelect);
  83              		.loc 3 961 0
  84 0016 226A     		ldr	r2, [r4, #32]
  85 0018 114B     		ldr	r3, .L7+16
  86 001a 1340     		ands	r3, r2
  87 001c 2362     		str	r3, [r4, #32]
  88              	.LVL2:
  89              	.LBE9:
ARM GAS  C:\Users\bryan.lee\AppData\Local\Temp\ccWKhefE.s 			page 30


  90              	.LBE8:
 104:Generated_Source\PSoC6/CY_EINK_SPIM.c **** 
 105:Generated_Source\PSoC6/CY_EINK_SPIM.c ****         /* Set active slave select to line 0 */
 106:Generated_Source\PSoC6/CY_EINK_SPIM.c ****         Cy_SCB_SPI_SetActiveSlaveSelect(CY_EINK_SPIM_HW, CY_EINK_SPIM_SPI_SLAVE_SELECT0);
 107:Generated_Source\PSoC6/CY_EINK_SPIM.c **** 
 108:Generated_Source\PSoC6/CY_EINK_SPIM.c ****         /* Hook interrupt service routine */
 109:Generated_Source\PSoC6/CY_EINK_SPIM.c ****     #if defined(CY_EINK_SPIM_SCB_IRQ__INTC_ASSIGNED)
 110:Generated_Source\PSoC6/CY_EINK_SPIM.c ****         (void) Cy_SysInt_Init(&CY_EINK_SPIM_SCB_IRQ_cfg, &CY_EINK_SPIM_Interrupt);
  91              		.loc 2 110 0
  92 001e 1149     		ldr	r1, .L7+20
  93 0020 1148     		ldr	r0, .L7+24
  94 0022 FFF7FEFF 		bl	Cy_SysInt_Init
  95              	.LVL3:
 111:Generated_Source\PSoC6/CY_EINK_SPIM.c ****     #endif /* (CY_EINK_SPIM_SCB_IRQ__INTC_ASSIGNED) */
 112:Generated_Source\PSoC6/CY_EINK_SPIM.c **** 
 113:Generated_Source\PSoC6/CY_EINK_SPIM.c ****         /* Component is configured */
 114:Generated_Source\PSoC6/CY_EINK_SPIM.c ****         CY_EINK_SPIM_initVar = 1U;
  96              		.loc 2 114 0
  97 0026 0122     		movs	r2, #1
  98 0028 094B     		ldr	r3, .L7
  99 002a 1A70     		strb	r2, [r3]
 100              	.L5:
 115:Generated_Source\PSoC6/CY_EINK_SPIM.c ****     }
 116:Generated_Source\PSoC6/CY_EINK_SPIM.c **** 
 117:Generated_Source\PSoC6/CY_EINK_SPIM.c ****     /* Enable interrupt in NVIC */
 118:Generated_Source\PSoC6/CY_EINK_SPIM.c **** #if defined(CY_EINK_SPIM_SCB_IRQ__INTC_ASSIGNED)
 119:Generated_Source\PSoC6/CY_EINK_SPIM.c ****     NVIC_EnableIRQ((IRQn_Type) CY_EINK_SPIM_SCB_IRQ_cfg.intrSrc);
 101              		.loc 2 119 0
 102 002c 0E4B     		ldr	r3, .L7+24
 103 002e 0022     		movs	r2, #0
 104 0030 9A5E     		ldrsh	r2, [r3, r2]
 105              	.LVL4:
 106              	.LBB10:
 107              	.LBB11:
 108              		.file 4 "Generated_Source\\PSoC6\\pdl\\cmsis/include/core_cm0plus.h"
   1:Generated_Source\PSoC6\pdl\cmsis/include/core_cm0plus.h **** /**************************************************************************//**
   2:Generated_Source\PSoC6\pdl\cmsis/include/core_cm0plus.h ****  * @file     core_cm0plus.h
   3:Generated_Source\PSoC6\pdl\cmsis/include/core_cm0plus.h ****  * @brief    CMSIS Cortex-M0+ Core Peripheral Access Layer Header File
   4:Generated_Source\PSoC6\pdl\cmsis/include/core_cm0plus.h ****  * @version  V5.0.1
   5:Generated_Source\PSoC6\pdl\cmsis/include/core_cm0plus.h ****  * @date     25. November 2016
   6:Generated_Source\PSoC6\pdl\cmsis/include/core_cm0plus.h ****  ******************************************************************************/
   7:Generated_Source\PSoC6\pdl\cmsis/include/core_cm0plus.h **** /*
   8:Generated_Source\PSoC6\pdl\cmsis/include/core_cm0plus.h ****  * Copyright (c) 2009-2016 ARM Limited. All rights reserved.
   9:Generated_Source\PSoC6\pdl\cmsis/include/core_cm0plus.h ****  *
  10:Generated_Source\PSoC6\pdl\cmsis/include/core_cm0plus.h ****  * SPDX-License-Identifier: Apache-2.0
  11:Generated_Source\PSoC6\pdl\cmsis/include/core_cm0plus.h ****  *
  12:Generated_Source\PSoC6\pdl\cmsis/include/core_cm0plus.h ****  * Licensed under the Apache License, Version 2.0 (the License); you may
  13:Generated_Source\PSoC6\pdl\cmsis/include/core_cm0plus.h ****  * not use this file except in compliance with the License.
  14:Generated_Source\PSoC6\pdl\cmsis/include/core_cm0plus.h ****  * You may obtain a copy of the License at
  15:Generated_Source\PSoC6\pdl\cmsis/include/core_cm0plus.h ****  *
  16:Generated_Source\PSoC6\pdl\cmsis/include/core_cm0plus.h ****  * www.apache.org/licenses/LICENSE-2.0
  17:Generated_Source\PSoC6\pdl\cmsis/include/core_cm0plus.h ****  *
  18:Generated_Source\PSoC6\pdl\cmsis/include/core_cm0plus.h ****  * Unless required by applicable law or agreed to in writing, software
  19:Generated_Source\PSoC6\pdl\cmsis/include/core_cm0plus.h ****  * distributed under the License is distributed on an AS IS BASIS, WITHOUT
  20:Generated_Source\PSoC6\pdl\cmsis/include/core_cm0plus.h ****  * WARRANTIES OR CONDITIONS OF ANY KIND, either express or implied.
  21:Generated_Source\PSoC6\pdl\cmsis/include/core_cm0plus.h ****  * See the License for the specific language governing permissions and
  22:Generated_Source\PSoC6\pdl\cmsis/include/core_cm0plus.h ****  * limitations under the License.
ARM GAS  C:\Users\bryan.lee\AppData\Local\Temp\ccWKhefE.s 			page 31


  23:Generated_Source\PSoC6\pdl\cmsis/include/core_cm0plus.h ****  */
  24:Generated_Source\PSoC6\pdl\cmsis/include/core_cm0plus.h **** 
  25:Generated_Source\PSoC6\pdl\cmsis/include/core_cm0plus.h **** #if   defined ( __ICCARM__ )
  26:Generated_Source\PSoC6\pdl\cmsis/include/core_cm0plus.h ****  #pragma system_include         /* treat file as system include file for MISRA check */
  27:Generated_Source\PSoC6\pdl\cmsis/include/core_cm0plus.h **** #elif defined (__ARMCC_VERSION) && (__ARMCC_VERSION >= 6010050)
  28:Generated_Source\PSoC6\pdl\cmsis/include/core_cm0plus.h ****   #pragma clang system_header   /* treat file as system include file */
  29:Generated_Source\PSoC6\pdl\cmsis/include/core_cm0plus.h **** #endif
  30:Generated_Source\PSoC6\pdl\cmsis/include/core_cm0plus.h **** 
  31:Generated_Source\PSoC6\pdl\cmsis/include/core_cm0plus.h **** #ifndef __CORE_CM0PLUS_H_GENERIC
  32:Generated_Source\PSoC6\pdl\cmsis/include/core_cm0plus.h **** #define __CORE_CM0PLUS_H_GENERIC
  33:Generated_Source\PSoC6\pdl\cmsis/include/core_cm0plus.h **** 
  34:Generated_Source\PSoC6\pdl\cmsis/include/core_cm0plus.h **** #include <stdint.h>
  35:Generated_Source\PSoC6\pdl\cmsis/include/core_cm0plus.h **** 
  36:Generated_Source\PSoC6\pdl\cmsis/include/core_cm0plus.h **** #ifdef __cplusplus
  37:Generated_Source\PSoC6\pdl\cmsis/include/core_cm0plus.h ****  extern "C" {
  38:Generated_Source\PSoC6\pdl\cmsis/include/core_cm0plus.h **** #endif
  39:Generated_Source\PSoC6\pdl\cmsis/include/core_cm0plus.h **** 
  40:Generated_Source\PSoC6\pdl\cmsis/include/core_cm0plus.h **** /**
  41:Generated_Source\PSoC6\pdl\cmsis/include/core_cm0plus.h ****   \page CMSIS_MISRA_Exceptions  MISRA-C:2004 Compliance Exceptions
  42:Generated_Source\PSoC6\pdl\cmsis/include/core_cm0plus.h ****   CMSIS violates the following MISRA-C:2004 rules:
  43:Generated_Source\PSoC6\pdl\cmsis/include/core_cm0plus.h **** 
  44:Generated_Source\PSoC6\pdl\cmsis/include/core_cm0plus.h ****    \li Required Rule 8.5, object/function definition in header file.<br>
  45:Generated_Source\PSoC6\pdl\cmsis/include/core_cm0plus.h ****      Function definitions in header files are used to allow 'inlining'.
  46:Generated_Source\PSoC6\pdl\cmsis/include/core_cm0plus.h **** 
  47:Generated_Source\PSoC6\pdl\cmsis/include/core_cm0plus.h ****    \li Required Rule 18.4, declaration of union type or object of union type: '{...}'.<br>
  48:Generated_Source\PSoC6\pdl\cmsis/include/core_cm0plus.h ****      Unions are used for effective representation of core registers.
  49:Generated_Source\PSoC6\pdl\cmsis/include/core_cm0plus.h **** 
  50:Generated_Source\PSoC6\pdl\cmsis/include/core_cm0plus.h ****    \li Advisory Rule 19.7, Function-like macro defined.<br>
  51:Generated_Source\PSoC6\pdl\cmsis/include/core_cm0plus.h ****      Function-like macros are used to allow more efficient code.
  52:Generated_Source\PSoC6\pdl\cmsis/include/core_cm0plus.h ****  */
  53:Generated_Source\PSoC6\pdl\cmsis/include/core_cm0plus.h **** 
  54:Generated_Source\PSoC6\pdl\cmsis/include/core_cm0plus.h **** 
  55:Generated_Source\PSoC6\pdl\cmsis/include/core_cm0plus.h **** /*******************************************************************************
  56:Generated_Source\PSoC6\pdl\cmsis/include/core_cm0plus.h ****  *                 CMSIS definitions
  57:Generated_Source\PSoC6\pdl\cmsis/include/core_cm0plus.h ****  ******************************************************************************/
  58:Generated_Source\PSoC6\pdl\cmsis/include/core_cm0plus.h **** /**
  59:Generated_Source\PSoC6\pdl\cmsis/include/core_cm0plus.h ****   \ingroup Cortex-M0+
  60:Generated_Source\PSoC6\pdl\cmsis/include/core_cm0plus.h ****   @{
  61:Generated_Source\PSoC6\pdl\cmsis/include/core_cm0plus.h ****  */
  62:Generated_Source\PSoC6\pdl\cmsis/include/core_cm0plus.h **** 
  63:Generated_Source\PSoC6\pdl\cmsis/include/core_cm0plus.h **** /*  CMSIS CM0+ definitions */
  64:Generated_Source\PSoC6\pdl\cmsis/include/core_cm0plus.h **** #define __CM0PLUS_CMSIS_VERSION_MAIN ( 5U)                                      /*!< [31:16] CMSIS 
  65:Generated_Source\PSoC6\pdl\cmsis/include/core_cm0plus.h **** #define __CM0PLUS_CMSIS_VERSION_SUB  ( 0U)                                      /*!< [15:0]  CMSIS 
  66:Generated_Source\PSoC6\pdl\cmsis/include/core_cm0plus.h **** #define __CM0PLUS_CMSIS_VERSION      ((__CM0PLUS_CMSIS_VERSION_MAIN << 16U) | \
  67:Generated_Source\PSoC6\pdl\cmsis/include/core_cm0plus.h ****                                        __CM0PLUS_CMSIS_VERSION_SUB           )  /*!< CMSIS HAL vers
  68:Generated_Source\PSoC6\pdl\cmsis/include/core_cm0plus.h **** 
  69:Generated_Source\PSoC6\pdl\cmsis/include/core_cm0plus.h **** #define __CORTEX_M                   (0U)                                       /*!< Cortex-M Core 
  70:Generated_Source\PSoC6\pdl\cmsis/include/core_cm0plus.h **** 
  71:Generated_Source\PSoC6\pdl\cmsis/include/core_cm0plus.h **** /** __FPU_USED indicates whether an FPU is used or not.
  72:Generated_Source\PSoC6\pdl\cmsis/include/core_cm0plus.h ****     This core does not support an FPU at all
  73:Generated_Source\PSoC6\pdl\cmsis/include/core_cm0plus.h **** */
  74:Generated_Source\PSoC6\pdl\cmsis/include/core_cm0plus.h **** #define __FPU_USED       0U
  75:Generated_Source\PSoC6\pdl\cmsis/include/core_cm0plus.h **** 
  76:Generated_Source\PSoC6\pdl\cmsis/include/core_cm0plus.h **** #if defined ( __CC_ARM )
  77:Generated_Source\PSoC6\pdl\cmsis/include/core_cm0plus.h ****   #if defined __TARGET_FPU_VFP
  78:Generated_Source\PSoC6\pdl\cmsis/include/core_cm0plus.h ****     #error "Compiler generates FPU instructions for a device without an FPU (check __FPU_PRESENT)"
  79:Generated_Source\PSoC6\pdl\cmsis/include/core_cm0plus.h ****   #endif
ARM GAS  C:\Users\bryan.lee\AppData\Local\Temp\ccWKhefE.s 			page 32


  80:Generated_Source\PSoC6\pdl\cmsis/include/core_cm0plus.h **** 
  81:Generated_Source\PSoC6\pdl\cmsis/include/core_cm0plus.h **** #elif defined (__ARMCC_VERSION) && (__ARMCC_VERSION >= 6010050)
  82:Generated_Source\PSoC6\pdl\cmsis/include/core_cm0plus.h ****   #if defined __ARM_PCS_VFP
  83:Generated_Source\PSoC6\pdl\cmsis/include/core_cm0plus.h ****     #error "Compiler generates FPU instructions for a device without an FPU (check __FPU_PRESENT)"
  84:Generated_Source\PSoC6\pdl\cmsis/include/core_cm0plus.h ****   #endif
  85:Generated_Source\PSoC6\pdl\cmsis/include/core_cm0plus.h **** 
  86:Generated_Source\PSoC6\pdl\cmsis/include/core_cm0plus.h **** #elif defined ( __GNUC__ )
  87:Generated_Source\PSoC6\pdl\cmsis/include/core_cm0plus.h ****   #if defined (__VFP_FP__) && !defined(__SOFTFP__)
  88:Generated_Source\PSoC6\pdl\cmsis/include/core_cm0plus.h ****     #error "Compiler generates FPU instructions for a device without an FPU (check __FPU_PRESENT)"
  89:Generated_Source\PSoC6\pdl\cmsis/include/core_cm0plus.h ****   #endif
  90:Generated_Source\PSoC6\pdl\cmsis/include/core_cm0plus.h **** 
  91:Generated_Source\PSoC6\pdl\cmsis/include/core_cm0plus.h **** #elif defined ( __ICCARM__ )
  92:Generated_Source\PSoC6\pdl\cmsis/include/core_cm0plus.h ****   #if defined __ARMVFP__
  93:Generated_Source\PSoC6\pdl\cmsis/include/core_cm0plus.h ****     #error "Compiler generates FPU instructions for a device without an FPU (check __FPU_PRESENT)"
  94:Generated_Source\PSoC6\pdl\cmsis/include/core_cm0plus.h ****   #endif
  95:Generated_Source\PSoC6\pdl\cmsis/include/core_cm0plus.h **** 
  96:Generated_Source\PSoC6\pdl\cmsis/include/core_cm0plus.h **** #elif defined ( __TI_ARM__ )
  97:Generated_Source\PSoC6\pdl\cmsis/include/core_cm0plus.h ****   #if defined __TI_VFP_SUPPORT__
  98:Generated_Source\PSoC6\pdl\cmsis/include/core_cm0plus.h ****     #error "Compiler generates FPU instructions for a device without an FPU (check __FPU_PRESENT)"
  99:Generated_Source\PSoC6\pdl\cmsis/include/core_cm0plus.h ****   #endif
 100:Generated_Source\PSoC6\pdl\cmsis/include/core_cm0plus.h **** 
 101:Generated_Source\PSoC6\pdl\cmsis/include/core_cm0plus.h **** #elif defined ( __TASKING__ )
 102:Generated_Source\PSoC6\pdl\cmsis/include/core_cm0plus.h ****   #if defined __FPU_VFP__
 103:Generated_Source\PSoC6\pdl\cmsis/include/core_cm0plus.h ****     #error "Compiler generates FPU instructions for a device without an FPU (check __FPU_PRESENT)"
 104:Generated_Source\PSoC6\pdl\cmsis/include/core_cm0plus.h ****   #endif
 105:Generated_Source\PSoC6\pdl\cmsis/include/core_cm0plus.h **** 
 106:Generated_Source\PSoC6\pdl\cmsis/include/core_cm0plus.h **** #elif defined ( __CSMC__ )
 107:Generated_Source\PSoC6\pdl\cmsis/include/core_cm0plus.h ****   #if ( __CSMC__ & 0x400U)
 108:Generated_Source\PSoC6\pdl\cmsis/include/core_cm0plus.h ****     #error "Compiler generates FPU instructions for a device without an FPU (check __FPU_PRESENT)"
 109:Generated_Source\PSoC6\pdl\cmsis/include/core_cm0plus.h ****   #endif
 110:Generated_Source\PSoC6\pdl\cmsis/include/core_cm0plus.h **** 
 111:Generated_Source\PSoC6\pdl\cmsis/include/core_cm0plus.h **** #endif
 112:Generated_Source\PSoC6\pdl\cmsis/include/core_cm0plus.h **** 
 113:Generated_Source\PSoC6\pdl\cmsis/include/core_cm0plus.h **** #include "cmsis_compiler.h"               /* CMSIS compiler specific defines */
 114:Generated_Source\PSoC6\pdl\cmsis/include/core_cm0plus.h **** 
 115:Generated_Source\PSoC6\pdl\cmsis/include/core_cm0plus.h **** 
 116:Generated_Source\PSoC6\pdl\cmsis/include/core_cm0plus.h **** #ifdef __cplusplus
 117:Generated_Source\PSoC6\pdl\cmsis/include/core_cm0plus.h **** }
 118:Generated_Source\PSoC6\pdl\cmsis/include/core_cm0plus.h **** #endif
 119:Generated_Source\PSoC6\pdl\cmsis/include/core_cm0plus.h **** 
 120:Generated_Source\PSoC6\pdl\cmsis/include/core_cm0plus.h **** #endif /* __CORE_CM0PLUS_H_GENERIC */
 121:Generated_Source\PSoC6\pdl\cmsis/include/core_cm0plus.h **** 
 122:Generated_Source\PSoC6\pdl\cmsis/include/core_cm0plus.h **** #ifndef __CMSIS_GENERIC
 123:Generated_Source\PSoC6\pdl\cmsis/include/core_cm0plus.h **** 
 124:Generated_Source\PSoC6\pdl\cmsis/include/core_cm0plus.h **** #ifndef __CORE_CM0PLUS_H_DEPENDANT
 125:Generated_Source\PSoC6\pdl\cmsis/include/core_cm0plus.h **** #define __CORE_CM0PLUS_H_DEPENDANT
 126:Generated_Source\PSoC6\pdl\cmsis/include/core_cm0plus.h **** 
 127:Generated_Source\PSoC6\pdl\cmsis/include/core_cm0plus.h **** #ifdef __cplusplus
 128:Generated_Source\PSoC6\pdl\cmsis/include/core_cm0plus.h ****  extern "C" {
 129:Generated_Source\PSoC6\pdl\cmsis/include/core_cm0plus.h **** #endif
 130:Generated_Source\PSoC6\pdl\cmsis/include/core_cm0plus.h **** 
 131:Generated_Source\PSoC6\pdl\cmsis/include/core_cm0plus.h **** /* check device defines and use defaults */
 132:Generated_Source\PSoC6\pdl\cmsis/include/core_cm0plus.h **** #if defined __CHECK_DEVICE_DEFINES
 133:Generated_Source\PSoC6\pdl\cmsis/include/core_cm0plus.h ****   #ifndef __CM0PLUS_REV
 134:Generated_Source\PSoC6\pdl\cmsis/include/core_cm0plus.h ****     #define __CM0PLUS_REV             0x0000U
 135:Generated_Source\PSoC6\pdl\cmsis/include/core_cm0plus.h ****     #warning "__CM0PLUS_REV not defined in device header file; using default!"
 136:Generated_Source\PSoC6\pdl\cmsis/include/core_cm0plus.h ****   #endif
ARM GAS  C:\Users\bryan.lee\AppData\Local\Temp\ccWKhefE.s 			page 33


 137:Generated_Source\PSoC6\pdl\cmsis/include/core_cm0plus.h **** 
 138:Generated_Source\PSoC6\pdl\cmsis/include/core_cm0plus.h ****   #ifndef __MPU_PRESENT
 139:Generated_Source\PSoC6\pdl\cmsis/include/core_cm0plus.h ****     #define __MPU_PRESENT             0U
 140:Generated_Source\PSoC6\pdl\cmsis/include/core_cm0plus.h ****     #warning "__MPU_PRESENT not defined in device header file; using default!"
 141:Generated_Source\PSoC6\pdl\cmsis/include/core_cm0plus.h ****   #endif
 142:Generated_Source\PSoC6\pdl\cmsis/include/core_cm0plus.h **** 
 143:Generated_Source\PSoC6\pdl\cmsis/include/core_cm0plus.h ****   #ifndef __VTOR_PRESENT
 144:Generated_Source\PSoC6\pdl\cmsis/include/core_cm0plus.h ****     #define __VTOR_PRESENT            0U
 145:Generated_Source\PSoC6\pdl\cmsis/include/core_cm0plus.h ****     #warning "__VTOR_PRESENT not defined in device header file; using default!"
 146:Generated_Source\PSoC6\pdl\cmsis/include/core_cm0plus.h ****   #endif
 147:Generated_Source\PSoC6\pdl\cmsis/include/core_cm0plus.h **** 
 148:Generated_Source\PSoC6\pdl\cmsis/include/core_cm0plus.h ****   #ifndef __NVIC_PRIO_BITS
 149:Generated_Source\PSoC6\pdl\cmsis/include/core_cm0plus.h ****     #define __NVIC_PRIO_BITS          2U
 150:Generated_Source\PSoC6\pdl\cmsis/include/core_cm0plus.h ****     #warning "__NVIC_PRIO_BITS not defined in device header file; using default!"
 151:Generated_Source\PSoC6\pdl\cmsis/include/core_cm0plus.h ****   #endif
 152:Generated_Source\PSoC6\pdl\cmsis/include/core_cm0plus.h **** 
 153:Generated_Source\PSoC6\pdl\cmsis/include/core_cm0plus.h ****   #ifndef __Vendor_SysTickConfig
 154:Generated_Source\PSoC6\pdl\cmsis/include/core_cm0plus.h ****     #define __Vendor_SysTickConfig    0U
 155:Generated_Source\PSoC6\pdl\cmsis/include/core_cm0plus.h ****     #warning "__Vendor_SysTickConfig not defined in device header file; using default!"
 156:Generated_Source\PSoC6\pdl\cmsis/include/core_cm0plus.h ****   #endif
 157:Generated_Source\PSoC6\pdl\cmsis/include/core_cm0plus.h **** #endif
 158:Generated_Source\PSoC6\pdl\cmsis/include/core_cm0plus.h **** 
 159:Generated_Source\PSoC6\pdl\cmsis/include/core_cm0plus.h **** /* IO definitions (access restrictions to peripheral registers) */
 160:Generated_Source\PSoC6\pdl\cmsis/include/core_cm0plus.h **** /**
 161:Generated_Source\PSoC6\pdl\cmsis/include/core_cm0plus.h ****     \defgroup CMSIS_glob_defs CMSIS Global Defines
 162:Generated_Source\PSoC6\pdl\cmsis/include/core_cm0plus.h **** 
 163:Generated_Source\PSoC6\pdl\cmsis/include/core_cm0plus.h ****     <strong>IO Type Qualifiers</strong> are used
 164:Generated_Source\PSoC6\pdl\cmsis/include/core_cm0plus.h ****     \li to specify the access to peripheral variables.
 165:Generated_Source\PSoC6\pdl\cmsis/include/core_cm0plus.h ****     \li for automatic generation of peripheral register debug information.
 166:Generated_Source\PSoC6\pdl\cmsis/include/core_cm0plus.h **** */
 167:Generated_Source\PSoC6\pdl\cmsis/include/core_cm0plus.h **** #ifdef __cplusplus
 168:Generated_Source\PSoC6\pdl\cmsis/include/core_cm0plus.h ****   #define   __I     volatile             /*!< Defines 'read only' permissions */
 169:Generated_Source\PSoC6\pdl\cmsis/include/core_cm0plus.h **** #else
 170:Generated_Source\PSoC6\pdl\cmsis/include/core_cm0plus.h ****   #define   __I     volatile const       /*!< Defines 'read only' permissions */
 171:Generated_Source\PSoC6\pdl\cmsis/include/core_cm0plus.h **** #endif
 172:Generated_Source\PSoC6\pdl\cmsis/include/core_cm0plus.h **** #define     __O     volatile             /*!< Defines 'write only' permissions */
 173:Generated_Source\PSoC6\pdl\cmsis/include/core_cm0plus.h **** #define     __IO    volatile             /*!< Defines 'read / write' permissions */
 174:Generated_Source\PSoC6\pdl\cmsis/include/core_cm0plus.h **** 
 175:Generated_Source\PSoC6\pdl\cmsis/include/core_cm0plus.h **** /* following defines should be used for structure members */
 176:Generated_Source\PSoC6\pdl\cmsis/include/core_cm0plus.h **** #define     __IM     volatile const      /*! Defines 'read only' structure member permissions */
 177:Generated_Source\PSoC6\pdl\cmsis/include/core_cm0plus.h **** #define     __OM     volatile            /*! Defines 'write only' structure member permissions */
 178:Generated_Source\PSoC6\pdl\cmsis/include/core_cm0plus.h **** #define     __IOM    volatile            /*! Defines 'read / write' structure member permissions */
 179:Generated_Source\PSoC6\pdl\cmsis/include/core_cm0plus.h **** 
 180:Generated_Source\PSoC6\pdl\cmsis/include/core_cm0plus.h **** /*@} end of group Cortex-M0+ */
 181:Generated_Source\PSoC6\pdl\cmsis/include/core_cm0plus.h **** 
 182:Generated_Source\PSoC6\pdl\cmsis/include/core_cm0plus.h **** 
 183:Generated_Source\PSoC6\pdl\cmsis/include/core_cm0plus.h **** 
 184:Generated_Source\PSoC6\pdl\cmsis/include/core_cm0plus.h **** /*******************************************************************************
 185:Generated_Source\PSoC6\pdl\cmsis/include/core_cm0plus.h ****  *                 Register Abstraction
 186:Generated_Source\PSoC6\pdl\cmsis/include/core_cm0plus.h ****   Core Register contain:
 187:Generated_Source\PSoC6\pdl\cmsis/include/core_cm0plus.h ****   - Core Register
 188:Generated_Source\PSoC6\pdl\cmsis/include/core_cm0plus.h ****   - Core NVIC Register
 189:Generated_Source\PSoC6\pdl\cmsis/include/core_cm0plus.h ****   - Core SCB Register
 190:Generated_Source\PSoC6\pdl\cmsis/include/core_cm0plus.h ****   - Core SysTick Register
 191:Generated_Source\PSoC6\pdl\cmsis/include/core_cm0plus.h ****   - Core MPU Register
 192:Generated_Source\PSoC6\pdl\cmsis/include/core_cm0plus.h ****  ******************************************************************************/
 193:Generated_Source\PSoC6\pdl\cmsis/include/core_cm0plus.h **** /**
ARM GAS  C:\Users\bryan.lee\AppData\Local\Temp\ccWKhefE.s 			page 34


 194:Generated_Source\PSoC6\pdl\cmsis/include/core_cm0plus.h ****   \defgroup CMSIS_core_register Defines and Type Definitions
 195:Generated_Source\PSoC6\pdl\cmsis/include/core_cm0plus.h ****   \brief Type definitions and defines for Cortex-M processor based devices.
 196:Generated_Source\PSoC6\pdl\cmsis/include/core_cm0plus.h **** */
 197:Generated_Source\PSoC6\pdl\cmsis/include/core_cm0plus.h **** 
 198:Generated_Source\PSoC6\pdl\cmsis/include/core_cm0plus.h **** /**
 199:Generated_Source\PSoC6\pdl\cmsis/include/core_cm0plus.h ****   \ingroup    CMSIS_core_register
 200:Generated_Source\PSoC6\pdl\cmsis/include/core_cm0plus.h ****   \defgroup   CMSIS_CORE  Status and Control Registers
 201:Generated_Source\PSoC6\pdl\cmsis/include/core_cm0plus.h ****   \brief      Core Register type definitions.
 202:Generated_Source\PSoC6\pdl\cmsis/include/core_cm0plus.h ****   @{
 203:Generated_Source\PSoC6\pdl\cmsis/include/core_cm0plus.h ****  */
 204:Generated_Source\PSoC6\pdl\cmsis/include/core_cm0plus.h **** 
 205:Generated_Source\PSoC6\pdl\cmsis/include/core_cm0plus.h **** /**
 206:Generated_Source\PSoC6\pdl\cmsis/include/core_cm0plus.h ****   \brief  Union type to access the Application Program Status Register (APSR).
 207:Generated_Source\PSoC6\pdl\cmsis/include/core_cm0plus.h ****  */
 208:Generated_Source\PSoC6\pdl\cmsis/include/core_cm0plus.h **** typedef union
 209:Generated_Source\PSoC6\pdl\cmsis/include/core_cm0plus.h **** {
 210:Generated_Source\PSoC6\pdl\cmsis/include/core_cm0plus.h ****   struct
 211:Generated_Source\PSoC6\pdl\cmsis/include/core_cm0plus.h ****   {
 212:Generated_Source\PSoC6\pdl\cmsis/include/core_cm0plus.h ****     uint32_t _reserved0:28;              /*!< bit:  0..27  Reserved */
 213:Generated_Source\PSoC6\pdl\cmsis/include/core_cm0plus.h ****     uint32_t V:1;                        /*!< bit:     28  Overflow condition code flag */
 214:Generated_Source\PSoC6\pdl\cmsis/include/core_cm0plus.h ****     uint32_t C:1;                        /*!< bit:     29  Carry condition code flag */
 215:Generated_Source\PSoC6\pdl\cmsis/include/core_cm0plus.h ****     uint32_t Z:1;                        /*!< bit:     30  Zero condition code flag */
 216:Generated_Source\PSoC6\pdl\cmsis/include/core_cm0plus.h ****     uint32_t N:1;                        /*!< bit:     31  Negative condition code flag */
 217:Generated_Source\PSoC6\pdl\cmsis/include/core_cm0plus.h ****   } b;                                   /*!< Structure used for bit  access */
 218:Generated_Source\PSoC6\pdl\cmsis/include/core_cm0plus.h ****   uint32_t w;                            /*!< Type      used for word access */
 219:Generated_Source\PSoC6\pdl\cmsis/include/core_cm0plus.h **** } APSR_Type;
 220:Generated_Source\PSoC6\pdl\cmsis/include/core_cm0plus.h **** 
 221:Generated_Source\PSoC6\pdl\cmsis/include/core_cm0plus.h **** /* APSR Register Definitions */
 222:Generated_Source\PSoC6\pdl\cmsis/include/core_cm0plus.h **** #define APSR_N_Pos                         31U                                            /*!< APSR
 223:Generated_Source\PSoC6\pdl\cmsis/include/core_cm0plus.h **** #define APSR_N_Msk                         (1UL << APSR_N_Pos)                            /*!< APSR
 224:Generated_Source\PSoC6\pdl\cmsis/include/core_cm0plus.h **** 
 225:Generated_Source\PSoC6\pdl\cmsis/include/core_cm0plus.h **** #define APSR_Z_Pos                         30U                                            /*!< APSR
 226:Generated_Source\PSoC6\pdl\cmsis/include/core_cm0plus.h **** #define APSR_Z_Msk                         (1UL << APSR_Z_Pos)                            /*!< APSR
 227:Generated_Source\PSoC6\pdl\cmsis/include/core_cm0plus.h **** 
 228:Generated_Source\PSoC6\pdl\cmsis/include/core_cm0plus.h **** #define APSR_C_Pos                         29U                                            /*!< APSR
 229:Generated_Source\PSoC6\pdl\cmsis/include/core_cm0plus.h **** #define APSR_C_Msk                         (1UL << APSR_C_Pos)                            /*!< APSR
 230:Generated_Source\PSoC6\pdl\cmsis/include/core_cm0plus.h **** 
 231:Generated_Source\PSoC6\pdl\cmsis/include/core_cm0plus.h **** #define APSR_V_Pos                         28U                                            /*!< APSR
 232:Generated_Source\PSoC6\pdl\cmsis/include/core_cm0plus.h **** #define APSR_V_Msk                         (1UL << APSR_V_Pos)                            /*!< APSR
 233:Generated_Source\PSoC6\pdl\cmsis/include/core_cm0plus.h **** 
 234:Generated_Source\PSoC6\pdl\cmsis/include/core_cm0plus.h **** 
 235:Generated_Source\PSoC6\pdl\cmsis/include/core_cm0plus.h **** /**
 236:Generated_Source\PSoC6\pdl\cmsis/include/core_cm0plus.h ****   \brief  Union type to access the Interrupt Program Status Register (IPSR).
 237:Generated_Source\PSoC6\pdl\cmsis/include/core_cm0plus.h ****  */
 238:Generated_Source\PSoC6\pdl\cmsis/include/core_cm0plus.h **** typedef union
 239:Generated_Source\PSoC6\pdl\cmsis/include/core_cm0plus.h **** {
 240:Generated_Source\PSoC6\pdl\cmsis/include/core_cm0plus.h ****   struct
 241:Generated_Source\PSoC6\pdl\cmsis/include/core_cm0plus.h ****   {
 242:Generated_Source\PSoC6\pdl\cmsis/include/core_cm0plus.h ****     uint32_t ISR:9;                      /*!< bit:  0.. 8  Exception number */
 243:Generated_Source\PSoC6\pdl\cmsis/include/core_cm0plus.h ****     uint32_t _reserved0:23;              /*!< bit:  9..31  Reserved */
 244:Generated_Source\PSoC6\pdl\cmsis/include/core_cm0plus.h ****   } b;                                   /*!< Structure used for bit  access */
 245:Generated_Source\PSoC6\pdl\cmsis/include/core_cm0plus.h ****   uint32_t w;                            /*!< Type      used for word access */
 246:Generated_Source\PSoC6\pdl\cmsis/include/core_cm0plus.h **** } IPSR_Type;
 247:Generated_Source\PSoC6\pdl\cmsis/include/core_cm0plus.h **** 
 248:Generated_Source\PSoC6\pdl\cmsis/include/core_cm0plus.h **** /* IPSR Register Definitions */
 249:Generated_Source\PSoC6\pdl\cmsis/include/core_cm0plus.h **** #define IPSR_ISR_Pos                        0U                                            /*!< IPSR
 250:Generated_Source\PSoC6\pdl\cmsis/include/core_cm0plus.h **** #define IPSR_ISR_Msk                       (0x1FFUL /*<< IPSR_ISR_Pos*/)                  /*!< IPSR
ARM GAS  C:\Users\bryan.lee\AppData\Local\Temp\ccWKhefE.s 			page 35


 251:Generated_Source\PSoC6\pdl\cmsis/include/core_cm0plus.h **** 
 252:Generated_Source\PSoC6\pdl\cmsis/include/core_cm0plus.h **** 
 253:Generated_Source\PSoC6\pdl\cmsis/include/core_cm0plus.h **** /**
 254:Generated_Source\PSoC6\pdl\cmsis/include/core_cm0plus.h ****   \brief  Union type to access the Special-Purpose Program Status Registers (xPSR).
 255:Generated_Source\PSoC6\pdl\cmsis/include/core_cm0plus.h ****  */
 256:Generated_Source\PSoC6\pdl\cmsis/include/core_cm0plus.h **** typedef union
 257:Generated_Source\PSoC6\pdl\cmsis/include/core_cm0plus.h **** {
 258:Generated_Source\PSoC6\pdl\cmsis/include/core_cm0plus.h ****   struct
 259:Generated_Source\PSoC6\pdl\cmsis/include/core_cm0plus.h ****   {
 260:Generated_Source\PSoC6\pdl\cmsis/include/core_cm0plus.h ****     uint32_t ISR:9;                      /*!< bit:  0.. 8  Exception number */
 261:Generated_Source\PSoC6\pdl\cmsis/include/core_cm0plus.h ****     uint32_t _reserved0:15;              /*!< bit:  9..23  Reserved */
 262:Generated_Source\PSoC6\pdl\cmsis/include/core_cm0plus.h ****     uint32_t T:1;                        /*!< bit:     24  Thumb bit        (read 0) */
 263:Generated_Source\PSoC6\pdl\cmsis/include/core_cm0plus.h ****     uint32_t _reserved1:3;               /*!< bit: 25..27  Reserved */
 264:Generated_Source\PSoC6\pdl\cmsis/include/core_cm0plus.h ****     uint32_t V:1;                        /*!< bit:     28  Overflow condition code flag */
 265:Generated_Source\PSoC6\pdl\cmsis/include/core_cm0plus.h ****     uint32_t C:1;                        /*!< bit:     29  Carry condition code flag */
 266:Generated_Source\PSoC6\pdl\cmsis/include/core_cm0plus.h ****     uint32_t Z:1;                        /*!< bit:     30  Zero condition code flag */
 267:Generated_Source\PSoC6\pdl\cmsis/include/core_cm0plus.h ****     uint32_t N:1;                        /*!< bit:     31  Negative condition code flag */
 268:Generated_Source\PSoC6\pdl\cmsis/include/core_cm0plus.h ****   } b;                                   /*!< Structure used for bit  access */
 269:Generated_Source\PSoC6\pdl\cmsis/include/core_cm0plus.h ****   uint32_t w;                            /*!< Type      used for word access */
 270:Generated_Source\PSoC6\pdl\cmsis/include/core_cm0plus.h **** } xPSR_Type;
 271:Generated_Source\PSoC6\pdl\cmsis/include/core_cm0plus.h **** 
 272:Generated_Source\PSoC6\pdl\cmsis/include/core_cm0plus.h **** /* xPSR Register Definitions */
 273:Generated_Source\PSoC6\pdl\cmsis/include/core_cm0plus.h **** #define xPSR_N_Pos                         31U                                            /*!< xPSR
 274:Generated_Source\PSoC6\pdl\cmsis/include/core_cm0plus.h **** #define xPSR_N_Msk                         (1UL << xPSR_N_Pos)                            /*!< xPSR
 275:Generated_Source\PSoC6\pdl\cmsis/include/core_cm0plus.h **** 
 276:Generated_Source\PSoC6\pdl\cmsis/include/core_cm0plus.h **** #define xPSR_Z_Pos                         30U                                            /*!< xPSR
 277:Generated_Source\PSoC6\pdl\cmsis/include/core_cm0plus.h **** #define xPSR_Z_Msk                         (1UL << xPSR_Z_Pos)                            /*!< xPSR
 278:Generated_Source\PSoC6\pdl\cmsis/include/core_cm0plus.h **** 
 279:Generated_Source\PSoC6\pdl\cmsis/include/core_cm0plus.h **** #define xPSR_C_Pos                         29U                                            /*!< xPSR
 280:Generated_Source\PSoC6\pdl\cmsis/include/core_cm0plus.h **** #define xPSR_C_Msk                         (1UL << xPSR_C_Pos)                            /*!< xPSR
 281:Generated_Source\PSoC6\pdl\cmsis/include/core_cm0plus.h **** 
 282:Generated_Source\PSoC6\pdl\cmsis/include/core_cm0plus.h **** #define xPSR_V_Pos                         28U                                            /*!< xPSR
 283:Generated_Source\PSoC6\pdl\cmsis/include/core_cm0plus.h **** #define xPSR_V_Msk                         (1UL << xPSR_V_Pos)                            /*!< xPSR
 284:Generated_Source\PSoC6\pdl\cmsis/include/core_cm0plus.h **** 
 285:Generated_Source\PSoC6\pdl\cmsis/include/core_cm0plus.h **** #define xPSR_T_Pos                         24U                                            /*!< xPSR
 286:Generated_Source\PSoC6\pdl\cmsis/include/core_cm0plus.h **** #define xPSR_T_Msk                         (1UL << xPSR_T_Pos)                            /*!< xPSR
 287:Generated_Source\PSoC6\pdl\cmsis/include/core_cm0plus.h **** 
 288:Generated_Source\PSoC6\pdl\cmsis/include/core_cm0plus.h **** #define xPSR_ISR_Pos                        0U                                            /*!< xPSR
 289:Generated_Source\PSoC6\pdl\cmsis/include/core_cm0plus.h **** #define xPSR_ISR_Msk                       (0x1FFUL /*<< xPSR_ISR_Pos*/)                  /*!< xPSR
 290:Generated_Source\PSoC6\pdl\cmsis/include/core_cm0plus.h **** 
 291:Generated_Source\PSoC6\pdl\cmsis/include/core_cm0plus.h **** 
 292:Generated_Source\PSoC6\pdl\cmsis/include/core_cm0plus.h **** /**
 293:Generated_Source\PSoC6\pdl\cmsis/include/core_cm0plus.h ****   \brief  Union type to access the Control Registers (CONTROL).
 294:Generated_Source\PSoC6\pdl\cmsis/include/core_cm0plus.h ****  */
 295:Generated_Source\PSoC6\pdl\cmsis/include/core_cm0plus.h **** typedef union
 296:Generated_Source\PSoC6\pdl\cmsis/include/core_cm0plus.h **** {
 297:Generated_Source\PSoC6\pdl\cmsis/include/core_cm0plus.h ****   struct
 298:Generated_Source\PSoC6\pdl\cmsis/include/core_cm0plus.h ****   {
 299:Generated_Source\PSoC6\pdl\cmsis/include/core_cm0plus.h ****     uint32_t nPRIV:1;                    /*!< bit:      0  Execution privilege in Thread mode */
 300:Generated_Source\PSoC6\pdl\cmsis/include/core_cm0plus.h ****     uint32_t SPSEL:1;                    /*!< bit:      1  Stack to be used */
 301:Generated_Source\PSoC6\pdl\cmsis/include/core_cm0plus.h ****     uint32_t _reserved1:30;              /*!< bit:  2..31  Reserved */
 302:Generated_Source\PSoC6\pdl\cmsis/include/core_cm0plus.h ****   } b;                                   /*!< Structure used for bit  access */
 303:Generated_Source\PSoC6\pdl\cmsis/include/core_cm0plus.h ****   uint32_t w;                            /*!< Type      used for word access */
 304:Generated_Source\PSoC6\pdl\cmsis/include/core_cm0plus.h **** } CONTROL_Type;
 305:Generated_Source\PSoC6\pdl\cmsis/include/core_cm0plus.h **** 
 306:Generated_Source\PSoC6\pdl\cmsis/include/core_cm0plus.h **** /* CONTROL Register Definitions */
 307:Generated_Source\PSoC6\pdl\cmsis/include/core_cm0plus.h **** #define CONTROL_SPSEL_Pos                   1U                                            /*!< CONT
ARM GAS  C:\Users\bryan.lee\AppData\Local\Temp\ccWKhefE.s 			page 36


 308:Generated_Source\PSoC6\pdl\cmsis/include/core_cm0plus.h **** #define CONTROL_SPSEL_Msk                  (1UL << CONTROL_SPSEL_Pos)                     /*!< CONT
 309:Generated_Source\PSoC6\pdl\cmsis/include/core_cm0plus.h **** 
 310:Generated_Source\PSoC6\pdl\cmsis/include/core_cm0plus.h **** #define CONTROL_nPRIV_Pos                   0U                                            /*!< CONT
 311:Generated_Source\PSoC6\pdl\cmsis/include/core_cm0plus.h **** #define CONTROL_nPRIV_Msk                  (1UL /*<< CONTROL_nPRIV_Pos*/)                 /*!< CONT
 312:Generated_Source\PSoC6\pdl\cmsis/include/core_cm0plus.h **** 
 313:Generated_Source\PSoC6\pdl\cmsis/include/core_cm0plus.h **** /*@} end of group CMSIS_CORE */
 314:Generated_Source\PSoC6\pdl\cmsis/include/core_cm0plus.h **** 
 315:Generated_Source\PSoC6\pdl\cmsis/include/core_cm0plus.h **** 
 316:Generated_Source\PSoC6\pdl\cmsis/include/core_cm0plus.h **** /**
 317:Generated_Source\PSoC6\pdl\cmsis/include/core_cm0plus.h ****   \ingroup    CMSIS_core_register
 318:Generated_Source\PSoC6\pdl\cmsis/include/core_cm0plus.h ****   \defgroup   CMSIS_NVIC  Nested Vectored Interrupt Controller (NVIC)
 319:Generated_Source\PSoC6\pdl\cmsis/include/core_cm0plus.h ****   \brief      Type definitions for the NVIC Registers
 320:Generated_Source\PSoC6\pdl\cmsis/include/core_cm0plus.h ****   @{
 321:Generated_Source\PSoC6\pdl\cmsis/include/core_cm0plus.h ****  */
 322:Generated_Source\PSoC6\pdl\cmsis/include/core_cm0plus.h **** 
 323:Generated_Source\PSoC6\pdl\cmsis/include/core_cm0plus.h **** /**
 324:Generated_Source\PSoC6\pdl\cmsis/include/core_cm0plus.h ****   \brief  Structure type to access the Nested Vectored Interrupt Controller (NVIC).
 325:Generated_Source\PSoC6\pdl\cmsis/include/core_cm0plus.h ****  */
 326:Generated_Source\PSoC6\pdl\cmsis/include/core_cm0plus.h **** typedef struct
 327:Generated_Source\PSoC6\pdl\cmsis/include/core_cm0plus.h **** {
 328:Generated_Source\PSoC6\pdl\cmsis/include/core_cm0plus.h ****   __IOM uint32_t ISER[1U];               /*!< Offset: 0x000 (R/W)  Interrupt Set Enable Register */
 329:Generated_Source\PSoC6\pdl\cmsis/include/core_cm0plus.h ****         uint32_t RESERVED0[31U];
 330:Generated_Source\PSoC6\pdl\cmsis/include/core_cm0plus.h ****   __IOM uint32_t ICER[1U];               /*!< Offset: 0x080 (R/W)  Interrupt Clear Enable Register 
 331:Generated_Source\PSoC6\pdl\cmsis/include/core_cm0plus.h ****         uint32_t RSERVED1[31U];
 332:Generated_Source\PSoC6\pdl\cmsis/include/core_cm0plus.h ****   __IOM uint32_t ISPR[1U];               /*!< Offset: 0x100 (R/W)  Interrupt Set Pending Register *
 333:Generated_Source\PSoC6\pdl\cmsis/include/core_cm0plus.h ****         uint32_t RESERVED2[31U];
 334:Generated_Source\PSoC6\pdl\cmsis/include/core_cm0plus.h ****   __IOM uint32_t ICPR[1U];               /*!< Offset: 0x180 (R/W)  Interrupt Clear Pending Register
 335:Generated_Source\PSoC6\pdl\cmsis/include/core_cm0plus.h ****         uint32_t RESERVED3[31U];
 336:Generated_Source\PSoC6\pdl\cmsis/include/core_cm0plus.h ****         uint32_t RESERVED4[64U];
 337:Generated_Source\PSoC6\pdl\cmsis/include/core_cm0plus.h ****   __IOM uint32_t IP[8U];                 /*!< Offset: 0x300 (R/W)  Interrupt Priority Register */
 338:Generated_Source\PSoC6\pdl\cmsis/include/core_cm0plus.h **** }  NVIC_Type;
 339:Generated_Source\PSoC6\pdl\cmsis/include/core_cm0plus.h **** 
 340:Generated_Source\PSoC6\pdl\cmsis/include/core_cm0plus.h **** /*@} end of group CMSIS_NVIC */
 341:Generated_Source\PSoC6\pdl\cmsis/include/core_cm0plus.h **** 
 342:Generated_Source\PSoC6\pdl\cmsis/include/core_cm0plus.h **** 
 343:Generated_Source\PSoC6\pdl\cmsis/include/core_cm0plus.h **** /**
 344:Generated_Source\PSoC6\pdl\cmsis/include/core_cm0plus.h ****   \ingroup  CMSIS_core_register
 345:Generated_Source\PSoC6\pdl\cmsis/include/core_cm0plus.h ****   \defgroup CMSIS_SCB     System Control Block (SCB)
 346:Generated_Source\PSoC6\pdl\cmsis/include/core_cm0plus.h ****   \brief    Type definitions for the System Control Block Registers
 347:Generated_Source\PSoC6\pdl\cmsis/include/core_cm0plus.h ****   @{
 348:Generated_Source\PSoC6\pdl\cmsis/include/core_cm0plus.h ****  */
 349:Generated_Source\PSoC6\pdl\cmsis/include/core_cm0plus.h **** 
 350:Generated_Source\PSoC6\pdl\cmsis/include/core_cm0plus.h **** /**
 351:Generated_Source\PSoC6\pdl\cmsis/include/core_cm0plus.h ****   \brief  Structure type to access the System Control Block (SCB).
 352:Generated_Source\PSoC6\pdl\cmsis/include/core_cm0plus.h ****  */
 353:Generated_Source\PSoC6\pdl\cmsis/include/core_cm0plus.h **** typedef struct
 354:Generated_Source\PSoC6\pdl\cmsis/include/core_cm0plus.h **** {
 355:Generated_Source\PSoC6\pdl\cmsis/include/core_cm0plus.h ****   __IM  uint32_t CPUID;                  /*!< Offset: 0x000 (R/ )  CPUID Base Register */
 356:Generated_Source\PSoC6\pdl\cmsis/include/core_cm0plus.h ****   __IOM uint32_t ICSR;                   /*!< Offset: 0x004 (R/W)  Interrupt Control and State Regi
 357:Generated_Source\PSoC6\pdl\cmsis/include/core_cm0plus.h **** #if defined (__VTOR_PRESENT) && (__VTOR_PRESENT == 1U)
 358:Generated_Source\PSoC6\pdl\cmsis/include/core_cm0plus.h ****   __IOM uint32_t VTOR;                   /*!< Offset: 0x008 (R/W)  Vector Table Offset Register */
 359:Generated_Source\PSoC6\pdl\cmsis/include/core_cm0plus.h **** #else
 360:Generated_Source\PSoC6\pdl\cmsis/include/core_cm0plus.h ****         uint32_t RESERVED0;
 361:Generated_Source\PSoC6\pdl\cmsis/include/core_cm0plus.h **** #endif
 362:Generated_Source\PSoC6\pdl\cmsis/include/core_cm0plus.h ****   __IOM uint32_t AIRCR;                  /*!< Offset: 0x00C (R/W)  Application Interrupt and Reset 
 363:Generated_Source\PSoC6\pdl\cmsis/include/core_cm0plus.h ****   __IOM uint32_t SCR;                    /*!< Offset: 0x010 (R/W)  System Control Register */
 364:Generated_Source\PSoC6\pdl\cmsis/include/core_cm0plus.h ****   __IOM uint32_t CCR;                    /*!< Offset: 0x014 (R/W)  Configuration Control Register *
ARM GAS  C:\Users\bryan.lee\AppData\Local\Temp\ccWKhefE.s 			page 37


 365:Generated_Source\PSoC6\pdl\cmsis/include/core_cm0plus.h ****         uint32_t RESERVED1;
 366:Generated_Source\PSoC6\pdl\cmsis/include/core_cm0plus.h ****   __IOM uint32_t SHP[2U];                /*!< Offset: 0x01C (R/W)  System Handlers Priority Registe
 367:Generated_Source\PSoC6\pdl\cmsis/include/core_cm0plus.h ****   __IOM uint32_t SHCSR;                  /*!< Offset: 0x024 (R/W)  System Handler Control and State
 368:Generated_Source\PSoC6\pdl\cmsis/include/core_cm0plus.h **** } SCB_Type;
 369:Generated_Source\PSoC6\pdl\cmsis/include/core_cm0plus.h **** 
 370:Generated_Source\PSoC6\pdl\cmsis/include/core_cm0plus.h **** /* SCB CPUID Register Definitions */
 371:Generated_Source\PSoC6\pdl\cmsis/include/core_cm0plus.h **** #define SCB_CPUID_IMPLEMENTER_Pos          24U                                            /*!< SCB 
 372:Generated_Source\PSoC6\pdl\cmsis/include/core_cm0plus.h **** #define SCB_CPUID_IMPLEMENTER_Msk          (0xFFUL << SCB_CPUID_IMPLEMENTER_Pos)          /*!< SCB 
 373:Generated_Source\PSoC6\pdl\cmsis/include/core_cm0plus.h **** 
 374:Generated_Source\PSoC6\pdl\cmsis/include/core_cm0plus.h **** #define SCB_CPUID_VARIANT_Pos              20U                                            /*!< SCB 
 375:Generated_Source\PSoC6\pdl\cmsis/include/core_cm0plus.h **** #define SCB_CPUID_VARIANT_Msk              (0xFUL << SCB_CPUID_VARIANT_Pos)               /*!< SCB 
 376:Generated_Source\PSoC6\pdl\cmsis/include/core_cm0plus.h **** 
 377:Generated_Source\PSoC6\pdl\cmsis/include/core_cm0plus.h **** #define SCB_CPUID_ARCHITECTURE_Pos         16U                                            /*!< SCB 
 378:Generated_Source\PSoC6\pdl\cmsis/include/core_cm0plus.h **** #define SCB_CPUID_ARCHITECTURE_Msk         (0xFUL << SCB_CPUID_ARCHITECTURE_Pos)          /*!< SCB 
 379:Generated_Source\PSoC6\pdl\cmsis/include/core_cm0plus.h **** 
 380:Generated_Source\PSoC6\pdl\cmsis/include/core_cm0plus.h **** #define SCB_CPUID_PARTNO_Pos                4U                                            /*!< SCB 
 381:Generated_Source\PSoC6\pdl\cmsis/include/core_cm0plus.h **** #define SCB_CPUID_PARTNO_Msk               (0xFFFUL << SCB_CPUID_PARTNO_Pos)              /*!< SCB 
 382:Generated_Source\PSoC6\pdl\cmsis/include/core_cm0plus.h **** 
 383:Generated_Source\PSoC6\pdl\cmsis/include/core_cm0plus.h **** #define SCB_CPUID_REVISION_Pos              0U                                            /*!< SCB 
 384:Generated_Source\PSoC6\pdl\cmsis/include/core_cm0plus.h **** #define SCB_CPUID_REVISION_Msk             (0xFUL /*<< SCB_CPUID_REVISION_Pos*/)          /*!< SCB 
 385:Generated_Source\PSoC6\pdl\cmsis/include/core_cm0plus.h **** 
 386:Generated_Source\PSoC6\pdl\cmsis/include/core_cm0plus.h **** /* SCB Interrupt Control State Register Definitions */
 387:Generated_Source\PSoC6\pdl\cmsis/include/core_cm0plus.h **** #define SCB_ICSR_NMIPENDSET_Pos            31U                                            /*!< SCB 
 388:Generated_Source\PSoC6\pdl\cmsis/include/core_cm0plus.h **** #define SCB_ICSR_NMIPENDSET_Msk            (1UL << SCB_ICSR_NMIPENDSET_Pos)               /*!< SCB 
 389:Generated_Source\PSoC6\pdl\cmsis/include/core_cm0plus.h **** 
 390:Generated_Source\PSoC6\pdl\cmsis/include/core_cm0plus.h **** #define SCB_ICSR_PENDSVSET_Pos             28U                                            /*!< SCB 
 391:Generated_Source\PSoC6\pdl\cmsis/include/core_cm0plus.h **** #define SCB_ICSR_PENDSVSET_Msk             (1UL << SCB_ICSR_PENDSVSET_Pos)                /*!< SCB 
 392:Generated_Source\PSoC6\pdl\cmsis/include/core_cm0plus.h **** 
 393:Generated_Source\PSoC6\pdl\cmsis/include/core_cm0plus.h **** #define SCB_ICSR_PENDSVCLR_Pos             27U                                            /*!< SCB 
 394:Generated_Source\PSoC6\pdl\cmsis/include/core_cm0plus.h **** #define SCB_ICSR_PENDSVCLR_Msk             (1UL << SCB_ICSR_PENDSVCLR_Pos)                /*!< SCB 
 395:Generated_Source\PSoC6\pdl\cmsis/include/core_cm0plus.h **** 
 396:Generated_Source\PSoC6\pdl\cmsis/include/core_cm0plus.h **** #define SCB_ICSR_PENDSTSET_Pos             26U                                            /*!< SCB 
 397:Generated_Source\PSoC6\pdl\cmsis/include/core_cm0plus.h **** #define SCB_ICSR_PENDSTSET_Msk             (1UL << SCB_ICSR_PENDSTSET_Pos)                /*!< SCB 
 398:Generated_Source\PSoC6\pdl\cmsis/include/core_cm0plus.h **** 
 399:Generated_Source\PSoC6\pdl\cmsis/include/core_cm0plus.h **** #define SCB_ICSR_PENDSTCLR_Pos             25U                                            /*!< SCB 
 400:Generated_Source\PSoC6\pdl\cmsis/include/core_cm0plus.h **** #define SCB_ICSR_PENDSTCLR_Msk             (1UL << SCB_ICSR_PENDSTCLR_Pos)                /*!< SCB 
 401:Generated_Source\PSoC6\pdl\cmsis/include/core_cm0plus.h **** 
 402:Generated_Source\PSoC6\pdl\cmsis/include/core_cm0plus.h **** #define SCB_ICSR_ISRPREEMPT_Pos            23U                                            /*!< SCB 
 403:Generated_Source\PSoC6\pdl\cmsis/include/core_cm0plus.h **** #define SCB_ICSR_ISRPREEMPT_Msk            (1UL << SCB_ICSR_ISRPREEMPT_Pos)               /*!< SCB 
 404:Generated_Source\PSoC6\pdl\cmsis/include/core_cm0plus.h **** 
 405:Generated_Source\PSoC6\pdl\cmsis/include/core_cm0plus.h **** #define SCB_ICSR_ISRPENDING_Pos            22U                                            /*!< SCB 
 406:Generated_Source\PSoC6\pdl\cmsis/include/core_cm0plus.h **** #define SCB_ICSR_ISRPENDING_Msk            (1UL << SCB_ICSR_ISRPENDING_Pos)               /*!< SCB 
 407:Generated_Source\PSoC6\pdl\cmsis/include/core_cm0plus.h **** 
 408:Generated_Source\PSoC6\pdl\cmsis/include/core_cm0plus.h **** #define SCB_ICSR_VECTPENDING_Pos           12U                                            /*!< SCB 
 409:Generated_Source\PSoC6\pdl\cmsis/include/core_cm0plus.h **** #define SCB_ICSR_VECTPENDING_Msk           (0x1FFUL << SCB_ICSR_VECTPENDING_Pos)          /*!< SCB 
 410:Generated_Source\PSoC6\pdl\cmsis/include/core_cm0plus.h **** 
 411:Generated_Source\PSoC6\pdl\cmsis/include/core_cm0plus.h **** #define SCB_ICSR_VECTACTIVE_Pos             0U                                            /*!< SCB 
 412:Generated_Source\PSoC6\pdl\cmsis/include/core_cm0plus.h **** #define SCB_ICSR_VECTACTIVE_Msk            (0x1FFUL /*<< SCB_ICSR_VECTACTIVE_Pos*/)       /*!< SCB 
 413:Generated_Source\PSoC6\pdl\cmsis/include/core_cm0plus.h **** 
 414:Generated_Source\PSoC6\pdl\cmsis/include/core_cm0plus.h **** #if defined (__VTOR_PRESENT) && (__VTOR_PRESENT == 1U)
 415:Generated_Source\PSoC6\pdl\cmsis/include/core_cm0plus.h **** /* SCB Interrupt Control State Register Definitions */
 416:Generated_Source\PSoC6\pdl\cmsis/include/core_cm0plus.h **** #define SCB_VTOR_TBLOFF_Pos                 8U                                            /*!< SCB 
 417:Generated_Source\PSoC6\pdl\cmsis/include/core_cm0plus.h **** #define SCB_VTOR_TBLOFF_Msk                (0xFFFFFFUL << SCB_VTOR_TBLOFF_Pos)            /*!< SCB 
 418:Generated_Source\PSoC6\pdl\cmsis/include/core_cm0plus.h **** #endif
 419:Generated_Source\PSoC6\pdl\cmsis/include/core_cm0plus.h **** 
 420:Generated_Source\PSoC6\pdl\cmsis/include/core_cm0plus.h **** /* SCB Application Interrupt and Reset Control Register Definitions */
 421:Generated_Source\PSoC6\pdl\cmsis/include/core_cm0plus.h **** #define SCB_AIRCR_VECTKEY_Pos              16U                                            /*!< SCB 
ARM GAS  C:\Users\bryan.lee\AppData\Local\Temp\ccWKhefE.s 			page 38


 422:Generated_Source\PSoC6\pdl\cmsis/include/core_cm0plus.h **** #define SCB_AIRCR_VECTKEY_Msk              (0xFFFFUL << SCB_AIRCR_VECTKEY_Pos)            /*!< SCB 
 423:Generated_Source\PSoC6\pdl\cmsis/include/core_cm0plus.h **** 
 424:Generated_Source\PSoC6\pdl\cmsis/include/core_cm0plus.h **** #define SCB_AIRCR_VECTKEYSTAT_Pos          16U                                            /*!< SCB 
 425:Generated_Source\PSoC6\pdl\cmsis/include/core_cm0plus.h **** #define SCB_AIRCR_VECTKEYSTAT_Msk          (0xFFFFUL << SCB_AIRCR_VECTKEYSTAT_Pos)        /*!< SCB 
 426:Generated_Source\PSoC6\pdl\cmsis/include/core_cm0plus.h **** 
 427:Generated_Source\PSoC6\pdl\cmsis/include/core_cm0plus.h **** #define SCB_AIRCR_ENDIANESS_Pos            15U                                            /*!< SCB 
 428:Generated_Source\PSoC6\pdl\cmsis/include/core_cm0plus.h **** #define SCB_AIRCR_ENDIANESS_Msk            (1UL << SCB_AIRCR_ENDIANESS_Pos)               /*!< SCB 
 429:Generated_Source\PSoC6\pdl\cmsis/include/core_cm0plus.h **** 
 430:Generated_Source\PSoC6\pdl\cmsis/include/core_cm0plus.h **** #define SCB_AIRCR_SYSRESETREQ_Pos           2U                                            /*!< SCB 
 431:Generated_Source\PSoC6\pdl\cmsis/include/core_cm0plus.h **** #define SCB_AIRCR_SYSRESETREQ_Msk          (1UL << SCB_AIRCR_SYSRESETREQ_Pos)             /*!< SCB 
 432:Generated_Source\PSoC6\pdl\cmsis/include/core_cm0plus.h **** 
 433:Generated_Source\PSoC6\pdl\cmsis/include/core_cm0plus.h **** #define SCB_AIRCR_VECTCLRACTIVE_Pos         1U                                            /*!< SCB 
 434:Generated_Source\PSoC6\pdl\cmsis/include/core_cm0plus.h **** #define SCB_AIRCR_VECTCLRACTIVE_Msk        (1UL << SCB_AIRCR_VECTCLRACTIVE_Pos)           /*!< SCB 
 435:Generated_Source\PSoC6\pdl\cmsis/include/core_cm0plus.h **** 
 436:Generated_Source\PSoC6\pdl\cmsis/include/core_cm0plus.h **** /* SCB System Control Register Definitions */
 437:Generated_Source\PSoC6\pdl\cmsis/include/core_cm0plus.h **** #define SCB_SCR_SEVONPEND_Pos               4U                                            /*!< SCB 
 438:Generated_Source\PSoC6\pdl\cmsis/include/core_cm0plus.h **** #define SCB_SCR_SEVONPEND_Msk              (1UL << SCB_SCR_SEVONPEND_Pos)                 /*!< SCB 
 439:Generated_Source\PSoC6\pdl\cmsis/include/core_cm0plus.h **** 
 440:Generated_Source\PSoC6\pdl\cmsis/include/core_cm0plus.h **** #define SCB_SCR_SLEEPDEEP_Pos               2U                                            /*!< SCB 
 441:Generated_Source\PSoC6\pdl\cmsis/include/core_cm0plus.h **** #define SCB_SCR_SLEEPDEEP_Msk              (1UL << SCB_SCR_SLEEPDEEP_Pos)                 /*!< SCB 
 442:Generated_Source\PSoC6\pdl\cmsis/include/core_cm0plus.h **** 
 443:Generated_Source\PSoC6\pdl\cmsis/include/core_cm0plus.h **** #define SCB_SCR_SLEEPONEXIT_Pos             1U                                            /*!< SCB 
 444:Generated_Source\PSoC6\pdl\cmsis/include/core_cm0plus.h **** #define SCB_SCR_SLEEPONEXIT_Msk            (1UL << SCB_SCR_SLEEPONEXIT_Pos)               /*!< SCB 
 445:Generated_Source\PSoC6\pdl\cmsis/include/core_cm0plus.h **** 
 446:Generated_Source\PSoC6\pdl\cmsis/include/core_cm0plus.h **** /* SCB Configuration Control Register Definitions */
 447:Generated_Source\PSoC6\pdl\cmsis/include/core_cm0plus.h **** #define SCB_CCR_STKALIGN_Pos                9U                                            /*!< SCB 
 448:Generated_Source\PSoC6\pdl\cmsis/include/core_cm0plus.h **** #define SCB_CCR_STKALIGN_Msk               (1UL << SCB_CCR_STKALIGN_Pos)                  /*!< SCB 
 449:Generated_Source\PSoC6\pdl\cmsis/include/core_cm0plus.h **** 
 450:Generated_Source\PSoC6\pdl\cmsis/include/core_cm0plus.h **** #define SCB_CCR_UNALIGN_TRP_Pos             3U                                            /*!< SCB 
 451:Generated_Source\PSoC6\pdl\cmsis/include/core_cm0plus.h **** #define SCB_CCR_UNALIGN_TRP_Msk            (1UL << SCB_CCR_UNALIGN_TRP_Pos)               /*!< SCB 
 452:Generated_Source\PSoC6\pdl\cmsis/include/core_cm0plus.h **** 
 453:Generated_Source\PSoC6\pdl\cmsis/include/core_cm0plus.h **** /* SCB System Handler Control and State Register Definitions */
 454:Generated_Source\PSoC6\pdl\cmsis/include/core_cm0plus.h **** #define SCB_SHCSR_SVCALLPENDED_Pos         15U                                            /*!< SCB 
 455:Generated_Source\PSoC6\pdl\cmsis/include/core_cm0plus.h **** #define SCB_SHCSR_SVCALLPENDED_Msk         (1UL << SCB_SHCSR_SVCALLPENDED_Pos)            /*!< SCB 
 456:Generated_Source\PSoC6\pdl\cmsis/include/core_cm0plus.h **** 
 457:Generated_Source\PSoC6\pdl\cmsis/include/core_cm0plus.h **** /*@} end of group CMSIS_SCB */
 458:Generated_Source\PSoC6\pdl\cmsis/include/core_cm0plus.h **** 
 459:Generated_Source\PSoC6\pdl\cmsis/include/core_cm0plus.h **** 
 460:Generated_Source\PSoC6\pdl\cmsis/include/core_cm0plus.h **** /**
 461:Generated_Source\PSoC6\pdl\cmsis/include/core_cm0plus.h ****   \ingroup  CMSIS_core_register
 462:Generated_Source\PSoC6\pdl\cmsis/include/core_cm0plus.h ****   \defgroup CMSIS_SysTick     System Tick Timer (SysTick)
 463:Generated_Source\PSoC6\pdl\cmsis/include/core_cm0plus.h ****   \brief    Type definitions for the System Timer Registers.
 464:Generated_Source\PSoC6\pdl\cmsis/include/core_cm0plus.h ****   @{
 465:Generated_Source\PSoC6\pdl\cmsis/include/core_cm0plus.h ****  */
 466:Generated_Source\PSoC6\pdl\cmsis/include/core_cm0plus.h **** 
 467:Generated_Source\PSoC6\pdl\cmsis/include/core_cm0plus.h **** /**
 468:Generated_Source\PSoC6\pdl\cmsis/include/core_cm0plus.h ****   \brief  Structure type to access the System Timer (SysTick).
 469:Generated_Source\PSoC6\pdl\cmsis/include/core_cm0plus.h ****  */
 470:Generated_Source\PSoC6\pdl\cmsis/include/core_cm0plus.h **** typedef struct
 471:Generated_Source\PSoC6\pdl\cmsis/include/core_cm0plus.h **** {
 472:Generated_Source\PSoC6\pdl\cmsis/include/core_cm0plus.h ****   __IOM uint32_t CTRL;                   /*!< Offset: 0x000 (R/W)  SysTick Control and Status Regis
 473:Generated_Source\PSoC6\pdl\cmsis/include/core_cm0plus.h ****   __IOM uint32_t LOAD;                   /*!< Offset: 0x004 (R/W)  SysTick Reload Value Register */
 474:Generated_Source\PSoC6\pdl\cmsis/include/core_cm0plus.h ****   __IOM uint32_t VAL;                    /*!< Offset: 0x008 (R/W)  SysTick Current Value Register *
 475:Generated_Source\PSoC6\pdl\cmsis/include/core_cm0plus.h ****   __IM  uint32_t CALIB;                  /*!< Offset: 0x00C (R/ )  SysTick Calibration Register */
 476:Generated_Source\PSoC6\pdl\cmsis/include/core_cm0plus.h **** } SysTick_Type;
 477:Generated_Source\PSoC6\pdl\cmsis/include/core_cm0plus.h **** 
 478:Generated_Source\PSoC6\pdl\cmsis/include/core_cm0plus.h **** /* SysTick Control / Status Register Definitions */
ARM GAS  C:\Users\bryan.lee\AppData\Local\Temp\ccWKhefE.s 			page 39


 479:Generated_Source\PSoC6\pdl\cmsis/include/core_cm0plus.h **** #define SysTick_CTRL_COUNTFLAG_Pos         16U                                            /*!< SysT
 480:Generated_Source\PSoC6\pdl\cmsis/include/core_cm0plus.h **** #define SysTick_CTRL_COUNTFLAG_Msk         (1UL << SysTick_CTRL_COUNTFLAG_Pos)            /*!< SysT
 481:Generated_Source\PSoC6\pdl\cmsis/include/core_cm0plus.h **** 
 482:Generated_Source\PSoC6\pdl\cmsis/include/core_cm0plus.h **** #define SysTick_CTRL_CLKSOURCE_Pos          2U                                            /*!< SysT
 483:Generated_Source\PSoC6\pdl\cmsis/include/core_cm0plus.h **** #define SysTick_CTRL_CLKSOURCE_Msk         (1UL << SysTick_CTRL_CLKSOURCE_Pos)            /*!< SysT
 484:Generated_Source\PSoC6\pdl\cmsis/include/core_cm0plus.h **** 
 485:Generated_Source\PSoC6\pdl\cmsis/include/core_cm0plus.h **** #define SysTick_CTRL_TICKINT_Pos            1U                                            /*!< SysT
 486:Generated_Source\PSoC6\pdl\cmsis/include/core_cm0plus.h **** #define SysTick_CTRL_TICKINT_Msk           (1UL << SysTick_CTRL_TICKINT_Pos)              /*!< SysT
 487:Generated_Source\PSoC6\pdl\cmsis/include/core_cm0plus.h **** 
 488:Generated_Source\PSoC6\pdl\cmsis/include/core_cm0plus.h **** #define SysTick_CTRL_ENABLE_Pos             0U                                            /*!< SysT
 489:Generated_Source\PSoC6\pdl\cmsis/include/core_cm0plus.h **** #define SysTick_CTRL_ENABLE_Msk            (1UL /*<< SysTick_CTRL_ENABLE_Pos*/)           /*!< SysT
 490:Generated_Source\PSoC6\pdl\cmsis/include/core_cm0plus.h **** 
 491:Generated_Source\PSoC6\pdl\cmsis/include/core_cm0plus.h **** /* SysTick Reload Register Definitions */
 492:Generated_Source\PSoC6\pdl\cmsis/include/core_cm0plus.h **** #define SysTick_LOAD_RELOAD_Pos             0U                                            /*!< SysT
 493:Generated_Source\PSoC6\pdl\cmsis/include/core_cm0plus.h **** #define SysTick_LOAD_RELOAD_Msk            (0xFFFFFFUL /*<< SysTick_LOAD_RELOAD_Pos*/)    /*!< SysT
 494:Generated_Source\PSoC6\pdl\cmsis/include/core_cm0plus.h **** 
 495:Generated_Source\PSoC6\pdl\cmsis/include/core_cm0plus.h **** /* SysTick Current Register Definitions */
 496:Generated_Source\PSoC6\pdl\cmsis/include/core_cm0plus.h **** #define SysTick_VAL_CURRENT_Pos             0U                                            /*!< SysT
 497:Generated_Source\PSoC6\pdl\cmsis/include/core_cm0plus.h **** #define SysTick_VAL_CURRENT_Msk            (0xFFFFFFUL /*<< SysTick_VAL_CURRENT_Pos*/)    /*!< SysT
 498:Generated_Source\PSoC6\pdl\cmsis/include/core_cm0plus.h **** 
 499:Generated_Source\PSoC6\pdl\cmsis/include/core_cm0plus.h **** /* SysTick Calibration Register Definitions */
 500:Generated_Source\PSoC6\pdl\cmsis/include/core_cm0plus.h **** #define SysTick_CALIB_NOREF_Pos            31U                                            /*!< SysT
 501:Generated_Source\PSoC6\pdl\cmsis/include/core_cm0plus.h **** #define SysTick_CALIB_NOREF_Msk            (1UL << SysTick_CALIB_NOREF_Pos)               /*!< SysT
 502:Generated_Source\PSoC6\pdl\cmsis/include/core_cm0plus.h **** 
 503:Generated_Source\PSoC6\pdl\cmsis/include/core_cm0plus.h **** #define SysTick_CALIB_SKEW_Pos             30U                                            /*!< SysT
 504:Generated_Source\PSoC6\pdl\cmsis/include/core_cm0plus.h **** #define SysTick_CALIB_SKEW_Msk             (1UL << SysTick_CALIB_SKEW_Pos)                /*!< SysT
 505:Generated_Source\PSoC6\pdl\cmsis/include/core_cm0plus.h **** 
 506:Generated_Source\PSoC6\pdl\cmsis/include/core_cm0plus.h **** #define SysTick_CALIB_TENMS_Pos             0U                                            /*!< SysT
 507:Generated_Source\PSoC6\pdl\cmsis/include/core_cm0plus.h **** #define SysTick_CALIB_TENMS_Msk            (0xFFFFFFUL /*<< SysTick_CALIB_TENMS_Pos*/)    /*!< SysT
 508:Generated_Source\PSoC6\pdl\cmsis/include/core_cm0plus.h **** 
 509:Generated_Source\PSoC6\pdl\cmsis/include/core_cm0plus.h **** /*@} end of group CMSIS_SysTick */
 510:Generated_Source\PSoC6\pdl\cmsis/include/core_cm0plus.h **** 
 511:Generated_Source\PSoC6\pdl\cmsis/include/core_cm0plus.h **** #if defined (__MPU_PRESENT) && (__MPU_PRESENT == 1U)
 512:Generated_Source\PSoC6\pdl\cmsis/include/core_cm0plus.h **** /**
 513:Generated_Source\PSoC6\pdl\cmsis/include/core_cm0plus.h ****   \ingroup  CMSIS_core_register
 514:Generated_Source\PSoC6\pdl\cmsis/include/core_cm0plus.h ****   \defgroup CMSIS_MPU     Memory Protection Unit (MPU)
 515:Generated_Source\PSoC6\pdl\cmsis/include/core_cm0plus.h ****   \brief    Type definitions for the Memory Protection Unit (MPU)
 516:Generated_Source\PSoC6\pdl\cmsis/include/core_cm0plus.h ****   @{
 517:Generated_Source\PSoC6\pdl\cmsis/include/core_cm0plus.h ****  */
 518:Generated_Source\PSoC6\pdl\cmsis/include/core_cm0plus.h **** 
 519:Generated_Source\PSoC6\pdl\cmsis/include/core_cm0plus.h **** /**
 520:Generated_Source\PSoC6\pdl\cmsis/include/core_cm0plus.h ****   \brief  Structure type to access the Memory Protection Unit (MPU).
 521:Generated_Source\PSoC6\pdl\cmsis/include/core_cm0plus.h ****  */
 522:Generated_Source\PSoC6\pdl\cmsis/include/core_cm0plus.h **** typedef struct
 523:Generated_Source\PSoC6\pdl\cmsis/include/core_cm0plus.h **** {
 524:Generated_Source\PSoC6\pdl\cmsis/include/core_cm0plus.h ****   __IM  uint32_t TYPE;                   /*!< Offset: 0x000 (R/ )  MPU Type Register */
 525:Generated_Source\PSoC6\pdl\cmsis/include/core_cm0plus.h ****   __IOM uint32_t CTRL;                   /*!< Offset: 0x004 (R/W)  MPU Control Register */
 526:Generated_Source\PSoC6\pdl\cmsis/include/core_cm0plus.h ****   __IOM uint32_t RNR;                    /*!< Offset: 0x008 (R/W)  MPU Region RNRber Register */
 527:Generated_Source\PSoC6\pdl\cmsis/include/core_cm0plus.h ****   __IOM uint32_t RBAR;                   /*!< Offset: 0x00C (R/W)  MPU Region Base Address Register
 528:Generated_Source\PSoC6\pdl\cmsis/include/core_cm0plus.h ****   __IOM uint32_t RASR;                   /*!< Offset: 0x010 (R/W)  MPU Region Attribute and Size Re
 529:Generated_Source\PSoC6\pdl\cmsis/include/core_cm0plus.h **** } MPU_Type;
 530:Generated_Source\PSoC6\pdl\cmsis/include/core_cm0plus.h **** 
 531:Generated_Source\PSoC6\pdl\cmsis/include/core_cm0plus.h **** /* MPU Type Register Definitions */
 532:Generated_Source\PSoC6\pdl\cmsis/include/core_cm0plus.h **** #define MPU_TYPE_IREGION_Pos               16U                                            /*!< MPU 
 533:Generated_Source\PSoC6\pdl\cmsis/include/core_cm0plus.h **** #define MPU_TYPE_IREGION_Msk               (0xFFUL << MPU_TYPE_IREGION_Pos)               /*!< MPU 
 534:Generated_Source\PSoC6\pdl\cmsis/include/core_cm0plus.h **** 
 535:Generated_Source\PSoC6\pdl\cmsis/include/core_cm0plus.h **** #define MPU_TYPE_DREGION_Pos                8U                                            /*!< MPU 
ARM GAS  C:\Users\bryan.lee\AppData\Local\Temp\ccWKhefE.s 			page 40


 536:Generated_Source\PSoC6\pdl\cmsis/include/core_cm0plus.h **** #define MPU_TYPE_DREGION_Msk               (0xFFUL << MPU_TYPE_DREGION_Pos)               /*!< MPU 
 537:Generated_Source\PSoC6\pdl\cmsis/include/core_cm0plus.h **** 
 538:Generated_Source\PSoC6\pdl\cmsis/include/core_cm0plus.h **** #define MPU_TYPE_SEPARATE_Pos               0U                                            /*!< MPU 
 539:Generated_Source\PSoC6\pdl\cmsis/include/core_cm0plus.h **** #define MPU_TYPE_SEPARATE_Msk              (1UL /*<< MPU_TYPE_SEPARATE_Pos*/)             /*!< MPU 
 540:Generated_Source\PSoC6\pdl\cmsis/include/core_cm0plus.h **** 
 541:Generated_Source\PSoC6\pdl\cmsis/include/core_cm0plus.h **** /* MPU Control Register Definitions */
 542:Generated_Source\PSoC6\pdl\cmsis/include/core_cm0plus.h **** #define MPU_CTRL_PRIVDEFENA_Pos             2U                                            /*!< MPU 
 543:Generated_Source\PSoC6\pdl\cmsis/include/core_cm0plus.h **** #define MPU_CTRL_PRIVDEFENA_Msk            (1UL << MPU_CTRL_PRIVDEFENA_Pos)               /*!< MPU 
 544:Generated_Source\PSoC6\pdl\cmsis/include/core_cm0plus.h **** 
 545:Generated_Source\PSoC6\pdl\cmsis/include/core_cm0plus.h **** #define MPU_CTRL_HFNMIENA_Pos               1U                                            /*!< MPU 
 546:Generated_Source\PSoC6\pdl\cmsis/include/core_cm0plus.h **** #define MPU_CTRL_HFNMIENA_Msk              (1UL << MPU_CTRL_HFNMIENA_Pos)                 /*!< MPU 
 547:Generated_Source\PSoC6\pdl\cmsis/include/core_cm0plus.h **** 
 548:Generated_Source\PSoC6\pdl\cmsis/include/core_cm0plus.h **** #define MPU_CTRL_ENABLE_Pos                 0U                                            /*!< MPU 
 549:Generated_Source\PSoC6\pdl\cmsis/include/core_cm0plus.h **** #define MPU_CTRL_ENABLE_Msk                (1UL /*<< MPU_CTRL_ENABLE_Pos*/)               /*!< MPU 
 550:Generated_Source\PSoC6\pdl\cmsis/include/core_cm0plus.h **** 
 551:Generated_Source\PSoC6\pdl\cmsis/include/core_cm0plus.h **** /* MPU Region Number Register Definitions */
 552:Generated_Source\PSoC6\pdl\cmsis/include/core_cm0plus.h **** #define MPU_RNR_REGION_Pos                  0U                                            /*!< MPU 
 553:Generated_Source\PSoC6\pdl\cmsis/include/core_cm0plus.h **** #define MPU_RNR_REGION_Msk                 (0xFFUL /*<< MPU_RNR_REGION_Pos*/)             /*!< MPU 
 554:Generated_Source\PSoC6\pdl\cmsis/include/core_cm0plus.h **** 
 555:Generated_Source\PSoC6\pdl\cmsis/include/core_cm0plus.h **** /* MPU Region Base Address Register Definitions */
 556:Generated_Source\PSoC6\pdl\cmsis/include/core_cm0plus.h **** #define MPU_RBAR_ADDR_Pos                   8U                                            /*!< MPU 
 557:Generated_Source\PSoC6\pdl\cmsis/include/core_cm0plus.h **** #define MPU_RBAR_ADDR_Msk                  (0xFFFFFFUL << MPU_RBAR_ADDR_Pos)              /*!< MPU 
 558:Generated_Source\PSoC6\pdl\cmsis/include/core_cm0plus.h **** 
 559:Generated_Source\PSoC6\pdl\cmsis/include/core_cm0plus.h **** #define MPU_RBAR_VALID_Pos                  4U                                            /*!< MPU 
 560:Generated_Source\PSoC6\pdl\cmsis/include/core_cm0plus.h **** #define MPU_RBAR_VALID_Msk                 (1UL << MPU_RBAR_VALID_Pos)                    /*!< MPU 
 561:Generated_Source\PSoC6\pdl\cmsis/include/core_cm0plus.h **** 
 562:Generated_Source\PSoC6\pdl\cmsis/include/core_cm0plus.h **** #define MPU_RBAR_REGION_Pos                 0U                                            /*!< MPU 
 563:Generated_Source\PSoC6\pdl\cmsis/include/core_cm0plus.h **** #define MPU_RBAR_REGION_Msk                (0xFUL /*<< MPU_RBAR_REGION_Pos*/)             /*!< MPU 
 564:Generated_Source\PSoC6\pdl\cmsis/include/core_cm0plus.h **** 
 565:Generated_Source\PSoC6\pdl\cmsis/include/core_cm0plus.h **** /* MPU Region Attribute and Size Register Definitions */
 566:Generated_Source\PSoC6\pdl\cmsis/include/core_cm0plus.h **** #define MPU_RASR_ATTRS_Pos                 16U                                            /*!< MPU 
 567:Generated_Source\PSoC6\pdl\cmsis/include/core_cm0plus.h **** #define MPU_RASR_ATTRS_Msk                 (0xFFFFUL << MPU_RASR_ATTRS_Pos)               /*!< MPU 
 568:Generated_Source\PSoC6\pdl\cmsis/include/core_cm0plus.h **** 
 569:Generated_Source\PSoC6\pdl\cmsis/include/core_cm0plus.h **** #define MPU_RASR_XN_Pos                    28U                                            /*!< MPU 
 570:Generated_Source\PSoC6\pdl\cmsis/include/core_cm0plus.h **** #define MPU_RASR_XN_Msk                    (1UL << MPU_RASR_XN_Pos)                       /*!< MPU 
 571:Generated_Source\PSoC6\pdl\cmsis/include/core_cm0plus.h **** 
 572:Generated_Source\PSoC6\pdl\cmsis/include/core_cm0plus.h **** #define MPU_RASR_AP_Pos                    24U                                            /*!< MPU 
 573:Generated_Source\PSoC6\pdl\cmsis/include/core_cm0plus.h **** #define MPU_RASR_AP_Msk                    (0x7UL << MPU_RASR_AP_Pos)                     /*!< MPU 
 574:Generated_Source\PSoC6\pdl\cmsis/include/core_cm0plus.h **** 
 575:Generated_Source\PSoC6\pdl\cmsis/include/core_cm0plus.h **** #define MPU_RASR_TEX_Pos                   19U                                            /*!< MPU 
 576:Generated_Source\PSoC6\pdl\cmsis/include/core_cm0plus.h **** #define MPU_RASR_TEX_Msk                   (0x7UL << MPU_RASR_TEX_Pos)                    /*!< MPU 
 577:Generated_Source\PSoC6\pdl\cmsis/include/core_cm0plus.h **** 
 578:Generated_Source\PSoC6\pdl\cmsis/include/core_cm0plus.h **** #define MPU_RASR_S_Pos                     18U                                            /*!< MPU 
 579:Generated_Source\PSoC6\pdl\cmsis/include/core_cm0plus.h **** #define MPU_RASR_S_Msk                     (1UL << MPU_RASR_S_Pos)                        /*!< MPU 
 580:Generated_Source\PSoC6\pdl\cmsis/include/core_cm0plus.h **** 
 581:Generated_Source\PSoC6\pdl\cmsis/include/core_cm0plus.h **** #define MPU_RASR_C_Pos                     17U                                            /*!< MPU 
 582:Generated_Source\PSoC6\pdl\cmsis/include/core_cm0plus.h **** #define MPU_RASR_C_Msk                     (1UL << MPU_RASR_C_Pos)                        /*!< MPU 
 583:Generated_Source\PSoC6\pdl\cmsis/include/core_cm0plus.h **** 
 584:Generated_Source\PSoC6\pdl\cmsis/include/core_cm0plus.h **** #define MPU_RASR_B_Pos                     16U                                            /*!< MPU 
 585:Generated_Source\PSoC6\pdl\cmsis/include/core_cm0plus.h **** #define MPU_RASR_B_Msk                     (1UL << MPU_RASR_B_Pos)                        /*!< MPU 
 586:Generated_Source\PSoC6\pdl\cmsis/include/core_cm0plus.h **** 
 587:Generated_Source\PSoC6\pdl\cmsis/include/core_cm0plus.h **** #define MPU_RASR_SRD_Pos                    8U                                            /*!< MPU 
 588:Generated_Source\PSoC6\pdl\cmsis/include/core_cm0plus.h **** #define MPU_RASR_SRD_Msk                   (0xFFUL << MPU_RASR_SRD_Pos)                   /*!< MPU 
 589:Generated_Source\PSoC6\pdl\cmsis/include/core_cm0plus.h **** 
 590:Generated_Source\PSoC6\pdl\cmsis/include/core_cm0plus.h **** #define MPU_RASR_SIZE_Pos                   1U                                            /*!< MPU 
 591:Generated_Source\PSoC6\pdl\cmsis/include/core_cm0plus.h **** #define MPU_RASR_SIZE_Msk                  (0x1FUL << MPU_RASR_SIZE_Pos)                  /*!< MPU 
 592:Generated_Source\PSoC6\pdl\cmsis/include/core_cm0plus.h **** 
ARM GAS  C:\Users\bryan.lee\AppData\Local\Temp\ccWKhefE.s 			page 41


 593:Generated_Source\PSoC6\pdl\cmsis/include/core_cm0plus.h **** #define MPU_RASR_ENABLE_Pos                 0U                                            /*!< MPU 
 594:Generated_Source\PSoC6\pdl\cmsis/include/core_cm0plus.h **** #define MPU_RASR_ENABLE_Msk                (1UL /*<< MPU_RASR_ENABLE_Pos*/)               /*!< MPU 
 595:Generated_Source\PSoC6\pdl\cmsis/include/core_cm0plus.h **** 
 596:Generated_Source\PSoC6\pdl\cmsis/include/core_cm0plus.h **** /*@} end of group CMSIS_MPU */
 597:Generated_Source\PSoC6\pdl\cmsis/include/core_cm0plus.h **** #endif
 598:Generated_Source\PSoC6\pdl\cmsis/include/core_cm0plus.h **** 
 599:Generated_Source\PSoC6\pdl\cmsis/include/core_cm0plus.h **** 
 600:Generated_Source\PSoC6\pdl\cmsis/include/core_cm0plus.h **** /**
 601:Generated_Source\PSoC6\pdl\cmsis/include/core_cm0plus.h ****   \ingroup  CMSIS_core_register
 602:Generated_Source\PSoC6\pdl\cmsis/include/core_cm0plus.h ****   \defgroup CMSIS_CoreDebug       Core Debug Registers (CoreDebug)
 603:Generated_Source\PSoC6\pdl\cmsis/include/core_cm0plus.h ****   \brief    Cortex-M0+ Core Debug Registers (DCB registers, SHCSR, and DFSR) are only accessible ov
 604:Generated_Source\PSoC6\pdl\cmsis/include/core_cm0plus.h ****             Therefore they are not covered by the Cortex-M0+ header file.
 605:Generated_Source\PSoC6\pdl\cmsis/include/core_cm0plus.h ****   @{
 606:Generated_Source\PSoC6\pdl\cmsis/include/core_cm0plus.h ****  */
 607:Generated_Source\PSoC6\pdl\cmsis/include/core_cm0plus.h **** /*@} end of group CMSIS_CoreDebug */
 608:Generated_Source\PSoC6\pdl\cmsis/include/core_cm0plus.h **** 
 609:Generated_Source\PSoC6\pdl\cmsis/include/core_cm0plus.h **** 
 610:Generated_Source\PSoC6\pdl\cmsis/include/core_cm0plus.h **** /**
 611:Generated_Source\PSoC6\pdl\cmsis/include/core_cm0plus.h ****   \ingroup    CMSIS_core_register
 612:Generated_Source\PSoC6\pdl\cmsis/include/core_cm0plus.h ****   \defgroup   CMSIS_core_bitfield     Core register bit field macros
 613:Generated_Source\PSoC6\pdl\cmsis/include/core_cm0plus.h ****   \brief      Macros for use with bit field definitions (xxx_Pos, xxx_Msk).
 614:Generated_Source\PSoC6\pdl\cmsis/include/core_cm0plus.h ****   @{
 615:Generated_Source\PSoC6\pdl\cmsis/include/core_cm0plus.h ****  */
 616:Generated_Source\PSoC6\pdl\cmsis/include/core_cm0plus.h **** 
 617:Generated_Source\PSoC6\pdl\cmsis/include/core_cm0plus.h **** /**
 618:Generated_Source\PSoC6\pdl\cmsis/include/core_cm0plus.h ****   \brief   Mask and shift a bit field value for use in a register bit range.
 619:Generated_Source\PSoC6\pdl\cmsis/include/core_cm0plus.h ****   \param[in] field  Name of the register bit field.
 620:Generated_Source\PSoC6\pdl\cmsis/include/core_cm0plus.h ****   \param[in] value  Value of the bit field. This parameter is interpreted as an uint32_t type.
 621:Generated_Source\PSoC6\pdl\cmsis/include/core_cm0plus.h ****   \return           Masked and shifted value.
 622:Generated_Source\PSoC6\pdl\cmsis/include/core_cm0plus.h **** */
 623:Generated_Source\PSoC6\pdl\cmsis/include/core_cm0plus.h **** #define _VAL2FLD(field, value)    (((uint32_t)(value) << field ## _Pos) & field ## _Msk)
 624:Generated_Source\PSoC6\pdl\cmsis/include/core_cm0plus.h **** 
 625:Generated_Source\PSoC6\pdl\cmsis/include/core_cm0plus.h **** /**
 626:Generated_Source\PSoC6\pdl\cmsis/include/core_cm0plus.h ****   \brief     Mask and shift a register value to extract a bit filed value.
 627:Generated_Source\PSoC6\pdl\cmsis/include/core_cm0plus.h ****   \param[in] field  Name of the register bit field.
 628:Generated_Source\PSoC6\pdl\cmsis/include/core_cm0plus.h ****   \param[in] value  Value of register. This parameter is interpreted as an uint32_t type.
 629:Generated_Source\PSoC6\pdl\cmsis/include/core_cm0plus.h ****   \return           Masked and shifted bit field value.
 630:Generated_Source\PSoC6\pdl\cmsis/include/core_cm0plus.h **** */
 631:Generated_Source\PSoC6\pdl\cmsis/include/core_cm0plus.h **** #define _FLD2VAL(field, value)    (((uint32_t)(value) & field ## _Msk) >> field ## _Pos)
 632:Generated_Source\PSoC6\pdl\cmsis/include/core_cm0plus.h **** 
 633:Generated_Source\PSoC6\pdl\cmsis/include/core_cm0plus.h **** /*@} end of group CMSIS_core_bitfield */
 634:Generated_Source\PSoC6\pdl\cmsis/include/core_cm0plus.h **** 
 635:Generated_Source\PSoC6\pdl\cmsis/include/core_cm0plus.h **** 
 636:Generated_Source\PSoC6\pdl\cmsis/include/core_cm0plus.h **** /**
 637:Generated_Source\PSoC6\pdl\cmsis/include/core_cm0plus.h ****   \ingroup    CMSIS_core_register
 638:Generated_Source\PSoC6\pdl\cmsis/include/core_cm0plus.h ****   \defgroup   CMSIS_core_base     Core Definitions
 639:Generated_Source\PSoC6\pdl\cmsis/include/core_cm0plus.h ****   \brief      Definitions for base addresses, unions, and structures.
 640:Generated_Source\PSoC6\pdl\cmsis/include/core_cm0plus.h ****   @{
 641:Generated_Source\PSoC6\pdl\cmsis/include/core_cm0plus.h ****  */
 642:Generated_Source\PSoC6\pdl\cmsis/include/core_cm0plus.h **** 
 643:Generated_Source\PSoC6\pdl\cmsis/include/core_cm0plus.h **** /* Memory mapping of Core Hardware */
 644:Generated_Source\PSoC6\pdl\cmsis/include/core_cm0plus.h **** #define SCS_BASE            (0xE000E000UL)                            /*!< System Control Space Bas
 645:Generated_Source\PSoC6\pdl\cmsis/include/core_cm0plus.h **** #define SysTick_BASE        (SCS_BASE +  0x0010UL)                    /*!< SysTick Base Address */
 646:Generated_Source\PSoC6\pdl\cmsis/include/core_cm0plus.h **** #define NVIC_BASE           (SCS_BASE +  0x0100UL)                    /*!< NVIC Base Address */
 647:Generated_Source\PSoC6\pdl\cmsis/include/core_cm0plus.h **** #define SCB_BASE            (SCS_BASE +  0x0D00UL)                    /*!< System Control Block Bas
 648:Generated_Source\PSoC6\pdl\cmsis/include/core_cm0plus.h **** 
 649:Generated_Source\PSoC6\pdl\cmsis/include/core_cm0plus.h **** #define SCB                 ((SCB_Type       *)     SCB_BASE      )   /*!< SCB configuration struct
ARM GAS  C:\Users\bryan.lee\AppData\Local\Temp\ccWKhefE.s 			page 42


 650:Generated_Source\PSoC6\pdl\cmsis/include/core_cm0plus.h **** #define SysTick             ((SysTick_Type   *)     SysTick_BASE  )   /*!< SysTick configuration st
 651:Generated_Source\PSoC6\pdl\cmsis/include/core_cm0plus.h **** #define NVIC                ((NVIC_Type      *)     NVIC_BASE     )   /*!< NVIC configuration struc
 652:Generated_Source\PSoC6\pdl\cmsis/include/core_cm0plus.h **** 
 653:Generated_Source\PSoC6\pdl\cmsis/include/core_cm0plus.h **** #if defined (__MPU_PRESENT) && (__MPU_PRESENT == 1U)
 654:Generated_Source\PSoC6\pdl\cmsis/include/core_cm0plus.h ****   #define MPU_BASE          (SCS_BASE +  0x0D90UL)                    /*!< Memory Protection Unit *
 655:Generated_Source\PSoC6\pdl\cmsis/include/core_cm0plus.h ****   #define MPU               ((MPU_Type       *)     MPU_BASE      )   /*!< Memory Protection Unit *
 656:Generated_Source\PSoC6\pdl\cmsis/include/core_cm0plus.h **** #endif
 657:Generated_Source\PSoC6\pdl\cmsis/include/core_cm0plus.h **** 
 658:Generated_Source\PSoC6\pdl\cmsis/include/core_cm0plus.h **** /*@} */
 659:Generated_Source\PSoC6\pdl\cmsis/include/core_cm0plus.h **** 
 660:Generated_Source\PSoC6\pdl\cmsis/include/core_cm0plus.h **** 
 661:Generated_Source\PSoC6\pdl\cmsis/include/core_cm0plus.h **** 
 662:Generated_Source\PSoC6\pdl\cmsis/include/core_cm0plus.h **** /*******************************************************************************
 663:Generated_Source\PSoC6\pdl\cmsis/include/core_cm0plus.h ****  *                Hardware Abstraction Layer
 664:Generated_Source\PSoC6\pdl\cmsis/include/core_cm0plus.h ****   Core Function Interface contains:
 665:Generated_Source\PSoC6\pdl\cmsis/include/core_cm0plus.h ****   - Core NVIC Functions
 666:Generated_Source\PSoC6\pdl\cmsis/include/core_cm0plus.h ****   - Core SysTick Functions
 667:Generated_Source\PSoC6\pdl\cmsis/include/core_cm0plus.h ****   - Core Register Access Functions
 668:Generated_Source\PSoC6\pdl\cmsis/include/core_cm0plus.h ****  ******************************************************************************/
 669:Generated_Source\PSoC6\pdl\cmsis/include/core_cm0plus.h **** /**
 670:Generated_Source\PSoC6\pdl\cmsis/include/core_cm0plus.h ****   \defgroup CMSIS_Core_FunctionInterface Functions and Instructions Reference
 671:Generated_Source\PSoC6\pdl\cmsis/include/core_cm0plus.h **** */
 672:Generated_Source\PSoC6\pdl\cmsis/include/core_cm0plus.h **** 
 673:Generated_Source\PSoC6\pdl\cmsis/include/core_cm0plus.h **** 
 674:Generated_Source\PSoC6\pdl\cmsis/include/core_cm0plus.h **** 
 675:Generated_Source\PSoC6\pdl\cmsis/include/core_cm0plus.h **** /* ##########################   NVIC functions  #################################### */
 676:Generated_Source\PSoC6\pdl\cmsis/include/core_cm0plus.h **** /**
 677:Generated_Source\PSoC6\pdl\cmsis/include/core_cm0plus.h ****   \ingroup  CMSIS_Core_FunctionInterface
 678:Generated_Source\PSoC6\pdl\cmsis/include/core_cm0plus.h ****   \defgroup CMSIS_Core_NVICFunctions NVIC Functions
 679:Generated_Source\PSoC6\pdl\cmsis/include/core_cm0plus.h ****   \brief    Functions that manage interrupts and exceptions via the NVIC.
 680:Generated_Source\PSoC6\pdl\cmsis/include/core_cm0plus.h ****   @{
 681:Generated_Source\PSoC6\pdl\cmsis/include/core_cm0plus.h ****  */
 682:Generated_Source\PSoC6\pdl\cmsis/include/core_cm0plus.h **** 
 683:Generated_Source\PSoC6\pdl\cmsis/include/core_cm0plus.h **** #ifndef CMSIS_NVIC_VIRTUAL
 684:Generated_Source\PSoC6\pdl\cmsis/include/core_cm0plus.h **** /*#define NVIC_SetPriorityGrouping    __NVIC_SetPriorityGrouping   not available for Cortex-M0+ */
 685:Generated_Source\PSoC6\pdl\cmsis/include/core_cm0plus.h **** /*#define NVIC_GetPriorityGrouping    __NVIC_GetPriorityGrouping   not available for Cortex-M0+ */
 686:Generated_Source\PSoC6\pdl\cmsis/include/core_cm0plus.h ****   #define NVIC_EnableIRQ              __NVIC_EnableIRQ
 687:Generated_Source\PSoC6\pdl\cmsis/include/core_cm0plus.h ****   #define NVIC_GetEnableIRQ           __NVIC_GetEnableIRQ
 688:Generated_Source\PSoC6\pdl\cmsis/include/core_cm0plus.h ****   #define NVIC_DisableIRQ             __NVIC_DisableIRQ
 689:Generated_Source\PSoC6\pdl\cmsis/include/core_cm0plus.h ****   #define NVIC_GetPendingIRQ          __NVIC_GetPendingIRQ
 690:Generated_Source\PSoC6\pdl\cmsis/include/core_cm0plus.h ****   #define NVIC_SetPendingIRQ          __NVIC_SetPendingIRQ
 691:Generated_Source\PSoC6\pdl\cmsis/include/core_cm0plus.h ****   #define NVIC_ClearPendingIRQ        __NVIC_ClearPendingIRQ
 692:Generated_Source\PSoC6\pdl\cmsis/include/core_cm0plus.h **** /*#define NVIC_GetActive              __NVIC_GetActive             not available for Cortex-M0+ */
 693:Generated_Source\PSoC6\pdl\cmsis/include/core_cm0plus.h ****   #define NVIC_SetPriority            __NVIC_SetPriority
 694:Generated_Source\PSoC6\pdl\cmsis/include/core_cm0plus.h ****   #define NVIC_GetPriority            __NVIC_GetPriority
 695:Generated_Source\PSoC6\pdl\cmsis/include/core_cm0plus.h **** #endif /* CMSIS_NVIC_VIRTUAL */
 696:Generated_Source\PSoC6\pdl\cmsis/include/core_cm0plus.h **** 
 697:Generated_Source\PSoC6\pdl\cmsis/include/core_cm0plus.h **** #ifndef CMSIS_VECTAB_VIRTUAL
 698:Generated_Source\PSoC6\pdl\cmsis/include/core_cm0plus.h ****   #define NVIC_SetVector              __NVIC_SetVector
 699:Generated_Source\PSoC6\pdl\cmsis/include/core_cm0plus.h ****   #define NVIC_GetVector              __NVIC_GetVector
 700:Generated_Source\PSoC6\pdl\cmsis/include/core_cm0plus.h **** #endif  /* (CMSIS_VECTAB_VIRTUAL) */
 701:Generated_Source\PSoC6\pdl\cmsis/include/core_cm0plus.h **** 
 702:Generated_Source\PSoC6\pdl\cmsis/include/core_cm0plus.h **** #define NVIC_USER_IRQ_OFFSET          16
 703:Generated_Source\PSoC6\pdl\cmsis/include/core_cm0plus.h **** 
 704:Generated_Source\PSoC6\pdl\cmsis/include/core_cm0plus.h **** 
 705:Generated_Source\PSoC6\pdl\cmsis/include/core_cm0plus.h **** /* Interrupt Priorities are WORD accessible only under ARMv6M                   */
 706:Generated_Source\PSoC6\pdl\cmsis/include/core_cm0plus.h **** /* The following MACROS handle generation of the register offset and byte masks */
ARM GAS  C:\Users\bryan.lee\AppData\Local\Temp\ccWKhefE.s 			page 43


 707:Generated_Source\PSoC6\pdl\cmsis/include/core_cm0plus.h **** #define _BIT_SHIFT(IRQn)         (  ((((uint32_t)(int32_t)(IRQn))         )      &  0x03UL) * 8UL)
 708:Generated_Source\PSoC6\pdl\cmsis/include/core_cm0plus.h **** #define _SHP_IDX(IRQn)           ( (((((uint32_t)(int32_t)(IRQn)) & 0x0FUL)-8UL) >>    2UL)      )
 709:Generated_Source\PSoC6\pdl\cmsis/include/core_cm0plus.h **** #define _IP_IDX(IRQn)            (   (((uint32_t)(int32_t)(IRQn))                >>    2UL)      )
 710:Generated_Source\PSoC6\pdl\cmsis/include/core_cm0plus.h **** 
 711:Generated_Source\PSoC6\pdl\cmsis/include/core_cm0plus.h **** 
 712:Generated_Source\PSoC6\pdl\cmsis/include/core_cm0plus.h **** /**
 713:Generated_Source\PSoC6\pdl\cmsis/include/core_cm0plus.h ****   \brief   Enable Interrupt
 714:Generated_Source\PSoC6\pdl\cmsis/include/core_cm0plus.h ****   \details Enables a device specific interrupt in the NVIC interrupt controller.
 715:Generated_Source\PSoC6\pdl\cmsis/include/core_cm0plus.h ****   \param [in]      IRQn  Device specific interrupt number.
 716:Generated_Source\PSoC6\pdl\cmsis/include/core_cm0plus.h ****   \note    IRQn must not be negative.
 717:Generated_Source\PSoC6\pdl\cmsis/include/core_cm0plus.h ****  */
 718:Generated_Source\PSoC6\pdl\cmsis/include/core_cm0plus.h **** __STATIC_INLINE void __NVIC_EnableIRQ(IRQn_Type IRQn)
 719:Generated_Source\PSoC6\pdl\cmsis/include/core_cm0plus.h **** {
 720:Generated_Source\PSoC6\pdl\cmsis/include/core_cm0plus.h ****   if ((int32_t)(IRQn) >= 0)
 109              		.loc 4 720 0
 110 0032 002A     		cmp	r2, #0
 111 0034 05DB     		blt	.L6
 721:Generated_Source\PSoC6\pdl\cmsis/include/core_cm0plus.h ****   {
 722:Generated_Source\PSoC6\pdl\cmsis/include/core_cm0plus.h ****     NVIC->ISER[0U] = (uint32_t)(1UL << (((uint32_t)(int32_t)IRQn) & 0x1FUL));
 112              		.loc 4 722 0
 113 0036 1F23     		movs	r3, #31
 114 0038 1A40     		ands	r2, r3
 115              	.LVL5:
 116 003a 1E3B     		subs	r3, r3, #30
 117 003c 9340     		lsls	r3, r3, r2
 118 003e 0B4A     		ldr	r2, .L7+28
 119 0040 1360     		str	r3, [r2]
