ARM GAS  C:\Users\bryan.lee\AppData\Local\Temp\ccAkWdHW.s 			page 1


   1              		.syntax unified
   2              		.cpu cortex-m0plus
   3              		.fpu softvfp
   4              		.eabi_attribute 20, 1
   5              		.eabi_attribute 21, 1
   6              		.eabi_attribute 23, 3
   7              		.eabi_attribute 24, 1
   8              		.eabi_attribute 25, 1
   9              		.eabi_attribute 26, 1
  10              		.eabi_attribute 30, 1
  11              		.eabi_attribute 34, 0
  12              		.eabi_attribute 18, 4
  13              		.thumb
  14              		.syntax unified
  15              		.file	"pervasive_eink_hardware_driver.c"
  16              		.text
  17              	.Ltext0:
  18              		.cfi_sections	.debug_frame
  19              		.section	.text.Pv_EINK_SendData,"ax",%progbits
  20              		.align	2
  21              		.global	Pv_EINK_SendData
  22              		.code	16
  23              		.thumb_func
  24              		.type	Pv_EINK_SendData, %function
  25              	Pv_EINK_SendData:
  26              	.LFB453:
  27              		.file 1 "pervasive_eink_hardware_driver.c"
   1:pervasive_eink_hardware_driver.c **** /*******************************************************************************
   2:pervasive_eink_hardware_driver.c **** * Copyright (2017), Pervasive Displays Inc.
   3:pervasive_eink_hardware_driver.c **** *******************************************************************************
   4:pervasive_eink_hardware_driver.c **** *
   5:pervasive_eink_hardware_driver.c **** *  Authors: Pervasive Displays Inc.
   6:pervasive_eink_hardware_driver.c **** *
   7:pervasive_eink_hardware_driver.c **** *  Redistribution and use in source and binary forms, with or without
   8:pervasive_eink_hardware_driver.c **** *  modification, are permitted provided that the following conditions
   9:pervasive_eink_hardware_driver.c **** *  are met:
  10:pervasive_eink_hardware_driver.c **** *
  11:pervasive_eink_hardware_driver.c **** *  1. Redistributions of source code must retain the above copyright
  12:pervasive_eink_hardware_driver.c **** *     notice, this list of conditions and the following disclaimer.
  13:pervasive_eink_hardware_driver.c **** *  2. Redistributions in binary form must reproduce the above copyright
  14:pervasive_eink_hardware_driver.c **** *     notice, this list of conditions and the following disclaimer in
  15:pervasive_eink_hardware_driver.c **** *     the documentation and/or other materials provided with the
  16:pervasive_eink_hardware_driver.c **** *     distribution.
  17:pervasive_eink_hardware_driver.c **** *
  18:pervasive_eink_hardware_driver.c **** *  THIS SOFTWARE IS PROVIDED BY THE COPYRIGHT HOLDERS AND CONTRIBUTORS
  19:pervasive_eink_hardware_driver.c **** *  "AS IS" AND ANY EXPRESS OR IMPLIED WARRANTIES, INCLUDING, BUT NOT
  20:pervasive_eink_hardware_driver.c **** *  LIMITED TO, THE IMPLIED WARRANTIES OF MERCHANTABILITY AND FITNESS FOR
  21:pervasive_eink_hardware_driver.c **** *  A PARTICULAR PURPOSE ARE DISCLAIMED. IN NO EVENT SHALL THE COPYRIGHT
  22:pervasive_eink_hardware_driver.c **** *  OWNER OR CONTRIBUTORS BE LIABLE FOR ANY DIRECT, INDIRECT, INCIDENTAL,
  23:pervasive_eink_hardware_driver.c **** *  SPECIAL, EXEMPLARY, OR CONSEQUENTIAL DAMAGES (INCLUDING, BUT NOT
  24:pervasive_eink_hardware_driver.c **** *  LIMITED TO, PROCUREMENT OF SUBSTITUTE GOODS OR SERVICES; LOSS OF USE,
  25:pervasive_eink_hardware_driver.c **** *  DATA, OR PROFITS; OR BUSINESS INTERRUPTION) HOWEVER CAUSED AND ON ANY
  26:pervasive_eink_hardware_driver.c **** *  THEORY OF LIABILITY, WHETHER IN CONTRACT, STRICT LIABILITY, OR TORT
  27:pervasive_eink_hardware_driver.c **** *  (INCLUDING NEGLIGENCE OR OTHERWISE) ARISING IN ANY WAY OUT OF THE USE
  28:pervasive_eink_hardware_driver.c **** *  OF THIS SOFTWARE, EVEN IF ADVISED OF THE POSSIBILITY OF SUCH DAMAGE.
  29:pervasive_eink_hardware_driver.c **** *******************************************************************************/
  30:pervasive_eink_hardware_driver.c **** /******************************************************************************
ARM GAS  C:\Users\bryan.lee\AppData\Local\Temp\ccAkWdHW.s 			page 2


  31:pervasive_eink_hardware_driver.c **** * For the details of E-INK display hardware and driver, see the 2.7 inch display
  32:pervasive_eink_hardware_driver.c **** * product specification and G2 COG driver interface documents available at the
  33:pervasive_eink_hardware_driver.c **** * following location:
  34:pervasive_eink_hardware_driver.c **** * http://www.pervasivedisplays.com/products/271
  35:pervasive_eink_hardware_driver.c **** *******************************************************************************/
  36:pervasive_eink_hardware_driver.c **** 
  37:pervasive_eink_hardware_driver.c **** /* Header file includes */
  38:pervasive_eink_hardware_driver.c **** #include <string.h>
  39:pervasive_eink_hardware_driver.c **** #include "pervasive_eink_hardware_driver.h"
  40:pervasive_eink_hardware_driver.c **** 
  41:pervasive_eink_hardware_driver.c **** /* Macro for the dummy byte used in the line data */
  42:pervasive_eink_hardware_driver.c **** #define PV_EINK_DUMMY_BYTE     (uint8_t)(0x00u)
  43:pervasive_eink_hardware_driver.c **** 
  44:pervasive_eink_hardware_driver.c **** /* Data used to initialize the scan bytes */
  45:pervasive_eink_hardware_driver.c **** #define PV_EINK_SCAN_BYTE_INIT (uint8_t)(0x00u)
  46:pervasive_eink_hardware_driver.c **** 
  47:pervasive_eink_hardware_driver.c **** /* Line data structure of 2.7" display. Refer to driver document Section 5.1 
  48:pervasive_eink_hardware_driver.c ****    for details */
  49:pervasive_eink_hardware_driver.c **** struct eink_lineData
  50:pervasive_eink_hardware_driver.c **** {
  51:pervasive_eink_hardware_driver.c ****     /*  Dummy byte (0x00) */
  52:pervasive_eink_hardware_driver.c ****     uint8_t dummyData;
  53:pervasive_eink_hardware_driver.c **** 
  54:pervasive_eink_hardware_driver.c ****     /*  2.7" even byte array */
  55:pervasive_eink_hardware_driver.c ****     uint8_t even[PV_EINK_HORIZONTAL_SIZE];
  56:pervasive_eink_hardware_driver.c **** 
  57:pervasive_eink_hardware_driver.c ****     /*  2.7" scan byte array */
  58:pervasive_eink_hardware_driver.c ****     uint8_t scan[PV_EINK_SCAN_LINE_SIZE];
  59:pervasive_eink_hardware_driver.c **** 
  60:pervasive_eink_hardware_driver.c ****     /*  2.7" odd byte array */
  61:pervasive_eink_hardware_driver.c ****     uint8_t odd[PV_EINK_HORIZONTAL_SIZE];
  62:pervasive_eink_hardware_driver.c **** };
  63:pervasive_eink_hardware_driver.c **** 
  64:pervasive_eink_hardware_driver.c **** /* Packet structure of a line data */
  65:pervasive_eink_hardware_driver.c **** typedef union
  66:pervasive_eink_hardware_driver.c **** {
  67:pervasive_eink_hardware_driver.c ****     /* Line data structure of 2.7" E-INK display */
  68:pervasive_eink_hardware_driver.c ****     struct eink_lineData    lineDataBySize;
  69:pervasive_eink_hardware_driver.c **** 
  70:pervasive_eink_hardware_driver.c ****     /* Line buffer equal to the data line size */
  71:pervasive_eink_hardware_driver.c ****     uint8_t                 lineBuffer[PV_EINK_DATA_LINE_SIZE];
  72:pervasive_eink_hardware_driver.c **** 
  73:pervasive_eink_hardware_driver.c ****     /* The maximum line buffer data size as length */
  74:pervasive_eink_hardware_driver.c **** }   driver_data_packet_t;
  75:pervasive_eink_hardware_driver.c **** 
  76:pervasive_eink_hardware_driver.c **** /* Variable that stores the packets for one full drive frame. This variable
  77:pervasive_eink_hardware_driver.c ****    is used for full and partial updates */
  78:pervasive_eink_hardware_driver.c **** driver_data_packet_t  bulkDriverPacket[PV_EINK_VERTICAL_SIZE];
  79:pervasive_eink_hardware_driver.c **** 
  80:pervasive_eink_hardware_driver.c **** /* Variable that stores a single line data. This variable is used to prepare 
  81:pervasive_eink_hardware_driver.c ****    dummy frames */
  82:pervasive_eink_hardware_driver.c **** driver_data_packet_t  static driverPacket;
  83:pervasive_eink_hardware_driver.c **** 
  84:pervasive_eink_hardware_driver.c **** /* Scan table for the four stages of display update*/
  85:pervasive_eink_hardware_driver.c **** uint8_t const               scanTable[PV_EINK_SCAN_TABLE_SIZE] =
  86:pervasive_eink_hardware_driver.c ****                             PV_EINK_SCAN_TABLE_DATA;
  87:pervasive_eink_hardware_driver.c **** 
ARM GAS  C:\Users\bryan.lee\AppData\Local\Temp\ccAkWdHW.s 			page 3


  88:pervasive_eink_hardware_driver.c **** /* The SPI register addresses for Channel Select */
  89:pervasive_eink_hardware_driver.c **** uint8_t const               channelSelect[PV_EINK_CHANNEL_SEL_SIZE] =
  90:pervasive_eink_hardware_driver.c ****                             PV_EINK_CHANNEL_SEL_DATA;
  91:pervasive_eink_hardware_driver.c **** 
  92:pervasive_eink_hardware_driver.c **** /* Variables that store the driver timing information */
  93:pervasive_eink_hardware_driver.c **** uint16_t static             fullUpdateTime;
  94:pervasive_eink_hardware_driver.c **** uint16_t static             partialUpdateTime;
  95:pervasive_eink_hardware_driver.c **** 
  96:pervasive_eink_hardware_driver.c **** /* Pointers for the data structures used by the driver */
  97:pervasive_eink_hardware_driver.c **** uint8_t static*             dataLineEven;
  98:pervasive_eink_hardware_driver.c **** uint8_t static*             dataLineOdd;
  99:pervasive_eink_hardware_driver.c **** uint8_t static*             dataLineScan;
 100:pervasive_eink_hardware_driver.c **** 
 101:pervasive_eink_hardware_driver.c **** /*******************************************************************************
 102:pervasive_eink_hardware_driver.c **** * Function Name: void Pv_EINK_SendData(uint8_t regAddr, uint8_t* data, 
 103:pervasive_eink_hardware_driver.c **** *                                   uint16_t dataLength)
 104:pervasive_eink_hardware_driver.c **** ********************************************************************************
 105:pervasive_eink_hardware_driver.c **** *
 106:pervasive_eink_hardware_driver.c **** * Summary: Sends an array of data to the E-INK driver.
 107:pervasive_eink_hardware_driver.c **** *
 108:pervasive_eink_hardware_driver.c **** * Parameters:
 109:pervasive_eink_hardware_driver.c **** *  uint8_t regAddr    : Display driver register address
 110:pervasive_eink_hardware_driver.c **** *  uint8_t* data      : Pointer to the data array that will be sent to the driver
 111:pervasive_eink_hardware_driver.c **** *  uint16_t dataLength: Length of the data array
 112:pervasive_eink_hardware_driver.c **** *
 113:pervasive_eink_hardware_driver.c **** * Return:
 114:pervasive_eink_hardware_driver.c **** *  None
 115:pervasive_eink_hardware_driver.c **** *
 116:pervasive_eink_hardware_driver.c **** * Side Effects:
 117:pervasive_eink_hardware_driver.c **** *  None
 118:pervasive_eink_hardware_driver.c **** *******************************************************************************/
 119:pervasive_eink_hardware_driver.c **** void Pv_EINK_SendData(uint8_t regAddr, uint8_t* data, uint16_t dataLength)
 120:pervasive_eink_hardware_driver.c **** {
  28              		.loc 1 120 0
  29              		.cfi_startproc
  30              		@ args = 0, pretend = 0, frame = 8
  31              		@ frame_needed = 0, uses_anonymous_args = 0
  32              	.LVL0:
  33 0000 F0B5     		push	{r4, r5, r6, r7, lr}
  34              		.cfi_def_cfa_offset 20
  35              		.cfi_offset 4, -20
  36              		.cfi_offset 5, -16
  37              		.cfi_offset 6, -12
  38              		.cfi_offset 7, -8
  39              		.cfi_offset 14, -4
  40 0002 83B0     		sub	sp, sp, #12
  41              		.cfi_def_cfa_offset 32
  42 0004 0190     		str	r0, [sp, #4]
  43 0006 0E00     		movs	r6, r1
  44 0008 1500     		movs	r5, r2
  45              	.LVL1:
  46              	.LBB58:
  47              	.LBB59:
  48              		.file 2 "Generated_Source\\PSoC6\\pdl\\drivers/peripheral/gpio/cy_gpio.h"
   1:Generated_Source\PSoC6\pdl\drivers/peripheral/gpio/cy_gpio.h **** /***************************************************************************//**
   2:Generated_Source\PSoC6\pdl\drivers/peripheral/gpio/cy_gpio.h **** * \file cy_gpio.h
   3:Generated_Source\PSoC6\pdl\drivers/peripheral/gpio/cy_gpio.h **** * \version 1.10.1
ARM GAS  C:\Users\bryan.lee\AppData\Local\Temp\ccAkWdHW.s 			page 4


   4:Generated_Source\PSoC6\pdl\drivers/peripheral/gpio/cy_gpio.h **** *
   5:Generated_Source\PSoC6\pdl\drivers/peripheral/gpio/cy_gpio.h **** * \brief
   6:Generated_Source\PSoC6\pdl\drivers/peripheral/gpio/cy_gpio.h **** * Provides an API declaration of the GPIO driver
   7:Generated_Source\PSoC6\pdl\drivers/peripheral/gpio/cy_gpio.h **** *
   8:Generated_Source\PSoC6\pdl\drivers/peripheral/gpio/cy_gpio.h **** ********************************************************************************
   9:Generated_Source\PSoC6\pdl\drivers/peripheral/gpio/cy_gpio.h **** * \copyright
  10:Generated_Source\PSoC6\pdl\drivers/peripheral/gpio/cy_gpio.h **** * Copyright 2016-2018, Cypress Semiconductor Corporation. All rights reserved.
  11:Generated_Source\PSoC6\pdl\drivers/peripheral/gpio/cy_gpio.h **** * You may use this file only in accordance with the license, terms, conditions,
  12:Generated_Source\PSoC6\pdl\drivers/peripheral/gpio/cy_gpio.h **** * disclaimers, and limitations in the end user license agreement accompanying
  13:Generated_Source\PSoC6\pdl\drivers/peripheral/gpio/cy_gpio.h **** * the software package with which this file was provided.
  14:Generated_Source\PSoC6\pdl\drivers/peripheral/gpio/cy_gpio.h **** *******************************************************************************/
  15:Generated_Source\PSoC6\pdl\drivers/peripheral/gpio/cy_gpio.h **** 
  16:Generated_Source\PSoC6\pdl\drivers/peripheral/gpio/cy_gpio.h **** /**
  17:Generated_Source\PSoC6\pdl\drivers/peripheral/gpio/cy_gpio.h **** * \defgroup group_gpio General Purpose Input Output (GPIO)
  18:Generated_Source\PSoC6\pdl\drivers/peripheral/gpio/cy_gpio.h **** * \{
  19:Generated_Source\PSoC6\pdl\drivers/peripheral/gpio/cy_gpio.h **** * The GPIO driver provides an API to configure and access device Input/Output pins.
  20:Generated_Source\PSoC6\pdl\drivers/peripheral/gpio/cy_gpio.h **** * IO pins include all general purpose types such as GPIO, SIO, HSIO, AUXIO, and
  21:Generated_Source\PSoC6\pdl\drivers/peripheral/gpio/cy_gpio.h **** * their variants.
  22:Generated_Source\PSoC6\pdl\drivers/peripheral/gpio/cy_gpio.h **** *
  23:Generated_Source\PSoC6\pdl\drivers/peripheral/gpio/cy_gpio.h **** * Initialization can be performed either at the port level or by configuring the
  24:Generated_Source\PSoC6\pdl\drivers/peripheral/gpio/cy_gpio.h **** * individual pins. For efficient use of code space, port
  25:Generated_Source\PSoC6\pdl\drivers/peripheral/gpio/cy_gpio.h **** * configuration should be used in the field. Refer to the product device header files 
  26:Generated_Source\PSoC6\pdl\drivers/peripheral/gpio/cy_gpio.h **** * for the list of supported ports and pins.
  27:Generated_Source\PSoC6\pdl\drivers/peripheral/gpio/cy_gpio.h **** * 
  28:Generated_Source\PSoC6\pdl\drivers/peripheral/gpio/cy_gpio.h **** * - Single pin configuration is performed by using \ref Cy_GPIO_Pin_FastInit 
  29:Generated_Source\PSoC6\pdl\drivers/peripheral/gpio/cy_gpio.h **** *   (provide specific values) or \ref Cy_GPIO_Pin_Init (provide a filled
  30:Generated_Source\PSoC6\pdl\drivers/peripheral/gpio/cy_gpio.h **** *   cy_stc_gpio_pin_config_t structure).
  31:Generated_Source\PSoC6\pdl\drivers/peripheral/gpio/cy_gpio.h **** * - An entire port can be configured using \ref Cy_GPIO_Port_Init. Provide a filled 
  32:Generated_Source\PSoC6\pdl\drivers/peripheral/gpio/cy_gpio.h **** *   cy_stc_gpio_prt_config_t structure. The values in the structure are 
  33:Generated_Source\PSoC6\pdl\drivers/peripheral/gpio/cy_gpio.h **** *   bitfields representing the desired value for each pin in the port.
  34:Generated_Source\PSoC6\pdl\drivers/peripheral/gpio/cy_gpio.h **** * - Pin configuration and management is based on the port address and pin number.
  35:Generated_Source\PSoC6\pdl\drivers/peripheral/gpio/cy_gpio.h **** *   \ref Cy_GPIO_PortToAddr function can optionally be used to calculate the port
  36:Generated_Source\PSoC6\pdl\drivers/peripheral/gpio/cy_gpio.h **** *   address from the port number at run-time.
  37:Generated_Source\PSoC6\pdl\drivers/peripheral/gpio/cy_gpio.h **** *
  38:Generated_Source\PSoC6\pdl\drivers/peripheral/gpio/cy_gpio.h **** * Once the pin/port initialization is complete, each pin can be accessed by 
  39:Generated_Source\PSoC6\pdl\drivers/peripheral/gpio/cy_gpio.h **** * specifying the port (GPIO_PRT_Type) and the pin (0-7) in the provided API 
  40:Generated_Source\PSoC6\pdl\drivers/peripheral/gpio/cy_gpio.h **** * functions.
  41:Generated_Source\PSoC6\pdl\drivers/peripheral/gpio/cy_gpio.h **** *
  42:Generated_Source\PSoC6\pdl\drivers/peripheral/gpio/cy_gpio.h **** * \section group_gpio_configuration Configuration Considerations
  43:Generated_Source\PSoC6\pdl\drivers/peripheral/gpio/cy_gpio.h **** *
  44:Generated_Source\PSoC6\pdl\drivers/peripheral/gpio/cy_gpio.h **** * 1. Pin multiplexing is controlled through the High-Speed IO Matrix (HSIOM) selection.
  45:Generated_Source\PSoC6\pdl\drivers/peripheral/gpio/cy_gpio.h **** *    This allows the pin to connect to signal sources/sinks throughout the device,
  46:Generated_Source\PSoC6\pdl\drivers/peripheral/gpio/cy_gpio.h **** *    as defined by the pin HSIOM selection options (en_hsiom_sel_t).
  47:Generated_Source\PSoC6\pdl\drivers/peripheral/gpio/cy_gpio.h **** * 2. All pins are initialized to High-Z drive mode with HSIOM connected to CPU (SW
  48:Generated_Source\PSoC6\pdl\drivers/peripheral/gpio/cy_gpio.h **** *    control digital pin only) at Power-On-Reset(POR).
  49:Generated_Source\PSoC6\pdl\drivers/peripheral/gpio/cy_gpio.h **** * 3. Some API functions perform read-modify-write operations on shared port
  50:Generated_Source\PSoC6\pdl\drivers/peripheral/gpio/cy_gpio.h **** *    registers. These functions are not thread safe and care must be taken when
  51:Generated_Source\PSoC6\pdl\drivers/peripheral/gpio/cy_gpio.h **** *    called by the application.
  52:Generated_Source\PSoC6\pdl\drivers/peripheral/gpio/cy_gpio.h **** *
  53:Generated_Source\PSoC6\pdl\drivers/peripheral/gpio/cy_gpio.h **** * Multiple pins on a port can be updated using direct port register writes with an
  54:Generated_Source\PSoC6\pdl\drivers/peripheral/gpio/cy_gpio.h **** * appropriate port mask. An example is shown below, highlighting the different ways of 
  55:Generated_Source\PSoC6\pdl\drivers/peripheral/gpio/cy_gpio.h **** * configuring Port 1 pins using,
  56:Generated_Source\PSoC6\pdl\drivers/peripheral/gpio/cy_gpio.h **** * 
  57:Generated_Source\PSoC6\pdl\drivers/peripheral/gpio/cy_gpio.h **** * - Port output data register
  58:Generated_Source\PSoC6\pdl\drivers/peripheral/gpio/cy_gpio.h **** * - Port output data set register
  59:Generated_Source\PSoC6\pdl\drivers/peripheral/gpio/cy_gpio.h **** * - Port output data clear register
  60:Generated_Source\PSoC6\pdl\drivers/peripheral/gpio/cy_gpio.h **** *
ARM GAS  C:\Users\bryan.lee\AppData\Local\Temp\ccAkWdHW.s 			page 5


  61:Generated_Source\PSoC6\pdl\drivers/peripheral/gpio/cy_gpio.h **** * \snippet gpio/gpio_v1_10_sut_01.cydsn/main_cm4.c Cy_GPIO_Snippet
  62:Generated_Source\PSoC6\pdl\drivers/peripheral/gpio/cy_gpio.h **** *
  63:Generated_Source\PSoC6\pdl\drivers/peripheral/gpio/cy_gpio.h **** * \section group_gpio_more_information More Information
  64:Generated_Source\PSoC6\pdl\drivers/peripheral/gpio/cy_gpio.h **** *
  65:Generated_Source\PSoC6\pdl\drivers/peripheral/gpio/cy_gpio.h **** * Refer to the technical reference manual (TRM) and the device datasheet.
  66:Generated_Source\PSoC6\pdl\drivers/peripheral/gpio/cy_gpio.h **** *
  67:Generated_Source\PSoC6\pdl\drivers/peripheral/gpio/cy_gpio.h **** * \section group_gpio_MISRA MISRA-C Compliance]
  68:Generated_Source\PSoC6\pdl\drivers/peripheral/gpio/cy_gpio.h **** * <table class="doxtable">
  69:Generated_Source\PSoC6\pdl\drivers/peripheral/gpio/cy_gpio.h **** *   <tr>
  70:Generated_Source\PSoC6\pdl\drivers/peripheral/gpio/cy_gpio.h **** *     <th>MISRA Rule</th>
  71:Generated_Source\PSoC6\pdl\drivers/peripheral/gpio/cy_gpio.h **** *     <th>Rule Class (Required/Advisory)</th>
  72:Generated_Source\PSoC6\pdl\drivers/peripheral/gpio/cy_gpio.h **** *     <th>Rule Description</th>
  73:Generated_Source\PSoC6\pdl\drivers/peripheral/gpio/cy_gpio.h **** *     <th>Description of Deviation(s)</th>
  74:Generated_Source\PSoC6\pdl\drivers/peripheral/gpio/cy_gpio.h **** *   </tr>
  75:Generated_Source\PSoC6\pdl\drivers/peripheral/gpio/cy_gpio.h **** *   <tr>
  76:Generated_Source\PSoC6\pdl\drivers/peripheral/gpio/cy_gpio.h **** *     <td>16.7</td>
  77:Generated_Source\PSoC6\pdl\drivers/peripheral/gpio/cy_gpio.h **** *     <td>A</td>
  78:Generated_Source\PSoC6\pdl\drivers/peripheral/gpio/cy_gpio.h **** *     <td>A pointer parameter in a function prototype should be declared as pointer 
  79:Generated_Source\PSoC6\pdl\drivers/peripheral/gpio/cy_gpio.h **** *         to const if the pointer is not used to modify the addressed object.</td>
  80:Generated_Source\PSoC6\pdl\drivers/peripheral/gpio/cy_gpio.h **** *     <td>The objects pointed to by the base addresses of the GPIO port are not always modified.
  81:Generated_Source\PSoC6\pdl\drivers/peripheral/gpio/cy_gpio.h **** *         While a const qualifier can be used in select scenarios, it brings little benefit
  82:Generated_Source\PSoC6\pdl\drivers/peripheral/gpio/cy_gpio.h **** *         in adding this to the affected functions. </td>
  83:Generated_Source\PSoC6\pdl\drivers/peripheral/gpio/cy_gpio.h **** *   </tr>
  84:Generated_Source\PSoC6\pdl\drivers/peripheral/gpio/cy_gpio.h **** * </table>
  85:Generated_Source\PSoC6\pdl\drivers/peripheral/gpio/cy_gpio.h **** *
  86:Generated_Source\PSoC6\pdl\drivers/peripheral/gpio/cy_gpio.h **** * \section group_gpio_changelog Changelog
  87:Generated_Source\PSoC6\pdl\drivers/peripheral/gpio/cy_gpio.h **** * <table class="doxtable">
  88:Generated_Source\PSoC6\pdl\drivers/peripheral/gpio/cy_gpio.h **** *   <tr><th>Version</th><th>Changes</th><th>Reason for Change</th></tr>
  89:Generated_Source\PSoC6\pdl\drivers/peripheral/gpio/cy_gpio.h **** *   <tr>
  90:Generated_Source\PSoC6\pdl\drivers/peripheral/gpio/cy_gpio.h **** *     <td>1.10.1</td>
  91:Generated_Source\PSoC6\pdl\drivers/peripheral/gpio/cy_gpio.h **** *     <td>Updated description for the functions: \ref Cy_GPIO_GetInterruptStatus, 
  92:Generated_Source\PSoC6\pdl\drivers/peripheral/gpio/cy_gpio.h **** *         \ref Cy_GPIO_GetInterruptMask, \ref Cy_GPIO_GetInterruptStatusMasked.
  93:Generated_Source\PSoC6\pdl\drivers/peripheral/gpio/cy_gpio.h **** *         Minor documentation edits.
  94:Generated_Source\PSoC6\pdl\drivers/peripheral/gpio/cy_gpio.h **** *     </td>
  95:Generated_Source\PSoC6\pdl\drivers/peripheral/gpio/cy_gpio.h **** *     <td>Documentation update and clarification</td>
  96:Generated_Source\PSoC6\pdl\drivers/peripheral/gpio/cy_gpio.h **** *   </tr>
  97:Generated_Source\PSoC6\pdl\drivers/peripheral/gpio/cy_gpio.h **** *   <tr>
  98:Generated_Source\PSoC6\pdl\drivers/peripheral/gpio/cy_gpio.h **** *     <td>1.10</td>
  99:Generated_Source\PSoC6\pdl\drivers/peripheral/gpio/cy_gpio.h **** *     <td>Added input parameter validation to the API functions</td>
 100:Generated_Source\PSoC6\pdl\drivers/peripheral/gpio/cy_gpio.h **** *     <td></td>
 101:Generated_Source\PSoC6\pdl\drivers/peripheral/gpio/cy_gpio.h **** *   </tr>
 102:Generated_Source\PSoC6\pdl\drivers/peripheral/gpio/cy_gpio.h **** *   <tr>
 103:Generated_Source\PSoC6\pdl\drivers/peripheral/gpio/cy_gpio.h **** *     <td>1.0</td>
 104:Generated_Source\PSoC6\pdl\drivers/peripheral/gpio/cy_gpio.h **** *     <td>Initial version</td>
 105:Generated_Source\PSoC6\pdl\drivers/peripheral/gpio/cy_gpio.h **** *     <td></td>
 106:Generated_Source\PSoC6\pdl\drivers/peripheral/gpio/cy_gpio.h **** *   </tr>
 107:Generated_Source\PSoC6\pdl\drivers/peripheral/gpio/cy_gpio.h **** * </table>
 108:Generated_Source\PSoC6\pdl\drivers/peripheral/gpio/cy_gpio.h **** *
 109:Generated_Source\PSoC6\pdl\drivers/peripheral/gpio/cy_gpio.h **** * \defgroup group_gpio_macros Macros
 110:Generated_Source\PSoC6\pdl\drivers/peripheral/gpio/cy_gpio.h **** * \defgroup group_gpio_functions Functions
 111:Generated_Source\PSoC6\pdl\drivers/peripheral/gpio/cy_gpio.h **** * \{
 112:Generated_Source\PSoC6\pdl\drivers/peripheral/gpio/cy_gpio.h **** *   \defgroup group_gpio_functions_init       Initialization Functions
 113:Generated_Source\PSoC6\pdl\drivers/peripheral/gpio/cy_gpio.h **** *   \defgroup group_gpio_functions_gpio       GPIO Functions
 114:Generated_Source\PSoC6\pdl\drivers/peripheral/gpio/cy_gpio.h **** *   \defgroup group_gpio_functions_sio        SIO Functions
 115:Generated_Source\PSoC6\pdl\drivers/peripheral/gpio/cy_gpio.h **** *   \defgroup group_gpio_functions_interrupt  Port Interrupt Functions
 116:Generated_Source\PSoC6\pdl\drivers/peripheral/gpio/cy_gpio.h **** * \}
 117:Generated_Source\PSoC6\pdl\drivers/peripheral/gpio/cy_gpio.h **** * \defgroup group_gpio_data_structures Data Structures
ARM GAS  C:\Users\bryan.lee\AppData\Local\Temp\ccAkWdHW.s 			page 6


 118:Generated_Source\PSoC6\pdl\drivers/peripheral/gpio/cy_gpio.h **** * \defgroup group_gpio_enums Enumerated Types
 119:Generated_Source\PSoC6\pdl\drivers/peripheral/gpio/cy_gpio.h **** */
 120:Generated_Source\PSoC6\pdl\drivers/peripheral/gpio/cy_gpio.h **** 
 121:Generated_Source\PSoC6\pdl\drivers/peripheral/gpio/cy_gpio.h **** #if !defined(CY_GPIO_H)
 122:Generated_Source\PSoC6\pdl\drivers/peripheral/gpio/cy_gpio.h **** #define CY_GPIO_H
 123:Generated_Source\PSoC6\pdl\drivers/peripheral/gpio/cy_gpio.h **** 
 124:Generated_Source\PSoC6\pdl\drivers/peripheral/gpio/cy_gpio.h **** #include <stddef.h>
 125:Generated_Source\PSoC6\pdl\drivers/peripheral/gpio/cy_gpio.h **** #include "syslib/cy_syslib.h"
 126:Generated_Source\PSoC6\pdl\drivers/peripheral/gpio/cy_gpio.h **** #include "cy_device_headers.h"
 127:Generated_Source\PSoC6\pdl\drivers/peripheral/gpio/cy_gpio.h **** 
 128:Generated_Source\PSoC6\pdl\drivers/peripheral/gpio/cy_gpio.h **** #if defined(__cplusplus)
 129:Generated_Source\PSoC6\pdl\drivers/peripheral/gpio/cy_gpio.h **** extern "C" {
 130:Generated_Source\PSoC6\pdl\drivers/peripheral/gpio/cy_gpio.h **** #endif
 131:Generated_Source\PSoC6\pdl\drivers/peripheral/gpio/cy_gpio.h **** 
 132:Generated_Source\PSoC6\pdl\drivers/peripheral/gpio/cy_gpio.h **** /** \addtogroup group_gpio_macros
 133:Generated_Source\PSoC6\pdl\drivers/peripheral/gpio/cy_gpio.h **** * \{
 134:Generated_Source\PSoC6\pdl\drivers/peripheral/gpio/cy_gpio.h **** */
 135:Generated_Source\PSoC6\pdl\drivers/peripheral/gpio/cy_gpio.h **** 
 136:Generated_Source\PSoC6\pdl\drivers/peripheral/gpio/cy_gpio.h **** /** Driver major version */
 137:Generated_Source\PSoC6\pdl\drivers/peripheral/gpio/cy_gpio.h **** #define CY_GPIO_DRV_VERSION_MAJOR       1
 138:Generated_Source\PSoC6\pdl\drivers/peripheral/gpio/cy_gpio.h **** 
 139:Generated_Source\PSoC6\pdl\drivers/peripheral/gpio/cy_gpio.h **** /** Driver minor version */
 140:Generated_Source\PSoC6\pdl\drivers/peripheral/gpio/cy_gpio.h **** #define CY_GPIO_DRV_VERSION_MINOR       10
 141:Generated_Source\PSoC6\pdl\drivers/peripheral/gpio/cy_gpio.h **** 
 142:Generated_Source\PSoC6\pdl\drivers/peripheral/gpio/cy_gpio.h **** /** GPIO driver ID */
 143:Generated_Source\PSoC6\pdl\drivers/peripheral/gpio/cy_gpio.h **** #define CY_GPIO_ID CY_PDL_DRV_ID(0x16u)
 144:Generated_Source\PSoC6\pdl\drivers/peripheral/gpio/cy_gpio.h **** 
 145:Generated_Source\PSoC6\pdl\drivers/peripheral/gpio/cy_gpio.h **** /** \} group_gpio_macros */
 146:Generated_Source\PSoC6\pdl\drivers/peripheral/gpio/cy_gpio.h **** 
 147:Generated_Source\PSoC6\pdl\drivers/peripheral/gpio/cy_gpio.h **** 
 148:Generated_Source\PSoC6\pdl\drivers/peripheral/gpio/cy_gpio.h **** /***************************************
 149:Generated_Source\PSoC6\pdl\drivers/peripheral/gpio/cy_gpio.h **** *       Enumerations
 150:Generated_Source\PSoC6\pdl\drivers/peripheral/gpio/cy_gpio.h **** ***************************************/
 151:Generated_Source\PSoC6\pdl\drivers/peripheral/gpio/cy_gpio.h **** /**
 152:Generated_Source\PSoC6\pdl\drivers/peripheral/gpio/cy_gpio.h **** * \addtogroup group_gpio_enums
 153:Generated_Source\PSoC6\pdl\drivers/peripheral/gpio/cy_gpio.h **** * \{
 154:Generated_Source\PSoC6\pdl\drivers/peripheral/gpio/cy_gpio.h **** */
 155:Generated_Source\PSoC6\pdl\drivers/peripheral/gpio/cy_gpio.h **** 
 156:Generated_Source\PSoC6\pdl\drivers/peripheral/gpio/cy_gpio.h **** /**
 157:Generated_Source\PSoC6\pdl\drivers/peripheral/gpio/cy_gpio.h **** * GPIO Driver error codes
 158:Generated_Source\PSoC6\pdl\drivers/peripheral/gpio/cy_gpio.h **** */
 159:Generated_Source\PSoC6\pdl\drivers/peripheral/gpio/cy_gpio.h **** typedef enum 
 160:Generated_Source\PSoC6\pdl\drivers/peripheral/gpio/cy_gpio.h **** {
 161:Generated_Source\PSoC6\pdl\drivers/peripheral/gpio/cy_gpio.h ****     CY_GPIO_SUCCESS   = 0x00u,                                    /**< Returned successful */
 162:Generated_Source\PSoC6\pdl\drivers/peripheral/gpio/cy_gpio.h ****     CY_GPIO_BAD_PARAM = CY_GPIO_ID | CY_PDL_STATUS_ERROR | 0x01u, /**< Bad parameter was passed */
 163:Generated_Source\PSoC6\pdl\drivers/peripheral/gpio/cy_gpio.h **** } cy_en_gpio_status_t;
 164:Generated_Source\PSoC6\pdl\drivers/peripheral/gpio/cy_gpio.h **** 
 165:Generated_Source\PSoC6\pdl\drivers/peripheral/gpio/cy_gpio.h **** /** \} group_gpio_enums */
 166:Generated_Source\PSoC6\pdl\drivers/peripheral/gpio/cy_gpio.h **** 
 167:Generated_Source\PSoC6\pdl\drivers/peripheral/gpio/cy_gpio.h **** 
 168:Generated_Source\PSoC6\pdl\drivers/peripheral/gpio/cy_gpio.h **** /***************************************
 169:Generated_Source\PSoC6\pdl\drivers/peripheral/gpio/cy_gpio.h **** *       Configuration Structures
 170:Generated_Source\PSoC6\pdl\drivers/peripheral/gpio/cy_gpio.h **** ***************************************/
 171:Generated_Source\PSoC6\pdl\drivers/peripheral/gpio/cy_gpio.h **** 
 172:Generated_Source\PSoC6\pdl\drivers/peripheral/gpio/cy_gpio.h **** /**
 173:Generated_Source\PSoC6\pdl\drivers/peripheral/gpio/cy_gpio.h **** * \addtogroup group_gpio_data_structures
 174:Generated_Source\PSoC6\pdl\drivers/peripheral/gpio/cy_gpio.h **** * \{
ARM GAS  C:\Users\bryan.lee\AppData\Local\Temp\ccAkWdHW.s 			page 7


 175:Generated_Source\PSoC6\pdl\drivers/peripheral/gpio/cy_gpio.h **** */
 176:Generated_Source\PSoC6\pdl\drivers/peripheral/gpio/cy_gpio.h **** 
 177:Generated_Source\PSoC6\pdl\drivers/peripheral/gpio/cy_gpio.h **** /** This structure is used to initialize a port of GPIO pins */
 178:Generated_Source\PSoC6\pdl\drivers/peripheral/gpio/cy_gpio.h **** typedef struct {
 179:Generated_Source\PSoC6\pdl\drivers/peripheral/gpio/cy_gpio.h ****     uint32_t out;           /**< Initial output data for the IO pins in the port */
 180:Generated_Source\PSoC6\pdl\drivers/peripheral/gpio/cy_gpio.h ****     uint32_t intrMask;      /**< Interrupt enable mask for the port interrupt */
 181:Generated_Source\PSoC6\pdl\drivers/peripheral/gpio/cy_gpio.h ****     uint32_t intrCfg;       /**< Port pin interrupt edge detection configuration */
 182:Generated_Source\PSoC6\pdl\drivers/peripheral/gpio/cy_gpio.h ****     uint32_t cfg;           /**< Port pin drive modes and input buffer enable configuration */
 183:Generated_Source\PSoC6\pdl\drivers/peripheral/gpio/cy_gpio.h ****     uint32_t cfgIn;         /**< Port pin input buffer configuration */
 184:Generated_Source\PSoC6\pdl\drivers/peripheral/gpio/cy_gpio.h ****     uint32_t cfgOut;        /**< Port pin output buffer configuration */
 185:Generated_Source\PSoC6\pdl\drivers/peripheral/gpio/cy_gpio.h ****     uint32_t cfgSIO;        /**< Port SIO pins configuration */
 186:Generated_Source\PSoC6\pdl\drivers/peripheral/gpio/cy_gpio.h ****     uint32_t sel0Active;    /**< HSIOM selection for port pins 0,1,2,3 */
 187:Generated_Source\PSoC6\pdl\drivers/peripheral/gpio/cy_gpio.h ****     uint32_t sel1Active;    /**< HSIOM selection for port pins 4,5,6,7 */
 188:Generated_Source\PSoC6\pdl\drivers/peripheral/gpio/cy_gpio.h **** } cy_stc_gpio_prt_config_t;
 189:Generated_Source\PSoC6\pdl\drivers/peripheral/gpio/cy_gpio.h **** 
 190:Generated_Source\PSoC6\pdl\drivers/peripheral/gpio/cy_gpio.h **** /** This structure is used to initialize a single GPIO pin */
 191:Generated_Source\PSoC6\pdl\drivers/peripheral/gpio/cy_gpio.h **** typedef struct {
 192:Generated_Source\PSoC6\pdl\drivers/peripheral/gpio/cy_gpio.h ****     uint32_t outVal;         /**< Pin output state */
 193:Generated_Source\PSoC6\pdl\drivers/peripheral/gpio/cy_gpio.h ****     uint32_t driveMode;      /**< Drive mode */
 194:Generated_Source\PSoC6\pdl\drivers/peripheral/gpio/cy_gpio.h ****     en_hsiom_sel_t hsiom;   /**< HSIOM selection */
 195:Generated_Source\PSoC6\pdl\drivers/peripheral/gpio/cy_gpio.h ****     uint32_t intEdge;        /**< Interrupt Edge type */
 196:Generated_Source\PSoC6\pdl\drivers/peripheral/gpio/cy_gpio.h ****     uint32_t intMask;        /**< Interrupt enable mask */
 197:Generated_Source\PSoC6\pdl\drivers/peripheral/gpio/cy_gpio.h ****     uint32_t vtrip;          /**< Input buffer voltage trip type */
 198:Generated_Source\PSoC6\pdl\drivers/peripheral/gpio/cy_gpio.h ****     uint32_t slewRate;       /**< Output buffer slew rate */
 199:Generated_Source\PSoC6\pdl\drivers/peripheral/gpio/cy_gpio.h ****     uint32_t driveSel;       /**< Drive strength */
 200:Generated_Source\PSoC6\pdl\drivers/peripheral/gpio/cy_gpio.h ****     uint32_t vregEn;         /**< SIO pair output buffer mode */
 201:Generated_Source\PSoC6\pdl\drivers/peripheral/gpio/cy_gpio.h ****     uint32_t ibufMode;       /**< SIO pair input buffer mode */
 202:Generated_Source\PSoC6\pdl\drivers/peripheral/gpio/cy_gpio.h ****     uint32_t vtripSel;       /**< SIO pair input buffer trip point */
 203:Generated_Source\PSoC6\pdl\drivers/peripheral/gpio/cy_gpio.h ****     uint32_t vrefSel;        /**< SIO pair reference voltage for input buffer trip point */
 204:Generated_Source\PSoC6\pdl\drivers/peripheral/gpio/cy_gpio.h ****     uint32_t vohSel;         /**< SIO pair regulated voltage output level */
 205:Generated_Source\PSoC6\pdl\drivers/peripheral/gpio/cy_gpio.h **** } cy_stc_gpio_pin_config_t;
 206:Generated_Source\PSoC6\pdl\drivers/peripheral/gpio/cy_gpio.h **** 
 207:Generated_Source\PSoC6\pdl\drivers/peripheral/gpio/cy_gpio.h **** /** \} group_gpio_data_structures */
 208:Generated_Source\PSoC6\pdl\drivers/peripheral/gpio/cy_gpio.h **** 
 209:Generated_Source\PSoC6\pdl\drivers/peripheral/gpio/cy_gpio.h **** /***************************************
 210:Generated_Source\PSoC6\pdl\drivers/peripheral/gpio/cy_gpio.h **** *        Constants
 211:Generated_Source\PSoC6\pdl\drivers/peripheral/gpio/cy_gpio.h **** ***************************************/
 212:Generated_Source\PSoC6\pdl\drivers/peripheral/gpio/cy_gpio.h **** 
 213:Generated_Source\PSoC6\pdl\drivers/peripheral/gpio/cy_gpio.h **** /** \cond INTERNAL */
 214:Generated_Source\PSoC6\pdl\drivers/peripheral/gpio/cy_gpio.h **** 
 215:Generated_Source\PSoC6\pdl\drivers/peripheral/gpio/cy_gpio.h **** /* General Constants */
 216:Generated_Source\PSoC6\pdl\drivers/peripheral/gpio/cy_gpio.h **** #define CY_GPIO_PRT_HALF                       (4UL)      /**< Half-way point of a GPIO port */
 217:Generated_Source\PSoC6\pdl\drivers/peripheral/gpio/cy_gpio.h **** #define CY_GPIO_PRT_DEINIT                     (0UL)      /**< De-init value for port registers */
 218:Generated_Source\PSoC6\pdl\drivers/peripheral/gpio/cy_gpio.h **** 
 219:Generated_Source\PSoC6\pdl\drivers/peripheral/gpio/cy_gpio.h **** /* GPIO Masks */
 220:Generated_Source\PSoC6\pdl\drivers/peripheral/gpio/cy_gpio.h **** #define CY_GPIO_HSIOM_MASK                     (0x1FUL)   /**< HSIOM selection mask */
 221:Generated_Source\PSoC6\pdl\drivers/peripheral/gpio/cy_gpio.h **** #define CY_GPIO_OUT_MASK                       (0x01UL)   /**< Single pin mask for OUT register */
 222:Generated_Source\PSoC6\pdl\drivers/peripheral/gpio/cy_gpio.h **** #define CY_GPIO_IN_MASK                        (0x01UL)   /**< Single pin mask for IN register */
 223:Generated_Source\PSoC6\pdl\drivers/peripheral/gpio/cy_gpio.h **** #define CY_GPIO_CFG_DM_MASK                    (0x0FUL)   /**< Single pin mask for drive mode in CF
 224:Generated_Source\PSoC6\pdl\drivers/peripheral/gpio/cy_gpio.h **** #define CY_GPIO_CFG_IN_VTRIP_SEL_MASK          (0x01UL)   /**< Single pin mask for VTRIP selection 
 225:Generated_Source\PSoC6\pdl\drivers/peripheral/gpio/cy_gpio.h **** #define CY_GPIO_CFG_OUT_SLOW_MASK              (0x01UL)   /**< Single pin mask for slew rate in CFG
 226:Generated_Source\PSoC6\pdl\drivers/peripheral/gpio/cy_gpio.h **** #define CY_GPIO_CFG_OUT_DRIVE_SEL_MASK         (0x03UL)   /**< Single pin mask for drive strength i
 227:Generated_Source\PSoC6\pdl\drivers/peripheral/gpio/cy_gpio.h **** #define CY_GPIO_INTR_STATUS_MASK               (0x01UL)   /**< Single pin mask for interrupt status
 228:Generated_Source\PSoC6\pdl\drivers/peripheral/gpio/cy_gpio.h **** #define CY_GPIO_INTR_EN_MASK                   (0x01UL)   /**< Single pin mask for interrupt status
 229:Generated_Source\PSoC6\pdl\drivers/peripheral/gpio/cy_gpio.h **** #define CY_GPIO_INTR_MASKED_MASK               (0x01UL)   /**< Single pin mask for masked interrupt
 230:Generated_Source\PSoC6\pdl\drivers/peripheral/gpio/cy_gpio.h **** #define CY_GPIO_INTR_SET_MASK                  (0x01UL)   /**< Single pin mask for setting the inte
 231:Generated_Source\PSoC6\pdl\drivers/peripheral/gpio/cy_gpio.h **** #define CY_GPIO_INTR_EDGE_MASK                 (0x03UL)   /**< Single pin mask for interrupt edge t
ARM GAS  C:\Users\bryan.lee\AppData\Local\Temp\ccAkWdHW.s 			page 8


 232:Generated_Source\PSoC6\pdl\drivers/peripheral/gpio/cy_gpio.h **** #define CY_GPIO_INTR_FLT_EDGE_MASK             (0x07UL)   /**< Single pin mask for setting filtered
 233:Generated_Source\PSoC6\pdl\drivers/peripheral/gpio/cy_gpio.h **** 
 234:Generated_Source\PSoC6\pdl\drivers/peripheral/gpio/cy_gpio.h **** /* SIO Masks */
 235:Generated_Source\PSoC6\pdl\drivers/peripheral/gpio/cy_gpio.h **** #define CY_GPIO_VREG_EN_MASK                   (0x01UL)   /**< Single SIO pin mask for voltage regu
 236:Generated_Source\PSoC6\pdl\drivers/peripheral/gpio/cy_gpio.h **** #define CY_GPIO_IBUF_MASK                      (0x01UL)   /**< Single SIO pin mask for input buffer
 237:Generated_Source\PSoC6\pdl\drivers/peripheral/gpio/cy_gpio.h **** #define CY_GPIO_IBUF_SHIFT                     (0x01UL)   /**< Single SIO pin shift for input buffe
 238:Generated_Source\PSoC6\pdl\drivers/peripheral/gpio/cy_gpio.h **** #define CY_GPIO_VTRIP_SEL_MASK                 (0x01UL)   /**< Single SIO pin mask for the input bu
 239:Generated_Source\PSoC6\pdl\drivers/peripheral/gpio/cy_gpio.h **** #define CY_GPIO_VTRIP_SEL_SHIFT                (0x02UL)   /**< Single SIO pin shift for the input b
 240:Generated_Source\PSoC6\pdl\drivers/peripheral/gpio/cy_gpio.h **** #define CY_GPIO_VREF_SEL_MASK                  (0x03UL)   /**< Single SIO pin mask for voltage refe
 241:Generated_Source\PSoC6\pdl\drivers/peripheral/gpio/cy_gpio.h **** #define CY_GPIO_VREF_SEL_SHIFT                 (0x03UL)   /**< Single SIO pin shift for voltage ref
 242:Generated_Source\PSoC6\pdl\drivers/peripheral/gpio/cy_gpio.h **** #define CY_GPIO_VOH_SEL_MASK                   (0x07UL)   /**< Single SIO pin mask for VOH */
 243:Generated_Source\PSoC6\pdl\drivers/peripheral/gpio/cy_gpio.h **** #define CY_GPIO_VOH_SEL_SHIFT                  (0x05UL)   /**< Single SIO pin shift for VOH */
 244:Generated_Source\PSoC6\pdl\drivers/peripheral/gpio/cy_gpio.h **** 
 245:Generated_Source\PSoC6\pdl\drivers/peripheral/gpio/cy_gpio.h **** /* Special mask for SIO pin pair setting */
 246:Generated_Source\PSoC6\pdl\drivers/peripheral/gpio/cy_gpio.h **** #define CY_GPIO_SIO_ODD_PIN_MASK               (0x00FEUL) /**< SIO pin pair selection mask */
 247:Generated_Source\PSoC6\pdl\drivers/peripheral/gpio/cy_gpio.h **** #define CY_GPIO_SIO_PIN_MASK                   (0x00FFUL) /**< SIO pin pair mask */
 248:Generated_Source\PSoC6\pdl\drivers/peripheral/gpio/cy_gpio.h **** 
 249:Generated_Source\PSoC6\pdl\drivers/peripheral/gpio/cy_gpio.h **** /* Offsets */
 250:Generated_Source\PSoC6\pdl\drivers/peripheral/gpio/cy_gpio.h **** #define CY_GPIO_HSIOM_OFFSET                   (3UL)      /**< Offset for HSIOM */
 251:Generated_Source\PSoC6\pdl\drivers/peripheral/gpio/cy_gpio.h **** #define CY_GPIO_DRIVE_MODE_OFFSET              (2UL)      /**< Offset for Drive mode */
 252:Generated_Source\PSoC6\pdl\drivers/peripheral/gpio/cy_gpio.h **** #define CY_GPIO_INBUF_OFFSET                   (3UL)      /**< Offset for input buffer */
 253:Generated_Source\PSoC6\pdl\drivers/peripheral/gpio/cy_gpio.h **** #define CY_GPIO_CFG_OUT_DRIVE_OFFSET           (16UL)     /**< Offset for drive strength */
 254:Generated_Source\PSoC6\pdl\drivers/peripheral/gpio/cy_gpio.h **** #define CY_GPIO_INTR_CFG_OFFSET                (1UL)      /**< Offset for interrupt config */
 255:Generated_Source\PSoC6\pdl\drivers/peripheral/gpio/cy_gpio.h **** #define CY_GPIO_INTR_FILT_OFFSET               (18UL)     /**< Offset for filtered interrupt config
 256:Generated_Source\PSoC6\pdl\drivers/peripheral/gpio/cy_gpio.h **** #define CY_GPIO_CFG_SIO_OFFSET                 (2UL)      /**< Offset for SIO config */
 257:Generated_Source\PSoC6\pdl\drivers/peripheral/gpio/cy_gpio.h **** 
 258:Generated_Source\PSoC6\pdl\drivers/peripheral/gpio/cy_gpio.h **** /* Parameter validation constants */
 259:Generated_Source\PSoC6\pdl\drivers/peripheral/gpio/cy_gpio.h **** #define CY_GPIO_PINS_MAX                       (8UL)      /**< Number of pins in the port */
 260:Generated_Source\PSoC6\pdl\drivers/peripheral/gpio/cy_gpio.h **** #define CY_GPIO_PRT_PINS_MASK                  (0x0000000FFUL)
 261:Generated_Source\PSoC6\pdl\drivers/peripheral/gpio/cy_gpio.h **** #define CY_GPIO_PRT_INTR_CFG_EDGE_SEL_MASK     (GPIO_PRT_INTR_CFG_EDGE0_SEL_Msk | \
 262:Generated_Source\PSoC6\pdl\drivers/peripheral/gpio/cy_gpio.h ****                                                 GPIO_PRT_INTR_CFG_EDGE1_SEL_Msk | \
 263:Generated_Source\PSoC6\pdl\drivers/peripheral/gpio/cy_gpio.h ****                                                 GPIO_PRT_INTR_CFG_EDGE2_SEL_Msk | \
 264:Generated_Source\PSoC6\pdl\drivers/peripheral/gpio/cy_gpio.h ****                                                 GPIO_PRT_INTR_CFG_EDGE3_SEL_Msk | \
 265:Generated_Source\PSoC6\pdl\drivers/peripheral/gpio/cy_gpio.h ****                                                 GPIO_PRT_INTR_CFG_EDGE4_SEL_Msk | \
 266:Generated_Source\PSoC6\pdl\drivers/peripheral/gpio/cy_gpio.h ****                                                 GPIO_PRT_INTR_CFG_EDGE5_SEL_Msk | \
 267:Generated_Source\PSoC6\pdl\drivers/peripheral/gpio/cy_gpio.h ****                                                 GPIO_PRT_INTR_CFG_EDGE6_SEL_Msk | \
 268:Generated_Source\PSoC6\pdl\drivers/peripheral/gpio/cy_gpio.h ****                                                 GPIO_PRT_INTR_CFG_EDGE7_SEL_Msk)            
 269:Generated_Source\PSoC6\pdl\drivers/peripheral/gpio/cy_gpio.h **** #define CY_GPIO_PRT_INTR_CFG_RANGE_MASK        (CY_GPIO_PRT_INTR_CFG_EDGE_SEL_MASK | \
 270:Generated_Source\PSoC6\pdl\drivers/peripheral/gpio/cy_gpio.h ****                                                 GPIO_PRT_INTR_CFG_FLT_EDGE_SEL_Msk | \
 271:Generated_Source\PSoC6\pdl\drivers/peripheral/gpio/cy_gpio.h ****                                                 GPIO_PRT_INTR_CFG_FLT_SEL_Msk)
 272:Generated_Source\PSoC6\pdl\drivers/peripheral/gpio/cy_gpio.h **** #define CY_GPIO_PRT_INT_MASK_MASK              (0x0000001FFUL)
 273:Generated_Source\PSoC6\pdl\drivers/peripheral/gpio/cy_gpio.h **** #define CY_GPIO_PRT_SEL_ACTIVE_MASK            (0x1FFFFFFFUL)
 274:Generated_Source\PSoC6\pdl\drivers/peripheral/gpio/cy_gpio.h **** 
 275:Generated_Source\PSoC6\pdl\drivers/peripheral/gpio/cy_gpio.h **** /* Parameter validation macros */
 276:Generated_Source\PSoC6\pdl\drivers/peripheral/gpio/cy_gpio.h **** #define CY_GPIO_IS_PIN_VALID(pinNum)           (CY_GPIO_PINS_MAX > (pinNum))
 277:Generated_Source\PSoC6\pdl\drivers/peripheral/gpio/cy_gpio.h **** #define CY_GPIO_IS_FILTER_PIN_VALID(pinNum)    (CY_GPIO_PINS_MAX >= (pinNum))
 278:Generated_Source\PSoC6\pdl\drivers/peripheral/gpio/cy_gpio.h **** #define CY_GPIO_IS_VALUE_VALID(outVal)         (1UL >= (outVal))
 279:Generated_Source\PSoC6\pdl\drivers/peripheral/gpio/cy_gpio.h **** #define CY_GPIO_IS_DM_VALID(driveMode)         (0U == ((driveMode) & (uint32_t)~CY_GPIO_CFG_DM_MASK
 280:Generated_Source\PSoC6\pdl\drivers/peripheral/gpio/cy_gpio.h **** 
 281:Generated_Source\PSoC6\pdl\drivers/peripheral/gpio/cy_gpio.h **** #define CY_GPIO_IS_HSIOM_VALID(hsiom)          (0U == ((hsiom) & (uint32_t)~CY_GPIO_HSIOM_MASK))
 282:Generated_Source\PSoC6\pdl\drivers/peripheral/gpio/cy_gpio.h **** 
 283:Generated_Source\PSoC6\pdl\drivers/peripheral/gpio/cy_gpio.h **** #define CY_GPIO_IS_INT_EDGE_VALID(intEdge)     ((CY_GPIO_INTR_DISABLE  == (intEdge)) || \
 284:Generated_Source\PSoC6\pdl\drivers/peripheral/gpio/cy_gpio.h ****                                                 (CY_GPIO_INTR_RISING   == (intEdge)) || \
 285:Generated_Source\PSoC6\pdl\drivers/peripheral/gpio/cy_gpio.h ****                                                 (CY_GPIO_INTR_FALLING  == (intEdge)) || \
 286:Generated_Source\PSoC6\pdl\drivers/peripheral/gpio/cy_gpio.h ****                                                 (CY_GPIO_INTR_BOTH     == (intEdge)))
 287:Generated_Source\PSoC6\pdl\drivers/peripheral/gpio/cy_gpio.h **** 
 288:Generated_Source\PSoC6\pdl\drivers/peripheral/gpio/cy_gpio.h **** #define CY_GPIO_IS_DRIVE_SEL_VALID(driveSel)   ((CY_GPIO_DRIVE_FULL    == (driveSel)) || \
ARM GAS  C:\Users\bryan.lee\AppData\Local\Temp\ccAkWdHW.s 			page 9


 289:Generated_Source\PSoC6\pdl\drivers/peripheral/gpio/cy_gpio.h ****                                                 (CY_GPIO_DRIVE_1_2     == (driveSel)) || \
 290:Generated_Source\PSoC6\pdl\drivers/peripheral/gpio/cy_gpio.h ****                                                 (CY_GPIO_DRIVE_1_4     == (driveSel)) || \
 291:Generated_Source\PSoC6\pdl\drivers/peripheral/gpio/cy_gpio.h ****                                                 (CY_GPIO_DRIVE_1_8     == (driveSel)))
 292:Generated_Source\PSoC6\pdl\drivers/peripheral/gpio/cy_gpio.h **** 
 293:Generated_Source\PSoC6\pdl\drivers/peripheral/gpio/cy_gpio.h **** #define CY_GPIO_IS_VREF_SEL_VALID(vrefSel)     ((CY_SIO_VREF_PINREF    == (vrefSel)) || \
 294:Generated_Source\PSoC6\pdl\drivers/peripheral/gpio/cy_gpio.h ****                                                 (CY_SIO_VREF_1_2V      == (vrefSel)) || \
 295:Generated_Source\PSoC6\pdl\drivers/peripheral/gpio/cy_gpio.h ****                                                 (CY_SIO_VREF_AMUX_A    == (vrefSel)) || \
 296:Generated_Source\PSoC6\pdl\drivers/peripheral/gpio/cy_gpio.h ****                                                 (CY_SIO_VREF_AMUX_B    == (vrefSel)))
 297:Generated_Source\PSoC6\pdl\drivers/peripheral/gpio/cy_gpio.h **** 
 298:Generated_Source\PSoC6\pdl\drivers/peripheral/gpio/cy_gpio.h **** #define CY_GPIO_IS_VOH_SEL_VALID(vrefSel)      ((CY_SIO_VOH_1_00       == (vrefSel)) || \
 299:Generated_Source\PSoC6\pdl\drivers/peripheral/gpio/cy_gpio.h ****                                                 (CY_SIO_VOH_1_25       == (vrefSel)) || \
 300:Generated_Source\PSoC6\pdl\drivers/peripheral/gpio/cy_gpio.h ****                                                 (CY_SIO_VOH_1_49       == (vrefSel)) || \
 301:Generated_Source\PSoC6\pdl\drivers/peripheral/gpio/cy_gpio.h ****                                                 (CY_SIO_VOH_1_67       == (vrefSel)) || \
 302:Generated_Source\PSoC6\pdl\drivers/peripheral/gpio/cy_gpio.h ****                                                 (CY_SIO_VOH_2_08       == (vrefSel)) || \
 303:Generated_Source\PSoC6\pdl\drivers/peripheral/gpio/cy_gpio.h ****                                                 (CY_SIO_VOH_2_50       == (vrefSel)) || \
 304:Generated_Source\PSoC6\pdl\drivers/peripheral/gpio/cy_gpio.h ****                                                 (CY_SIO_VOH_2_78       == (vrefSel)) || \
 305:Generated_Source\PSoC6\pdl\drivers/peripheral/gpio/cy_gpio.h ****                                                 (CY_SIO_VOH_4_16       == (vrefSel)))
 306:Generated_Source\PSoC6\pdl\drivers/peripheral/gpio/cy_gpio.h ****                    
 307:Generated_Source\PSoC6\pdl\drivers/peripheral/gpio/cy_gpio.h **** #define CY_GPIO_IS_PIN_BIT_VALID(pinBit)       (0U == ((pinBit) & (uint32_t)~CY_GPIO_PRT_PINS_MASK)
 308:Generated_Source\PSoC6\pdl\drivers/peripheral/gpio/cy_gpio.h **** #define CY_GPIO_IS_INTR_CFG_VALID(intrCfg)     (0U == ((intrCfg) & (uint32_t)~CY_GPIO_PRT_INTR_CFG_
 309:Generated_Source\PSoC6\pdl\drivers/peripheral/gpio/cy_gpio.h **** #define CY_GPIO_IS_INTR_MASK_VALID(intrMask)   (0U == ((intrMask) & (uint32_t)~CY_GPIO_PRT_INT_MASK
 310:Generated_Source\PSoC6\pdl\drivers/peripheral/gpio/cy_gpio.h **** #define CY_GPIO_IS_SEL_ACT_VALID(selActive)    (0U == ((selActive) & (uint32_t)~CY_GPIO_PRT_SEL_ACT
 311:Generated_Source\PSoC6\pdl\drivers/peripheral/gpio/cy_gpio.h **** 
 312:Generated_Source\PSoC6\pdl\drivers/peripheral/gpio/cy_gpio.h **** /** \endcond */
 313:Generated_Source\PSoC6\pdl\drivers/peripheral/gpio/cy_gpio.h **** 
 314:Generated_Source\PSoC6\pdl\drivers/peripheral/gpio/cy_gpio.h **** 
 315:Generated_Source\PSoC6\pdl\drivers/peripheral/gpio/cy_gpio.h **** /***************************************
 316:Generated_Source\PSoC6\pdl\drivers/peripheral/gpio/cy_gpio.h **** *        Function Constants
 317:Generated_Source\PSoC6\pdl\drivers/peripheral/gpio/cy_gpio.h **** ***************************************/
 318:Generated_Source\PSoC6\pdl\drivers/peripheral/gpio/cy_gpio.h **** 
 319:Generated_Source\PSoC6\pdl\drivers/peripheral/gpio/cy_gpio.h **** /**
 320:Generated_Source\PSoC6\pdl\drivers/peripheral/gpio/cy_gpio.h **** * \addtogroup group_gpio_macros
 321:Generated_Source\PSoC6\pdl\drivers/peripheral/gpio/cy_gpio.h **** * \{
 322:Generated_Source\PSoC6\pdl\drivers/peripheral/gpio/cy_gpio.h **** */
 323:Generated_Source\PSoC6\pdl\drivers/peripheral/gpio/cy_gpio.h **** 
 324:Generated_Source\PSoC6\pdl\drivers/peripheral/gpio/cy_gpio.h **** /**
 325:Generated_Source\PSoC6\pdl\drivers/peripheral/gpio/cy_gpio.h **** * \defgroup group_gpio_driveModes Pin drive mode
 326:Generated_Source\PSoC6\pdl\drivers/peripheral/gpio/cy_gpio.h **** * \{
 327:Generated_Source\PSoC6\pdl\drivers/peripheral/gpio/cy_gpio.h **** * Constants to be used for setting the drive mode of the pin.
 328:Generated_Source\PSoC6\pdl\drivers/peripheral/gpio/cy_gpio.h **** */
 329:Generated_Source\PSoC6\pdl\drivers/peripheral/gpio/cy_gpio.h **** #define CY_GPIO_DM_ANALOG                      (0x00UL) /**< \brief Analog High-Z. Input buffer off
 330:Generated_Source\PSoC6\pdl\drivers/peripheral/gpio/cy_gpio.h **** #define CY_GPIO_DM_PULLUP_IN_OFF               (0x02UL) /**< \brief Resistive Pull-Up. Input buffer
 331:Generated_Source\PSoC6\pdl\drivers/peripheral/gpio/cy_gpio.h **** #define CY_GPIO_DM_PULLDOWN_IN_OFF             (0x03UL) /**< \brief Resistive Pull-Down. Input buff
 332:Generated_Source\PSoC6\pdl\drivers/peripheral/gpio/cy_gpio.h **** #define CY_GPIO_DM_OD_DRIVESLOW_IN_OFF         (0x04UL) /**< \brief Open Drain, Drives Low. Input b
 333:Generated_Source\PSoC6\pdl\drivers/peripheral/gpio/cy_gpio.h **** #define CY_GPIO_DM_OD_DRIVESHIGH_IN_OFF        (0x05UL) /**< \brief Open Drain, Drives High. Input 
 334:Generated_Source\PSoC6\pdl\drivers/peripheral/gpio/cy_gpio.h **** #define CY_GPIO_DM_STRONG_IN_OFF               (0x06UL) /**< \brief Strong Drive. Input buffer off 
 335:Generated_Source\PSoC6\pdl\drivers/peripheral/gpio/cy_gpio.h **** #define CY_GPIO_DM_PULLUP_DOWN_IN_OFF          (0x07UL) /**< \brief Resistive Pull-Up/Down. Input b
 336:Generated_Source\PSoC6\pdl\drivers/peripheral/gpio/cy_gpio.h **** #define CY_GPIO_DM_HIGHZ                       (0x08UL) /**< \brief Digital High-Z. Input buffer on
 337:Generated_Source\PSoC6\pdl\drivers/peripheral/gpio/cy_gpio.h **** #define CY_GPIO_DM_PULLUP                      (0x0AUL) /**< \brief Resistive Pull-Up. Input buffer
 338:Generated_Source\PSoC6\pdl\drivers/peripheral/gpio/cy_gpio.h **** #define CY_GPIO_DM_PULLDOWN                    (0x0BUL) /**< \brief Resistive Pull-Down. Input buff
 339:Generated_Source\PSoC6\pdl\drivers/peripheral/gpio/cy_gpio.h **** #define CY_GPIO_DM_OD_DRIVESLOW                (0x0CUL) /**< \brief Open Drain, Drives Low. Input b
 340:Generated_Source\PSoC6\pdl\drivers/peripheral/gpio/cy_gpio.h **** #define CY_GPIO_DM_OD_DRIVESHIGH               (0x0DUL) /**< \brief Open Drain, Drives High. Input 
 341:Generated_Source\PSoC6\pdl\drivers/peripheral/gpio/cy_gpio.h **** #define CY_GPIO_DM_STRONG                      (0x0EUL) /**< \brief Strong Drive. Input buffer on *
 342:Generated_Source\PSoC6\pdl\drivers/peripheral/gpio/cy_gpio.h **** #define CY_GPIO_DM_PULLUP_DOWN                 (0x0FUL) /**< \brief Resistive Pull-Up/Down. Input b
 343:Generated_Source\PSoC6\pdl\drivers/peripheral/gpio/cy_gpio.h **** /** \} */
 344:Generated_Source\PSoC6\pdl\drivers/peripheral/gpio/cy_gpio.h **** 
 345:Generated_Source\PSoC6\pdl\drivers/peripheral/gpio/cy_gpio.h **** /**
ARM GAS  C:\Users\bryan.lee\AppData\Local\Temp\ccAkWdHW.s 			page 10


 346:Generated_Source\PSoC6\pdl\drivers/peripheral/gpio/cy_gpio.h **** * \defgroup group_gpio_vtrip Voltage trip mode
 347:Generated_Source\PSoC6\pdl\drivers/peripheral/gpio/cy_gpio.h **** * \{
 348:Generated_Source\PSoC6\pdl\drivers/peripheral/gpio/cy_gpio.h **** * Constants to be used for setting the voltage trip type on the pin.
 349:Generated_Source\PSoC6\pdl\drivers/peripheral/gpio/cy_gpio.h **** */
 350:Generated_Source\PSoC6\pdl\drivers/peripheral/gpio/cy_gpio.h **** #define CY_GPIO_VTRIP_CMOS                     (0x00UL) /**< \brief Input buffer compatible with CM
 351:Generated_Source\PSoC6\pdl\drivers/peripheral/gpio/cy_gpio.h **** #define CY_GPIO_VTRIP_TTL                      (0x01UL) /**< \brief Input buffer compatible with TT
 352:Generated_Source\PSoC6\pdl\drivers/peripheral/gpio/cy_gpio.h **** /** \} */
 353:Generated_Source\PSoC6\pdl\drivers/peripheral/gpio/cy_gpio.h **** 
 354:Generated_Source\PSoC6\pdl\drivers/peripheral/gpio/cy_gpio.h **** /**
 355:Generated_Source\PSoC6\pdl\drivers/peripheral/gpio/cy_gpio.h **** * \defgroup group_gpio_slewRate Slew Rate Mode
 356:Generated_Source\PSoC6\pdl\drivers/peripheral/gpio/cy_gpio.h **** * \{
 357:Generated_Source\PSoC6\pdl\drivers/peripheral/gpio/cy_gpio.h **** * Constants to be used for setting the slew rate of the pin.
 358:Generated_Source\PSoC6\pdl\drivers/peripheral/gpio/cy_gpio.h **** */
 359:Generated_Source\PSoC6\pdl\drivers/peripheral/gpio/cy_gpio.h **** #define CY_GPIO_SLEW_FAST                      (0x00UL) /**< \brief Fast slew rate */
 360:Generated_Source\PSoC6\pdl\drivers/peripheral/gpio/cy_gpio.h **** #define CY_GPIO_SLEW_SLOW                      (0x01UL) /**< \brief Slow slew rate */
 361:Generated_Source\PSoC6\pdl\drivers/peripheral/gpio/cy_gpio.h **** /** \} */
 362:Generated_Source\PSoC6\pdl\drivers/peripheral/gpio/cy_gpio.h **** 
 363:Generated_Source\PSoC6\pdl\drivers/peripheral/gpio/cy_gpio.h **** /**
 364:Generated_Source\PSoC6\pdl\drivers/peripheral/gpio/cy_gpio.h **** * \defgroup group_gpio_driveStrength Pin drive strength
 365:Generated_Source\PSoC6\pdl\drivers/peripheral/gpio/cy_gpio.h **** * \{
 366:Generated_Source\PSoC6\pdl\drivers/peripheral/gpio/cy_gpio.h **** * Constants to be used for setting the drive strength of the pin.
 367:Generated_Source\PSoC6\pdl\drivers/peripheral/gpio/cy_gpio.h **** */
 368:Generated_Source\PSoC6\pdl\drivers/peripheral/gpio/cy_gpio.h **** #define CY_GPIO_DRIVE_FULL                     (0x00UL) /**< \brief Full drive strength: Max drive 
 369:Generated_Source\PSoC6\pdl\drivers/peripheral/gpio/cy_gpio.h **** #define CY_GPIO_DRIVE_1_2                      (0x01UL) /**< \brief 1/2 drive strength: 1/2 drive c
 370:Generated_Source\PSoC6\pdl\drivers/peripheral/gpio/cy_gpio.h **** #define CY_GPIO_DRIVE_1_4                      (0x02UL) /**< \brief 1/4 drive strength: 1/4 drive c
 371:Generated_Source\PSoC6\pdl\drivers/peripheral/gpio/cy_gpio.h **** #define CY_GPIO_DRIVE_1_8                      (0x03UL) /**< \brief 1/8 drive strength: 1/8 drive c
 372:Generated_Source\PSoC6\pdl\drivers/peripheral/gpio/cy_gpio.h **** /** \} */
 373:Generated_Source\PSoC6\pdl\drivers/peripheral/gpio/cy_gpio.h **** 
 374:Generated_Source\PSoC6\pdl\drivers/peripheral/gpio/cy_gpio.h **** /**
 375:Generated_Source\PSoC6\pdl\drivers/peripheral/gpio/cy_gpio.h **** * \defgroup group_gpio_interruptTrigger Interrupt trigger type
 376:Generated_Source\PSoC6\pdl\drivers/peripheral/gpio/cy_gpio.h **** * \{
 377:Generated_Source\PSoC6\pdl\drivers/peripheral/gpio/cy_gpio.h **** * Constants to be used for setting the interrupt trigger type on the pin.
 378:Generated_Source\PSoC6\pdl\drivers/peripheral/gpio/cy_gpio.h **** */
 379:Generated_Source\PSoC6\pdl\drivers/peripheral/gpio/cy_gpio.h **** #define CY_GPIO_INTR_DISABLE                   (0x00UL) /**< \brief Disable the pin interrupt gener
 380:Generated_Source\PSoC6\pdl\drivers/peripheral/gpio/cy_gpio.h **** #define CY_GPIO_INTR_RISING                    (0x01UL) /**< \brief Rising-Edge interrupt */
 381:Generated_Source\PSoC6\pdl\drivers/peripheral/gpio/cy_gpio.h **** #define CY_GPIO_INTR_FALLING                   (0x02UL) /**< \brief Falling-Edge interrupt */
 382:Generated_Source\PSoC6\pdl\drivers/peripheral/gpio/cy_gpio.h **** #define CY_GPIO_INTR_BOTH                      (0x03UL) /**< \brief Both-Edge interrupt */
 383:Generated_Source\PSoC6\pdl\drivers/peripheral/gpio/cy_gpio.h **** /** \} */
 384:Generated_Source\PSoC6\pdl\drivers/peripheral/gpio/cy_gpio.h **** 
 385:Generated_Source\PSoC6\pdl\drivers/peripheral/gpio/cy_gpio.h **** /**
 386:Generated_Source\PSoC6\pdl\drivers/peripheral/gpio/cy_gpio.h **** * \defgroup group_gpio_sioVreg SIO output buffer mode
 387:Generated_Source\PSoC6\pdl\drivers/peripheral/gpio/cy_gpio.h **** * \{
 388:Generated_Source\PSoC6\pdl\drivers/peripheral/gpio/cy_gpio.h **** * Constants to be used for setting the SIO output buffer mode on the pin.
 389:Generated_Source\PSoC6\pdl\drivers/peripheral/gpio/cy_gpio.h **** */
 390:Generated_Source\PSoC6\pdl\drivers/peripheral/gpio/cy_gpio.h **** #define CY_SIO_VREG_UNREGULATED                (0x00UL) /**< \brief Unregulated output buffer */
 391:Generated_Source\PSoC6\pdl\drivers/peripheral/gpio/cy_gpio.h **** #define CY_SIO_VREG_REGULATED                  (0x01UL) /**< \brief Regulated output buffer */
 392:Generated_Source\PSoC6\pdl\drivers/peripheral/gpio/cy_gpio.h **** /** \} */
 393:Generated_Source\PSoC6\pdl\drivers/peripheral/gpio/cy_gpio.h **** 
 394:Generated_Source\PSoC6\pdl\drivers/peripheral/gpio/cy_gpio.h **** /**
 395:Generated_Source\PSoC6\pdl\drivers/peripheral/gpio/cy_gpio.h **** * \defgroup group_gpio_sioIbuf SIO input buffer mode
 396:Generated_Source\PSoC6\pdl\drivers/peripheral/gpio/cy_gpio.h **** * \{
 397:Generated_Source\PSoC6\pdl\drivers/peripheral/gpio/cy_gpio.h **** * Constants to be used for setting the SIO input buffer mode on the pin.
 398:Generated_Source\PSoC6\pdl\drivers/peripheral/gpio/cy_gpio.h **** */
 399:Generated_Source\PSoC6\pdl\drivers/peripheral/gpio/cy_gpio.h **** #define CY_SIO_IBUF_SINGLEENDED                (0x00UL) /**< \brief Single ended input buffer */
 400:Generated_Source\PSoC6\pdl\drivers/peripheral/gpio/cy_gpio.h **** #define CY_SIO_IBUF_DIFFERENTIAL               (0x01UL) /**< \brief Differential input buffer */
 401:Generated_Source\PSoC6\pdl\drivers/peripheral/gpio/cy_gpio.h **** /** \} */
 402:Generated_Source\PSoC6\pdl\drivers/peripheral/gpio/cy_gpio.h **** 
ARM GAS  C:\Users\bryan.lee\AppData\Local\Temp\ccAkWdHW.s 			page 11


 403:Generated_Source\PSoC6\pdl\drivers/peripheral/gpio/cy_gpio.h **** /**
 404:Generated_Source\PSoC6\pdl\drivers/peripheral/gpio/cy_gpio.h **** * \defgroup group_gpio_sioVtrip SIO input buffer trip-point
 405:Generated_Source\PSoC6\pdl\drivers/peripheral/gpio/cy_gpio.h **** * \{
 406:Generated_Source\PSoC6\pdl\drivers/peripheral/gpio/cy_gpio.h **** * Constants to be used for setting the SIO input buffer trip-point of the pin.
 407:Generated_Source\PSoC6\pdl\drivers/peripheral/gpio/cy_gpio.h **** */
 408:Generated_Source\PSoC6\pdl\drivers/peripheral/gpio/cy_gpio.h **** #define CY_SIO_VTRIP_CMOS                      (0x00UL) /**< \brief CMOS input buffer (single-ended
 409:Generated_Source\PSoC6\pdl\drivers/peripheral/gpio/cy_gpio.h **** #define CY_SIO_VTRIP_TTL                       (0x01UL) /**< \brief TTL input buffer (single-ended)
 410:Generated_Source\PSoC6\pdl\drivers/peripheral/gpio/cy_gpio.h **** #define CY_SIO_VTRIP_0_5VDDIO_0_5VOH           (0x00UL) /**< \brief 0.5xVddio or 0.5xVoh (different
 411:Generated_Source\PSoC6\pdl\drivers/peripheral/gpio/cy_gpio.h **** #define CY_SIO_VTRIP_0_4VDDIO_1_0VREF          (0x01UL) /**< \brief 0.4xVddio or 0.4xVoh (different
 412:Generated_Source\PSoC6\pdl\drivers/peripheral/gpio/cy_gpio.h **** /** \} */
 413:Generated_Source\PSoC6\pdl\drivers/peripheral/gpio/cy_gpio.h **** 
 414:Generated_Source\PSoC6\pdl\drivers/peripheral/gpio/cy_gpio.h **** /**
 415:Generated_Source\PSoC6\pdl\drivers/peripheral/gpio/cy_gpio.h **** * \defgroup group_gpio_sioVref SIO reference voltage for input buffer trip-point
 416:Generated_Source\PSoC6\pdl\drivers/peripheral/gpio/cy_gpio.h **** * \{
 417:Generated_Source\PSoC6\pdl\drivers/peripheral/gpio/cy_gpio.h **** * Constants to be used for setting the reference voltage of SIO input buffer trip-point.
 418:Generated_Source\PSoC6\pdl\drivers/peripheral/gpio/cy_gpio.h **** */
 419:Generated_Source\PSoC6\pdl\drivers/peripheral/gpio/cy_gpio.h **** #define CY_SIO_VREF_PINREF                     (0x00UL) /**< \brief Vref from analog pin */
 420:Generated_Source\PSoC6\pdl\drivers/peripheral/gpio/cy_gpio.h **** #define CY_SIO_VREF_1_2V                       (0x01UL) /**< \brief Vref from internal 1.2V referen
 421:Generated_Source\PSoC6\pdl\drivers/peripheral/gpio/cy_gpio.h **** #define CY_SIO_VREF_AMUX_A                     (0x02UL) /**< \brief Vref from AMUXBUS_A */
 422:Generated_Source\PSoC6\pdl\drivers/peripheral/gpio/cy_gpio.h **** #define CY_SIO_VREF_AMUX_B                     (0x03UL) /**< \brief Vref from AMUXBUS_B */
 423:Generated_Source\PSoC6\pdl\drivers/peripheral/gpio/cy_gpio.h **** /** \} */
 424:Generated_Source\PSoC6\pdl\drivers/peripheral/gpio/cy_gpio.h **** 
 425:Generated_Source\PSoC6\pdl\drivers/peripheral/gpio/cy_gpio.h **** /**
 426:Generated_Source\PSoC6\pdl\drivers/peripheral/gpio/cy_gpio.h **** * \defgroup group_gpio_sioVoh Regulated output voltage level (Voh) and input buffer trip-point of a
 427:Generated_Source\PSoC6\pdl\drivers/peripheral/gpio/cy_gpio.h **** * \{
 428:Generated_Source\PSoC6\pdl\drivers/peripheral/gpio/cy_gpio.h **** * Constants to be used for setting the Voh and input buffer trip-point of an SIO pair
 429:Generated_Source\PSoC6\pdl\drivers/peripheral/gpio/cy_gpio.h **** */
 430:Generated_Source\PSoC6\pdl\drivers/peripheral/gpio/cy_gpio.h **** #define CY_SIO_VOH_1_00                        (0x00UL) /**< \brief Voh = 1 x Reference */
 431:Generated_Source\PSoC6\pdl\drivers/peripheral/gpio/cy_gpio.h **** #define CY_SIO_VOH_1_25                        (0x01UL) /**< \brief Voh = 1.25 x Reference */
 432:Generated_Source\PSoC6\pdl\drivers/peripheral/gpio/cy_gpio.h **** #define CY_SIO_VOH_1_49                        (0x02UL) /**< \brief Voh = 1.49 x Reference */
 433:Generated_Source\PSoC6\pdl\drivers/peripheral/gpio/cy_gpio.h **** #define CY_SIO_VOH_1_67                        (0x03UL) /**< \brief Voh = 1.67 x Reference */
 434:Generated_Source\PSoC6\pdl\drivers/peripheral/gpio/cy_gpio.h **** #define CY_SIO_VOH_2_08                        (0x04UL) /**< \brief Voh = 2.08 x Reference */
 435:Generated_Source\PSoC6\pdl\drivers/peripheral/gpio/cy_gpio.h **** #define CY_SIO_VOH_2_50                        (0x05UL) /**< \brief Voh = 2.50 x Reference */
 436:Generated_Source\PSoC6\pdl\drivers/peripheral/gpio/cy_gpio.h **** #define CY_SIO_VOH_2_78                        (0x06UL) /**< \brief Voh = 2.78 x Reference */
 437:Generated_Source\PSoC6\pdl\drivers/peripheral/gpio/cy_gpio.h **** #define CY_SIO_VOH_4_16                        (0x07UL) /**< \brief Voh = 4.16 x Reference */
 438:Generated_Source\PSoC6\pdl\drivers/peripheral/gpio/cy_gpio.h **** /** \} */
 439:Generated_Source\PSoC6\pdl\drivers/peripheral/gpio/cy_gpio.h **** 
 440:Generated_Source\PSoC6\pdl\drivers/peripheral/gpio/cy_gpio.h **** /** \} group_gpio_macros */
 441:Generated_Source\PSoC6\pdl\drivers/peripheral/gpio/cy_gpio.h **** 
 442:Generated_Source\PSoC6\pdl\drivers/peripheral/gpio/cy_gpio.h **** /***************************************
 443:Generated_Source\PSoC6\pdl\drivers/peripheral/gpio/cy_gpio.h **** *        Function Prototypes
 444:Generated_Source\PSoC6\pdl\drivers/peripheral/gpio/cy_gpio.h **** ***************************************/
 445:Generated_Source\PSoC6\pdl\drivers/peripheral/gpio/cy_gpio.h **** 
 446:Generated_Source\PSoC6\pdl\drivers/peripheral/gpio/cy_gpio.h **** /**
 447:Generated_Source\PSoC6\pdl\drivers/peripheral/gpio/cy_gpio.h **** * \addtogroup group_gpio_functions
 448:Generated_Source\PSoC6\pdl\drivers/peripheral/gpio/cy_gpio.h **** * \{
 449:Generated_Source\PSoC6\pdl\drivers/peripheral/gpio/cy_gpio.h **** */
 450:Generated_Source\PSoC6\pdl\drivers/peripheral/gpio/cy_gpio.h **** 
 451:Generated_Source\PSoC6\pdl\drivers/peripheral/gpio/cy_gpio.h **** /**
 452:Generated_Source\PSoC6\pdl\drivers/peripheral/gpio/cy_gpio.h **** * \addtogroup group_gpio_functions_init
 453:Generated_Source\PSoC6\pdl\drivers/peripheral/gpio/cy_gpio.h **** * \{
 454:Generated_Source\PSoC6\pdl\drivers/peripheral/gpio/cy_gpio.h **** */
 455:Generated_Source\PSoC6\pdl\drivers/peripheral/gpio/cy_gpio.h **** 
 456:Generated_Source\PSoC6\pdl\drivers/peripheral/gpio/cy_gpio.h **** cy_en_gpio_status_t Cy_GPIO_Pin_Init(GPIO_PRT_Type* base, uint32_t pinNum, const cy_stc_gpio_pin_co
 457:Generated_Source\PSoC6\pdl\drivers/peripheral/gpio/cy_gpio.h **** cy_en_gpio_status_t Cy_GPIO_Port_Init(GPIO_PRT_Type* base, const cy_stc_gpio_prt_config_t *config);
 458:Generated_Source\PSoC6\pdl\drivers/peripheral/gpio/cy_gpio.h **** void Cy_GPIO_Pin_FastInit(GPIO_PRT_Type* base, uint32_t pinNum, uint32_t driveMode, uint32_t outVal
 459:Generated_Source\PSoC6\pdl\drivers/peripheral/gpio/cy_gpio.h **** void Cy_GPIO_Port_Deinit(GPIO_PRT_Type* base);
ARM GAS  C:\Users\bryan.lee\AppData\Local\Temp\ccAkWdHW.s 			page 12


 460:Generated_Source\PSoC6\pdl\drivers/peripheral/gpio/cy_gpio.h **** __STATIC_INLINE void Cy_GPIO_SetHSIOM(GPIO_PRT_Type* base, uint32_t pinNum, en_hsiom_sel_t value);
 461:Generated_Source\PSoC6\pdl\drivers/peripheral/gpio/cy_gpio.h **** __STATIC_INLINE en_hsiom_sel_t Cy_GPIO_GetHSIOM(GPIO_PRT_Type* base, uint32_t pinNum);
 462:Generated_Source\PSoC6\pdl\drivers/peripheral/gpio/cy_gpio.h **** __STATIC_INLINE GPIO_PRT_Type* Cy_GPIO_PortToAddr(uint32_t portNum);
 463:Generated_Source\PSoC6\pdl\drivers/peripheral/gpio/cy_gpio.h **** 
 464:Generated_Source\PSoC6\pdl\drivers/peripheral/gpio/cy_gpio.h **** /** \} group_gpio_functions_init */
 465:Generated_Source\PSoC6\pdl\drivers/peripheral/gpio/cy_gpio.h **** 
 466:Generated_Source\PSoC6\pdl\drivers/peripheral/gpio/cy_gpio.h **** /**
 467:Generated_Source\PSoC6\pdl\drivers/peripheral/gpio/cy_gpio.h **** * \addtogroup group_gpio_functions_gpio
 468:Generated_Source\PSoC6\pdl\drivers/peripheral/gpio/cy_gpio.h **** * \{
 469:Generated_Source\PSoC6\pdl\drivers/peripheral/gpio/cy_gpio.h **** */
 470:Generated_Source\PSoC6\pdl\drivers/peripheral/gpio/cy_gpio.h **** 
 471:Generated_Source\PSoC6\pdl\drivers/peripheral/gpio/cy_gpio.h **** __STATIC_INLINE uint32_t Cy_GPIO_Read(GPIO_PRT_Type* base, uint32_t pinNum);
 472:Generated_Source\PSoC6\pdl\drivers/peripheral/gpio/cy_gpio.h **** __STATIC_INLINE void Cy_GPIO_Write(GPIO_PRT_Type* base, uint32_t pinNum, uint32_t value);
 473:Generated_Source\PSoC6\pdl\drivers/peripheral/gpio/cy_gpio.h **** __STATIC_INLINE uint32_t Cy_GPIO_ReadOut(GPIO_PRT_Type* base, uint32_t pinNum);
 474:Generated_Source\PSoC6\pdl\drivers/peripheral/gpio/cy_gpio.h **** __STATIC_INLINE void Cy_GPIO_Set(GPIO_PRT_Type* base, uint32_t pinNum);
 475:Generated_Source\PSoC6\pdl\drivers/peripheral/gpio/cy_gpio.h **** __STATIC_INLINE void Cy_GPIO_Clr(GPIO_PRT_Type* base, uint32_t pinNum);
 476:Generated_Source\PSoC6\pdl\drivers/peripheral/gpio/cy_gpio.h **** __STATIC_INLINE void Cy_GPIO_Inv(GPIO_PRT_Type* base, uint32_t pinNum);
 477:Generated_Source\PSoC6\pdl\drivers/peripheral/gpio/cy_gpio.h **** __STATIC_INLINE void Cy_GPIO_SetDrivemode(GPIO_PRT_Type* base, uint32_t pinNum, uint32_t value);
 478:Generated_Source\PSoC6\pdl\drivers/peripheral/gpio/cy_gpio.h **** __STATIC_INLINE uint32_t Cy_GPIO_GetDrivemode(GPIO_PRT_Type* base, uint32_t pinNum);
 479:Generated_Source\PSoC6\pdl\drivers/peripheral/gpio/cy_gpio.h **** __STATIC_INLINE void Cy_GPIO_SetVtrip(GPIO_PRT_Type* base, uint32_t pinNum, uint32_t value);
 480:Generated_Source\PSoC6\pdl\drivers/peripheral/gpio/cy_gpio.h **** __STATIC_INLINE uint32_t Cy_GPIO_GetVtrip(GPIO_PRT_Type* base, uint32_t pinNum);
 481:Generated_Source\PSoC6\pdl\drivers/peripheral/gpio/cy_gpio.h **** __STATIC_INLINE void Cy_GPIO_SetSlewRate(GPIO_PRT_Type* base, uint32_t pinNum, uint32_t value);
 482:Generated_Source\PSoC6\pdl\drivers/peripheral/gpio/cy_gpio.h **** __STATIC_INLINE uint32_t Cy_GPIO_GetSlewRate(GPIO_PRT_Type* base, uint32_t pinNum);
 483:Generated_Source\PSoC6\pdl\drivers/peripheral/gpio/cy_gpio.h **** __STATIC_INLINE void Cy_GPIO_SetDriveSel(GPIO_PRT_Type* base, uint32_t pinNum, uint32_t value);
 484:Generated_Source\PSoC6\pdl\drivers/peripheral/gpio/cy_gpio.h **** __STATIC_INLINE uint32_t Cy_GPIO_GetDriveSel(GPIO_PRT_Type* base, uint32_t pinNum);
 485:Generated_Source\PSoC6\pdl\drivers/peripheral/gpio/cy_gpio.h **** 
 486:Generated_Source\PSoC6\pdl\drivers/peripheral/gpio/cy_gpio.h **** /** \} group_gpio_functions_gpio */
 487:Generated_Source\PSoC6\pdl\drivers/peripheral/gpio/cy_gpio.h **** 
 488:Generated_Source\PSoC6\pdl\drivers/peripheral/gpio/cy_gpio.h **** /**
 489:Generated_Source\PSoC6\pdl\drivers/peripheral/gpio/cy_gpio.h **** * \addtogroup group_gpio_functions_sio
 490:Generated_Source\PSoC6\pdl\drivers/peripheral/gpio/cy_gpio.h **** * \{
 491:Generated_Source\PSoC6\pdl\drivers/peripheral/gpio/cy_gpio.h **** */
 492:Generated_Source\PSoC6\pdl\drivers/peripheral/gpio/cy_gpio.h **** 
 493:Generated_Source\PSoC6\pdl\drivers/peripheral/gpio/cy_gpio.h **** __STATIC_INLINE void Cy_GPIO_SetVregEn(GPIO_PRT_Type* base, uint32_t pinNum, uint32_t value);
 494:Generated_Source\PSoC6\pdl\drivers/peripheral/gpio/cy_gpio.h **** __STATIC_INLINE uint32_t Cy_GPIO_GetVregEn(GPIO_PRT_Type* base, uint32_t pinNum);
 495:Generated_Source\PSoC6\pdl\drivers/peripheral/gpio/cy_gpio.h **** __STATIC_INLINE void Cy_GPIO_SetIbufMode(GPIO_PRT_Type* base, uint32_t pinNum, uint32_t value);
 496:Generated_Source\PSoC6\pdl\drivers/peripheral/gpio/cy_gpio.h **** __STATIC_INLINE uint32_t Cy_GPIO_GetIbufMode(GPIO_PRT_Type* base, uint32_t pinNum);
 497:Generated_Source\PSoC6\pdl\drivers/peripheral/gpio/cy_gpio.h **** __STATIC_INLINE void Cy_GPIO_SetVtripSel(GPIO_PRT_Type* base, uint32_t pinNum, uint32_t value);
 498:Generated_Source\PSoC6\pdl\drivers/peripheral/gpio/cy_gpio.h **** __STATIC_INLINE uint32_t Cy_GPIO_GetVtripSel(GPIO_PRT_Type* base, uint32_t pinNum);
 499:Generated_Source\PSoC6\pdl\drivers/peripheral/gpio/cy_gpio.h **** __STATIC_INLINE void Cy_GPIO_SetVrefSel(GPIO_PRT_Type* base, uint32_t pinNum, uint32_t value);
 500:Generated_Source\PSoC6\pdl\drivers/peripheral/gpio/cy_gpio.h **** __STATIC_INLINE uint32_t Cy_GPIO_GetVrefSel(GPIO_PRT_Type* base, uint32_t pinNum);
 501:Generated_Source\PSoC6\pdl\drivers/peripheral/gpio/cy_gpio.h **** __STATIC_INLINE void Cy_GPIO_SetVohSel(GPIO_PRT_Type* base, uint32_t pinNum, uint32_t value);
 502:Generated_Source\PSoC6\pdl\drivers/peripheral/gpio/cy_gpio.h **** __STATIC_INLINE uint32_t Cy_GPIO_GetVohSel(GPIO_PRT_Type* base, uint32_t pinNum);
 503:Generated_Source\PSoC6\pdl\drivers/peripheral/gpio/cy_gpio.h **** 
 504:Generated_Source\PSoC6\pdl\drivers/peripheral/gpio/cy_gpio.h **** /** \} group_gpio_functions_sio */
 505:Generated_Source\PSoC6\pdl\drivers/peripheral/gpio/cy_gpio.h **** 
 506:Generated_Source\PSoC6\pdl\drivers/peripheral/gpio/cy_gpio.h **** /**
 507:Generated_Source\PSoC6\pdl\drivers/peripheral/gpio/cy_gpio.h **** * \addtogroup group_gpio_functions_interrupt
 508:Generated_Source\PSoC6\pdl\drivers/peripheral/gpio/cy_gpio.h **** * \{
 509:Generated_Source\PSoC6\pdl\drivers/peripheral/gpio/cy_gpio.h **** */
 510:Generated_Source\PSoC6\pdl\drivers/peripheral/gpio/cy_gpio.h **** 
 511:Generated_Source\PSoC6\pdl\drivers/peripheral/gpio/cy_gpio.h **** __STATIC_INLINE uint32_t Cy_GPIO_GetInterruptStatus(GPIO_PRT_Type* base, uint32_t pinNum);
 512:Generated_Source\PSoC6\pdl\drivers/peripheral/gpio/cy_gpio.h **** __STATIC_INLINE void Cy_GPIO_ClearInterrupt(GPIO_PRT_Type* base, uint32_t pinNum);
 513:Generated_Source\PSoC6\pdl\drivers/peripheral/gpio/cy_gpio.h **** __STATIC_INLINE void Cy_GPIO_SetInterruptMask(GPIO_PRT_Type* base, uint32_t pinNum, uint32_t value)
 514:Generated_Source\PSoC6\pdl\drivers/peripheral/gpio/cy_gpio.h **** __STATIC_INLINE uint32_t Cy_GPIO_GetInterruptMask(GPIO_PRT_Type* base, uint32_t pinNum);
 515:Generated_Source\PSoC6\pdl\drivers/peripheral/gpio/cy_gpio.h **** __STATIC_INLINE uint32_t Cy_GPIO_GetInterruptStatusMasked(GPIO_PRT_Type* base, uint32_t pinNum);
 516:Generated_Source\PSoC6\pdl\drivers/peripheral/gpio/cy_gpio.h **** __STATIC_INLINE void Cy_GPIO_SetSwInterrupt(GPIO_PRT_Type* base, uint32_t pinNum);
ARM GAS  C:\Users\bryan.lee\AppData\Local\Temp\ccAkWdHW.s 			page 13


 517:Generated_Source\PSoC6\pdl\drivers/peripheral/gpio/cy_gpio.h **** __STATIC_INLINE void Cy_GPIO_SetInterruptEdge(GPIO_PRT_Type* base, uint32_t pinNum, uint32_t value)
 518:Generated_Source\PSoC6\pdl\drivers/peripheral/gpio/cy_gpio.h **** __STATIC_INLINE uint32_t Cy_GPIO_GetInterruptEdge(GPIO_PRT_Type* base, uint32_t pinNum);
 519:Generated_Source\PSoC6\pdl\drivers/peripheral/gpio/cy_gpio.h **** __STATIC_INLINE void Cy_GPIO_SetFilter(GPIO_PRT_Type* base, uint32_t value);
 520:Generated_Source\PSoC6\pdl\drivers/peripheral/gpio/cy_gpio.h **** __STATIC_INLINE uint32_t Cy_GPIO_GetFilter(GPIO_PRT_Type* base);
 521:Generated_Source\PSoC6\pdl\drivers/peripheral/gpio/cy_gpio.h **** 
 522:Generated_Source\PSoC6\pdl\drivers/peripheral/gpio/cy_gpio.h **** #if (IOSS_GPIO_GPIO_PORT_NR_0_31 != 0) || defined (CY_DOXYGEN)
 523:Generated_Source\PSoC6\pdl\drivers/peripheral/gpio/cy_gpio.h **** __STATIC_INLINE uint32_t Cy_GPIO_GetInterruptCause0(void);
 524:Generated_Source\PSoC6\pdl\drivers/peripheral/gpio/cy_gpio.h **** #endif /* (IOSS_GPIO_GPIO_PORT_NR_0_31 != 0) */
 525:Generated_Source\PSoC6\pdl\drivers/peripheral/gpio/cy_gpio.h **** 
 526:Generated_Source\PSoC6\pdl\drivers/peripheral/gpio/cy_gpio.h **** #if (IOSS_GPIO_GPIO_PORT_NR_32_63 != 0) || defined (CY_DOXYGEN)
 527:Generated_Source\PSoC6\pdl\drivers/peripheral/gpio/cy_gpio.h **** __STATIC_INLINE uint32_t Cy_GPIO_GetInterruptCause1(void);
 528:Generated_Source\PSoC6\pdl\drivers/peripheral/gpio/cy_gpio.h **** #endif /* (IOSS_GPIO_GPIO_PORT_NR_32_63 != 0) */
 529:Generated_Source\PSoC6\pdl\drivers/peripheral/gpio/cy_gpio.h **** 
 530:Generated_Source\PSoC6\pdl\drivers/peripheral/gpio/cy_gpio.h **** #if (IOSS_GPIO_GPIO_PORT_NR_64_95 != 0) || defined (CY_DOXYGEN)
 531:Generated_Source\PSoC6\pdl\drivers/peripheral/gpio/cy_gpio.h **** __STATIC_INLINE uint32_t Cy_GPIO_GetInterruptCause2(void);
 532:Generated_Source\PSoC6\pdl\drivers/peripheral/gpio/cy_gpio.h **** #endif /* (IOSS_GPIO_GPIO_PORT_NR_64_95 != 0) */
 533:Generated_Source\PSoC6\pdl\drivers/peripheral/gpio/cy_gpio.h **** 
 534:Generated_Source\PSoC6\pdl\drivers/peripheral/gpio/cy_gpio.h **** #if (IOSS_GPIO_GPIO_PORT_NR_96_127 != 0) || defined (CY_DOXYGEN)
 535:Generated_Source\PSoC6\pdl\drivers/peripheral/gpio/cy_gpio.h **** __STATIC_INLINE uint32_t Cy_GPIO_GetInterruptCause3(void);
 536:Generated_Source\PSoC6\pdl\drivers/peripheral/gpio/cy_gpio.h **** #endif /* (IOSS_GPIO_GPIO_PORT_NR_96_127 != 0) */
 537:Generated_Source\PSoC6\pdl\drivers/peripheral/gpio/cy_gpio.h **** 
 538:Generated_Source\PSoC6\pdl\drivers/peripheral/gpio/cy_gpio.h **** /** \} group_gpio_functions_interrupt */
 539:Generated_Source\PSoC6\pdl\drivers/peripheral/gpio/cy_gpio.h **** 
 540:Generated_Source\PSoC6\pdl\drivers/peripheral/gpio/cy_gpio.h **** 
 541:Generated_Source\PSoC6\pdl\drivers/peripheral/gpio/cy_gpio.h **** /**
 542:Generated_Source\PSoC6\pdl\drivers/peripheral/gpio/cy_gpio.h **** * \addtogroup group_gpio_functions_init
 543:Generated_Source\PSoC6\pdl\drivers/peripheral/gpio/cy_gpio.h **** * \{
 544:Generated_Source\PSoC6\pdl\drivers/peripheral/gpio/cy_gpio.h **** */
 545:Generated_Source\PSoC6\pdl\drivers/peripheral/gpio/cy_gpio.h **** 
 546:Generated_Source\PSoC6\pdl\drivers/peripheral/gpio/cy_gpio.h **** /*******************************************************************************
 547:Generated_Source\PSoC6\pdl\drivers/peripheral/gpio/cy_gpio.h **** * Function Name: Cy_GPIO_SetHSIOM
 548:Generated_Source\PSoC6\pdl\drivers/peripheral/gpio/cy_gpio.h **** ****************************************************************************//**
 549:Generated_Source\PSoC6\pdl\drivers/peripheral/gpio/cy_gpio.h **** *
 550:Generated_Source\PSoC6\pdl\drivers/peripheral/gpio/cy_gpio.h **** * \brief Configures the HSIOM connection to the pin.
 551:Generated_Source\PSoC6\pdl\drivers/peripheral/gpio/cy_gpio.h **** *
 552:Generated_Source\PSoC6\pdl\drivers/peripheral/gpio/cy_gpio.h **** * Connects the specified High-Speed Input Output Multiplexer (HSIOM) selection
 553:Generated_Source\PSoC6\pdl\drivers/peripheral/gpio/cy_gpio.h **** * to the pin.
 554:Generated_Source\PSoC6\pdl\drivers/peripheral/gpio/cy_gpio.h **** *
 555:Generated_Source\PSoC6\pdl\drivers/peripheral/gpio/cy_gpio.h **** * \param base
 556:Generated_Source\PSoC6\pdl\drivers/peripheral/gpio/cy_gpio.h **** * Pointer to the pin's port register base address
 557:Generated_Source\PSoC6\pdl\drivers/peripheral/gpio/cy_gpio.h **** *
 558:Generated_Source\PSoC6\pdl\drivers/peripheral/gpio/cy_gpio.h **** * \param pinNum
 559:Generated_Source\PSoC6\pdl\drivers/peripheral/gpio/cy_gpio.h **** * Position of the pin bit-field within the port register
 560:Generated_Source\PSoC6\pdl\drivers/peripheral/gpio/cy_gpio.h **** *
 561:Generated_Source\PSoC6\pdl\drivers/peripheral/gpio/cy_gpio.h **** * \param value
 562:Generated_Source\PSoC6\pdl\drivers/peripheral/gpio/cy_gpio.h **** * HSIOM input selection
 563:Generated_Source\PSoC6\pdl\drivers/peripheral/gpio/cy_gpio.h **** *
 564:Generated_Source\PSoC6\pdl\drivers/peripheral/gpio/cy_gpio.h **** * \return
 565:Generated_Source\PSoC6\pdl\drivers/peripheral/gpio/cy_gpio.h **** * void
 566:Generated_Source\PSoC6\pdl\drivers/peripheral/gpio/cy_gpio.h **** *
 567:Generated_Source\PSoC6\pdl\drivers/peripheral/gpio/cy_gpio.h **** * \note 
 568:Generated_Source\PSoC6\pdl\drivers/peripheral/gpio/cy_gpio.h **** * This function modifies a port register in a read-modify-write operation. It is
 569:Generated_Source\PSoC6\pdl\drivers/peripheral/gpio/cy_gpio.h **** * not thread safe as the resource is shared among multiple pins on a port.
 570:Generated_Source\PSoC6\pdl\drivers/peripheral/gpio/cy_gpio.h **** *
 571:Generated_Source\PSoC6\pdl\drivers/peripheral/gpio/cy_gpio.h **** * \funcusage
 572:Generated_Source\PSoC6\pdl\drivers/peripheral/gpio/cy_gpio.h **** * \snippet gpio/gpio_v1_10_sut_01.cydsn/main_cm4.c snippet_Cy_GPIO_SetHSIOM
 573:Generated_Source\PSoC6\pdl\drivers/peripheral/gpio/cy_gpio.h **** *
ARM GAS  C:\Users\bryan.lee\AppData\Local\Temp\ccAkWdHW.s 			page 14


 574:Generated_Source\PSoC6\pdl\drivers/peripheral/gpio/cy_gpio.h **** *******************************************************************************/
 575:Generated_Source\PSoC6\pdl\drivers/peripheral/gpio/cy_gpio.h **** __STATIC_INLINE void Cy_GPIO_SetHSIOM(GPIO_PRT_Type* base, uint32_t pinNum, en_hsiom_sel_t value)
 576:Generated_Source\PSoC6\pdl\drivers/peripheral/gpio/cy_gpio.h **** {
 577:Generated_Source\PSoC6\pdl\drivers/peripheral/gpio/cy_gpio.h ****     uint32_t portNum;
 578:Generated_Source\PSoC6\pdl\drivers/peripheral/gpio/cy_gpio.h ****     uint32_t tempReg;
 579:Generated_Source\PSoC6\pdl\drivers/peripheral/gpio/cy_gpio.h ****     HSIOM_PRT_Type* portAddrHSIOM;
 580:Generated_Source\PSoC6\pdl\drivers/peripheral/gpio/cy_gpio.h **** 
 581:Generated_Source\PSoC6\pdl\drivers/peripheral/gpio/cy_gpio.h ****     CY_ASSERT_L2(CY_GPIO_IS_PIN_VALID(pinNum));
 582:Generated_Source\PSoC6\pdl\drivers/peripheral/gpio/cy_gpio.h ****     CY_ASSERT_L2(CY_GPIO_IS_HSIOM_VALID(value));
 583:Generated_Source\PSoC6\pdl\drivers/peripheral/gpio/cy_gpio.h **** 
 584:Generated_Source\PSoC6\pdl\drivers/peripheral/gpio/cy_gpio.h ****     portNum = ((uint32_t)(base) - GPIO_BASE) / GPIO_PRT_SECTION_SIZE;
 585:Generated_Source\PSoC6\pdl\drivers/peripheral/gpio/cy_gpio.h ****     portAddrHSIOM = (HSIOM_PRT_Type*)(HSIOM_BASE + (HSIOM_PRT_SECTION_SIZE * portNum));
 586:Generated_Source\PSoC6\pdl\drivers/peripheral/gpio/cy_gpio.h **** 
 587:Generated_Source\PSoC6\pdl\drivers/peripheral/gpio/cy_gpio.h ****     if(pinNum < CY_GPIO_PRT_HALF)
 588:Generated_Source\PSoC6\pdl\drivers/peripheral/gpio/cy_gpio.h ****     {
 589:Generated_Source\PSoC6\pdl\drivers/peripheral/gpio/cy_gpio.h ****         tempReg = portAddrHSIOM->PORT_SEL0 & ~(CY_GPIO_HSIOM_MASK << (pinNum << CY_GPIO_HSIOM_OFFSE
 590:Generated_Source\PSoC6\pdl\drivers/peripheral/gpio/cy_gpio.h ****         portAddrHSIOM->PORT_SEL0 = tempReg | ((value & CY_GPIO_HSIOM_MASK) << (pinNum << CY_GPIO_HS
 591:Generated_Source\PSoC6\pdl\drivers/peripheral/gpio/cy_gpio.h ****     }
 592:Generated_Source\PSoC6\pdl\drivers/peripheral/gpio/cy_gpio.h ****     else
 593:Generated_Source\PSoC6\pdl\drivers/peripheral/gpio/cy_gpio.h ****     {
 594:Generated_Source\PSoC6\pdl\drivers/peripheral/gpio/cy_gpio.h ****         pinNum -= CY_GPIO_PRT_HALF;
 595:Generated_Source\PSoC6\pdl\drivers/peripheral/gpio/cy_gpio.h ****         tempReg = portAddrHSIOM->PORT_SEL1 & ~(CY_GPIO_HSIOM_MASK << (pinNum << CY_GPIO_HSIOM_OFFSE
 596:Generated_Source\PSoC6\pdl\drivers/peripheral/gpio/cy_gpio.h ****         portAddrHSIOM->PORT_SEL1 = tempReg | ((value & CY_GPIO_HSIOM_MASK) << (pinNum << CY_GPIO_HS
 597:Generated_Source\PSoC6\pdl\drivers/peripheral/gpio/cy_gpio.h ****     }
 598:Generated_Source\PSoC6\pdl\drivers/peripheral/gpio/cy_gpio.h **** }
 599:Generated_Source\PSoC6\pdl\drivers/peripheral/gpio/cy_gpio.h **** 
 600:Generated_Source\PSoC6\pdl\drivers/peripheral/gpio/cy_gpio.h **** 
 601:Generated_Source\PSoC6\pdl\drivers/peripheral/gpio/cy_gpio.h **** /*******************************************************************************
 602:Generated_Source\PSoC6\pdl\drivers/peripheral/gpio/cy_gpio.h **** * Function Name: Cy_GPIO_GetHSIOM
 603:Generated_Source\PSoC6\pdl\drivers/peripheral/gpio/cy_gpio.h **** ****************************************************************************//**
 604:Generated_Source\PSoC6\pdl\drivers/peripheral/gpio/cy_gpio.h **** *
 605:Generated_Source\PSoC6\pdl\drivers/peripheral/gpio/cy_gpio.h **** * \brief Returns the current HSIOM multiplexer connection to the pin.
 606:Generated_Source\PSoC6\pdl\drivers/peripheral/gpio/cy_gpio.h **** *
 607:Generated_Source\PSoC6\pdl\drivers/peripheral/gpio/cy_gpio.h **** * \param base
 608:Generated_Source\PSoC6\pdl\drivers/peripheral/gpio/cy_gpio.h **** * Pointer to the pin's port register base address
 609:Generated_Source\PSoC6\pdl\drivers/peripheral/gpio/cy_gpio.h **** *
 610:Generated_Source\PSoC6\pdl\drivers/peripheral/gpio/cy_gpio.h **** * \param pinNum
 611:Generated_Source\PSoC6\pdl\drivers/peripheral/gpio/cy_gpio.h **** * Position of the pin bit-field within the port register
 612:Generated_Source\PSoC6\pdl\drivers/peripheral/gpio/cy_gpio.h **** *
 613:Generated_Source\PSoC6\pdl\drivers/peripheral/gpio/cy_gpio.h **** * \return
 614:Generated_Source\PSoC6\pdl\drivers/peripheral/gpio/cy_gpio.h **** * HSIOM input selection
 615:Generated_Source\PSoC6\pdl\drivers/peripheral/gpio/cy_gpio.h **** *
 616:Generated_Source\PSoC6\pdl\drivers/peripheral/gpio/cy_gpio.h **** * \funcusage
 617:Generated_Source\PSoC6\pdl\drivers/peripheral/gpio/cy_gpio.h **** * \snippet gpio/gpio_v1_10_sut_01.cydsn/main_cm4.c snippet_Cy_GPIO_SetHSIOM
 618:Generated_Source\PSoC6\pdl\drivers/peripheral/gpio/cy_gpio.h **** *
 619:Generated_Source\PSoC6\pdl\drivers/peripheral/gpio/cy_gpio.h **** *******************************************************************************/
 620:Generated_Source\PSoC6\pdl\drivers/peripheral/gpio/cy_gpio.h **** __STATIC_INLINE en_hsiom_sel_t Cy_GPIO_GetHSIOM(GPIO_PRT_Type* base, uint32_t pinNum)
 621:Generated_Source\PSoC6\pdl\drivers/peripheral/gpio/cy_gpio.h **** {
 622:Generated_Source\PSoC6\pdl\drivers/peripheral/gpio/cy_gpio.h ****     uint32_t returnValue;
 623:Generated_Source\PSoC6\pdl\drivers/peripheral/gpio/cy_gpio.h ****     uint32_t portNum;
 624:Generated_Source\PSoC6\pdl\drivers/peripheral/gpio/cy_gpio.h ****     HSIOM_PRT_Type* portAddrHSIOM;
 625:Generated_Source\PSoC6\pdl\drivers/peripheral/gpio/cy_gpio.h ****     
 626:Generated_Source\PSoC6\pdl\drivers/peripheral/gpio/cy_gpio.h ****     CY_ASSERT_L2(CY_GPIO_IS_PIN_VALID(pinNum));
 627:Generated_Source\PSoC6\pdl\drivers/peripheral/gpio/cy_gpio.h **** 
 628:Generated_Source\PSoC6\pdl\drivers/peripheral/gpio/cy_gpio.h ****     portNum = ((uint32_t)(base) - GPIO_BASE) / GPIO_PRT_SECTION_SIZE;
 629:Generated_Source\PSoC6\pdl\drivers/peripheral/gpio/cy_gpio.h ****     portAddrHSIOM = (HSIOM_PRT_Type*)(HSIOM_BASE + (HSIOM_PRT_SECTION_SIZE * portNum));
 630:Generated_Source\PSoC6\pdl\drivers/peripheral/gpio/cy_gpio.h **** 
ARM GAS  C:\Users\bryan.lee\AppData\Local\Temp\ccAkWdHW.s 			page 15


 631:Generated_Source\PSoC6\pdl\drivers/peripheral/gpio/cy_gpio.h ****     if(pinNum < CY_GPIO_PRT_HALF)
 632:Generated_Source\PSoC6\pdl\drivers/peripheral/gpio/cy_gpio.h ****     {
 633:Generated_Source\PSoC6\pdl\drivers/peripheral/gpio/cy_gpio.h ****         returnValue = (portAddrHSIOM->PORT_SEL0 >> (pinNum << CY_GPIO_HSIOM_OFFSET)) & CY_GPIO_HSIO
 634:Generated_Source\PSoC6\pdl\drivers/peripheral/gpio/cy_gpio.h ****     }
 635:Generated_Source\PSoC6\pdl\drivers/peripheral/gpio/cy_gpio.h ****     else
 636:Generated_Source\PSoC6\pdl\drivers/peripheral/gpio/cy_gpio.h ****     {
 637:Generated_Source\PSoC6\pdl\drivers/peripheral/gpio/cy_gpio.h ****         pinNum -= CY_GPIO_PRT_HALF;
 638:Generated_Source\PSoC6\pdl\drivers/peripheral/gpio/cy_gpio.h ****         returnValue = (portAddrHSIOM->PORT_SEL1 >> (pinNum << CY_GPIO_HSIOM_OFFSET)) & CY_GPIO_HSIO
 639:Generated_Source\PSoC6\pdl\drivers/peripheral/gpio/cy_gpio.h ****     }
 640:Generated_Source\PSoC6\pdl\drivers/peripheral/gpio/cy_gpio.h **** 
 641:Generated_Source\PSoC6\pdl\drivers/peripheral/gpio/cy_gpio.h ****     return (en_hsiom_sel_t)returnValue;
 642:Generated_Source\PSoC6\pdl\drivers/peripheral/gpio/cy_gpio.h **** }
 643:Generated_Source\PSoC6\pdl\drivers/peripheral/gpio/cy_gpio.h **** 
 644:Generated_Source\PSoC6\pdl\drivers/peripheral/gpio/cy_gpio.h **** 
 645:Generated_Source\PSoC6\pdl\drivers/peripheral/gpio/cy_gpio.h **** /*******************************************************************************
 646:Generated_Source\PSoC6\pdl\drivers/peripheral/gpio/cy_gpio.h **** * Function Name: Cy_GPIO_PortToAddr
 647:Generated_Source\PSoC6\pdl\drivers/peripheral/gpio/cy_gpio.h **** ****************************************************************************//**
 648:Generated_Source\PSoC6\pdl\drivers/peripheral/gpio/cy_gpio.h **** *
 649:Generated_Source\PSoC6\pdl\drivers/peripheral/gpio/cy_gpio.h **** * \brief Retrieves the port address based on the given port number.
 650:Generated_Source\PSoC6\pdl\drivers/peripheral/gpio/cy_gpio.h **** *
 651:Generated_Source\PSoC6\pdl\drivers/peripheral/gpio/cy_gpio.h **** * This is a helper function to calculate the port base address when given a port
 652:Generated_Source\PSoC6\pdl\drivers/peripheral/gpio/cy_gpio.h **** * number. It is to be used when pin access needs to be calculated at runtime.
 653:Generated_Source\PSoC6\pdl\drivers/peripheral/gpio/cy_gpio.h **** *
 654:Generated_Source\PSoC6\pdl\drivers/peripheral/gpio/cy_gpio.h **** * \param portNum
 655:Generated_Source\PSoC6\pdl\drivers/peripheral/gpio/cy_gpio.h **** * Port number
 656:Generated_Source\PSoC6\pdl\drivers/peripheral/gpio/cy_gpio.h **** *
 657:Generated_Source\PSoC6\pdl\drivers/peripheral/gpio/cy_gpio.h **** * \return
 658:Generated_Source\PSoC6\pdl\drivers/peripheral/gpio/cy_gpio.h **** * Base address of the port register structure
 659:Generated_Source\PSoC6\pdl\drivers/peripheral/gpio/cy_gpio.h **** *
 660:Generated_Source\PSoC6\pdl\drivers/peripheral/gpio/cy_gpio.h **** * \funcusage
 661:Generated_Source\PSoC6\pdl\drivers/peripheral/gpio/cy_gpio.h **** * \snippet gpio/gpio_v1_10_sut_01.cydsn/main_cm4.c snippet_Cy_GPIO_PortToAddr
 662:Generated_Source\PSoC6\pdl\drivers/peripheral/gpio/cy_gpio.h **** *
 663:Generated_Source\PSoC6\pdl\drivers/peripheral/gpio/cy_gpio.h **** *******************************************************************************/
 664:Generated_Source\PSoC6\pdl\drivers/peripheral/gpio/cy_gpio.h **** __STATIC_INLINE GPIO_PRT_Type* Cy_GPIO_PortToAddr(uint32_t portNum)
 665:Generated_Source\PSoC6\pdl\drivers/peripheral/gpio/cy_gpio.h **** {
 666:Generated_Source\PSoC6\pdl\drivers/peripheral/gpio/cy_gpio.h ****     GPIO_PRT_Type* base;
 667:Generated_Source\PSoC6\pdl\drivers/peripheral/gpio/cy_gpio.h ****     
 668:Generated_Source\PSoC6\pdl\drivers/peripheral/gpio/cy_gpio.h ****     if(portNum < (uint32_t)IOSS_GPIO_GPIO_PORT_NR)
 669:Generated_Source\PSoC6\pdl\drivers/peripheral/gpio/cy_gpio.h ****     {
 670:Generated_Source\PSoC6\pdl\drivers/peripheral/gpio/cy_gpio.h ****          base = (GPIO_PRT_Type *)(GPIO_BASE + (GPIO_PRT_SECTION_SIZE * portNum));
 671:Generated_Source\PSoC6\pdl\drivers/peripheral/gpio/cy_gpio.h ****     }
 672:Generated_Source\PSoC6\pdl\drivers/peripheral/gpio/cy_gpio.h ****     else
 673:Generated_Source\PSoC6\pdl\drivers/peripheral/gpio/cy_gpio.h ****     {
 674:Generated_Source\PSoC6\pdl\drivers/peripheral/gpio/cy_gpio.h ****         /* Error: Return default base address */
 675:Generated_Source\PSoC6\pdl\drivers/peripheral/gpio/cy_gpio.h ****         base = (GPIO_PRT_Type *)(GPIO_BASE);
 676:Generated_Source\PSoC6\pdl\drivers/peripheral/gpio/cy_gpio.h ****     }
 677:Generated_Source\PSoC6\pdl\drivers/peripheral/gpio/cy_gpio.h **** 
 678:Generated_Source\PSoC6\pdl\drivers/peripheral/gpio/cy_gpio.h ****     return (base);
 679:Generated_Source\PSoC6\pdl\drivers/peripheral/gpio/cy_gpio.h **** }
 680:Generated_Source\PSoC6\pdl\drivers/peripheral/gpio/cy_gpio.h **** 
 681:Generated_Source\PSoC6\pdl\drivers/peripheral/gpio/cy_gpio.h **** /** \} group_gpio_functions_init */
 682:Generated_Source\PSoC6\pdl\drivers/peripheral/gpio/cy_gpio.h **** 
 683:Generated_Source\PSoC6\pdl\drivers/peripheral/gpio/cy_gpio.h **** /**
 684:Generated_Source\PSoC6\pdl\drivers/peripheral/gpio/cy_gpio.h **** * \addtogroup group_gpio_functions_gpio
 685:Generated_Source\PSoC6\pdl\drivers/peripheral/gpio/cy_gpio.h **** * \{
 686:Generated_Source\PSoC6\pdl\drivers/peripheral/gpio/cy_gpio.h **** */
 687:Generated_Source\PSoC6\pdl\drivers/peripheral/gpio/cy_gpio.h **** 
ARM GAS  C:\Users\bryan.lee\AppData\Local\Temp\ccAkWdHW.s 			page 16


 688:Generated_Source\PSoC6\pdl\drivers/peripheral/gpio/cy_gpio.h **** /*******************************************************************************
 689:Generated_Source\PSoC6\pdl\drivers/peripheral/gpio/cy_gpio.h **** * Function Name: Cy_GPIO_Read
 690:Generated_Source\PSoC6\pdl\drivers/peripheral/gpio/cy_gpio.h **** ****************************************************************************//**
 691:Generated_Source\PSoC6\pdl\drivers/peripheral/gpio/cy_gpio.h **** *
 692:Generated_Source\PSoC6\pdl\drivers/peripheral/gpio/cy_gpio.h **** * \brief Reads the current logic level on the input buffer of the pin.
 693:Generated_Source\PSoC6\pdl\drivers/peripheral/gpio/cy_gpio.h **** *
 694:Generated_Source\PSoC6\pdl\drivers/peripheral/gpio/cy_gpio.h **** * \param base
 695:Generated_Source\PSoC6\pdl\drivers/peripheral/gpio/cy_gpio.h **** * Pointer to the pin's port register base address
 696:Generated_Source\PSoC6\pdl\drivers/peripheral/gpio/cy_gpio.h **** *
 697:Generated_Source\PSoC6\pdl\drivers/peripheral/gpio/cy_gpio.h **** * \param pinNum
 698:Generated_Source\PSoC6\pdl\drivers/peripheral/gpio/cy_gpio.h **** * Position of the pin bit-field within the port register.
 699:Generated_Source\PSoC6\pdl\drivers/peripheral/gpio/cy_gpio.h **** * Bit position 8 is the routed pin through the port glitch filter.
 700:Generated_Source\PSoC6\pdl\drivers/peripheral/gpio/cy_gpio.h **** *
 701:Generated_Source\PSoC6\pdl\drivers/peripheral/gpio/cy_gpio.h **** * \return
 702:Generated_Source\PSoC6\pdl\drivers/peripheral/gpio/cy_gpio.h **** * Logic level present on the pin
 703:Generated_Source\PSoC6\pdl\drivers/peripheral/gpio/cy_gpio.h **** *
 704:Generated_Source\PSoC6\pdl\drivers/peripheral/gpio/cy_gpio.h **** * \funcusage
 705:Generated_Source\PSoC6\pdl\drivers/peripheral/gpio/cy_gpio.h **** * \snippet gpio/gpio_v1_10_sut_01.cydsn/main_cm4.c snippet_Cy_GPIO_Read
 706:Generated_Source\PSoC6\pdl\drivers/peripheral/gpio/cy_gpio.h **** *
 707:Generated_Source\PSoC6\pdl\drivers/peripheral/gpio/cy_gpio.h **** *******************************************************************************/
 708:Generated_Source\PSoC6\pdl\drivers/peripheral/gpio/cy_gpio.h **** __STATIC_INLINE uint32_t Cy_GPIO_Read(GPIO_PRT_Type* base, uint32_t pinNum)
 709:Generated_Source\PSoC6\pdl\drivers/peripheral/gpio/cy_gpio.h **** {
 710:Generated_Source\PSoC6\pdl\drivers/peripheral/gpio/cy_gpio.h ****     CY_ASSERT_L2(CY_GPIO_IS_FILTER_PIN_VALID(pinNum));
 711:Generated_Source\PSoC6\pdl\drivers/peripheral/gpio/cy_gpio.h ****     
 712:Generated_Source\PSoC6\pdl\drivers/peripheral/gpio/cy_gpio.h ****     return (base->IN >> (pinNum)) & CY_GPIO_IN_MASK;
 713:Generated_Source\PSoC6\pdl\drivers/peripheral/gpio/cy_gpio.h **** }
 714:Generated_Source\PSoC6\pdl\drivers/peripheral/gpio/cy_gpio.h **** 
 715:Generated_Source\PSoC6\pdl\drivers/peripheral/gpio/cy_gpio.h **** 
 716:Generated_Source\PSoC6\pdl\drivers/peripheral/gpio/cy_gpio.h **** /*******************************************************************************
 717:Generated_Source\PSoC6\pdl\drivers/peripheral/gpio/cy_gpio.h **** * Function Name: Cy_GPIO_Write
 718:Generated_Source\PSoC6\pdl\drivers/peripheral/gpio/cy_gpio.h **** ****************************************************************************//**
 719:Generated_Source\PSoC6\pdl\drivers/peripheral/gpio/cy_gpio.h **** *
 720:Generated_Source\PSoC6\pdl\drivers/peripheral/gpio/cy_gpio.h **** * \brief Write a logic 0 or logic 1 state to the output driver.
 721:Generated_Source\PSoC6\pdl\drivers/peripheral/gpio/cy_gpio.h **** *
 722:Generated_Source\PSoC6\pdl\drivers/peripheral/gpio/cy_gpio.h **** * This function should be used only for software driven pins. It does not have
 723:Generated_Source\PSoC6\pdl\drivers/peripheral/gpio/cy_gpio.h **** * any effect on peripheral driven pins.
 724:Generated_Source\PSoC6\pdl\drivers/peripheral/gpio/cy_gpio.h **** *
 725:Generated_Source\PSoC6\pdl\drivers/peripheral/gpio/cy_gpio.h **** * \param base
 726:Generated_Source\PSoC6\pdl\drivers/peripheral/gpio/cy_gpio.h **** * Pointer to the pin's port register base address
 727:Generated_Source\PSoC6\pdl\drivers/peripheral/gpio/cy_gpio.h **** *
 728:Generated_Source\PSoC6\pdl\drivers/peripheral/gpio/cy_gpio.h **** * \param pinNum
 729:Generated_Source\PSoC6\pdl\drivers/peripheral/gpio/cy_gpio.h **** * Position of the pin bit-field within the port register
 730:Generated_Source\PSoC6\pdl\drivers/peripheral/gpio/cy_gpio.h **** *
 731:Generated_Source\PSoC6\pdl\drivers/peripheral/gpio/cy_gpio.h **** * \param value
 732:Generated_Source\PSoC6\pdl\drivers/peripheral/gpio/cy_gpio.h **** * Logic level to drive out on the pin
 733:Generated_Source\PSoC6\pdl\drivers/peripheral/gpio/cy_gpio.h **** *
 734:Generated_Source\PSoC6\pdl\drivers/peripheral/gpio/cy_gpio.h **** * \return
 735:Generated_Source\PSoC6\pdl\drivers/peripheral/gpio/cy_gpio.h **** * void
 736:Generated_Source\PSoC6\pdl\drivers/peripheral/gpio/cy_gpio.h **** *
 737:Generated_Source\PSoC6\pdl\drivers/peripheral/gpio/cy_gpio.h **** * \funcusage
 738:Generated_Source\PSoC6\pdl\drivers/peripheral/gpio/cy_gpio.h **** * \snippet gpio/gpio_v1_10_sut_01.cydsn/main_cm4.c snippet_Cy_GPIO_Write
 739:Generated_Source\PSoC6\pdl\drivers/peripheral/gpio/cy_gpio.h **** *
 740:Generated_Source\PSoC6\pdl\drivers/peripheral/gpio/cy_gpio.h **** *******************************************************************************/
 741:Generated_Source\PSoC6\pdl\drivers/peripheral/gpio/cy_gpio.h **** __STATIC_INLINE void Cy_GPIO_Write(GPIO_PRT_Type* base, uint32_t pinNum, uint32_t value)
 742:Generated_Source\PSoC6\pdl\drivers/peripheral/gpio/cy_gpio.h **** {
 743:Generated_Source\PSoC6\pdl\drivers/peripheral/gpio/cy_gpio.h ****     CY_ASSERT_L2(CY_GPIO_IS_PIN_VALID(pinNum));
 744:Generated_Source\PSoC6\pdl\drivers/peripheral/gpio/cy_gpio.h ****     CY_ASSERT_L2(CY_GPIO_IS_VALUE_VALID(value));
ARM GAS  C:\Users\bryan.lee\AppData\Local\Temp\ccAkWdHW.s 			page 17


 745:Generated_Source\PSoC6\pdl\drivers/peripheral/gpio/cy_gpio.h **** 
 746:Generated_Source\PSoC6\pdl\drivers/peripheral/gpio/cy_gpio.h ****     /* Thread-safe: Directly access the pin registers instead of base->OUT */
 747:Generated_Source\PSoC6\pdl\drivers/peripheral/gpio/cy_gpio.h ****     if(0UL == value)
 748:Generated_Source\PSoC6\pdl\drivers/peripheral/gpio/cy_gpio.h ****     {
 749:Generated_Source\PSoC6\pdl\drivers/peripheral/gpio/cy_gpio.h ****         base->OUT_CLR = CY_GPIO_OUT_MASK << pinNum;
  49              		.loc 2 749 0
  50 000a 0F4C     		ldr	r4, .L4
  51 000c 0827     		movs	r7, #8
  52 000e 6760     		str	r7, [r4, #4]
  53              	.LVL2:
  54              	.LBE59:
  55              	.LBE58:
 121:pervasive_eink_hardware_driver.c ****     /* Pull the chip select line LOW to begin communication */
 122:pervasive_eink_hardware_driver.c ****     CY_EINK_CsLow;
 123:pervasive_eink_hardware_driver.c ****     /* Send the header of register address index */
 124:pervasive_eink_hardware_driver.c ****     Cy_EINK_WriteSPI(PV_EINK_REG_INDEX_HEADER);
  56              		.loc 1 124 0
  57 0010 7020     		movs	r0, #112
  58              	.LVL3:
  59 0012 FFF7FEFF 		bl	Cy_EINK_WriteSPI
  60              	.LVL4:
 125:pervasive_eink_hardware_driver.c ****     /* Send the register address */
 126:pervasive_eink_hardware_driver.c ****     Cy_EINK_WriteSPI(regAddr);
  61              		.loc 1 126 0
  62 0016 0198     		ldr	r0, [sp, #4]
  63 0018 FFF7FEFF 		bl	Cy_EINK_WriteSPI
  64              	.LVL5:
  65              	.LBB60:
  66              	.LBB61:
 750:Generated_Source\PSoC6\pdl\drivers/peripheral/gpio/cy_gpio.h ****     }
 751:Generated_Source\PSoC6\pdl\drivers/peripheral/gpio/cy_gpio.h ****     else
 752:Generated_Source\PSoC6\pdl\drivers/peripheral/gpio/cy_gpio.h ****     {
 753:Generated_Source\PSoC6\pdl\drivers/peripheral/gpio/cy_gpio.h ****         base->OUT_SET = CY_GPIO_OUT_MASK << pinNum;
  67              		.loc 2 753 0
  68 001c A760     		str	r7, [r4, #8]
  69              	.LVL6:
  70              	.LBE61:
  71              	.LBE60:
  72              	.LBB62:
  73              	.LBB63:
 749:Generated_Source\PSoC6\pdl\drivers/peripheral/gpio/cy_gpio.h ****     }
  74              		.loc 2 749 0
  75 001e 6760     		str	r7, [r4, #4]
  76              	.LVL7:
  77              	.LBE63:
  78              	.LBE62:
 127:pervasive_eink_hardware_driver.c ****     /* Push the chip select line HIGH to end communication */
 128:pervasive_eink_hardware_driver.c ****     CY_EINK_CsHigh;
 129:pervasive_eink_hardware_driver.c ****     
 130:pervasive_eink_hardware_driver.c ****     /* Wait for 10uS before the next transmission */
 131:pervasive_eink_hardware_driver.c ****     CY_EINK_Wait10uS;
 132:pervasive_eink_hardware_driver.c ****     
 133:pervasive_eink_hardware_driver.c ****     /* Pull the chip select line LOW to begin communication */
 134:pervasive_eink_hardware_driver.c ****     CY_EINK_CsLow;
 135:pervasive_eink_hardware_driver.c ****     /* Send the header of data write index */
 136:pervasive_eink_hardware_driver.c ****     Cy_EINK_WriteSPI(PV_EINK_REG_DATA_WRITE);
  79              		.loc 1 136 0
ARM GAS  C:\Users\bryan.lee\AppData\Local\Temp\ccAkWdHW.s 			page 18


  80 0020 7220     		movs	r0, #114
  81 0022 FFF7FEFF 		bl	Cy_EINK_WriteSPI
  82              	.LVL8:
 137:pervasive_eink_hardware_driver.c ****     /* Send the array of data */
 138:pervasive_eink_hardware_driver.c ****     while (dataLength--)
  83              		.loc 1 138 0
  84 0026 05E0     		b	.L2
  85              	.LVL9:
  86              	.L3:
 139:pervasive_eink_hardware_driver.c ****     {
 140:pervasive_eink_hardware_driver.c ****         Cy_EINK_WriteSPI(*data++);
  87              		.loc 1 140 0
  88 0028 771C     		adds	r7, r6, #1
  89              	.LVL10:
  90 002a 3078     		ldrb	r0, [r6]
  91 002c FFF7FEFF 		bl	Cy_EINK_WriteSPI
  92              	.LVL11:
 138:pervasive_eink_hardware_driver.c ****     {
  93              		.loc 1 138 0
  94 0030 2500     		movs	r5, r4
  95              		.loc 1 140 0
  96 0032 3E00     		movs	r6, r7
  97              	.LVL12:
  98              	.L2:
 138:pervasive_eink_hardware_driver.c ****     {
  99              		.loc 1 138 0
 100 0034 6B1E     		subs	r3, r5, #1
 101 0036 9CB2     		uxth	r4, r3
 102              	.LVL13:
 103 0038 002D     		cmp	r5, #0
 104 003a F5D1     		bne	.L3
 105              	.LVL14:
 106              	.LBB64:
 107              	.LBB65:
 108              		.loc 2 753 0
 109 003c 0822     		movs	r2, #8
 110 003e 024B     		ldr	r3, .L4
 111 0040 9A60     		str	r2, [r3, #8]
 112              	.LVL15:
 113              	.LBE65:
 114              	.LBE64:
 141:pervasive_eink_hardware_driver.c ****     }
 142:pervasive_eink_hardware_driver.c ****     /* Push the chip select line HIGH to end communication */
 143:pervasive_eink_hardware_driver.c ****     CY_EINK_CsHigh;
 144:pervasive_eink_hardware_driver.c **** }
 115              		.loc 1 144 0
 116 0042 03B0     		add	sp, sp, #12
 117              		@ sp needed
 118              	.LVL16:
 119              	.LVL17:
 120              	.LVL18:
 121 0044 F0BD     		pop	{r4, r5, r6, r7, pc}
 122              	.L5:
 123 0046 C046     		.align	2
 124              	.L4:
 125 0048 00063240 		.word	1077020160
 126              		.cfi_endproc
ARM GAS  C:\Users\bryan.lee\AppData\Local\Temp\ccAkWdHW.s 			page 19


 127              	.LFE453:
 128              		.size	Pv_EINK_SendData, .-Pv_EINK_SendData
 129              		.section	.text.Pv_EINK_SendByte,"ax",%progbits
 130              		.align	2
 131              		.global	Pv_EINK_SendByte
 132              		.code	16
 133              		.thumb_func
 134              		.type	Pv_EINK_SendByte, %function
 135              	Pv_EINK_SendByte:
 136              	.LFB454:
 145:pervasive_eink_hardware_driver.c **** 
 146:pervasive_eink_hardware_driver.c **** /*******************************************************************************
 147:pervasive_eink_hardware_driver.c **** * Function Name: void Pv_EINK_SendByte(uint8_t regAddr, uint8_t data)
 148:pervasive_eink_hardware_driver.c **** ********************************************************************************
 149:pervasive_eink_hardware_driver.c **** *
 150:pervasive_eink_hardware_driver.c **** * Summary: Sends a byte of data to the E-INK driver.
 151:pervasive_eink_hardware_driver.c **** *
 152:pervasive_eink_hardware_driver.c **** * Parameters:
 153:pervasive_eink_hardware_driver.c **** *  uint8_t regAddr: Display driver register address
 154:pervasive_eink_hardware_driver.c **** *  uint8_t data   : Data byte that will be sent to the driver
 155:pervasive_eink_hardware_driver.c **** *
 156:pervasive_eink_hardware_driver.c **** * Return:
 157:pervasive_eink_hardware_driver.c **** *  None
 158:pervasive_eink_hardware_driver.c **** *
 159:pervasive_eink_hardware_driver.c **** * Side Effects:
 160:pervasive_eink_hardware_driver.c **** *  None
 161:pervasive_eink_hardware_driver.c **** *******************************************************************************/
 162:pervasive_eink_hardware_driver.c **** void Pv_EINK_SendByte(uint8_t regAddr, uint8_t data)
 163:pervasive_eink_hardware_driver.c **** {
 137              		.loc 1 163 0
 138              		.cfi_startproc
 139              		@ args = 0, pretend = 0, frame = 8
 140              		@ frame_needed = 0, uses_anonymous_args = 0
 141              	.LVL19:
 142 0000 00B5     		push	{lr}
 143              		.cfi_def_cfa_offset 4
 144              		.cfi_offset 14, -4
 145 0002 83B0     		sub	sp, sp, #12
 146              		.cfi_def_cfa_offset 16
 147 0004 6B46     		mov	r3, sp
 148 0006 D971     		strb	r1, [r3, #7]
 149 0008 0733     		adds	r3, r3, #7
 164:pervasive_eink_hardware_driver.c ****     /* Send a single byte of data */
 165:pervasive_eink_hardware_driver.c ****     Pv_EINK_SendData(regAddr, &data, CY_EINK_SINGLE_BYTE);
 150              		.loc 1 165 0
 151 000a 0122     		movs	r2, #1
 152 000c 1900     		movs	r1, r3
 153              	.LVL20:
 154 000e FFF7FEFF 		bl	Pv_EINK_SendData
 155              	.LVL21:
 166:pervasive_eink_hardware_driver.c **** }
 156              		.loc 1 166 0
 157 0012 03B0     		add	sp, sp, #12
 158              	.LVL22:
 159              		@ sp needed
 160 0014 00BD     		pop	{pc}
 161              		.cfi_endproc
ARM GAS  C:\Users\bryan.lee\AppData\Local\Temp\ccAkWdHW.s 			page 20


 162              	.LFE454:
 163              		.size	Pv_EINK_SendByte, .-Pv_EINK_SendByte
 164 0016 C046     		.section	.text.Pv_EINK_ReadByte,"ax",%progbits
 165              		.align	2
 166              		.global	Pv_EINK_ReadByte
 167              		.code	16
 168              		.thumb_func
 169              		.type	Pv_EINK_ReadByte, %function
 170              	Pv_EINK_ReadByte:
 171              	.LFB455:
 167:pervasive_eink_hardware_driver.c **** 
 168:pervasive_eink_hardware_driver.c **** /*******************************************************************************
 169:pervasive_eink_hardware_driver.c **** * Function Name: uint8_t Pv_EINK_ReadByte(uint8_t regAddr, uint8_t data)
 170:pervasive_eink_hardware_driver.c **** ********************************************************************************
 171:pervasive_eink_hardware_driver.c **** *
 172:pervasive_eink_hardware_driver.c **** * Summary: Sends a read command to the E-INK driver and receives a byte of data
 173:pervasive_eink_hardware_driver.c **** *  from the driver.
 174:pervasive_eink_hardware_driver.c **** *
 175:pervasive_eink_hardware_driver.c **** * Parameters:
 176:pervasive_eink_hardware_driver.c **** *  uint8_t regAddr: Display driver register address
 177:pervasive_eink_hardware_driver.c **** *  uint8_t data   : Data command that will be sent to the driver
 178:pervasive_eink_hardware_driver.c **** *
 179:pervasive_eink_hardware_driver.c **** * Return:
 180:pervasive_eink_hardware_driver.c **** *  uint8_t :  Data received from the display driver
 181:pervasive_eink_hardware_driver.c **** *
 182:pervasive_eink_hardware_driver.c **** * Side Effects:
 183:pervasive_eink_hardware_driver.c **** *  None
 184:pervasive_eink_hardware_driver.c **** *******************************************************************************/
 185:pervasive_eink_hardware_driver.c **** uint8_t Pv_EINK_ReadByte(uint8_t regAddr, uint8_t data)
 186:pervasive_eink_hardware_driver.c **** {
 172              		.loc 1 186 0
 173              		.cfi_startproc
 174              		@ args = 0, pretend = 0, frame = 0
 175              		@ frame_needed = 0, uses_anonymous_args = 0
 176              	.LVL23:
 177 0000 F8B5     		push	{r3, r4, r5, r6, r7, lr}
 178              		.cfi_def_cfa_offset 24
 179              		.cfi_offset 3, -24
 180              		.cfi_offset 4, -20
 181              		.cfi_offset 5, -16
 182              		.cfi_offset 6, -12
 183              		.cfi_offset 7, -8
 184              		.cfi_offset 14, -4
 185 0002 0700     		movs	r7, r0
 186 0004 0E00     		movs	r6, r1
 187              	.LVL24:
 188              	.LBB66:
 189              	.LBB67:
 749:Generated_Source\PSoC6\pdl\drivers/peripheral/gpio/cy_gpio.h ****     }
 190              		.loc 2 749 0
 191 0006 094C     		ldr	r4, .L8
 192 0008 0825     		movs	r5, #8
 193 000a 6560     		str	r5, [r4, #4]
 194              	.LVL25:
 195              	.LBE67:
 196              	.LBE66:
 187:pervasive_eink_hardware_driver.c ****     /* Variable that stores received data */
ARM GAS  C:\Users\bryan.lee\AppData\Local\Temp\ccAkWdHW.s 			page 21


 188:pervasive_eink_hardware_driver.c ****     uint8_t dataRead;
 189:pervasive_eink_hardware_driver.c ****     
 190:pervasive_eink_hardware_driver.c ****     /* Pull the chip select line LOW to begin communication */
 191:pervasive_eink_hardware_driver.c ****     CY_EINK_CsLow;
 192:pervasive_eink_hardware_driver.c ****     /* Send the header of register address index */
 193:pervasive_eink_hardware_driver.c ****     Cy_EINK_WriteSPI(PV_EINK_REG_INDEX_HEADER);
 197              		.loc 1 193 0
 198 000c 7020     		movs	r0, #112
 199              	.LVL26:
 200 000e FFF7FEFF 		bl	Cy_EINK_WriteSPI
 201              	.LVL27:
 194:pervasive_eink_hardware_driver.c ****     /* Send the register address */
 195:pervasive_eink_hardware_driver.c ****     Cy_EINK_WriteSPI(regAddr);
 202              		.loc 1 195 0
 203 0012 3800     		movs	r0, r7
 204 0014 FFF7FEFF 		bl	Cy_EINK_WriteSPI
 205              	.LVL28:
 206              	.LBB68:
 207              	.LBB69:
 208              		.loc 2 753 0
 209 0018 A560     		str	r5, [r4, #8]
 210              	.LVL29:
 211              	.LBE69:
 212              	.LBE68:
 213              	.LBB70:
 214              	.LBB71:
 749:Generated_Source\PSoC6\pdl\drivers/peripheral/gpio/cy_gpio.h ****     }
 215              		.loc 2 749 0
 216 001a 6560     		str	r5, [r4, #4]
 217              	.LVL30:
 218              	.LBE71:
 219              	.LBE70:
 196:pervasive_eink_hardware_driver.c ****     /* Push the chip select line HIGH to end communication */
 197:pervasive_eink_hardware_driver.c ****     CY_EINK_CsHigh;
 198:pervasive_eink_hardware_driver.c ****     
 199:pervasive_eink_hardware_driver.c ****     /* Wait for 10uS before the next transmission */
 200:pervasive_eink_hardware_driver.c ****     CY_EINK_Wait10uS;
 201:pervasive_eink_hardware_driver.c ****     
 202:pervasive_eink_hardware_driver.c ****     /* Pull the chip select line LOW to begin communication */
 203:pervasive_eink_hardware_driver.c ****     CY_EINK_CsLow;
 204:pervasive_eink_hardware_driver.c ****     /* Send the header of data read index */
 205:pervasive_eink_hardware_driver.c ****     Cy_EINK_WriteSPI(PV_EINK_REG_DATA_READ);
 220              		.loc 1 205 0
 221 001c 7320     		movs	r0, #115
 222 001e FFF7FEFF 		bl	Cy_EINK_WriteSPI
 223              	.LVL31:
 206:pervasive_eink_hardware_driver.c ****     /* Send the command to receive a byte of data */
 207:pervasive_eink_hardware_driver.c ****     dataRead = Cy_EINK_ReadSPI(data);
 224              		.loc 1 207 0
 225 0022 3000     		movs	r0, r6
 226 0024 FFF7FEFF 		bl	Cy_EINK_ReadSPI
 227              	.LVL32:
 228              	.LBB72:
 229              	.LBB73:
 230              		.loc 2 753 0
 231 0028 A560     		str	r5, [r4, #8]
 232              	.LVL33:
ARM GAS  C:\Users\bryan.lee\AppData\Local\Temp\ccAkWdHW.s 			page 22


 233              	.LBE73:
 234              	.LBE72:
 208:pervasive_eink_hardware_driver.c ****     /* Push the chip select line HIGH to end communication*/
 209:pervasive_eink_hardware_driver.c ****     CY_EINK_CsHigh;
 210:pervasive_eink_hardware_driver.c ****     
 211:pervasive_eink_hardware_driver.c ****     /* Return the received data */
 212:pervasive_eink_hardware_driver.c ****     return(dataRead);
 213:pervasive_eink_hardware_driver.c **** }
 235              		.loc 1 213 0
 236              		@ sp needed
 237 002a F8BD     		pop	{r3, r4, r5, r6, r7, pc}
 238              	.L9:
 239              		.align	2
 240              	.L8:
 241 002c 00063240 		.word	1077020160
 242              		.cfi_endproc
 243              	.LFE455:
 244              		.size	Pv_EINK_ReadByte, .-Pv_EINK_ReadByte
 245              		.section	.text.Pv_EINK_Init,"ax",%progbits
 246              		.align	2
 247              		.global	Pv_EINK_Init
 248              		.code	16
 249              		.thumb_func
 250              		.type	Pv_EINK_Init, %function
 251              	Pv_EINK_Init:
 252              	.LFB456:
 214:pervasive_eink_hardware_driver.c **** 
 215:pervasive_eink_hardware_driver.c **** /*******************************************************************************
 216:pervasive_eink_hardware_driver.c **** * Function Name: void  Pv_EINK_Init()
 217:pervasive_eink_hardware_driver.c **** ********************************************************************************
 218:pervasive_eink_hardware_driver.c **** *
 219:pervasive_eink_hardware_driver.c **** * Summary: Initialize the E-INK display hardware and associated PSoC components.
 220:pervasive_eink_hardware_driver.c **** *
 221:pervasive_eink_hardware_driver.c **** * Parameters:
 222:pervasive_eink_hardware_driver.c **** *  None
 223:pervasive_eink_hardware_driver.c **** *
 224:pervasive_eink_hardware_driver.c **** * Return:
 225:pervasive_eink_hardware_driver.c **** *  None
 226:pervasive_eink_hardware_driver.c **** *
 227:pervasive_eink_hardware_driver.c **** * Side Effects:
 228:pervasive_eink_hardware_driver.c **** *  None
 229:pervasive_eink_hardware_driver.c **** *******************************************************************************/
 230:pervasive_eink_hardware_driver.c **** void Pv_EINK_Init(void)
 231:pervasive_eink_hardware_driver.c **** {
 253              		.loc 1 231 0
 254              		.cfi_startproc
 255              		@ args = 0, pretend = 0, frame = 0
 256              		@ frame_needed = 0, uses_anonymous_args = 0
 257 0000 70B5     		push	{r4, r5, r6, lr}
 258              		.cfi_def_cfa_offset 16
 259              		.cfi_offset 4, -16
 260              		.cfi_offset 5, -12
 261              		.cfi_offset 6, -8
 262              		.cfi_offset 14, -4
 263              	.LVL34:
 264              	.LBB74:
 265              	.LBB75:
ARM GAS  C:\Users\bryan.lee\AppData\Local\Temp\ccAkWdHW.s 			page 23


 749:Generated_Source\PSoC6\pdl\drivers/peripheral/gpio/cy_gpio.h ****     }
 266              		.loc 2 749 0
 267 0002 0425     		movs	r5, #4
 268 0004 084B     		ldr	r3, .L11
 269 0006 5D60     		str	r5, [r3, #4]
 270              	.LVL35:
 271              	.LBE75:
 272              	.LBE74:
 273              	.LBB76:
 274              	.LBB77:
 275 0008 084C     		ldr	r4, .L11+4
 276 000a 4023     		movs	r3, #64
 277 000c 6360     		str	r3, [r4, #4]
 278              	.LVL36:
 279              	.LBE77:
 280              	.LBE76:
 281              	.LBB78:
 282              	.LBB79:
 283 000e 303B     		subs	r3, r3, #48
 284 0010 6360     		str	r3, [r4, #4]
 285              	.LVL37:
 286              	.LBE79:
 287              	.LBE78:
 232:pervasive_eink_hardware_driver.c ****     /* Enable the level translator located between PSoC and the E-INK display */
 233:pervasive_eink_hardware_driver.c ****     CY_EINK_EnableIO;
 234:pervasive_eink_hardware_driver.c ****     /* Pull the Border pin to LOW */
 235:pervasive_eink_hardware_driver.c ****     CY_EINK_BorderLow;
 236:pervasive_eink_hardware_driver.c ****     /* Disable the load switch connected to E-INK display's Vcc */
 237:pervasive_eink_hardware_driver.c ****     CY_EINK_TurnOffVcc;
 238:pervasive_eink_hardware_driver.c ****     
 239:pervasive_eink_hardware_driver.c ****     /* Initialize the PSoC SPI */
 240:pervasive_eink_hardware_driver.c ****     Cy_EINK_InitSPI();
 288              		.loc 1 240 0
 289 0012 FFF7FEFF 		bl	Cy_EINK_InitSPI
 290              	.LVL38:
 291              	.LBB80:
 292              	.LBB81:
 749:Generated_Source\PSoC6\pdl\drivers/peripheral/gpio/cy_gpio.h ****     }
 293              		.loc 2 749 0
 294 0016 0822     		movs	r2, #8
 295 0018 054B     		ldr	r3, .L11+8
 296 001a 5A60     		str	r2, [r3, #4]
 297              	.LVL39:
 298              	.LBE81:
 299              	.LBE80:
 300              	.LBB82:
 301              	.LBB83:
 302 001c 6560     		str	r5, [r4, #4]
 303              	.LVL40:
 304              	.LBE83:
 305              	.LBE82:
 306              	.LBB84:
 307              	.LBB85:
 308 001e 2023     		movs	r3, #32
 309 0020 6360     		str	r3, [r4, #4]
 310              	.LVL41:
 311              	.LBE85:
ARM GAS  C:\Users\bryan.lee\AppData\Local\Temp\ccAkWdHW.s 			page 24


 312              	.LBE84:
 241:pervasive_eink_hardware_driver.c ****     /* Pull the chip select, reset and discharge pins to LOW */
 242:pervasive_eink_hardware_driver.c ****     CY_EINK_CsLow;
 243:pervasive_eink_hardware_driver.c ****     CY_EINK_RstLow;
 244:pervasive_eink_hardware_driver.c ****     CY_EINK_DischargeLow;
 245:pervasive_eink_hardware_driver.c ****     
 246:pervasive_eink_hardware_driver.c ****     /* Initialize the E-INK display Timer */
 247:pervasive_eink_hardware_driver.c ****     Cy_EINK_TimerInit();
 313              		.loc 1 247 0
 314 0022 FFF7FEFF 		bl	Cy_EINK_TimerInit
 315              	.LVL42:
 248:pervasive_eink_hardware_driver.c **** }
 316              		.loc 1 248 0
 317              		@ sp needed
 318 0026 70BD     		pop	{r4, r5, r6, pc}
 319              	.L12:
 320              		.align	2
 321              	.L11:
 322 0028 00003240 		.word	1077018624
 323 002c 80023240 		.word	1077019264
 324 0030 00063240 		.word	1077020160
 325              		.cfi_endproc
 326              	.LFE456:
 327              		.size	Pv_EINK_Init, .-Pv_EINK_Init
 328              		.section	.text.Pv_EINK_InitDriver,"ax",%progbits
 329              		.align	2
 330              		.global	Pv_EINK_InitDriver
 331              		.code	16
 332              		.thumb_func
 333              		.type	Pv_EINK_InitDriver, %function
 334              	Pv_EINK_InitDriver:
 335              	.LFB457:
 249:pervasive_eink_hardware_driver.c **** 
 250:pervasive_eink_hardware_driver.c **** /*******************************************************************************
 251:pervasive_eink_hardware_driver.c **** * Function Name: Cy_EINK_Status PV_EINK_InitDriver(void)
 252:pervasive_eink_hardware_driver.c **** ********************************************************************************
 253:pervasive_eink_hardware_driver.c **** *
 254:pervasive_eink_hardware_driver.c **** * Summary: Initialize E-INK Driver. For detailed flow and description, please 
 255:pervasive_eink_hardware_driver.c **** * refer to the driver G2 document Section 4.
 256:pervasive_eink_hardware_driver.c **** *
 257:pervasive_eink_hardware_driver.c **** * Parameters:
 258:pervasive_eink_hardware_driver.c **** *  None
 259:pervasive_eink_hardware_driver.c **** *
 260:pervasive_eink_hardware_driver.c **** * Return:
 261:pervasive_eink_hardware_driver.c **** *  pv_eink_status_t: Status of the initialization
 262:pervasive_eink_hardware_driver.c **** *
 263:pervasive_eink_hardware_driver.c **** * Side Effects:
 264:pervasive_eink_hardware_driver.c **** *  None
 265:pervasive_eink_hardware_driver.c **** *******************************************************************************/
 266:pervasive_eink_hardware_driver.c **** pv_eink_status_t Pv_EINK_InitDriver(void)
 267:pervasive_eink_hardware_driver.c **** {
 336              		.loc 1 267 0
 337              		.cfi_startproc
 338              		@ args = 0, pretend = 0, frame = 0
 339              		@ frame_needed = 0, uses_anonymous_args = 0
 340 0000 10B5     		push	{r4, lr}
 341              		.cfi_def_cfa_offset 8
ARM GAS  C:\Users\bryan.lee\AppData\Local\Temp\ccAkWdHW.s 			page 25


 342              		.cfi_offset 4, -8
 343              		.cfi_offset 14, -4
 344              	.LVL43:
 268:pervasive_eink_hardware_driver.c ****     /* Variable used to count the number of loops */
 269:pervasive_eink_hardware_driver.c ****     uint16_t    loopCounter = 0;
 270:pervasive_eink_hardware_driver.c ****     
 271:pervasive_eink_hardware_driver.c ****     /* Clear the line buffer with all zeros */
 272:pervasive_eink_hardware_driver.c ****     memset(&driverPacket.lineBuffer, 0, sizeof(driverPacket.lineBuffer)) ;
 345              		.loc 1 272 0
 346 0002 424C     		ldr	r4, .L25
 347 0004 6F22     		movs	r2, #111
 348 0006 0021     		movs	r1, #0
 349 0008 2000     		movs	r0, r4
 350 000a FFF7FEFF 		bl	memset
 351              	.LVL44:
 273:pervasive_eink_hardware_driver.c ****     
 274:pervasive_eink_hardware_driver.c ****     /* Initialize the even data, odd data and scan data pointers */
 275:pervasive_eink_hardware_driver.c ****     dataLineEven = &driverPacket.lineDataBySize.even[0];
 352              		.loc 1 275 0
 353 000e 631C     		adds	r3, r4, #1
 354 0010 2367     		str	r3, [r4, #112]
 276:pervasive_eink_hardware_driver.c ****     dataLineOdd  = &driverPacket.lineDataBySize.odd[0];
 355              		.loc 1 276 0
 356 0012 2300     		movs	r3, r4
 357 0014 4E33     		adds	r3, r3, #78
 358 0016 6367     		str	r3, [r4, #116]
 277:pervasive_eink_hardware_driver.c ****     dataLineScan = &driverPacket.lineDataBySize.scan[0];
 359              		.loc 1 277 0
 360 0018 2300     		movs	r3, r4
 361 001a 2233     		adds	r3, r3, #34
 362 001c A367     		str	r3, [r4, #120]
 278:pervasive_eink_hardware_driver.c ****     
 279:pervasive_eink_hardware_driver.c ****     /* Initialize and start the E-INK Timer   */
 280:pervasive_eink_hardware_driver.c ****     Cy_EINK_TimerInit();
 363              		.loc 1 280 0
 364 001e FFF7FEFF 		bl	Cy_EINK_TimerInit
 365              	.LVL45:
 281:pervasive_eink_hardware_driver.c ****         
 282:pervasive_eink_hardware_driver.c ****     /* Check if E-INK driver is busy */
 283:pervasive_eink_hardware_driver.c ****     while (Cy_EINK_IsBusy())
 366              		.loc 1 283 0
 367 0022 03E0     		b	.L14
 368              	.L16:
 284:pervasive_eink_hardware_driver.c ****     {
 285:pervasive_eink_hardware_driver.c ****         /* If the E-INK driver is busy for more than maximum allowed time,
 286:pervasive_eink_hardware_driver.c ****            return an error message */
 287:pervasive_eink_hardware_driver.c ****         if (Cy_EINK_GetTimeTick() >= PV_EINK_MAX_PV_EINK_BUSY_TIME)
 369              		.loc 1 287 0
 370 0024 FFF7FEFF 		bl	Cy_EINK_GetTimeTick
 371              	.LVL46:
 372 0028 0328     		cmp	r0, #3
 373 002a 66D8     		bhi	.L20
 374              	.L14:
 283:pervasive_eink_hardware_driver.c ****     {
 375              		.loc 1 283 0
 376 002c FFF7FEFF 		bl	Cy_EINK_IsBusy
 377              	.LVL47:
ARM GAS  C:\Users\bryan.lee\AppData\Local\Temp\ccAkWdHW.s 			page 26


 378 0030 0028     		cmp	r0, #0
 379 0032 F7D1     		bne	.L16
 288:pervasive_eink_hardware_driver.c ****         {
 289:pervasive_eink_hardware_driver.c ****             return(PV_EINK_ERROR_BUSY);
 290:pervasive_eink_hardware_driver.c ****         }
 291:pervasive_eink_hardware_driver.c ****     }
 292:pervasive_eink_hardware_driver.c ****     
 293:pervasive_eink_hardware_driver.c ****     /* Stop the E-INK Timer */
 294:pervasive_eink_hardware_driver.c ****     Cy_EINK_TimerStop();
 380              		.loc 1 294 0
 381 0034 FFF7FEFF 		bl	Cy_EINK_TimerStop
 382              	.LVL48:
 295:pervasive_eink_hardware_driver.c ****     
 296:pervasive_eink_hardware_driver.c ****     /* Check the driver ID */
 297:pervasive_eink_hardware_driver.c ****     if ((Pv_EINK_ReadByte(PV_EINK_DRIVER_ID_COMMAND_INDEX, 
 383              		.loc 1 297 0
 384 0038 0021     		movs	r1, #0
 385 003a 7220     		movs	r0, #114
 386 003c FFF7FEFF 		bl	Pv_EINK_ReadByte
 387              	.LVL49:
 388 0040 0F23     		movs	r3, #15
 389 0042 1840     		ands	r0, r3
 390 0044 0228     		cmp	r0, #2
 391 0046 5AD1     		bne	.L21
 298:pervasive_eink_hardware_driver.c ****                           PV_EINK_DRIVER_ID_COMMAND_DATA)
 299:pervasive_eink_hardware_driver.c ****                           & PV_EINK_DRIVER_ID_MASK)
 300:pervasive_eink_hardware_driver.c ****                           != PV_EINK_DRIVER_ID_CHECK)
 301:pervasive_eink_hardware_driver.c ****     {
 302:pervasive_eink_hardware_driver.c ****         /* Return an error message if incorrect driver ID is received */
 303:pervasive_eink_hardware_driver.c ****         return(PV_EINK_ERROR_ID);
 304:pervasive_eink_hardware_driver.c ****     }
 305:pervasive_eink_hardware_driver.c ****     /* Disable OE */
 306:pervasive_eink_hardware_driver.c ****     Pv_EINK_SendByte(PV_EINK_DISABLE_OE_COMMAND_INDEX, 
 392              		.loc 1 306 0
 393 0048 4021     		movs	r1, #64
 394 004a FFF7FEFF 		bl	Pv_EINK_SendByte
 395              	.LVL50:
 307:pervasive_eink_hardware_driver.c ****                      PV_EINK_DISABLE_OE_COMMAND_DATA);
 308:pervasive_eink_hardware_driver.c ****     
 309:pervasive_eink_hardware_driver.c ****     /* Check Breakage */
 310:pervasive_eink_hardware_driver.c ****     if ((Pv_EINK_ReadByte(PV_EINK_TEST_BREAKAGE_COMMAND_INDEX,
 396              		.loc 1 310 0
 397 004e 0021     		movs	r1, #0
 398 0050 0F20     		movs	r0, #15
 399 0052 FFF7FEFF 		bl	Pv_EINK_ReadByte
 400              	.LVL51:
 401 0056 0306     		lsls	r3, r0, #24
 402 0058 53D5     		bpl	.L22
 311:pervasive_eink_hardware_driver.c ****                           PV_EINK_TEST_BREAKAGE_COMMAND_DATA) & 
 312:pervasive_eink_hardware_driver.c ****                           PV_EINK_TEST_BREAKAGE_MASK)
 313:pervasive_eink_hardware_driver.c ****                           != PV_EINK_TEST_BREAKAGE_CHECK)
 314:pervasive_eink_hardware_driver.c ****     {
 315:pervasive_eink_hardware_driver.c ****         /* Send the error message for breakage */
 316:pervasive_eink_hardware_driver.c ****         return(PV_EINK_ERROR_BREAKAGE);
 317:pervasive_eink_hardware_driver.c ****     }
 318:pervasive_eink_hardware_driver.c ****     /* Power Saving Mode */
 319:pervasive_eink_hardware_driver.c ****     Pv_EINK_SendByte(PV_EINK_PWR_SAVING_COMMAND_INDEX, 
ARM GAS  C:\Users\bryan.lee\AppData\Local\Temp\ccAkWdHW.s 			page 27


 403              		.loc 1 319 0
 404 005a 0221     		movs	r1, #2
 405 005c 0B20     		movs	r0, #11
 406 005e FFF7FEFF 		bl	Pv_EINK_SendByte
 407              	.LVL52:
 320:pervasive_eink_hardware_driver.c ****                   PV_EINK_PWR1_SAVING_COMMAND_DATA);
 321:pervasive_eink_hardware_driver.c ****     
 322:pervasive_eink_hardware_driver.c ****     /* Channel Select */
 323:pervasive_eink_hardware_driver.c ****     Pv_EINK_SendData(PV_EINK_CHANNEL_SEL_COMMAND_INDEX, 
 408              		.loc 1 323 0
 409 0062 0822     		movs	r2, #8
 410 0064 2A49     		ldr	r1, .L25+4
 411 0066 0120     		movs	r0, #1
 412 0068 FFF7FEFF 		bl	Pv_EINK_SendData
 413              	.LVL53:
 324:pervasive_eink_hardware_driver.c ****                     (uint8_t*) &channelSelect,
 325:pervasive_eink_hardware_driver.c ****                      PV_EINK_CHANNEL_SEL_SIZE);
 326:pervasive_eink_hardware_driver.c ****     
 327:pervasive_eink_hardware_driver.c ****     /* High Power Mode Oscillator Setting */
 328:pervasive_eink_hardware_driver.c ****     Pv_EINK_SendByte(PV_EINK_OSC_SETTING_COMMAND_INDEX, 
 414              		.loc 1 328 0
 415 006c D121     		movs	r1, #209
 416 006e 0720     		movs	r0, #7
 417 0070 FFF7FEFF 		bl	Pv_EINK_SendByte
 418              	.LVL54:
 329:pervasive_eink_hardware_driver.c ****                      PV_EINK_OSC_SETTING_COMMAND_DATA);
 330:pervasive_eink_hardware_driver.c ****     /* Power Setting */
 331:pervasive_eink_hardware_driver.c ****     Pv_EINK_SendByte(PV_EINK_PWR1_SETTING_COMMAND_INDEX,
 419              		.loc 1 331 0
 420 0074 0221     		movs	r1, #2
 421 0076 0820     		movs	r0, #8
 422 0078 FFF7FEFF 		bl	Pv_EINK_SendByte
 423              	.LVL55:
 332:pervasive_eink_hardware_driver.c ****                      PV_EINK_PWR1_SETTING_COMMAND_DATA);
 333:pervasive_eink_hardware_driver.c ****     /* Set Vcom level */
 334:pervasive_eink_hardware_driver.c ****     Pv_EINK_SendByte(PV_EINK_VCOM1_LEVEL_COMMAND_INDEX, 
 424              		.loc 1 334 0
 425 007c C221     		movs	r1, #194
 426 007e 0920     		movs	r0, #9
 427 0080 FFF7FEFF 		bl	Pv_EINK_SendByte
 428              	.LVL56:
 335:pervasive_eink_hardware_driver.c ****                      PV_EINK_VCOM1_LEVEL_COMMAND_DATA);
 336:pervasive_eink_hardware_driver.c ****     /* Power Setting */
 337:pervasive_eink_hardware_driver.c ****     Pv_EINK_SendByte(PV_EINK_PWR2_SETTING_COMMAND_INDEX,
 429              		.loc 1 337 0
 430 0084 0321     		movs	r1, #3
 431 0086 0420     		movs	r0, #4
 432 0088 FFF7FEFF 		bl	Pv_EINK_SendByte
 433              	.LVL57:
 338:pervasive_eink_hardware_driver.c ****                      PV_EINK_PWR2_SETTING_COMMAND_DATA);
 339:pervasive_eink_hardware_driver.c ****                   
 340:pervasive_eink_hardware_driver.c ****     /* Driver latch on */
 341:pervasive_eink_hardware_driver.c ****     Pv_EINK_SendByte(PV_EINK_LATCH_OFF_COMMAND_INDEX,
 434              		.loc 1 341 0
 435 008c 0121     		movs	r1, #1
 436 008e 0320     		movs	r0, #3
 437 0090 FFF7FEFF 		bl	Pv_EINK_SendByte
ARM GAS  C:\Users\bryan.lee\AppData\Local\Temp\ccAkWdHW.s 			page 28


 438              	.LVL58:
 342:pervasive_eink_hardware_driver.c ****                      PV_EINK_LATCH_ON_COMMAND_DATA);
 343:pervasive_eink_hardware_driver.c ****     /* Driver latch off */
 344:pervasive_eink_hardware_driver.c ****     Pv_EINK_SendByte(PV_EINK_LATCH_OFF_COMMAND_INDEX, 
 439              		.loc 1 344 0
 440 0094 0021     		movs	r1, #0
 441 0096 0320     		movs	r0, #3
 442 0098 FFF7FEFF 		bl	Pv_EINK_SendByte
 443              	.LVL59:
 345:pervasive_eink_hardware_driver.c ****                      PV_EINK_LATCH_OFF_COMMAND_DATA);
 346:pervasive_eink_hardware_driver.c ****     CY_EINK_Delay(PV_EINK_PIN_DELAY);
 444              		.loc 1 346 0
 445 009c 0A20     		movs	r0, #10
 446 009e FFF7FEFF 		bl	Cy_SysLib_Delay
 447              	.LVL60:
 269:pervasive_eink_hardware_driver.c ****     
 448              		.loc 1 269 0
 449 00a2 0024     		movs	r4, #0
 450 00a4 00E0     		b	.L19
 451              	.LVL61:
 452              	.L23:
 347:pervasive_eink_hardware_driver.c ****     
 348:pervasive_eink_hardware_driver.c ****     /* Start the charge pump */
 349:pervasive_eink_hardware_driver.c ****     do
 350:pervasive_eink_hardware_driver.c ****     {
 351:pervasive_eink_hardware_driver.c ****         /* Start charge pump positive voltage (VGH & VDH on) */
 352:pervasive_eink_hardware_driver.c ****         Pv_EINK_SendByte(PV_EINK_VGH_VDH_ON_COMMAND_INDEX,
 353:pervasive_eink_hardware_driver.c ****                       PV_EINK_VGH_VDH_ON_COMMAND_DATA);
 354:pervasive_eink_hardware_driver.c ****         CY_EINK_Delay(PV_EINK_POSITIVE_V_DELAY);
 355:pervasive_eink_hardware_driver.c ****         
 356:pervasive_eink_hardware_driver.c ****         /* Start charge pump negative voltage (VGL & VDL on) */
 357:pervasive_eink_hardware_driver.c ****         Pv_EINK_SendByte(PV_EINK_VGH_VDH_ON_COMMAND_INDEX,
 358:pervasive_eink_hardware_driver.c ****                       PV_EINK_VGL_VDL_ON_COMMAND_DATA);
 359:pervasive_eink_hardware_driver.c ****         CY_EINK_Delay(PV_EINK_PWR_CTRL_DELAY);
 360:pervasive_eink_hardware_driver.c ****         
 361:pervasive_eink_hardware_driver.c ****         /* Set charge pump (Vcom_Driver on) */
 362:pervasive_eink_hardware_driver.c ****         Pv_EINK_SendByte(PV_EINK_VCOM_DRIVE_ON_COMMAND_INDEX,
 363:pervasive_eink_hardware_driver.c ****                       PV_EINK_VCOM_DRIVE_ON_COMMAND_DATA);
 364:pervasive_eink_hardware_driver.c ****         CY_EINK_Delay(PV_EINK_PWR_CTRL_DELAY);
 365:pervasive_eink_hardware_driver.c ****         
 366:pervasive_eink_hardware_driver.c ****         /* Check DC level */
 367:pervasive_eink_hardware_driver.c ****         if ((Pv_EINK_ReadByte(PV_EINK_DC_LEVEL_READ_COMMAND_INDEX,
 368:pervasive_eink_hardware_driver.c ****                            PV_EINK_DC_LEVEL_READ_COMMAND_DATA) & 
 369:pervasive_eink_hardware_driver.c ****                            PV_EINK_DC_LEVEL_MASK)
 370:pervasive_eink_hardware_driver.c ****                            != PV_EINK_DC_LEVEL_CHECK)
 371:pervasive_eink_hardware_driver.c ****         {
 372:pervasive_eink_hardware_driver.c ****             /* Disable OLE */
 373:pervasive_eink_hardware_driver.c ****             Pv_EINK_SendByte(PV_EINK_DISABLE_OE_COMMAND_INDEX,
 374:pervasive_eink_hardware_driver.c ****                           PV_EINK_DISABLE_OE_COMMAND_DATA);
 375:pervasive_eink_hardware_driver.c ****             break;
 376:pervasive_eink_hardware_driver.c ****         }
 377:pervasive_eink_hardware_driver.c ****     }
 378:pervasive_eink_hardware_driver.c ****     /* Perform this operation for required charge pump write cycles */
 379:pervasive_eink_hardware_driver.c ****     while ((loopCounter++) != PV_EINK_CHARGE_PUMP_MAX_WRITE);
 453              		.loc 1 379 0
 454 00a6 1C00     		movs	r4, r3
 455              	.LVL62:
ARM GAS  C:\Users\bryan.lee\AppData\Local\Temp\ccAkWdHW.s 			page 29


 456              	.L19:
 352:pervasive_eink_hardware_driver.c ****                       PV_EINK_VGH_VDH_ON_COMMAND_DATA);
 457              		.loc 1 352 0
 458 00a8 0121     		movs	r1, #1
 459 00aa 0520     		movs	r0, #5
 460 00ac FFF7FEFF 		bl	Pv_EINK_SendByte
 461              	.LVL63:
 354:pervasive_eink_hardware_driver.c ****         
 462              		.loc 1 354 0
 463 00b0 6420     		movs	r0, #100
 464 00b2 FFF7FEFF 		bl	Cy_SysLib_Delay
 465              	.LVL64:
 357:pervasive_eink_hardware_driver.c ****                       PV_EINK_VGL_VDL_ON_COMMAND_DATA);
 466              		.loc 1 357 0
 467 00b6 0321     		movs	r1, #3
 468 00b8 0520     		movs	r0, #5
 469 00ba FFF7FEFF 		bl	Pv_EINK_SendByte
 470              	.LVL65:
 359:pervasive_eink_hardware_driver.c ****         
 471              		.loc 1 359 0
 472 00be 3220     		movs	r0, #50
 473 00c0 FFF7FEFF 		bl	Cy_SysLib_Delay
 474              	.LVL66:
 362:pervasive_eink_hardware_driver.c ****                       PV_EINK_VCOM_DRIVE_ON_COMMAND_DATA);
 475              		.loc 1 362 0
 476 00c4 0F21     		movs	r1, #15
 477 00c6 0520     		movs	r0, #5
 478 00c8 FFF7FEFF 		bl	Pv_EINK_SendByte
 479              	.LVL67:
 364:pervasive_eink_hardware_driver.c ****         
 480              		.loc 1 364 0
 481 00cc 3220     		movs	r0, #50
 482 00ce FFF7FEFF 		bl	Cy_SysLib_Delay
 483              	.LVL68:
 367:pervasive_eink_hardware_driver.c ****                            PV_EINK_DC_LEVEL_READ_COMMAND_DATA) & 
 484              		.loc 1 367 0
 485 00d2 0021     		movs	r1, #0
 486 00d4 0F20     		movs	r0, #15
 487 00d6 FFF7FEFF 		bl	Pv_EINK_ReadByte
 488              	.LVL69:
 489 00da 4306     		lsls	r3, r0, #25
 490 00dc 05D5     		bpl	.L17
 373:pervasive_eink_hardware_driver.c ****                           PV_EINK_DISABLE_OE_COMMAND_DATA);
 491              		.loc 1 373 0
 492 00de 4021     		movs	r1, #64
 493 00e0 0220     		movs	r0, #2
 494 00e2 FFF7FEFF 		bl	Pv_EINK_SendByte
 495              	.LVL70:
 375:pervasive_eink_hardware_driver.c ****         }
 496              		.loc 1 375 0
 497 00e6 2300     		movs	r3, r4
 498 00e8 03E0     		b	.L18
 499              	.L17:
 500              		.loc 1 379 0
 501 00ea 631C     		adds	r3, r4, #1
 502 00ec 9BB2     		uxth	r3, r3
 503              	.LVL71:
ARM GAS  C:\Users\bryan.lee\AppData\Local\Temp\ccAkWdHW.s 			page 30


 504 00ee 042C     		cmp	r4, #4
 505 00f0 D9D1     		bne	.L23
 506              	.LVL72:
 507              	.L18:
 380:pervasive_eink_hardware_driver.c ****     
 381:pervasive_eink_hardware_driver.c ****     /* If the operation not completed within the required write cycles, send an 
 382:pervasive_eink_hardware_driver.c ****        error message */
 383:pervasive_eink_hardware_driver.c ****     if (loopCounter >= PV_EINK_CHARGE_PUMP_MAX_WRITE)
 508              		.loc 1 383 0
 509 00f2 032B     		cmp	r3, #3
 510 00f4 07D9     		bls	.L24
 384:pervasive_eink_hardware_driver.c ****     {
 385:pervasive_eink_hardware_driver.c ****         CY_EINK_Wait10uS;
 386:pervasive_eink_hardware_driver.c ****         return(PV_EINK_ERROR_CHARGEPUMP);
 511              		.loc 1 386 0
 512 00f6 0520     		movs	r0, #5
 513 00f8 06E0     		b	.L15
 514              	.LVL73:
 515              	.L20:
 289:pervasive_eink_hardware_driver.c ****         }
 516              		.loc 1 289 0
 517 00fa 0120     		movs	r0, #1
 518 00fc 04E0     		b	.L15
 519              	.L21:
 303:pervasive_eink_hardware_driver.c ****     }
 520              		.loc 1 303 0
 521 00fe 0220     		movs	r0, #2
 522 0100 02E0     		b	.L15
 523              	.L22:
 316:pervasive_eink_hardware_driver.c ****     }
 524              		.loc 1 316 0
 525 0102 0320     		movs	r0, #3
 526 0104 00E0     		b	.L15
 527              	.LVL74:
 528              	.L24:
 387:pervasive_eink_hardware_driver.c ****     }
 388:pervasive_eink_hardware_driver.c ****     /* If all operations completed successfully, send the corresponding status 
 389:pervasive_eink_hardware_driver.c ****        message */
 390:pervasive_eink_hardware_driver.c ****     return(PV_EINK_RES_OK);
 529              		.loc 1 390 0
 530 0106 0020     		movs	r0, #0
 531              	.LVL75:
 532              	.L15:
 391:pervasive_eink_hardware_driver.c **** }
 533              		.loc 1 391 0
 534              		@ sp needed
 535 0108 10BD     		pop	{r4, pc}
 536              	.L26:
 537 010a C046     		.align	2
 538              	.L25:
 539 010c 00000000 		.word	.LANCHOR0
 540 0110 00000000 		.word	.LANCHOR1
 541              		.cfi_endproc
 542              	.LFE457:
 543              		.size	Pv_EINK_InitDriver, .-Pv_EINK_InitDriver
 544              		.section	.text.Pv_EINK_SetTempFactor,"ax",%progbits
 545              		.align	2
ARM GAS  C:\Users\bryan.lee\AppData\Local\Temp\ccAkWdHW.s 			page 31


 546              		.global	Pv_EINK_SetTempFactor
 547              		.code	16
 548              		.thumb_func
 549              		.type	Pv_EINK_SetTempFactor, %function
 550              	Pv_EINK_SetTempFactor:
 551              	.LFB458:
 392:pervasive_eink_hardware_driver.c **** 
 393:pervasive_eink_hardware_driver.c **** /*******************************************************************************
 394:pervasive_eink_hardware_driver.c **** * Function Name: void Pv_EINK_SetTempFactor(int8_t temperature)
 395:pervasive_eink_hardware_driver.c **** ********************************************************************************
 396:pervasive_eink_hardware_driver.c **** *
 397:pervasive_eink_hardware_driver.c **** * Summary: Set the E-INK update times per the ambient temperature. For detailed
 398:pervasive_eink_hardware_driver.c **** * flow and description, please refer to the driver G2 document Section 5.4.
 399:pervasive_eink_hardware_driver.c **** *
 400:pervasive_eink_hardware_driver.c **** * Parameters:
 401:pervasive_eink_hardware_driver.c **** * int8_t temperature: Ambient temperature in degree Celsius
 402:pervasive_eink_hardware_driver.c **** *
 403:pervasive_eink_hardware_driver.c **** * Return:
 404:pervasive_eink_hardware_driver.c **** *  None
 405:pervasive_eink_hardware_driver.c **** *
 406:pervasive_eink_hardware_driver.c **** * Side Effects:
 407:pervasive_eink_hardware_driver.c **** *  None
 408:pervasive_eink_hardware_driver.c **** *******************************************************************************/
 409:pervasive_eink_hardware_driver.c **** void Pv_EINK_SetTempFactor(int8_t temperature)
 410:pervasive_eink_hardware_driver.c **** {
 552              		.loc 1 410 0
 553              		.cfi_startproc
 554              		@ args = 0, pretend = 0, frame = 0
 555              		@ frame_needed = 0, uses_anonymous_args = 0
 556              		@ link register save eliminated.
 557              	.LVL76:
 411:pervasive_eink_hardware_driver.c ****     /* Variable used to store the update time */
 412:pervasive_eink_hardware_driver.c ****     uint16_t    updateTime;
 413:pervasive_eink_hardware_driver.c ****     /* Set the update time per the temperature table */
 414:pervasive_eink_hardware_driver.c ****     if (PV_EINK_TEMP_DEG_M10 >= temperature)
 558              		.loc 1 414 0
 559 0000 0300     		movs	r3, r0
 560 0002 0933     		adds	r3, r3, #9
 561 0004 0DDB     		blt	.L29
 415:pervasive_eink_hardware_driver.c ****     {
 416:pervasive_eink_hardware_driver.c ****         updateTime = PV_EINK_TEMP_SEL0;
 417:pervasive_eink_hardware_driver.c ****     }
 418:pervasive_eink_hardware_driver.c ****     else if (PV_EINK_TEMP_DEG_M5 >= temperature)
 562              		.loc 1 418 0
 563 0006 031D     		adds	r3, r0, #4
 564 0008 0EDB     		blt	.L30
 419:pervasive_eink_hardware_driver.c ****     {
 420:pervasive_eink_hardware_driver.c ****         updateTime = PV_EINK_TEMP_SEL1;
 421:pervasive_eink_hardware_driver.c ****     }
 422:pervasive_eink_hardware_driver.c ****     else if (PV_EINK_TEMP_DEG_5 >= temperature)
 565              		.loc 1 422 0
 566 000a 0528     		cmp	r0, #5
 567 000c 0FDD     		ble	.L31
 423:pervasive_eink_hardware_driver.c ****     {
 424:pervasive_eink_hardware_driver.c ****         updateTime = PV_EINK_TEMP_SEL2;
 425:pervasive_eink_hardware_driver.c ****     }
 426:pervasive_eink_hardware_driver.c ****     else if (PV_EINK_TEMP_DEG_10 >= temperature)
ARM GAS  C:\Users\bryan.lee\AppData\Local\Temp\ccAkWdHW.s 			page 32


 568              		.loc 1 426 0
 569 000e 0A28     		cmp	r0, #10
 570 0010 10DD     		ble	.L32
 427:pervasive_eink_hardware_driver.c ****     {
 428:pervasive_eink_hardware_driver.c ****         updateTime = PV_EINK_TEMP_SEL3;
 429:pervasive_eink_hardware_driver.c ****     }
 430:pervasive_eink_hardware_driver.c ****     else if (PV_EINK_TEMP_DEG_15 >= temperature)
 571              		.loc 1 430 0
 572 0012 0F28     		cmp	r0, #15
 573 0014 11DD     		ble	.L33
 431:pervasive_eink_hardware_driver.c ****     {
 432:pervasive_eink_hardware_driver.c ****         updateTime = PV_EINK_TEMP_SEL4;
 433:pervasive_eink_hardware_driver.c ****     }
 434:pervasive_eink_hardware_driver.c ****     else if (PV_EINK_TEMP_DEG_20 >= temperature)
 574              		.loc 1 434 0
 575 0016 1428     		cmp	r0, #20
 576 0018 11DD     		ble	.L34
 435:pervasive_eink_hardware_driver.c ****     {
 436:pervasive_eink_hardware_driver.c ****         updateTime = PV_EINK_TEMP_SEL5;
 437:pervasive_eink_hardware_driver.c ****     }
 438:pervasive_eink_hardware_driver.c ****     else if (PV_EINK_TEMP_DEG_40 >= temperature)
 577              		.loc 1 438 0
 578 001a 2828     		cmp	r0, #40
 579 001c 11DC     		bgt	.L35
 439:pervasive_eink_hardware_driver.c ****     {
 440:pervasive_eink_hardware_driver.c ****         updateTime = PV_EINK_TEMP_SEL6;
 580              		.loc 1 440 0
 581 001e 5A22     		movs	r2, #90
 582 0020 10E0     		b	.L28
 583              	.L29:
 416:pervasive_eink_hardware_driver.c ****     }
 584              		.loc 1 416 0
 585 0022 9622     		movs	r2, #150
 586 0024 D200     		lsls	r2, r2, #3
 587 0026 0DE0     		b	.L28
 588              	.L30:
 420:pervasive_eink_hardware_driver.c ****     }
 589              		.loc 1 420 0
 590 0028 E122     		movs	r2, #225
 591 002a 9200     		lsls	r2, r2, #2
 592 002c 0AE0     		b	.L28
 593              	.L31:
 424:pervasive_eink_hardware_driver.c ****     }
 594              		.loc 1 424 0
 595 002e 9622     		movs	r2, #150
 596 0030 9200     		lsls	r2, r2, #2
 597 0032 07E0     		b	.L28
 598              	.L32:
 428:pervasive_eink_hardware_driver.c ****     }
 599              		.loc 1 428 0
 600 0034 A522     		movs	r2, #165
 601 0036 5200     		lsls	r2, r2, #1
 602 0038 04E0     		b	.L28
 603              	.L33:
 432:pervasive_eink_hardware_driver.c ****     }
 604              		.loc 1 432 0
 605 003a DC22     		movs	r2, #220
ARM GAS  C:\Users\bryan.lee\AppData\Local\Temp\ccAkWdHW.s 			page 33


 606 003c 02E0     		b	.L28
 607              	.L34:
 436:pervasive_eink_hardware_driver.c ****     }
 608              		.loc 1 436 0
 609 003e B422     		movs	r2, #180
 610 0040 00E0     		b	.L28
 611              	.L35:
 441:pervasive_eink_hardware_driver.c ****     }
 442:pervasive_eink_hardware_driver.c ****     else
 443:pervasive_eink_hardware_driver.c ****     {
 444:pervasive_eink_hardware_driver.c ****         updateTime = PV_EINK_TEMP_SEL7;
 612              		.loc 1 444 0
 613 0042 3C22     		movs	r2, #60
 614              	.L28:
 615              	.LVL77:
 445:pervasive_eink_hardware_driver.c ****     }
 446:pervasive_eink_hardware_driver.c ****     /* Scale the update times : this is a speed-contrast trade-off */
 447:pervasive_eink_hardware_driver.c ****     fullUpdateTime = updateTime * PV_EINK_SCALING_FULL;
 616              		.loc 1 447 0
 617 0044 024B     		ldr	r3, .L36
 618 0046 7C21     		movs	r1, #124
 619 0048 5A52     		strh	r2, [r3, r1]
 448:pervasive_eink_hardware_driver.c ****     partialUpdateTime = updateTime * PV_EINK_SCALING_PARTIAL;
 620              		.loc 1 448 0
 621 004a 0231     		adds	r1, r1, #2
 622 004c 5A52     		strh	r2, [r3, r1]
 449:pervasive_eink_hardware_driver.c **** }
 623              		.loc 1 449 0
 624              		@ sp needed
 625 004e 7047     		bx	lr
 626              	.L37:
 627              		.align	2
 628              	.L36:
 629 0050 00000000 		.word	.LANCHOR0
 630              		.cfi_endproc
 631              	.LFE458:
 632              		.size	Pv_EINK_SetTempFactor, .-Pv_EINK_SetTempFactor
 633              		.section	.text.Pv_EINK_FullStageHandler,"ax",%progbits
 634              		.align	2
 635              		.global	Pv_EINK_FullStageHandler
 636              		.code	16
 637              		.thumb_func
 638              		.type	Pv_EINK_FullStageHandler, %function
 639              	Pv_EINK_FullStageHandler:
 640              	.LFB459:
 450:pervasive_eink_hardware_driver.c **** 
 451:pervasive_eink_hardware_driver.c **** /*******************************************************************************
 452:pervasive_eink_hardware_driver.c **** * Function Name: void Pv_EINK_FullStageHandler(pv_eink_frame_data_t* imagePtr,
 453:pervasive_eink_hardware_driver.c **** *                                              pv_eink_stage_t stageNumber)
 454:pervasive_eink_hardware_driver.c **** ********************************************************************************
 455:pervasive_eink_hardware_driver.c **** *
 456:pervasive_eink_hardware_driver.c **** * Summary: The full update driving stages for getting Odd and Even bytes, and
 457:pervasive_eink_hardware_driver.c **** * then writing the data from memory array to E-INK driver.
 458:pervasive_eink_hardware_driver.c **** *
 459:pervasive_eink_hardware_driver.c **** * One dot/pixel is comprised of 2 bits that can be White(10), Black(11) or 
 460:pervasive_eink_hardware_driver.c **** * Nothing * (01 or 00). The image data bytes must be divided into Odd and Even 
 461:pervasive_eink_hardware_driver.c **** * bytes.
ARM GAS  C:\Users\bryan.lee\AppData\Local\Temp\ccAkWdHW.s 			page 34


 462:pervasive_eink_hardware_driver.c **** * Line data flow is first half of data bytes -> scan bytes -> second half of data
 463:pervasive_eink_hardware_driver.c **** * bytes. For more details on the driving stages, please refer to the driver G2
 464:pervasive_eink_hardware_driver.c **** * document Section 5.
 465:pervasive_eink_hardware_driver.c **** *
 466:pervasive_eink_hardware_driver.c **** * Parameters:
 467:pervasive_eink_hardware_driver.c **** * pv_eink_frame_data_t* imagePtr    : The pointer to the memory that contains a
 468:pervasive_eink_hardware_driver.c **** *                                     frame
 469:pervasive_eink_hardware_driver.c **** * pv_eink_stage_t stageNumber       : The assigned stage number
 470:pervasive_eink_hardware_driver.c **** *
 471:pervasive_eink_hardware_driver.c **** * Return:
 472:pervasive_eink_hardware_driver.c **** *  None
 473:pervasive_eink_hardware_driver.c **** *
 474:pervasive_eink_hardware_driver.c **** * Side Effects:
 475:pervasive_eink_hardware_driver.c **** *  This is a blocking function. CPU will be busy during the entire operation,
 476:pervasive_eink_hardware_driver.c **** * which can be 1 to 2 seconds.
 477:pervasive_eink_hardware_driver.c **** *******************************************************************************/
 478:pervasive_eink_hardware_driver.c **** void Pv_EINK_FullStageHandler(pv_eink_frame_data_t* imagePtr, 
 479:pervasive_eink_hardware_driver.c ****                               pv_eink_stage_t stageNumber)
 480:pervasive_eink_hardware_driver.c **** {
 641              		.loc 1 480 0
 642              		.cfi_startproc
 643              		@ args = 0, pretend = 0, frame = 8
 644              		@ frame_needed = 0, uses_anonymous_args = 0
 645              	.LVL78:
 646 0000 F0B5     		push	{r4, r5, r6, r7, lr}
 647              		.cfi_def_cfa_offset 20
 648              		.cfi_offset 4, -20
 649              		.cfi_offset 5, -16
 650              		.cfi_offset 6, -12
 651              		.cfi_offset 7, -8
 652              		.cfi_offset 14, -4
 653 0002 5F46     		mov	r7, fp
 654 0004 5646     		mov	r6, r10
 655 0006 4D46     		mov	r5, r9
 656 0008 4446     		mov	r4, r8
 657 000a F0B4     		push	{r4, r5, r6, r7}
 658              		.cfi_def_cfa_offset 36
 659              		.cfi_offset 8, -36
 660              		.cfi_offset 9, -32
 661              		.cfi_offset 10, -28
 662              		.cfi_offset 11, -24
 663 000c 83B0     		sub	sp, sp, #12
 664              		.cfi_def_cfa_offset 48
 665 000e 0600     		movs	r6, r0
 666 0010 0D00     		movs	r5, r1
 667              	.LVL79:
 481:pervasive_eink_hardware_driver.c ****     /* Counter variable for the horizontal pixel loop */
 482:pervasive_eink_hardware_driver.c ****     uint16_t    x;
 483:pervasive_eink_hardware_driver.c ****     /* Counter variable for the vertical pixel loop */
 484:pervasive_eink_hardware_driver.c ****     uint16_t    y;
 485:pervasive_eink_hardware_driver.c ****     /* Counter variable for the horizontal byte loop */
 486:pervasive_eink_hardware_driver.c ****     uint16_t    k;
 487:pervasive_eink_hardware_driver.c ****       
 488:pervasive_eink_hardware_driver.c ****     /* Variable for storing the line number under scan */
 489:pervasive_eink_hardware_driver.c ****     int16       scanlineNumber = 0;
 490:pervasive_eink_hardware_driver.c ****     
 491:pervasive_eink_hardware_driver.c ****     /* Temporary storage for image data byte */
ARM GAS  C:\Users\bryan.lee\AppData\Local\Temp\ccAkWdHW.s 			page 35


 492:pervasive_eink_hardware_driver.c ****     uint8_t     tempByte = *imagePtr;
 668              		.loc 1 492 0
 669 0012 0478     		ldrb	r4, [r0]
 670              	.LVL80:
 493:pervasive_eink_hardware_driver.c ****     
 494:pervasive_eink_hardware_driver.c ****     /* Flag to check if the current pointer is a macro of white/black frame */
 495:pervasive_eink_hardware_driver.c ****     bool        blackOrWhiteFrame;
 496:pervasive_eink_hardware_driver.c ****     
 497:pervasive_eink_hardware_driver.c ****     /* If the current pointer is a macro of the white frame */
 498:pervasive_eink_hardware_driver.c ****     if (imagePtr == PV_EINK_WHITE_FRAME_ADDRESS)
 671              		.loc 1 498 0
 672 0014 0028     		cmp	r0, #0
 673 0016 05D0     		beq	.L85
 499:pervasive_eink_hardware_driver.c ****     {
 500:pervasive_eink_hardware_driver.c ****         /* Set the white/black frame flag */
 501:pervasive_eink_hardware_driver.c ****         blackOrWhiteFrame = true;
 502:pervasive_eink_hardware_driver.c ****         /* Set the tempByte to white pixel byte */
 503:pervasive_eink_hardware_driver.c ****         tempByte = PV_EINK_WHITE_PIXEL_BYTE;
 504:pervasive_eink_hardware_driver.c ****         
 505:pervasive_eink_hardware_driver.c ****     }
 506:pervasive_eink_hardware_driver.c ****     /* If the current pointer is a macro of the black frame */
 507:pervasive_eink_hardware_driver.c ****     else if (imagePtr == PV_EINK_BLACK_FRAME_ADDRESS)
 674              		.loc 1 507 0
 675 0018 C84B     		ldr	r3, .L119
 676 001a 9842     		cmp	r0, r3
 677 001c 05D1     		bne	.L86
 508:pervasive_eink_hardware_driver.c ****     {
 509:pervasive_eink_hardware_driver.c ****          /* Set the white/black frame flag */
 510:pervasive_eink_hardware_driver.c ****         blackOrWhiteFrame = true;
 678              		.loc 1 510 0
 679 001e 0127     		movs	r7, #1
 511:pervasive_eink_hardware_driver.c ****         /* set the tempByte to black pixel byte */
 512:pervasive_eink_hardware_driver.c ****         tempByte = PV_EINK_BLACK_PIXEL_BYTE;
 680              		.loc 1 512 0
 681 0020 0024     		movs	r4, #0
 682              	.LVL81:
 683 0022 03E0     		b	.L39
 684              	.LVL82:
 685              	.L85:
 501:pervasive_eink_hardware_driver.c ****         /* Set the tempByte to white pixel byte */
 686              		.loc 1 501 0
 687 0024 0127     		movs	r7, #1
 503:pervasive_eink_hardware_driver.c ****         
 688              		.loc 1 503 0
 689 0026 FF24     		movs	r4, #255
 690              	.LVL83:
 691 0028 00E0     		b	.L39
 692              	.LVL84:
 693              	.L86:
 513:pervasive_eink_hardware_driver.c ****     }
 514:pervasive_eink_hardware_driver.c ****     /* If the current pointer is of an image stored in flash */
 515:pervasive_eink_hardware_driver.c ****     else
 516:pervasive_eink_hardware_driver.c ****     {
 517:pervasive_eink_hardware_driver.c ****         /* Clear the white/black frame flag */
 518:pervasive_eink_hardware_driver.c ****         blackOrWhiteFrame = false;
 694              		.loc 1 518 0
 695 002a 0027     		movs	r7, #0
ARM GAS  C:\Users\bryan.lee\AppData\Local\Temp\ccAkWdHW.s 			page 36


 696              	.LVL85:
 697              	.L39:
 519:pervasive_eink_hardware_driver.c ****     }
 520:pervasive_eink_hardware_driver.c **** 
 521:pervasive_eink_hardware_driver.c ****     /* Re-initialize E-INK timer to ensure the same duration of each stage */
 522:pervasive_eink_hardware_driver.c ****     Cy_EINK_TimerInit();
 698              		.loc 1 522 0
 699 002c FFF7FEFF 		bl	Cy_EINK_TimerInit
 700              	.LVL86:
 523:pervasive_eink_hardware_driver.c **** 
 524:pervasive_eink_hardware_driver.c ****     /* Vertical pixel loop */
 525:pervasive_eink_hardware_driver.c ****     for (y = 0; y < PV_EINK_VERTICAL_SIZE; y++)
 701              		.loc 1 525 0
 702 0030 0023     		movs	r3, #0
 703 0032 9846     		mov	r8, r3
 704 0034 DCE1     		b	.L40
 705              	.LVL87:
 706              	.L81:
 526:pervasive_eink_hardware_driver.c ****     {
 527:pervasive_eink_hardware_driver.c ****         /* Clear the line buffer with all zeros */
 528:pervasive_eink_hardware_driver.c ****         memset(&bulkDriverPacket[y].lineBuffer, 0, 
 707              		.loc 1 528 0
 708 0036 4346     		mov	r3, r8
 709 0038 DB00     		lsls	r3, r3, #3
 710 003a 4246     		mov	r2, r8
 711 003c 9B1A     		subs	r3, r3, r2
 712 003e 1B01     		lsls	r3, r3, #4
 713 0040 9B1A     		subs	r3, r3, r2
 714 0042 9946     		mov	r9, r3
 715 0044 BE4B     		ldr	r3, .L119+4
 716 0046 9A46     		mov	r10, r3
 717 0048 CB46     		mov	fp, r9
 718 004a D344     		add	fp, fp, r10
 719 004c 6F22     		movs	r2, #111
 720 004e 0021     		movs	r1, #0
 721 0050 5846     		mov	r0, fp
 722 0052 FFF7FEFF 		bl	memset
 723              	.LVL88:
 529:pervasive_eink_hardware_driver.c ****                sizeof(bulkDriverPacket[y].lineBuffer)) ;
 530:pervasive_eink_hardware_driver.c **** 
 531:pervasive_eink_hardware_driver.c ****         /* Initialize the even data, odd data and scan data pointers */
 532:pervasive_eink_hardware_driver.c ****         dataLineEven = &bulkDriverPacket[y].lineDataBySize.even[0];
 724              		.loc 1 532 0
 725 0056 0123     		movs	r3, #1
 726 0058 5B44     		add	r3, r3, fp
 727 005a 9C46     		mov	ip, r3
 728 005c B94A     		ldr	r2, .L119+8
 729 005e 1367     		str	r3, [r2, #112]
 533:pervasive_eink_hardware_driver.c ****         dataLineOdd  = &bulkDriverPacket[y].lineDataBySize.odd[0];
 730              		.loc 1 533 0
 731 0060 4846     		mov	r0, r9
 732 0062 4830     		adds	r0, r0, #72
 733 0064 5044     		add	r0, r0, r10
 734 0066 831D     		adds	r3, r0, #6
 735 0068 0193     		str	r3, [sp, #4]
 736 006a 5367     		str	r3, [r2, #116]
 534:pervasive_eink_hardware_driver.c ****         dataLineScan = &bulkDriverPacket[y].lineDataBySize.scan[0];
ARM GAS  C:\Users\bryan.lee\AppData\Local\Temp\ccAkWdHW.s 			page 37


 737              		.loc 1 534 0
 738 006c 4B46     		mov	r3, r9
 739 006e 2033     		adds	r3, r3, #32
 740 0070 5344     		add	r3, r3, r10
 741 0072 0233     		adds	r3, r3, #2
 742 0074 9A46     		mov	r10, r3
 743 0076 9367     		str	r3, [r2, #120]
 744              	.LVL89:
 535:pervasive_eink_hardware_driver.c ****         
 536:pervasive_eink_hardware_driver.c ****         /* Horizontal bytes initialization */
 537:pervasive_eink_hardware_driver.c ****         k = PV_EINK_HORIZONTAL_SIZE;
 538:pervasive_eink_hardware_driver.c ****         k--;
 745              		.loc 1 538 0
 746 0078 2022     		movs	r2, #32
 539:pervasive_eink_hardware_driver.c ****         
 540:pervasive_eink_hardware_driver.c ****         /* Horizontal pixel loop */
 541:pervasive_eink_hardware_driver.c ****         for (x = 0; x < PV_EINK_HORIZONTAL_SIZE; x++)
 747              		.loc 1 541 0
 748 007a 0023     		movs	r3, #0
 749 007c A0E1     		b	.L41
 750              	.LVL90:
 751              	.L80:
 542:pervasive_eink_hardware_driver.c ****         {
 543:pervasive_eink_hardware_driver.c ****             /* If the current pointer is of an image stored in flash */
 544:pervasive_eink_hardware_driver.c ****             if(!blackOrWhiteFrame)
 752              		.loc 1 544 0
 753 007e 002F     		cmp	r7, #0
 754 0080 01D1     		bne	.L42
 755              	.LVL91:
 545:pervasive_eink_hardware_driver.c ****             {
 546:pervasive_eink_hardware_driver.c ****                 /* Fetch successive data bytes */
 547:pervasive_eink_hardware_driver.c ****                 tempByte = *imagePtr++;
 756              		.loc 1 547 0
 757 0082 3478     		ldrb	r4, [r6]
 758              	.LVL92:
 759 0084 0136     		adds	r6, r6, #1
 760              	.LVL93:
 761              	.L42:
 548:pervasive_eink_hardware_driver.c ****             }
 549:pervasive_eink_hardware_driver.c ****             /* Perform one of the four stage operations */
 550:pervasive_eink_hardware_driver.c ****             switch (stageNumber)
 762              		.loc 1 550 0
 763 0086 012D     		cmp	r5, #1
 764 0088 6BD0     		beq	.L44
 765 008a 002D     		cmp	r5, #0
 766 008c 06D0     		beq	.L45
 767 008e 022D     		cmp	r5, #2
 768 0090 00D1     		bne	.LCB763
 769 0092 C8E0     		b	.L46	@long jump
 770              	.LCB763:
 771 0094 032D     		cmp	r5, #3
 772 0096 00D1     		bne	.LCB765
 773 0098 27E1     		b	.L47	@long jump
 774              	.LCB765:
 775 009a 8FE1     		b	.L43
 776              	.L45:
 551:pervasive_eink_hardware_driver.c ****             {
ARM GAS  C:\Users\bryan.lee\AppData\Local\Temp\ccAkWdHW.s 			page 38


 552:pervasive_eink_hardware_driver.c ****             /* Stage 1: Calculate the inverted Even and Odd bytes of 
 553:pervasive_eink_hardware_driver.c ****                the previous image data */
 554:pervasive_eink_hardware_driver.c ****             case PV_EINK_STAGE1:
 555:pervasive_eink_hardware_driver.c ****                 dataLineOdd[x]       = ((tempByte & PV_EINK_ODD_MASK_A)  ? 
 777              		.loc 1 555 0
 778 009c 0199     		ldr	r1, [sp, #4]
 779 009e C918     		adds	r1, r1, r3
 780 00a0 8946     		mov	r9, r1
 781 00a2 6106     		lsls	r1, r4, #25
 782 00a4 01D5     		bpl	.L87
 783 00a6 C021     		movs	r1, #192
 784 00a8 00E0     		b	.L48
 785              	.L87:
 786 00aa 8021     		movs	r1, #128
 787              	.L48:
 788              		.loc 1 555 0 is_stmt 0 discriminator 4
 789 00ac 4846     		mov	r0, r9
 790 00ae 0170     		strb	r1, [r0]
 556:pervasive_eink_hardware_driver.c ****                                         PV_EINK_BLACK3 : PV_EINK_WHITE3);
 557:pervasive_eink_hardware_driver.c ****                 dataLineOdd[x]      |= ((tempByte & PV_EINK_ODD_MASK_B)  ? 
 791              		.loc 1 557 0 is_stmt 1 discriminator 4
 792 00b0 49B2     		sxtb	r1, r1
 793 00b2 E006     		lsls	r0, r4, #27
 794 00b4 02D5     		bpl	.L88
 795              		.loc 1 557 0 is_stmt 0
 796 00b6 3020     		movs	r0, #48
 797 00b8 8346     		mov	fp, r0
 798 00ba 01E0     		b	.L49
 799              	.L88:
 800 00bc 2020     		movs	r0, #32
 801 00be 8346     		mov	fp, r0
 802              	.L49:
 803              		.loc 1 557 0 discriminator 4
 804 00c0 5846     		mov	r0, fp
 805 00c2 0843     		orrs	r0, r1
 806 00c4 0100     		movs	r1, r0
 807 00c6 4846     		mov	r0, r9
 808 00c8 0170     		strb	r1, [r0]
 558:pervasive_eink_hardware_driver.c ****                                         PV_EINK_BLACK2 : PV_EINK_WHITE2);
 559:pervasive_eink_hardware_driver.c ****                 dataLineOdd[x]      |= ((tempByte & PV_EINK_ODD_MASK_C)  ? 
 809              		.loc 1 559 0 is_stmt 1 discriminator 4
 810 00ca 6007     		lsls	r0, r4, #29
 811 00cc 02D5     		bpl	.L89
 812              		.loc 1 559 0 is_stmt 0
 813 00ce 0C20     		movs	r0, #12
 814 00d0 8346     		mov	fp, r0
 815 00d2 01E0     		b	.L50
 816              	.L89:
 817 00d4 0820     		movs	r0, #8
 818 00d6 8346     		mov	fp, r0
 819              	.L50:
 820              		.loc 1 559 0 discriminator 4
 821 00d8 5846     		mov	r0, fp
 822 00da 0843     		orrs	r0, r1
 823 00dc 0100     		movs	r1, r0
 824 00de 4846     		mov	r0, r9
 825 00e0 0170     		strb	r1, [r0]
ARM GAS  C:\Users\bryan.lee\AppData\Local\Temp\ccAkWdHW.s 			page 39


 560:pervasive_eink_hardware_driver.c ****                                         PV_EINK_BLACK1 : PV_EINK_WHITE1);
 561:pervasive_eink_hardware_driver.c ****                 dataLineOdd[x]      |= ((tempByte & PV_EINK_ODD_MASK_D)  ? 
 826              		.loc 1 561 0 is_stmt 1 discriminator 4
 827 00e2 E007     		lsls	r0, r4, #31
 828 00e4 02D5     		bpl	.L90
 829              		.loc 1 561 0 is_stmt 0
 830 00e6 0320     		movs	r0, #3
 831 00e8 8346     		mov	fp, r0
 832 00ea 01E0     		b	.L51
 833              	.L90:
 834 00ec 0220     		movs	r0, #2
 835 00ee 8346     		mov	fp, r0
 836              	.L51:
 837              		.loc 1 561 0 discriminator 4
 838 00f0 5846     		mov	r0, fp
 839 00f2 0843     		orrs	r0, r1
 840 00f4 0100     		movs	r1, r0
 841 00f6 4846     		mov	r0, r9
 842 00f8 0170     		strb	r1, [r0]
 562:pervasive_eink_hardware_driver.c ****                                         PV_EINK_BLACK0 : PV_EINK_WHITE0);
 563:pervasive_eink_hardware_driver.c ****                 dataLineEven[k]      = ((tempByte & PV_EINK_EVEN_MASK_A) ? 
 843              		.loc 1 563 0 is_stmt 1 discriminator 4
 844 00fa 9146     		mov	r9, r2
 845 00fc E144     		add	r9, r9, ip
 846 00fe 61B2     		sxtb	r1, r4
 847 0100 0029     		cmp	r1, #0
 848 0102 01DA     		bge	.L91
 849              		.loc 1 563 0 is_stmt 0
 850 0104 0321     		movs	r1, #3
 851 0106 00E0     		b	.L52
 852              	.L91:
 853 0108 0221     		movs	r1, #2
 854              	.L52:
 855              		.loc 1 563 0 discriminator 4
 856 010a 4846     		mov	r0, r9
 857 010c 0170     		strb	r1, [r0]
 564:pervasive_eink_hardware_driver.c ****                                         PV_EINK_BLACK0 : PV_EINK_WHITE0);
 565:pervasive_eink_hardware_driver.c ****                 dataLineEven[k]     |= ((tempByte & PV_EINK_EVEN_MASK_B) ? 
 858              		.loc 1 565 0 is_stmt 1 discriminator 4
 859 010e 49B2     		sxtb	r1, r1
 860 0110 A006     		lsls	r0, r4, #26
 861 0112 02D5     		bpl	.L92
 862              		.loc 1 565 0 is_stmt 0
 863 0114 0C20     		movs	r0, #12
 864 0116 8346     		mov	fp, r0
 865 0118 01E0     		b	.L53
 866              	.L92:
 867 011a 0820     		movs	r0, #8
 868 011c 8346     		mov	fp, r0
 869              	.L53:
 870              		.loc 1 565 0 discriminator 4
 871 011e 5846     		mov	r0, fp
 872 0120 0843     		orrs	r0, r1
 873 0122 0100     		movs	r1, r0
 874 0124 4846     		mov	r0, r9
 875 0126 0170     		strb	r1, [r0]
 566:pervasive_eink_hardware_driver.c ****                                         PV_EINK_BLACK1 : PV_EINK_WHITE1);
ARM GAS  C:\Users\bryan.lee\AppData\Local\Temp\ccAkWdHW.s 			page 40


 567:pervasive_eink_hardware_driver.c ****                 dataLineEven[k]     |= ((tempByte & PV_EINK_EVEN_MASK_C) ? 
 876              		.loc 1 567 0 is_stmt 1 discriminator 4
 877 0128 2007     		lsls	r0, r4, #28
 878 012a 02D5     		bpl	.L93
 879              		.loc 1 567 0 is_stmt 0
 880 012c 3020     		movs	r0, #48
 881 012e 8346     		mov	fp, r0
 882 0130 01E0     		b	.L54
 883              	.L93:
 884 0132 2020     		movs	r0, #32
 885 0134 8346     		mov	fp, r0
 886              	.L54:
 887              		.loc 1 567 0 discriminator 4
 888 0136 5846     		mov	r0, fp
 889 0138 0843     		orrs	r0, r1
 890 013a 0100     		movs	r1, r0
 891 013c 4846     		mov	r0, r9
 892 013e 0170     		strb	r1, [r0]
 568:pervasive_eink_hardware_driver.c ****                                         PV_EINK_BLACK2 : PV_EINK_WHITE2);
 569:pervasive_eink_hardware_driver.c ****                 dataLineEven[k--]   |= ((tempByte & PV_EINK_EVEN_MASK_D) ? 
 893              		.loc 1 569 0 is_stmt 1 discriminator 4
 894 0140 013A     		subs	r2, r2, #1
 895              	.LVL94:
 896 0142 92B2     		uxth	r2, r2
 897              	.LVL95:
 898 0144 A007     		lsls	r0, r4, #30
 899 0146 03D5     		bpl	.L94
 900              		.loc 1 569 0 is_stmt 0
 901 0148 4020     		movs	r0, #64
 902 014a 4042     		rsbs	r0, r0, #0
 903 014c 8346     		mov	fp, r0
 904 014e 02E0     		b	.L55
 905              	.L94:
 906 0150 8020     		movs	r0, #128
 907 0152 4042     		rsbs	r0, r0, #0
 908 0154 8346     		mov	fp, r0
 909              	.L55:
 910              		.loc 1 569 0 discriminator 4
 911 0156 5846     		mov	r0, fp
 912 0158 0843     		orrs	r0, r1
 913 015a 0100     		movs	r1, r0
 914 015c 4846     		mov	r0, r9
 915 015e 0170     		strb	r1, [r0]
 570:pervasive_eink_hardware_driver.c ****                                         PV_EINK_BLACK3 : PV_EINK_WHITE3);
 571:pervasive_eink_hardware_driver.c ****                 break;
 916              		.loc 1 571 0 is_stmt 1 discriminator 4
 917 0160 2CE1     		b	.L43
 918              	.L44:
 572:pervasive_eink_hardware_driver.c ****             /* Stage 2: Calculate the Even and Odd bytes of an all-white
 573:pervasive_eink_hardware_driver.c ****                frame */
 574:pervasive_eink_hardware_driver.c ****             case PV_EINK_STAGE2:
 575:pervasive_eink_hardware_driver.c ****                 dataLineOdd[x]       = ((tempByte & PV_EINK_ODD_MASK_A)  ? 
 919              		.loc 1 575 0
 920 0162 0199     		ldr	r1, [sp, #4]
 921 0164 C918     		adds	r1, r1, r3
 922 0166 8946     		mov	r9, r1
 923 0168 6106     		lsls	r1, r4, #25
ARM GAS  C:\Users\bryan.lee\AppData\Local\Temp\ccAkWdHW.s 			page 41


 924 016a 01D5     		bpl	.L95
 925 016c 8021     		movs	r1, #128
 926 016e 00E0     		b	.L56
 927              	.L95:
 928 0170 4021     		movs	r1, #64
 929              	.L56:
 930              		.loc 1 575 0 is_stmt 0 discriminator 4
 931 0172 4846     		mov	r0, r9
 932 0174 0170     		strb	r1, [r0]
 576:pervasive_eink_hardware_driver.c ****                                         PV_EINK_WHITE3 : PV_EINK_NOTHING3);
 577:pervasive_eink_hardware_driver.c ****                 dataLineOdd[x]      |= ((tempByte & PV_EINK_ODD_MASK_B)  ? 
 933              		.loc 1 577 0 is_stmt 1 discriminator 4
 934 0176 49B2     		sxtb	r1, r1
 935 0178 E006     		lsls	r0, r4, #27
 936 017a 02D5     		bpl	.L96
 937              		.loc 1 577 0 is_stmt 0
 938 017c 2020     		movs	r0, #32
 939 017e 8346     		mov	fp, r0
 940 0180 01E0     		b	.L57
 941              	.L96:
 942 0182 1020     		movs	r0, #16
 943 0184 8346     		mov	fp, r0
 944              	.L57:
 945              		.loc 1 577 0 discriminator 4
 946 0186 5846     		mov	r0, fp
 947 0188 0843     		orrs	r0, r1
 948 018a 0100     		movs	r1, r0
 949 018c 4846     		mov	r0, r9
 950 018e 0170     		strb	r1, [r0]
 578:pervasive_eink_hardware_driver.c ****                                         PV_EINK_WHITE2 : PV_EINK_NOTHING2);
 579:pervasive_eink_hardware_driver.c ****                 dataLineOdd[x]      |= ((tempByte & PV_EINK_ODD_MASK_C)  ? 
 951              		.loc 1 579 0 is_stmt 1 discriminator 4
 952 0190 6007     		lsls	r0, r4, #29
 953 0192 02D5     		bpl	.L97
 954              		.loc 1 579 0 is_stmt 0
 955 0194 0820     		movs	r0, #8
 956 0196 8346     		mov	fp, r0
 957 0198 01E0     		b	.L58
 958              	.L97:
 959 019a 0420     		movs	r0, #4
 960 019c 8346     		mov	fp, r0
 961              	.L58:
 962              		.loc 1 579 0 discriminator 4
 963 019e 5846     		mov	r0, fp
 964 01a0 0843     		orrs	r0, r1
 965 01a2 0100     		movs	r1, r0
 966 01a4 4846     		mov	r0, r9
 967 01a6 0170     		strb	r1, [r0]
 580:pervasive_eink_hardware_driver.c ****                                         PV_EINK_WHITE1 : PV_EINK_NOTHING1);
 581:pervasive_eink_hardware_driver.c ****                 dataLineOdd[x]      |= ((tempByte & PV_EINK_ODD_MASK_D)  ? 
 968              		.loc 1 581 0 is_stmt 1 discriminator 4
 969 01a8 E007     		lsls	r0, r4, #31
 970 01aa 02D5     		bpl	.L98
 971              		.loc 1 581 0 is_stmt 0
 972 01ac 0220     		movs	r0, #2
 973 01ae 8346     		mov	fp, r0
 974 01b0 01E0     		b	.L59
ARM GAS  C:\Users\bryan.lee\AppData\Local\Temp\ccAkWdHW.s 			page 42


 975              	.L98:
 976 01b2 0120     		movs	r0, #1
 977 01b4 8346     		mov	fp, r0
 978              	.L59:
 979              		.loc 1 581 0 discriminator 4
 980 01b6 5846     		mov	r0, fp
 981 01b8 0843     		orrs	r0, r1
 982 01ba 0100     		movs	r1, r0
 983 01bc 4846     		mov	r0, r9
 984 01be 0170     		strb	r1, [r0]
 582:pervasive_eink_hardware_driver.c ****                                         PV_EINK_WHITE0 : PV_EINK_NOTHING0);
 583:pervasive_eink_hardware_driver.c ****                 dataLineEven[k]      = ((tempByte & PV_EINK_EVEN_MASK_A) ?
 985              		.loc 1 583 0 is_stmt 1 discriminator 4
 986 01c0 9146     		mov	r9, r2
 987 01c2 E144     		add	r9, r9, ip
 988 01c4 61B2     		sxtb	r1, r4
 989 01c6 0029     		cmp	r1, #0
 990 01c8 01DA     		bge	.L99
 991              		.loc 1 583 0 is_stmt 0
 992 01ca 0221     		movs	r1, #2
 993 01cc 00E0     		b	.L60
 994              	.L99:
 995 01ce 0121     		movs	r1, #1
 996              	.L60:
 997              		.loc 1 583 0 discriminator 4
 998 01d0 4846     		mov	r0, r9
 999 01d2 0170     		strb	r1, [r0]
 584:pervasive_eink_hardware_driver.c ****                                         PV_EINK_WHITE0 : PV_EINK_NOTHING0);
 585:pervasive_eink_hardware_driver.c ****                 dataLineEven[k]     |= ((tempByte & PV_EINK_EVEN_MASK_B) ? 
 1000              		.loc 1 585 0 is_stmt 1 discriminator 4
 1001 01d4 49B2     		sxtb	r1, r1
 1002 01d6 A006     		lsls	r0, r4, #26
 1003 01d8 02D5     		bpl	.L100
 1004              		.loc 1 585 0 is_stmt 0
 1005 01da 0820     		movs	r0, #8
 1006 01dc 8346     		mov	fp, r0
 1007 01de 01E0     		b	.L61
 1008              	.L100:
 1009 01e0 0420     		movs	r0, #4
 1010 01e2 8346     		mov	fp, r0
 1011              	.L61:
 1012              		.loc 1 585 0 discriminator 4
 1013 01e4 5846     		mov	r0, fp
 1014 01e6 0843     		orrs	r0, r1
 1015 01e8 0100     		movs	r1, r0
 1016 01ea 4846     		mov	r0, r9
 1017 01ec 0170     		strb	r1, [r0]
 586:pervasive_eink_hardware_driver.c ****                                         PV_EINK_WHITE1 : PV_EINK_NOTHING1);
 587:pervasive_eink_hardware_driver.c ****                 dataLineEven[k]     |= ((tempByte & PV_EINK_EVEN_MASK_C) ? 
 1018              		.loc 1 587 0 is_stmt 1 discriminator 4
 1019 01ee 2007     		lsls	r0, r4, #28
 1020 01f0 02D5     		bpl	.L101
 1021              		.loc 1 587 0 is_stmt 0
 1022 01f2 2020     		movs	r0, #32
 1023 01f4 8346     		mov	fp, r0
 1024 01f6 01E0     		b	.L62
 1025              	.L101:
ARM GAS  C:\Users\bryan.lee\AppData\Local\Temp\ccAkWdHW.s 			page 43


 1026 01f8 1020     		movs	r0, #16
 1027 01fa 8346     		mov	fp, r0
 1028              	.L62:
 1029              		.loc 1 587 0 discriminator 4
 1030 01fc 5846     		mov	r0, fp
 1031 01fe 0843     		orrs	r0, r1
 1032 0200 0100     		movs	r1, r0
 1033 0202 4846     		mov	r0, r9
 1034 0204 0170     		strb	r1, [r0]
 588:pervasive_eink_hardware_driver.c ****                                         PV_EINK_WHITE2 : PV_EINK_NOTHING2);
 589:pervasive_eink_hardware_driver.c ****                 dataLineEven[k--]   |= ((tempByte & PV_EINK_EVEN_MASK_D) ? 
 1035              		.loc 1 589 0 is_stmt 1 discriminator 4
 1036 0206 013A     		subs	r2, r2, #1
 1037              	.LVL96:
 1038 0208 92B2     		uxth	r2, r2
 1039              	.LVL97:
 1040 020a A007     		lsls	r0, r4, #30
 1041 020c 03D5     		bpl	.L102
 1042              		.loc 1 589 0 is_stmt 0
 1043 020e 8020     		movs	r0, #128
 1044 0210 4042     		rsbs	r0, r0, #0
 1045 0212 8346     		mov	fp, r0
 1046 0214 01E0     		b	.L63
 1047              	.L102:
 1048 0216 4020     		movs	r0, #64
 1049 0218 8346     		mov	fp, r0
 1050              	.L63:
 1051              		.loc 1 589 0 discriminator 4
 1052 021a 5846     		mov	r0, fp
 1053 021c 0843     		orrs	r0, r1
 1054 021e 0100     		movs	r1, r0
 1055 0220 4846     		mov	r0, r9
 1056 0222 0170     		strb	r1, [r0]
 590:pervasive_eink_hardware_driver.c ****                                         PV_EINK_WHITE3 : PV_EINK_NOTHING3);
 591:pervasive_eink_hardware_driver.c ****                 break;
 1057              		.loc 1 591 0 is_stmt 1 discriminator 4
 1058 0224 CAE0     		b	.L43
 1059              	.L46:
 592:pervasive_eink_hardware_driver.c ****             /* Stage 3: Calculate the inverted Even and Odd bytes of the
 593:pervasive_eink_hardware_driver.c ****                new image data */
 594:pervasive_eink_hardware_driver.c ****             case PV_EINK_STAGE3:
 595:pervasive_eink_hardware_driver.c ****                 dataLineOdd[x]       = ((tempByte & PV_EINK_ODD_MASK_A)  ? 
 1060              		.loc 1 595 0
 1061 0226 0199     		ldr	r1, [sp, #4]
 1062 0228 C918     		adds	r1, r1, r3
 1063 022a 8946     		mov	r9, r1
 1064 022c 6106     		lsls	r1, r4, #25
 1065 022e 01D5     		bpl	.L103
 1066 0230 C021     		movs	r1, #192
 1067 0232 00E0     		b	.L64
 1068              	.L103:
 1069 0234 4021     		movs	r1, #64
 1070              	.L64:
 1071              		.loc 1 595 0 is_stmt 0 discriminator 4
 1072 0236 4846     		mov	r0, r9
 1073 0238 0170     		strb	r1, [r0]
 596:pervasive_eink_hardware_driver.c ****                                         PV_EINK_BLACK3 : PV_EINK_NOTHING3);
ARM GAS  C:\Users\bryan.lee\AppData\Local\Temp\ccAkWdHW.s 			page 44


 597:pervasive_eink_hardware_driver.c ****                 dataLineOdd[x]      |= ((tempByte & PV_EINK_ODD_MASK_B)  ? 
 1074              		.loc 1 597 0 is_stmt 1 discriminator 4
 1075 023a 49B2     		sxtb	r1, r1
 1076 023c E006     		lsls	r0, r4, #27
 1077 023e 02D5     		bpl	.L104
 1078              		.loc 1 597 0 is_stmt 0
 1079 0240 3020     		movs	r0, #48
 1080 0242 8346     		mov	fp, r0
 1081 0244 01E0     		b	.L65
 1082              	.L104:
 1083 0246 1020     		movs	r0, #16
 1084 0248 8346     		mov	fp, r0
 1085              	.L65:
 1086              		.loc 1 597 0 discriminator 4
 1087 024a 5846     		mov	r0, fp
 1088 024c 0843     		orrs	r0, r1
 1089 024e 0100     		movs	r1, r0
 1090 0250 4846     		mov	r0, r9
 1091 0252 0170     		strb	r1, [r0]
 598:pervasive_eink_hardware_driver.c ****                                         PV_EINK_BLACK2 : PV_EINK_NOTHING2);
 599:pervasive_eink_hardware_driver.c ****                 dataLineOdd[x]      |= ((tempByte & PV_EINK_ODD_MASK_C)  ?
 1092              		.loc 1 599 0 is_stmt 1 discriminator 4
 1093 0254 6007     		lsls	r0, r4, #29
 1094 0256 02D5     		bpl	.L105
 1095              		.loc 1 599 0 is_stmt 0
 1096 0258 0C20     		movs	r0, #12
 1097 025a 8346     		mov	fp, r0
 1098 025c 01E0     		b	.L66
 1099              	.L105:
 1100 025e 0420     		movs	r0, #4
 1101 0260 8346     		mov	fp, r0
 1102              	.L66:
 1103              		.loc 1 599 0 discriminator 4
 1104 0262 5846     		mov	r0, fp
 1105 0264 0843     		orrs	r0, r1
 1106 0266 0100     		movs	r1, r0
 1107 0268 4846     		mov	r0, r9
 1108 026a 0170     		strb	r1, [r0]
 600:pervasive_eink_hardware_driver.c ****                                         PV_EINK_BLACK1 : PV_EINK_NOTHING1);
 601:pervasive_eink_hardware_driver.c ****                 dataLineOdd[x]      |= ((tempByte & PV_EINK_ODD_MASK_D)  ?
 1109              		.loc 1 601 0 is_stmt 1 discriminator 4
 1110 026c E007     		lsls	r0, r4, #31
 1111 026e 02D5     		bpl	.L106
 1112              		.loc 1 601 0 is_stmt 0
 1113 0270 0320     		movs	r0, #3
 1114 0272 8346     		mov	fp, r0
 1115 0274 01E0     		b	.L67
 1116              	.L106:
 1117 0276 0120     		movs	r0, #1
 1118 0278 8346     		mov	fp, r0
 1119              	.L67:
 1120              		.loc 1 601 0 discriminator 4
 1121 027a 5846     		mov	r0, fp
 1122 027c 0843     		orrs	r0, r1
 1123 027e 0100     		movs	r1, r0
 1124 0280 4846     		mov	r0, r9
 1125 0282 0170     		strb	r1, [r0]
ARM GAS  C:\Users\bryan.lee\AppData\Local\Temp\ccAkWdHW.s 			page 45


 602:pervasive_eink_hardware_driver.c ****                                         PV_EINK_BLACK0 : PV_EINK_NOTHING0);
 603:pervasive_eink_hardware_driver.c ****                 dataLineEven[k]      = ((tempByte & PV_EINK_EVEN_MASK_A) ?
 1126              		.loc 1 603 0 is_stmt 1 discriminator 4
 1127 0284 9146     		mov	r9, r2
 1128 0286 E144     		add	r9, r9, ip
 1129 0288 61B2     		sxtb	r1, r4
 1130 028a 0029     		cmp	r1, #0
 1131 028c 01DA     		bge	.L107
 1132              		.loc 1 603 0 is_stmt 0
 1133 028e 0321     		movs	r1, #3
 1134 0290 00E0     		b	.L68
 1135              	.L107:
 1136 0292 0121     		movs	r1, #1
 1137              	.L68:
 1138              		.loc 1 603 0 discriminator 4
 1139 0294 4846     		mov	r0, r9
 1140 0296 0170     		strb	r1, [r0]
 604:pervasive_eink_hardware_driver.c ****                                         PV_EINK_BLACK0 : PV_EINK_NOTHING0);
 605:pervasive_eink_hardware_driver.c ****                 dataLineEven[k]     |= ((tempByte & PV_EINK_EVEN_MASK_B) ? 
 1141              		.loc 1 605 0 is_stmt 1 discriminator 4
 1142 0298 49B2     		sxtb	r1, r1
 1143 029a A006     		lsls	r0, r4, #26
 1144 029c 02D5     		bpl	.L108
 1145              		.loc 1 605 0 is_stmt 0
 1146 029e 0C20     		movs	r0, #12
 1147 02a0 8346     		mov	fp, r0
 1148 02a2 01E0     		b	.L69
 1149              	.L108:
 1150 02a4 0420     		movs	r0, #4
 1151 02a6 8346     		mov	fp, r0
 1152              	.L69:
 1153              		.loc 1 605 0 discriminator 4
 1154 02a8 5846     		mov	r0, fp
 1155 02aa 0843     		orrs	r0, r1
 1156 02ac 0100     		movs	r1, r0
 1157 02ae 4846     		mov	r0, r9
 1158 02b0 0170     		strb	r1, [r0]
 606:pervasive_eink_hardware_driver.c ****                                         PV_EINK_BLACK1 : PV_EINK_NOTHING1);
 607:pervasive_eink_hardware_driver.c ****                 dataLineEven[k]     |= ((tempByte & PV_EINK_EVEN_MASK_C) ? 
 1159              		.loc 1 607 0 is_stmt 1 discriminator 4
 1160 02b2 2007     		lsls	r0, r4, #28
 1161 02b4 02D5     		bpl	.L109
 1162              		.loc 1 607 0 is_stmt 0
 1163 02b6 3020     		movs	r0, #48
 1164 02b8 8346     		mov	fp, r0
 1165 02ba 01E0     		b	.L70
 1166              	.L109:
 1167 02bc 1020     		movs	r0, #16
 1168 02be 8346     		mov	fp, r0
 1169              	.L70:
 1170              		.loc 1 607 0 discriminator 4
 1171 02c0 5846     		mov	r0, fp
 1172 02c2 0843     		orrs	r0, r1
 1173 02c4 0100     		movs	r1, r0
 1174 02c6 4846     		mov	r0, r9
 1175 02c8 0170     		strb	r1, [r0]
 608:pervasive_eink_hardware_driver.c ****                                         PV_EINK_BLACK2 : PV_EINK_NOTHING2);
ARM GAS  C:\Users\bryan.lee\AppData\Local\Temp\ccAkWdHW.s 			page 46


 609:pervasive_eink_hardware_driver.c ****                 dataLineEven[k--]   |= ((tempByte & PV_EINK_EVEN_MASK_D) ? 
 1176              		.loc 1 609 0 is_stmt 1 discriminator 4
 1177 02ca 013A     		subs	r2, r2, #1
 1178              	.LVL98:
 1179 02cc 92B2     		uxth	r2, r2
 1180              	.LVL99:
 1181 02ce A007     		lsls	r0, r4, #30
 1182 02d0 03D5     		bpl	.L110
 1183              		.loc 1 609 0 is_stmt 0
 1184 02d2 4020     		movs	r0, #64
 1185 02d4 4042     		rsbs	r0, r0, #0
 1186 02d6 8346     		mov	fp, r0
 1187 02d8 01E0     		b	.L71
 1188              	.L110:
 1189 02da 4020     		movs	r0, #64
 1190 02dc 8346     		mov	fp, r0
 1191              	.L71:
 1192              		.loc 1 609 0 discriminator 4
 1193 02de 5846     		mov	r0, fp
 1194 02e0 0843     		orrs	r0, r1
 1195 02e2 0100     		movs	r1, r0
 1196 02e4 4846     		mov	r0, r9
 1197 02e6 0170     		strb	r1, [r0]
 610:pervasive_eink_hardware_driver.c ****                                         PV_EINK_BLACK3 : PV_EINK_NOTHING3);
 611:pervasive_eink_hardware_driver.c ****                 break;
 1198              		.loc 1 611 0 is_stmt 1 discriminator 4
 1199 02e8 68E0     		b	.L43
 1200              	.L47:
 612:pervasive_eink_hardware_driver.c ****             /* Stage 4: Calculate the Even and Odd bytes of new image 
 613:pervasive_eink_hardware_driver.c ****                data */
 614:pervasive_eink_hardware_driver.c ****             case PV_EINK_STAGE4:
 615:pervasive_eink_hardware_driver.c ****                 dataLineOdd[x]       = ((tempByte & PV_EINK_ODD_MASK_A)  ? 
 1201              		.loc 1 615 0
 1202 02ea 0199     		ldr	r1, [sp, #4]
 1203 02ec C918     		adds	r1, r1, r3
 1204 02ee 8B46     		mov	fp, r1
 1205 02f0 6106     		lsls	r1, r4, #25
 1206 02f2 01D5     		bpl	.L111
 1207 02f4 8021     		movs	r1, #128
 1208 02f6 00E0     		b	.L72
 1209              	.L111:
 1210 02f8 C021     		movs	r1, #192
 1211              	.L72:
 1212              		.loc 1 615 0 is_stmt 0 discriminator 4
 1213 02fa 5846     		mov	r0, fp
 1214 02fc 0170     		strb	r1, [r0]
 616:pervasive_eink_hardware_driver.c ****                                         PV_EINK_WHITE3 : PV_EINK_BLACK3);
 617:pervasive_eink_hardware_driver.c ****                 dataLineOdd[x]      |= ((tempByte & PV_EINK_ODD_MASK_B)  ?
 1215              		.loc 1 617 0 is_stmt 1 discriminator 4
 1216 02fe 49B2     		sxtb	r1, r1
 1217 0300 E006     		lsls	r0, r4, #27
 1218 0302 02D5     		bpl	.L112
 1219              		.loc 1 617 0 is_stmt 0
 1220 0304 2020     		movs	r0, #32
 1221 0306 8146     		mov	r9, r0
 1222 0308 01E0     		b	.L73
 1223              	.L112:
ARM GAS  C:\Users\bryan.lee\AppData\Local\Temp\ccAkWdHW.s 			page 47


 1224 030a 3020     		movs	r0, #48
 1225 030c 8146     		mov	r9, r0
 1226              	.L73:
 1227              		.loc 1 617 0 discriminator 4
 1228 030e 4846     		mov	r0, r9
 1229 0310 0843     		orrs	r0, r1
 1230 0312 0100     		movs	r1, r0
 1231 0314 5846     		mov	r0, fp
 1232 0316 0170     		strb	r1, [r0]
 618:pervasive_eink_hardware_driver.c ****                                         PV_EINK_WHITE2 : PV_EINK_BLACK2);
 619:pervasive_eink_hardware_driver.c ****                 dataLineOdd[x]      |= ((tempByte & PV_EINK_ODD_MASK_C)  ? 
 1233              		.loc 1 619 0 is_stmt 1 discriminator 4
 1234 0318 6007     		lsls	r0, r4, #29
 1235 031a 02D5     		bpl	.L113
 1236              		.loc 1 619 0 is_stmt 0
 1237 031c 0820     		movs	r0, #8
 1238 031e 8146     		mov	r9, r0
 1239 0320 01E0     		b	.L74
 1240              	.L113:
 1241 0322 0C20     		movs	r0, #12
 1242 0324 8146     		mov	r9, r0
 1243              	.L74:
 1244              		.loc 1 619 0 discriminator 4
 1245 0326 4846     		mov	r0, r9
 1246 0328 0843     		orrs	r0, r1
 1247 032a 0100     		movs	r1, r0
 1248 032c 5846     		mov	r0, fp
 1249 032e 0170     		strb	r1, [r0]
 620:pervasive_eink_hardware_driver.c ****                                         PV_EINK_WHITE1 : PV_EINK_BLACK1);
 621:pervasive_eink_hardware_driver.c ****                 dataLineOdd[x]      |= ((tempByte & PV_EINK_ODD_MASK_D)  ? 
 1250              		.loc 1 621 0 is_stmt 1 discriminator 4
 1251 0330 E007     		lsls	r0, r4, #31
 1252 0332 09D5     		bpl	.L114
 1253              		.loc 1 621 0 is_stmt 0
 1254 0334 0220     		movs	r0, #2
 1255 0336 8146     		mov	r9, r0
 1256 0338 08E0     		b	.L75
 1257              	.L120:
 1258 033a C046     		.align	2
 1259              	.L119:
 1260 033c FFFF0F10 		.word	269484031
 1261 0340 00000000 		.word	bulkDriverPacket
 1262 0344 00000000 		.word	.LANCHOR0
 1263              	.L114:
 1264 0348 0320     		movs	r0, #3
 1265 034a 8146     		mov	r9, r0
 1266              	.L75:
 1267              		.loc 1 621 0 discriminator 4
 1268 034c 4846     		mov	r0, r9
 1269 034e 0843     		orrs	r0, r1
 1270 0350 0100     		movs	r1, r0
 1271 0352 5846     		mov	r0, fp
 1272 0354 0170     		strb	r1, [r0]
 622:pervasive_eink_hardware_driver.c ****                                         PV_EINK_WHITE0 : PV_EINK_BLACK0);
 623:pervasive_eink_hardware_driver.c ****                 dataLineEven[k]     = ((tempByte & PV_EINK_EVEN_MASK_A)  ? 
 1273              		.loc 1 623 0 is_stmt 1 discriminator 4
 1274 0356 9146     		mov	r9, r2
ARM GAS  C:\Users\bryan.lee\AppData\Local\Temp\ccAkWdHW.s 			page 48


 1275 0358 E144     		add	r9, r9, ip
 1276 035a 61B2     		sxtb	r1, r4
 1277 035c 0029     		cmp	r1, #0
 1278 035e 01DA     		bge	.L115
 1279              		.loc 1 623 0 is_stmt 0
 1280 0360 0221     		movs	r1, #2
 1281 0362 00E0     		b	.L76
 1282              	.L115:
 1283 0364 0321     		movs	r1, #3
 1284              	.L76:
 1285              		.loc 1 623 0 discriminator 4
 1286 0366 4846     		mov	r0, r9
 1287 0368 0170     		strb	r1, [r0]
 624:pervasive_eink_hardware_driver.c ****                                         PV_EINK_WHITE0 : PV_EINK_BLACK0);
 625:pervasive_eink_hardware_driver.c ****                 dataLineEven[k]     |= ((tempByte & PV_EINK_EVEN_MASK_B) ? 
 1288              		.loc 1 625 0 is_stmt 1 discriminator 4
 1289 036a 49B2     		sxtb	r1, r1
 1290 036c A006     		lsls	r0, r4, #26
 1291 036e 02D5     		bpl	.L116
 1292              		.loc 1 625 0 is_stmt 0
 1293 0370 0820     		movs	r0, #8
 1294 0372 8346     		mov	fp, r0
 1295 0374 01E0     		b	.L77
 1296              	.L116:
 1297 0376 0C20     		movs	r0, #12
 1298 0378 8346     		mov	fp, r0
 1299              	.L77:
 1300              		.loc 1 625 0 discriminator 4
 1301 037a 5846     		mov	r0, fp
 1302 037c 0843     		orrs	r0, r1
 1303 037e 0100     		movs	r1, r0
 1304 0380 4846     		mov	r0, r9
 1305 0382 0170     		strb	r1, [r0]
 626:pervasive_eink_hardware_driver.c ****                                         PV_EINK_WHITE1 : PV_EINK_BLACK1);
 627:pervasive_eink_hardware_driver.c ****                 dataLineEven[k]     |= ((tempByte & PV_EINK_EVEN_MASK_C) ?
 1306              		.loc 1 627 0 is_stmt 1 discriminator 4
 1307 0384 2007     		lsls	r0, r4, #28
 1308 0386 02D5     		bpl	.L117
 1309              		.loc 1 627 0 is_stmt 0
 1310 0388 2020     		movs	r0, #32
 1311 038a 8346     		mov	fp, r0
 1312 038c 01E0     		b	.L78
 1313              	.L117:
 1314 038e 3020     		movs	r0, #48
 1315 0390 8346     		mov	fp, r0
 1316              	.L78:
 1317              		.loc 1 627 0 discriminator 4
 1318 0392 5846     		mov	r0, fp
 1319 0394 0843     		orrs	r0, r1
 1320 0396 0100     		movs	r1, r0
 1321 0398 4846     		mov	r0, r9
 1322 039a 0170     		strb	r1, [r0]
 628:pervasive_eink_hardware_driver.c ****                                         PV_EINK_WHITE2 : PV_EINK_BLACK2);
 629:pervasive_eink_hardware_driver.c ****                 dataLineEven[k--]   |= ((tempByte & PV_EINK_EVEN_MASK_D) ? 
 1323              		.loc 1 629 0 is_stmt 1 discriminator 4
 1324 039c 013A     		subs	r2, r2, #1
 1325              	.LVL100:
ARM GAS  C:\Users\bryan.lee\AppData\Local\Temp\ccAkWdHW.s 			page 49


 1326 039e 92B2     		uxth	r2, r2
 1327              	.LVL101:
 1328 03a0 A007     		lsls	r0, r4, #30
 1329 03a2 03D5     		bpl	.L118
 1330              		.loc 1 629 0 is_stmt 0
 1331 03a4 8020     		movs	r0, #128
 1332 03a6 4042     		rsbs	r0, r0, #0
 1333 03a8 8346     		mov	fp, r0
 1334 03aa 02E0     		b	.L79
 1335              	.L118:
 1336 03ac 4020     		movs	r0, #64
 1337 03ae 4042     		rsbs	r0, r0, #0
 1338 03b0 8346     		mov	fp, r0
 1339              	.L79:
 1340              		.loc 1 629 0 discriminator 4
 1341 03b2 5846     		mov	r0, fp
 1342 03b4 0843     		orrs	r0, r1
 1343 03b6 0100     		movs	r1, r0
 1344 03b8 4846     		mov	r0, r9
 1345 03ba 0170     		strb	r1, [r0]
 1346              	.L43:
 541:pervasive_eink_hardware_driver.c ****         {
 1347              		.loc 1 541 0 is_stmt 1 discriminator 2
 1348 03bc 0133     		adds	r3, r3, #1
 1349              	.LVL102:
 1350 03be 9BB2     		uxth	r3, r3
 1351              	.LVL103:
 1352              	.L41:
 541:pervasive_eink_hardware_driver.c ****         {
 1353              		.loc 1 541 0 is_stmt 0 discriminator 1
 1354 03c0 202B     		cmp	r3, #32
 1355 03c2 00D8     		bhi	.LCB1474
 1356 03c4 5BE6     		b	.L80	@long jump
 1357              	.LCB1474:
 1358              	.LVL104:
 630:pervasive_eink_hardware_driver.c ****                                         PV_EINK_WHITE3 : PV_EINK_BLACK3);
 631:pervasive_eink_hardware_driver.c ****                 break;
 632:pervasive_eink_hardware_driver.c ****             }
 633:pervasive_eink_hardware_driver.c ****         }
 634:pervasive_eink_hardware_driver.c ****         /* Move onto the next line */
 635:pervasive_eink_hardware_driver.c ****         scanlineNumber = PV_EINK_VERTICAL_SIZE - y;
 636:pervasive_eink_hardware_driver.c ****         scanlineNumber--;
 1359              		.loc 1 636 0 is_stmt 1 discriminator 2
 1360 03c6 AF23     		movs	r3, #175
 1361              	.LVL105:
 1362 03c8 4246     		mov	r2, r8
 1363              	.LVL106:
 1364 03ca 9B1A     		subs	r3, r3, r2
 1365 03cc 1BB2     		sxth	r3, r3
 1366              	.LVL107:
 637:pervasive_eink_hardware_driver.c ****         
 638:pervasive_eink_hardware_driver.c ****         /* Shift Scan byte according to the data line */
 639:pervasive_eink_hardware_driver.c ****         dataLineScan[(scanlineNumber >> PV_EINK_PIXEL_SIZE)] = scanTable
 1367              		.loc 1 639 0 discriminator 2
 1368 03ce 9A10     		asrs	r2, r3, #2
 640:pervasive_eink_hardware_driver.c ****                             [(scanlineNumber % PV_EINK_SCAN_TABLE_SIZE)];
 1369              		.loc 1 640 0 discriminator 2
ARM GAS  C:\Users\bryan.lee\AppData\Local\Temp\ccAkWdHW.s 			page 50


 1370 03d0 D917     		asrs	r1, r3, #31
 1371 03d2 890F     		lsrs	r1, r1, #30
 1372 03d4 5B18     		adds	r3, r3, r1
 1373              	.LVL108:
 1374 03d6 0320     		movs	r0, #3
 1375 03d8 0340     		ands	r3, r0
 1376 03da 5B1A     		subs	r3, r3, r1
 1377 03dc 1BB2     		sxth	r3, r3
 1378 03de 1849     		ldr	r1, .L121
 1379 03e0 CB18     		adds	r3, r1, r3
 1380 03e2 1B7A     		ldrb	r3, [r3, #8]
 639:pervasive_eink_hardware_driver.c ****                             [(scanlineNumber % PV_EINK_SCAN_TABLE_SIZE)];
 1381              		.loc 1 639 0 discriminator 2
 1382 03e4 5146     		mov	r1, r10
 1383 03e6 8B54     		strb	r3, [r1, r2]
 525:pervasive_eink_hardware_driver.c ****     {
 1384              		.loc 1 525 0 discriminator 2
 1385 03e8 4346     		mov	r3, r8
 1386 03ea 0133     		adds	r3, r3, #1
 1387 03ec 9BB2     		uxth	r3, r3
 1388 03ee 9846     		mov	r8, r3
 1389              	.LVL109:
 1390              	.L40:
 525:pervasive_eink_hardware_driver.c ****     {
 1391              		.loc 1 525 0 is_stmt 0 discriminator 1
 1392 03f0 4346     		mov	r3, r8
 1393 03f2 AF2B     		cmp	r3, #175
 1394 03f4 00D8     		bhi	.LCB1520
 1395 03f6 1EE6     		b	.L81	@long jump
 1396              	.LCB1520:
 1397              	.LVL110:
 1398              	.L84:
 641:pervasive_eink_hardware_driver.c ****             
 642:pervasive_eink_hardware_driver.c ****     }
 643:pervasive_eink_hardware_driver.c ****             
 644:pervasive_eink_hardware_driver.c ****     /* Perform the update operation until the total time of frames exceed 
 645:pervasive_eink_hardware_driver.c ****        stage time */
 646:pervasive_eink_hardware_driver.c ****     do
 647:pervasive_eink_hardware_driver.c ****     {
 648:pervasive_eink_hardware_driver.c ****         /* Perform a line by line update */
 649:pervasive_eink_hardware_driver.c ****         for (y = 0; y < PV_EINK_VERTICAL_SIZE; y++)
 1399              		.loc 1 649 0 is_stmt 1
 1400 03f8 0024     		movs	r4, #0
 1401 03fa 0FE0     		b	.L82
 1402              	.LVL111:
 1403              	.L83:
 650:pervasive_eink_hardware_driver.c ****         {
 651:pervasive_eink_hardware_driver.c ****                 /* Send the prepared data to the E-INK display */
 652:pervasive_eink_hardware_driver.c ****             Pv_EINK_SendData(PV_EINK_PIXEL_DATA_COMMAND_INDEX,
 653:pervasive_eink_hardware_driver.c ****                           (uint8_t*) &bulkDriverPacket[y].lineBuffer,
 1404              		.loc 1 653 0 discriminator 3
 1405 03fc E300     		lsls	r3, r4, #3
 1406 03fe 1B1B     		subs	r3, r3, r4
 1407 0400 1B01     		lsls	r3, r3, #4
 1408 0402 1B1B     		subs	r3, r3, r4
 1409 0404 0F49     		ldr	r1, .L121+4
 1410 0406 5918     		adds	r1, r3, r1
ARM GAS  C:\Users\bryan.lee\AppData\Local\Temp\ccAkWdHW.s 			page 51


 652:pervasive_eink_hardware_driver.c ****                           (uint8_t*) &bulkDriverPacket[y].lineBuffer,
 1411              		.loc 1 652 0 discriminator 3
 1412 0408 6F22     		movs	r2, #111
 1413 040a 0A20     		movs	r0, #10
 1414 040c FFF7FEFF 		bl	Pv_EINK_SendData
 1415              	.LVL112:
 654:pervasive_eink_hardware_driver.c ****                           PV_EINK_DATA_LINE_SIZE);
 655:pervasive_eink_hardware_driver.c ****                           
 656:pervasive_eink_hardware_driver.c ****             /* Turn on Output Enable to latch the frame */
 657:pervasive_eink_hardware_driver.c ****             Pv_EINK_SendByte(PV_EINK_ENABLE_OE_COMMAND_INDEX,
 1416              		.loc 1 657 0 discriminator 3
 1417 0410 0721     		movs	r1, #7
 1418 0412 0220     		movs	r0, #2
 1419 0414 FFF7FEFF 		bl	Pv_EINK_SendByte
 1420              	.LVL113:
 649:pervasive_eink_hardware_driver.c ****         {
 1421              		.loc 1 649 0 discriminator 3
 1422 0418 0134     		adds	r4, r4, #1
 1423              	.LVL114:
 1424 041a A4B2     		uxth	r4, r4
 1425              	.LVL115:
 1426              	.L82:
 649:pervasive_eink_hardware_driver.c ****         {
 1427              		.loc 1 649 0 is_stmt 0 discriminator 1
 1428 041c AF2C     		cmp	r4, #175
 1429 041e EDD9     		bls	.L83
 658:pervasive_eink_hardware_driver.c ****                           PV_EINK_ENABLE_OE_COMMAND_DATA);
 659:pervasive_eink_hardware_driver.c ****         }
 660:pervasive_eink_hardware_driver.c ****     
 661:pervasive_eink_hardware_driver.c ****     }
 662:pervasive_eink_hardware_driver.c ****     /* Loop until the total time of frames exceed stage time */
 663:pervasive_eink_hardware_driver.c ****     while (fullUpdateTime > Cy_EINK_GetTimeTick());
 1430              		.loc 1 663 0 is_stmt 1
 1431 0420 7C23     		movs	r3, #124
 1432 0422 094A     		ldr	r2, .L121+8
 1433 0424 D45A     		ldrh	r4, [r2, r3]
 1434              	.LVL116:
 1435 0426 FFF7FEFF 		bl	Cy_EINK_GetTimeTick
 1436              	.LVL117:
 1437 042a 8442     		cmp	r4, r0
 1438 042c E4D8     		bhi	.L84
 664:pervasive_eink_hardware_driver.c ****     
 665:pervasive_eink_hardware_driver.c ****     /* Stop the E-INK Timer */
 666:pervasive_eink_hardware_driver.c ****     Cy_EINK_TimerStop();
 1439              		.loc 1 666 0
 1440 042e FFF7FEFF 		bl	Cy_EINK_TimerStop
 1441              	.LVL118:
 667:pervasive_eink_hardware_driver.c **** }
 1442              		.loc 1 667 0
 1443 0432 03B0     		add	sp, sp, #12
 1444              		@ sp needed
 1445              	.LVL119:
 1446              	.LVL120:
 1447 0434 3CBC     		pop	{r2, r3, r4, r5}
 1448 0436 9046     		mov	r8, r2
 1449 0438 9946     		mov	r9, r3
 1450 043a A246     		mov	r10, r4
ARM GAS  C:\Users\bryan.lee\AppData\Local\Temp\ccAkWdHW.s 			page 52


 1451 043c AB46     		mov	fp, r5
 1452 043e F0BD     		pop	{r4, r5, r6, r7, pc}
 1453              	.L122:
 1454              		.align	2
 1455              	.L121:
 1456 0440 00000000 		.word	.LANCHOR1
 1457 0444 00000000 		.word	bulkDriverPacket
 1458 0448 00000000 		.word	.LANCHOR0
 1459              		.cfi_endproc
 1460              	.LFE459:
 1461              		.size	Pv_EINK_FullStageHandler, .-Pv_EINK_FullStageHandler
 1462              		.section	.text.Pv_EINK_PartialStageHandler,"ax",%progbits
 1463              		.align	2
 1464              		.global	Pv_EINK_PartialStageHandler
 1465              		.code	16
 1466              		.thumb_func
 1467              		.type	Pv_EINK_PartialStageHandler, %function
 1468              	Pv_EINK_PartialStageHandler:
 1469              	.LFB460:
 668:pervasive_eink_hardware_driver.c **** 
 669:pervasive_eink_hardware_driver.c **** /*******************************************************************************
 670:pervasive_eink_hardware_driver.c **** * Function Name:  void Pv_EINK_PartialStageHandler(pv_eink_frame_data_t* 
 671:pervasive_eink_hardware_driver.c ****                             previousImagePtr, pv_eink_frame_data_t* newImagePtr)
 672:pervasive_eink_hardware_driver.c **** ********************************************************************************
 673:pervasive_eink_hardware_driver.c **** *
 674:pervasive_eink_hardware_driver.c **** * Summary: The partial update driving stage for getting Odd and Even bytes, and
 675:pervasive_eink_hardware_driver.c **** * then writing the data from memory array to E-INK driver.
 676:pervasive_eink_hardware_driver.c **** *
 677:pervasive_eink_hardware_driver.c **** * Partial update is similar to the last stage of full update. If the new data byte
 678:pervasive_eink_hardware_driver.c **** * is same as previous data byte, send a "nothing" pixel, so that E-INK pixel won't
 679:pervasive_eink_hardware_driver.c **** * be altered. If the new data byte is different from the previous data byte, send
 680:pervasive_eink_hardware_driver.c **** * the new data byte.
 681:pervasive_eink_hardware_driver.c **** * For more details on the driving stages, please refer to the driver G2 document
 682:pervasive_eink_hardware_driver.c **** * Section 5.
 683:pervasive_eink_hardware_driver.c **** *
 684:pervasive_eink_hardware_driver.c **** * Parameters:
 685:pervasive_eink_hardware_driver.c **** * pv_eink_frame_data_t* previousImagePtr : The pointer of memory that contains 
 686:pervasive_eink_hardware_driver.c **** *                                    previous frame written to the E-INK display
 687:pervasive_eink_hardware_driver.c **** * pv_eink_frame_data_t* newImagePtr      : The pointer of memory that contains a 
 688:pervasive_eink_hardware_driver.c **** *                       new frame which needs to be written to the E-INK display
 689:pervasive_eink_hardware_driver.c **** *
 690:pervasive_eink_hardware_driver.c **** * Return:
 691:pervasive_eink_hardware_driver.c **** *  None
 692:pervasive_eink_hardware_driver.c **** *
 693:pervasive_eink_hardware_driver.c **** * Side Effects:
 694:pervasive_eink_hardware_driver.c **** *  This is a blocking function. CPU will be busy during the entire operation,
 695:pervasive_eink_hardware_driver.c **** *  which can be 1 to 2 seconds. 
 696:pervasive_eink_hardware_driver.c **** *******************************************************************************/
 697:pervasive_eink_hardware_driver.c **** void Pv_EINK_PartialStageHandler(pv_eink_frame_data_t* previousImagePtr, 
 698:pervasive_eink_hardware_driver.c ****                                  pv_eink_frame_data_t* newImagePtr)
 699:pervasive_eink_hardware_driver.c **** {
 1470              		.loc 1 699 0
 1471              		.cfi_startproc
 1472              		@ args = 0, pretend = 0, frame = 8
 1473              		@ frame_needed = 0, uses_anonymous_args = 0
 1474              	.LVL121:
 1475 0000 F0B5     		push	{r4, r5, r6, r7, lr}
ARM GAS  C:\Users\bryan.lee\AppData\Local\Temp\ccAkWdHW.s 			page 53


 1476              		.cfi_def_cfa_offset 20
 1477              		.cfi_offset 4, -20
 1478              		.cfi_offset 5, -16
 1479              		.cfi_offset 6, -12
 1480              		.cfi_offset 7, -8
 1481              		.cfi_offset 14, -4
 1482 0002 5F46     		mov	r7, fp
 1483 0004 5646     		mov	r6, r10
 1484 0006 4D46     		mov	r5, r9
 1485 0008 4446     		mov	r4, r8
 1486 000a F0B4     		push	{r4, r5, r6, r7}
 1487              		.cfi_def_cfa_offset 36
 1488              		.cfi_offset 8, -36
 1489              		.cfi_offset 9, -32
 1490              		.cfi_offset 10, -28
 1491              		.cfi_offset 11, -24
 1492 000c 83B0     		sub	sp, sp, #12
 1493              		.cfi_def_cfa_offset 48
 1494 000e 0700     		movs	r7, r0
 1495 0010 0D00     		movs	r5, r1
 1496              	.LVL122:
 700:pervasive_eink_hardware_driver.c ****     /* Counter variable for the horizontal pixel loop */
 701:pervasive_eink_hardware_driver.c ****     uint16_t    x;
 702:pervasive_eink_hardware_driver.c ****     /* Counter variable for the vertical pixel loop */
 703:pervasive_eink_hardware_driver.c ****     uint16_t    y;
 704:pervasive_eink_hardware_driver.c ****     /* Counter variable for the horizontal byte loop */
 705:pervasive_eink_hardware_driver.c ****     uint16_t    k;
 706:pervasive_eink_hardware_driver.c ****     
 707:pervasive_eink_hardware_driver.c ****     /* Temporary storage for image data bytes */
 708:pervasive_eink_hardware_driver.c ****     uint8_t     oldByte;
 709:pervasive_eink_hardware_driver.c ****     /* Temporary storage for image data bytes */
 710:pervasive_eink_hardware_driver.c ****     uint8_t     newByte;
 711:pervasive_eink_hardware_driver.c ****     
 712:pervasive_eink_hardware_driver.c ****     /* Variable for storing the line number under scan */
 713:pervasive_eink_hardware_driver.c ****     int16       scanlineNumber = 0;
 714:pervasive_eink_hardware_driver.c ****     
 715:pervasive_eink_hardware_driver.c ****     /* Re-initialize E-INK timer to ensure the same duration of each stage  */
 716:pervasive_eink_hardware_driver.c ****     Cy_EINK_TimerInit();
 1497              		.loc 1 716 0
 1498 0012 FFF7FEFF 		bl	Cy_EINK_TimerInit
 1499              	.LVL123:
 717:pervasive_eink_hardware_driver.c ****     
 718:pervasive_eink_hardware_driver.c ****     /* Vcom level adjust */
 719:pervasive_eink_hardware_driver.c ****     Pv_EINK_SendByte(PV_EINK_VCOM2_LEVEL_COMMAND_INDEX,
 1500              		.loc 1 719 0
 1501 0016 D221     		movs	r1, #210
 1502 0018 0920     		movs	r0, #9
 1503 001a FFF7FEFF 		bl	Pv_EINK_SendByte
 1504              	.LVL124:
 720:pervasive_eink_hardware_driver.c ****                      PV_EINK_VCOM2_LEVEL_COMMAND_DATA);
 721:pervasive_eink_hardware_driver.c ****      
 722:pervasive_eink_hardware_driver.c ****     /* Vertical pixel loop */
 723:pervasive_eink_hardware_driver.c ****     for (y = 0; y < PV_EINK_VERTICAL_SIZE; y++)
 1505              		.loc 1 723 0
 1506 001e 0023     		movs	r3, #0
 1507 0020 9A46     		mov	r10, r3
 1508 0022 BBE0     		b	.L124
ARM GAS  C:\Users\bryan.lee\AppData\Local\Temp\ccAkWdHW.s 			page 54


 1509              	.LVL125:
 1510              	.L135:
 724:pervasive_eink_hardware_driver.c ****     {
 725:pervasive_eink_hardware_driver.c ****         /* Clear the line buffer with all zeros */
 726:pervasive_eink_hardware_driver.c ****         memset(&bulkDriverPacket[y].lineBuffer, 0, 
 1511              		.loc 1 726 0
 1512 0024 5346     		mov	r3, r10
 1513 0026 DC00     		lsls	r4, r3, #3
 1514 0028 E41A     		subs	r4, r4, r3
 1515 002a 2401     		lsls	r4, r4, #4
 1516 002c E41A     		subs	r4, r4, r3
 1517 002e 7A4B     		ldr	r3, .L155
 1518 0030 9946     		mov	r9, r3
 1519 0032 E618     		adds	r6, r4, r3
 1520 0034 6F22     		movs	r2, #111
 1521 0036 0021     		movs	r1, #0
 1522 0038 3000     		movs	r0, r6
 1523 003a FFF7FEFF 		bl	memset
 1524              	.LVL126:
 727:pervasive_eink_hardware_driver.c ****                sizeof(bulkDriverPacket[y].lineBuffer)) ;
 728:pervasive_eink_hardware_driver.c **** 
 729:pervasive_eink_hardware_driver.c ****         /* Initialize the even data, odd data and scan data pointers */
 730:pervasive_eink_hardware_driver.c ****         dataLineEven = &bulkDriverPacket[y].lineDataBySize.even[0];
 1525              		.loc 1 730 0
 1526 003e 731C     		adds	r3, r6, #1
 1527 0040 9846     		mov	r8, r3
 1528 0042 764B     		ldr	r3, .L155+4
 1529 0044 4246     		mov	r2, r8
 1530 0046 1A67     		str	r2, [r3, #112]
 731:pervasive_eink_hardware_driver.c ****         dataLineOdd  = &bulkDriverPacket[y].lineDataBySize.odd[0];
 1531              		.loc 1 731 0
 1532 0048 2200     		movs	r2, r4
 1533 004a 4832     		adds	r2, r2, #72
 1534 004c 4A44     		add	r2, r2, r9
 1535 004e 0632     		adds	r2, r2, #6
 1536 0050 9446     		mov	ip, r2
 1537 0052 5A67     		str	r2, [r3, #116]
 732:pervasive_eink_hardware_driver.c ****         dataLineScan = &bulkDriverPacket[y].lineDataBySize.scan[0];
 1538              		.loc 1 732 0
 1539 0054 2034     		adds	r4, r4, #32
 1540 0056 4C44     		add	r4, r4, r9
 1541 0058 A21C     		adds	r2, r4, #2
 1542 005a 9146     		mov	r9, r2
 1543 005c 9A67     		str	r2, [r3, #120]
 1544              	.LVL127:
 733:pervasive_eink_hardware_driver.c **** 
 734:pervasive_eink_hardware_driver.c ****         /* Horizontal bytes initialization */
 735:pervasive_eink_hardware_driver.c ****         k = PV_EINK_HORIZONTAL_SIZE;
 736:pervasive_eink_hardware_driver.c ****         k--;
 1545              		.loc 1 736 0
 1546 005e 2024     		movs	r4, #32
 737:pervasive_eink_hardware_driver.c ****         
 738:pervasive_eink_hardware_driver.c ****         /* Horizontal pixel loop */
 739:pervasive_eink_hardware_driver.c ****         for (x = 0; x < PV_EINK_HORIZONTAL_SIZE; x++)
 1547              		.loc 1 739 0
 1548 0060 0021     		movs	r1, #0
 1549 0062 83E0     		b	.L125
ARM GAS  C:\Users\bryan.lee\AppData\Local\Temp\ccAkWdHW.s 			page 55


 1550              	.LVL128:
 1551              	.L134:
 740:pervasive_eink_hardware_driver.c ****         {
 741:pervasive_eink_hardware_driver.c ****             /* Fetch successive data bytes */
 742:pervasive_eink_hardware_driver.c ****             oldByte = *previousImagePtr++;
 1552              		.loc 1 742 0
 1553 0064 7B1C     		adds	r3, r7, #1
 1554 0066 0193     		str	r3, [sp, #4]
 1555              	.LVL129:
 1556 0068 3A78     		ldrb	r2, [r7]
 1557              	.LVL130:
 743:pervasive_eink_hardware_driver.c ****             newByte = *newImagePtr++;
 1558              		.loc 1 743 0
 1559 006a 6F1C     		adds	r7, r5, #1
 1560              	.LVL131:
 1561 006c 2D78     		ldrb	r5, [r5]
 1562              	.LVL132:
 744:pervasive_eink_hardware_driver.c ****             
 745:pervasive_eink_hardware_driver.c ****             /* Calculate the Even and Odd bytes for partial update stage. Also, 
 746:pervasive_eink_hardware_driver.c ****                if the new data byte is same as the previous data byte, store a 
 747:pervasive_eink_hardware_driver.c ****                "nothing" pixel, so that the E-INK pixel won't be altered.
 748:pervasive_eink_hardware_driver.c ****                If the new data byte is different from the previous data byte, 
 749:pervasive_eink_hardware_driver.c ****                store the new data byte */
 750:pervasive_eink_hardware_driver.c ****             dataLineOdd[x]       = ((oldByte ^ newByte) & PV_EINK_ODD_MASK_A)
 1563              		.loc 1 750 0
 1564 006e 6346     		mov	r3, ip
 1565              	.LVL133:
 1566 0070 5E18     		adds	r6, r3, r1
 1567 0072 6A40     		eors	r2, r5
 1568              	.LVL134:
 1569 0074 5306     		lsls	r3, r2, #25
 1570 0076 03D5     		bpl	.L139
 1571              		.loc 1 750 0 is_stmt 0 discriminator 1
 1572 0078 6B06     		lsls	r3, r5, #25
 1573 007a 03D5     		bpl	.L140
 1574              		.loc 1 750 0
 1575 007c 8023     		movs	r3, #128
 1576 007e 02E0     		b	.L126
 1577              	.L139:
 1578 0080 4023     		movs	r3, #64
 1579 0082 00E0     		b	.L126
 1580              	.L140:
 1581 0084 C023     		movs	r3, #192
 1582              	.L126:
 1583              		.loc 1 750 0 discriminator 8
 1584 0086 3370     		strb	r3, [r6]
 1585              	.LVL135:
 751:pervasive_eink_hardware_driver.c ****                                     ?((newByte & PV_EINK_ODD_MASK_A)
 752:pervasive_eink_hardware_driver.c ****                                     ? PV_EINK_WHITE3
 753:pervasive_eink_hardware_driver.c ****                                     : PV_EINK_BLACK3) : PV_EINK_NOTHING3;
 754:pervasive_eink_hardware_driver.c ****             dataLineOdd[x]      |= ((oldByte ^ newByte) & PV_EINK_ODD_MASK_B)
 1586              		.loc 1 754 0 is_stmt 1 discriminator 8
 1587 0088 5BB2     		sxtb	r3, r3
 1588 008a D006     		lsls	r0, r2, #27
 1589 008c 04D5     		bpl	.L141
 1590              		.loc 1 754 0 is_stmt 0 discriminator 1
 1591 008e E806     		lsls	r0, r5, #27
ARM GAS  C:\Users\bryan.lee\AppData\Local\Temp\ccAkWdHW.s 			page 56


 1592 0090 05D5     		bpl	.L142
 1593              		.loc 1 754 0
 1594 0092 2020     		movs	r0, #32
 1595 0094 8346     		mov	fp, r0
 1596 0096 04E0     		b	.L127
 1597              	.L141:
 1598 0098 1020     		movs	r0, #16
 1599 009a 8346     		mov	fp, r0
 1600 009c 01E0     		b	.L127
 1601              	.L142:
 1602 009e 3020     		movs	r0, #48
 1603 00a0 8346     		mov	fp, r0
 1604              	.L127:
 1605              		.loc 1 754 0 discriminator 8
 1606 00a2 5846     		mov	r0, fp
 1607 00a4 1843     		orrs	r0, r3
 1608 00a6 0300     		movs	r3, r0
 1609 00a8 3070     		strb	r0, [r6]
 755:pervasive_eink_hardware_driver.c ****                                     ?((newByte & PV_EINK_ODD_MASK_B) 
 756:pervasive_eink_hardware_driver.c ****                                     ? PV_EINK_WHITE2 
 757:pervasive_eink_hardware_driver.c ****                                     : PV_EINK_BLACK2) : PV_EINK_NOTHING2;
 758:pervasive_eink_hardware_driver.c ****             dataLineOdd[x]      |= ((oldByte ^ newByte) & PV_EINK_ODD_MASK_C)
 1610              		.loc 1 758 0 is_stmt 1 discriminator 8
 1611 00aa 5007     		lsls	r0, r2, #29
 1612 00ac 04D5     		bpl	.L143
 1613              		.loc 1 758 0 is_stmt 0 discriminator 1
 1614 00ae 6807     		lsls	r0, r5, #29
 1615 00b0 05D5     		bpl	.L144
 1616              		.loc 1 758 0
 1617 00b2 0820     		movs	r0, #8
 1618 00b4 8346     		mov	fp, r0
 1619 00b6 04E0     		b	.L128
 1620              	.L143:
 1621 00b8 0420     		movs	r0, #4
 1622 00ba 8346     		mov	fp, r0
 1623 00bc 01E0     		b	.L128
 1624              	.L144:
 1625 00be 0C20     		movs	r0, #12
 1626 00c0 8346     		mov	fp, r0
 1627              	.L128:
 1628              		.loc 1 758 0 discriminator 8
 1629 00c2 5846     		mov	r0, fp
 1630 00c4 1843     		orrs	r0, r3
 1631 00c6 0300     		movs	r3, r0
 1632 00c8 3070     		strb	r0, [r6]
 759:pervasive_eink_hardware_driver.c ****                                     ?((newByte & PV_EINK_ODD_MASK_C) 
 760:pervasive_eink_hardware_driver.c ****                                     ? PV_EINK_WHITE1
 761:pervasive_eink_hardware_driver.c ****                                     : PV_EINK_BLACK1) : PV_EINK_NOTHING1;
 762:pervasive_eink_hardware_driver.c ****             dataLineOdd[x]      |= ((oldByte ^ newByte) & PV_EINK_ODD_MASK_D)
 1633              		.loc 1 762 0 is_stmt 1 discriminator 8
 1634 00ca D007     		lsls	r0, r2, #31
 1635 00cc 04D5     		bpl	.L145
 1636              		.loc 1 762 0 is_stmt 0 discriminator 1
 1637 00ce E807     		lsls	r0, r5, #31
 1638 00d0 05D5     		bpl	.L146
 1639              		.loc 1 762 0
 1640 00d2 0220     		movs	r0, #2
ARM GAS  C:\Users\bryan.lee\AppData\Local\Temp\ccAkWdHW.s 			page 57


 1641 00d4 8346     		mov	fp, r0
 1642 00d6 04E0     		b	.L129
 1643              	.L145:
 1644 00d8 0120     		movs	r0, #1
 1645 00da 8346     		mov	fp, r0
 1646 00dc 01E0     		b	.L129
 1647              	.L146:
 1648 00de 0320     		movs	r0, #3
 1649 00e0 8346     		mov	fp, r0
 1650              	.L129:
 1651              		.loc 1 762 0 discriminator 8
 1652 00e2 5846     		mov	r0, fp
 1653 00e4 1843     		orrs	r0, r3
 1654 00e6 3070     		strb	r0, [r6]
 763:pervasive_eink_hardware_driver.c ****                                     ?((newByte & PV_EINK_ODD_MASK_D) 
 764:pervasive_eink_hardware_driver.c ****                                     ? PV_EINK_WHITE0 
 765:pervasive_eink_hardware_driver.c ****                                     : PV_EINK_BLACK0) : PV_EINK_NOTHING0;
 766:pervasive_eink_hardware_driver.c ****             dataLineEven[k]      = ((oldByte ^ newByte) & PV_EINK_EVEN_MASK_A)
 1655              		.loc 1 766 0 is_stmt 1 discriminator 8
 1656 00e8 4346     		mov	r3, r8
 1657 00ea 1E19     		adds	r6, r3, r4
 767:pervasive_eink_hardware_driver.c ****                                     ?((newByte & PV_EINK_EVEN_MASK_A) 
 1658              		.loc 1 767 0 discriminator 8
 1659 00ec 53B2     		sxtb	r3, r2
 766:pervasive_eink_hardware_driver.c ****                                     ?((newByte & PV_EINK_EVEN_MASK_A) 
 1660              		.loc 1 766 0 discriminator 8
 1661 00ee 002B     		cmp	r3, #0
 1662 00f0 04DA     		bge	.L147
 768:pervasive_eink_hardware_driver.c ****                                     ? PV_EINK_WHITE0
 1663              		.loc 1 768 0 discriminator 1
 1664 00f2 6BB2     		sxtb	r3, r5
 766:pervasive_eink_hardware_driver.c ****                                     ?((newByte & PV_EINK_EVEN_MASK_A) 
 1665              		.loc 1 766 0 discriminator 1
 1666 00f4 002B     		cmp	r3, #0
 1667 00f6 03DA     		bge	.L148
 766:pervasive_eink_hardware_driver.c ****                                     ?((newByte & PV_EINK_EVEN_MASK_A) 
 1668              		.loc 1 766 0 is_stmt 0
 1669 00f8 0223     		movs	r3, #2
 1670 00fa 02E0     		b	.L130
 1671              	.L147:
 1672 00fc 0123     		movs	r3, #1
 1673 00fe 00E0     		b	.L130
 1674              	.L148:
 1675 0100 0323     		movs	r3, #3
 1676              	.L130:
 766:pervasive_eink_hardware_driver.c ****                                     ?((newByte & PV_EINK_EVEN_MASK_A) 
 1677              		.loc 1 766 0 discriminator 8
 1678 0102 3370     		strb	r3, [r6]
 769:pervasive_eink_hardware_driver.c ****                                     : PV_EINK_BLACK0) : PV_EINK_NOTHING0;
 770:pervasive_eink_hardware_driver.c ****             dataLineEven[k]     |= ((oldByte ^ newByte) & PV_EINK_EVEN_MASK_B) 
 1679              		.loc 1 770 0 is_stmt 1 discriminator 8
 1680 0104 5BB2     		sxtb	r3, r3
 1681 0106 9006     		lsls	r0, r2, #26
 1682 0108 04D5     		bpl	.L149
 1683              		.loc 1 770 0 is_stmt 0 discriminator 1
 1684 010a A806     		lsls	r0, r5, #26
 1685 010c 05D5     		bpl	.L150
ARM GAS  C:\Users\bryan.lee\AppData\Local\Temp\ccAkWdHW.s 			page 58


 1686              		.loc 1 770 0
 1687 010e 0820     		movs	r0, #8
 1688 0110 8346     		mov	fp, r0
 1689 0112 04E0     		b	.L131
 1690              	.L149:
 1691 0114 0420     		movs	r0, #4
 1692 0116 8346     		mov	fp, r0
 1693 0118 01E0     		b	.L131
 1694              	.L150:
 1695 011a 0C20     		movs	r0, #12
 1696 011c 8346     		mov	fp, r0
 1697              	.L131:
 1698              		.loc 1 770 0 discriminator 8
 1699 011e 5846     		mov	r0, fp
 1700 0120 1843     		orrs	r0, r3
 1701 0122 0300     		movs	r3, r0
 1702 0124 3070     		strb	r0, [r6]
 771:pervasive_eink_hardware_driver.c ****                                     ?((newByte & PV_EINK_EVEN_MASK_B) 
 772:pervasive_eink_hardware_driver.c ****                                     ? PV_EINK_WHITE1
 773:pervasive_eink_hardware_driver.c ****                                     : PV_EINK_BLACK1) : PV_EINK_NOTHING1;
 774:pervasive_eink_hardware_driver.c ****             dataLineEven[k]     |= ((oldByte ^ newByte) & PV_EINK_EVEN_MASK_C)
 1703              		.loc 1 774 0 is_stmt 1 discriminator 8
 1704 0126 1007     		lsls	r0, r2, #28
 1705 0128 04D5     		bpl	.L151
 1706              		.loc 1 774 0 is_stmt 0 discriminator 1
 1707 012a 2807     		lsls	r0, r5, #28
 1708 012c 05D5     		bpl	.L152
 1709              		.loc 1 774 0
 1710 012e 2020     		movs	r0, #32
 1711 0130 8346     		mov	fp, r0
 1712 0132 04E0     		b	.L132
 1713              	.L151:
 1714 0134 1020     		movs	r0, #16
 1715 0136 8346     		mov	fp, r0
 1716 0138 01E0     		b	.L132
 1717              	.L152:
 1718 013a 3020     		movs	r0, #48
 1719 013c 8346     		mov	fp, r0
 1720              	.L132:
 1721              		.loc 1 774 0 discriminator 8
 1722 013e 5846     		mov	r0, fp
 1723 0140 1843     		orrs	r0, r3
 1724 0142 0300     		movs	r3, r0
 1725 0144 3070     		strb	r0, [r6]
 775:pervasive_eink_hardware_driver.c ****                                     ?((newByte & PV_EINK_EVEN_MASK_C) 
 776:pervasive_eink_hardware_driver.c ****                                     ? PV_EINK_WHITE2 
 777:pervasive_eink_hardware_driver.c ****                                     : PV_EINK_BLACK2) : PV_EINK_NOTHING2;
 778:pervasive_eink_hardware_driver.c ****             dataLineEven[k--]   |= ((oldByte ^ newByte) & PV_EINK_EVEN_MASK_D)
 1726              		.loc 1 778 0 is_stmt 1 discriminator 8
 1727 0146 013C     		subs	r4, r4, #1
 1728              	.LVL136:
 1729 0148 A4B2     		uxth	r4, r4
 1730              	.LVL137:
 1731 014a 9207     		lsls	r2, r2, #30
 1732 014c 04D5     		bpl	.L153
 1733              		.loc 1 778 0 is_stmt 0 discriminator 1
 1734 014e AA07     		lsls	r2, r5, #30
ARM GAS  C:\Users\bryan.lee\AppData\Local\Temp\ccAkWdHW.s 			page 59


 1735 0150 04D5     		bpl	.L154
 1736              		.loc 1 778 0
 1737 0152 8022     		movs	r2, #128
 1738 0154 5242     		rsbs	r2, r2, #0
 1739 0156 03E0     		b	.L133
 1740              	.L153:
 1741 0158 4022     		movs	r2, #64
 1742 015a 01E0     		b	.L133
 1743              	.L154:
 1744 015c 4022     		movs	r2, #64
 1745 015e 5242     		rsbs	r2, r2, #0
 1746              	.L133:
 1747              		.loc 1 778 0 discriminator 8
 1748 0160 1343     		orrs	r3, r2
 1749 0162 3370     		strb	r3, [r6]
 739:pervasive_eink_hardware_driver.c ****         {
 1750              		.loc 1 739 0 is_stmt 1 discriminator 8
 1751 0164 0131     		adds	r1, r1, #1
 1752              	.LVL138:
 1753 0166 89B2     		uxth	r1, r1
 1754              	.LVL139:
 743:pervasive_eink_hardware_driver.c ****             
 1755              		.loc 1 743 0 discriminator 8
 1756 0168 3D00     		movs	r5, r7
 1757              	.LVL140:
 742:pervasive_eink_hardware_driver.c ****             newByte = *newImagePtr++;
 1758              		.loc 1 742 0 discriminator 8
 1759 016a 019F     		ldr	r7, [sp, #4]
 1760              	.LVL141:
 1761              	.L125:
 739:pervasive_eink_hardware_driver.c ****         {
 1762              		.loc 1 739 0 discriminator 2
 1763 016c 2029     		cmp	r1, #32
 1764 016e 00D8     		bhi	.LCB1951
 1765 0170 78E7     		b	.L134	@long jump
 1766              	.LCB1951:
 1767              	.LVL142:
 779:pervasive_eink_hardware_driver.c ****                                     ?((newByte & PV_EINK_EVEN_MASK_D) 
 780:pervasive_eink_hardware_driver.c ****                                     ? PV_EINK_WHITE3 
 781:pervasive_eink_hardware_driver.c ****                                     : PV_EINK_BLACK3) : PV_EINK_NOTHING3;
 782:pervasive_eink_hardware_driver.c ****         }
 783:pervasive_eink_hardware_driver.c ****         /* Move onto the next line */
 784:pervasive_eink_hardware_driver.c ****         scanlineNumber = PV_EINK_VERTICAL_SIZE - y;
 785:pervasive_eink_hardware_driver.c ****         scanlineNumber--;
 1768              		.loc 1 785 0 discriminator 2
 1769 0172 AF23     		movs	r3, #175
 1770 0174 5246     		mov	r2, r10
 1771 0176 9B1A     		subs	r3, r3, r2
 1772 0178 1BB2     		sxth	r3, r3
 1773              	.LVL143:
 786:pervasive_eink_hardware_driver.c ****         
 787:pervasive_eink_hardware_driver.c ****         /* Shift Scan byte according to the data line */
 788:pervasive_eink_hardware_driver.c ****         dataLineScan[(scanlineNumber >> PV_EINK_PIXEL_SIZE)] = scanTable
 1774              		.loc 1 788 0 discriminator 2
 1775 017a 9910     		asrs	r1, r3, #2
 1776              	.LVL144:
 789:pervasive_eink_hardware_driver.c ****                             [(scanlineNumber % PV_EINK_SCAN_TABLE_SIZE)];
ARM GAS  C:\Users\bryan.lee\AppData\Local\Temp\ccAkWdHW.s 			page 60


 1777              		.loc 1 789 0 discriminator 2
 1778 017c DA17     		asrs	r2, r3, #31
 1779 017e 920F     		lsrs	r2, r2, #30
 1780 0180 9B18     		adds	r3, r3, r2
 1781              	.LVL145:
 1782 0182 0320     		movs	r0, #3
 1783 0184 0340     		ands	r3, r0
 1784 0186 9B1A     		subs	r3, r3, r2
 1785 0188 1BB2     		sxth	r3, r3
 1786 018a 254A     		ldr	r2, .L155+8
 1787 018c D318     		adds	r3, r2, r3
 1788 018e 1B7A     		ldrb	r3, [r3, #8]
 788:pervasive_eink_hardware_driver.c ****                             [(scanlineNumber % PV_EINK_SCAN_TABLE_SIZE)];
 1789              		.loc 1 788 0 discriminator 2
 1790 0190 4A46     		mov	r2, r9
 1791 0192 5354     		strb	r3, [r2, r1]
 723:pervasive_eink_hardware_driver.c ****     {
 1792              		.loc 1 723 0 discriminator 2
 1793 0194 5346     		mov	r3, r10
 1794 0196 5E1C     		adds	r6, r3, #1
 1795 0198 B3B2     		uxth	r3, r6
 1796 019a 9A46     		mov	r10, r3
 1797              	.LVL146:
 1798              	.L124:
 723:pervasive_eink_hardware_driver.c ****     {
 1799              		.loc 1 723 0 is_stmt 0 discriminator 1
 1800 019c 5346     		mov	r3, r10
 1801 019e AF2B     		cmp	r3, #175
 1802 01a0 00D8     		bhi	.LCB1995
 1803 01a2 3FE7     		b	.L135	@long jump
 1804              	.LCB1995:
 1805              	.LVL147:
 1806              	.L138:
 790:pervasive_eink_hardware_driver.c ****     }
 791:pervasive_eink_hardware_driver.c ****     
 792:pervasive_eink_hardware_driver.c ****     /* Perform the update operation until the total time of frames exceed stage
 793:pervasive_eink_hardware_driver.c ****        time */
 794:pervasive_eink_hardware_driver.c ****     do
 795:pervasive_eink_hardware_driver.c ****     {
 796:pervasive_eink_hardware_driver.c ****         /* Perform a line by line update */
 797:pervasive_eink_hardware_driver.c ****         for (y = 0; y < PV_EINK_VERTICAL_SIZE; y++)
 1807              		.loc 1 797 0 is_stmt 1
 1808 01a4 0024     		movs	r4, #0
 1809 01a6 21E0     		b	.L136
 1810              	.LVL148:
 1811              	.L137:
 798:pervasive_eink_hardware_driver.c ****         {
 799:pervasive_eink_hardware_driver.c ****             /* Send the prepared data to the E-INK display */
 800:pervasive_eink_hardware_driver.c ****             Pv_EINK_SendData(PV_EINK_PIXEL_DATA_COMMAND_INDEX,
 801:pervasive_eink_hardware_driver.c ****                             (uint8_t*) &bulkDriverPacket[y].lineBuffer,
 1812              		.loc 1 801 0 discriminator 3
 1813 01a8 E300     		lsls	r3, r4, #3
 1814 01aa 1B1B     		subs	r3, r3, r4
 1815 01ac 1B01     		lsls	r3, r3, #4
 1816 01ae 1B1B     		subs	r3, r3, r4
 1817 01b0 194D     		ldr	r5, .L155
 1818 01b2 5D19     		adds	r5, r3, r5
ARM GAS  C:\Users\bryan.lee\AppData\Local\Temp\ccAkWdHW.s 			page 61


 800:pervasive_eink_hardware_driver.c ****                             (uint8_t*) &bulkDriverPacket[y].lineBuffer,
 1819              		.loc 1 800 0 discriminator 3
 1820 01b4 6F22     		movs	r2, #111
 1821 01b6 2900     		movs	r1, r5
 1822 01b8 0A20     		movs	r0, #10
 1823 01ba FFF7FEFF 		bl	Pv_EINK_SendData
 1824              	.LVL149:
 802:pervasive_eink_hardware_driver.c ****                              PV_EINK_DATA_LINE_SIZE);
 803:pervasive_eink_hardware_driver.c ****             /* Turn on Output Enable to latch the frame */
 804:pervasive_eink_hardware_driver.c ****             Pv_EINK_SendByte(PV_EINK_ENABLE_OE_COMMAND_INDEX,
 1825              		.loc 1 804 0 discriminator 3
 1826 01be 0721     		movs	r1, #7
 1827 01c0 0220     		movs	r0, #2
 1828 01c2 FFF7FEFF 		bl	Pv_EINK_SendByte
 1829              	.LVL150:
 805:pervasive_eink_hardware_driver.c ****                              PV_EINK_ENABLE_OE_COMMAND_DATA);
 806:pervasive_eink_hardware_driver.c ****             
 807:pervasive_eink_hardware_driver.c ****             /* Calculate the current line under scan */
 808:pervasive_eink_hardware_driver.c ****             scanlineNumber = PV_EINK_VERTICAL_SIZE - y;
 809:pervasive_eink_hardware_driver.c ****             scanlineNumber--;
 1830              		.loc 1 809 0 discriminator 3
 1831 01c6 AF23     		movs	r3, #175
 1832 01c8 1B1B     		subs	r3, r3, r4
 1833 01ca 1BB2     		sxth	r3, r3
 1834              	.LVL151:
 810:pervasive_eink_hardware_driver.c ****             
 811:pervasive_eink_hardware_driver.c ****             /* Re-initialize the scan line (extra step for partial update) */
 812:pervasive_eink_hardware_driver.c ****             bulkDriverPacket[y].lineDataBySize.scan[(scanlineNumber 
 813:pervasive_eink_hardware_driver.c ****                                                      >> PV_EINK_PIXEL_SIZE)]
 1835              		.loc 1 813 0 discriminator 3
 1836 01cc 9B10     		asrs	r3, r3, #2
 1837              	.LVL152:
 814:pervasive_eink_hardware_driver.c ****                                                      = PV_EINK_SCAN_BYTE_INIT;
 1838              		.loc 1 814 0 discriminator 3
 1839 01ce EB18     		adds	r3, r5, r3
 1840 01d0 2233     		adds	r3, r3, #34
 1841 01d2 0022     		movs	r2, #0
 1842 01d4 1A70     		strb	r2, [r3]
 815:pervasive_eink_hardware_driver.c **** 
 816:pervasive_eink_hardware_driver.c ****             Pv_EINK_SendData(PV_EINK_PIXEL_DATA_COMMAND_INDEX,
 1843              		.loc 1 816 0 discriminator 3
 1844 01d6 6F32     		adds	r2, r2, #111
 1845 01d8 2900     		movs	r1, r5
 1846 01da 0A20     		movs	r0, #10
 1847 01dc FFF7FEFF 		bl	Pv_EINK_SendData
 1848              	.LVL153:
 817:pervasive_eink_hardware_driver.c ****                             (uint8_t*) &bulkDriverPacket[y].lineBuffer,
 818:pervasive_eink_hardware_driver.c ****                              PV_EINK_DATA_LINE_SIZE);
 819:pervasive_eink_hardware_driver.c ****             Pv_EINK_SendByte(PV_EINK_ENABLE_OE_COMMAND_INDEX,
 1849              		.loc 1 819 0 discriminator 3
 1850 01e0 0721     		movs	r1, #7
 1851 01e2 0220     		movs	r0, #2
 1852 01e4 FFF7FEFF 		bl	Pv_EINK_SendByte
 1853              	.LVL154:
 797:pervasive_eink_hardware_driver.c ****         {
 1854              		.loc 1 797 0 discriminator 3
 1855 01e8 0134     		adds	r4, r4, #1
ARM GAS  C:\Users\bryan.lee\AppData\Local\Temp\ccAkWdHW.s 			page 62


 1856              	.LVL155:
 1857 01ea A4B2     		uxth	r4, r4
 1858              	.LVL156:
 1859              	.L136:
 797:pervasive_eink_hardware_driver.c ****         {
 1860              		.loc 1 797 0 is_stmt 0 discriminator 1
 1861 01ec AF2C     		cmp	r4, #175
 1862 01ee DBD9     		bls	.L137
 820:pervasive_eink_hardware_driver.c ****                              PV_EINK_ENABLE_OE_COMMAND_DATA);
 821:pervasive_eink_hardware_driver.c ****         }
 822:pervasive_eink_hardware_driver.c ****     }
 823:pervasive_eink_hardware_driver.c ****     /* Loop until the total time of frames exceed stage time */
 824:pervasive_eink_hardware_driver.c ****     while (partialUpdateTime > Cy_EINK_GetTimeTick());
 1863              		.loc 1 824 0 is_stmt 1
 1864 01f0 7E23     		movs	r3, #126
 1865 01f2 0A4A     		ldr	r2, .L155+4
 1866 01f4 D45A     		ldrh	r4, [r2, r3]
 1867              	.LVL157:
 1868 01f6 FFF7FEFF 		bl	Cy_EINK_GetTimeTick
 1869              	.LVL158:
 1870 01fa 8442     		cmp	r4, r0
 1871 01fc D2D8     		bhi	.L138
 825:pervasive_eink_hardware_driver.c ****     
 826:pervasive_eink_hardware_driver.c ****     /* Stop system timer */
 827:pervasive_eink_hardware_driver.c ****     Cy_EINK_TimerStop();
 1872              		.loc 1 827 0
 1873 01fe FFF7FEFF 		bl	Cy_EINK_TimerStop
 1874              	.LVL159:
 828:pervasive_eink_hardware_driver.c ****     
 829:pervasive_eink_hardware_driver.c ****     /* Re-adjust Vcom level */
 830:pervasive_eink_hardware_driver.c ****     Pv_EINK_SendByte(PV_EINK_VCOM1_LEVEL_COMMAND_INDEX, 
 1875              		.loc 1 830 0
 1876 0202 C221     		movs	r1, #194
 1877 0204 0920     		movs	r0, #9
 1878 0206 FFF7FEFF 		bl	Pv_EINK_SendByte
 1879              	.LVL160:
 831:pervasive_eink_hardware_driver.c ****                      PV_EINK_VCOM1_LEVEL_COMMAND_DATA);
 832:pervasive_eink_hardware_driver.c **** }
 1880              		.loc 1 832 0
 1881 020a 03B0     		add	sp, sp, #12
 1882              		@ sp needed
 1883              	.LVL161:
 1884 020c 3CBC     		pop	{r2, r3, r4, r5}
 1885 020e 9046     		mov	r8, r2
 1886 0210 9946     		mov	r9, r3
 1887 0212 A246     		mov	r10, r4
 1888 0214 AB46     		mov	fp, r5
 1889 0216 F0BD     		pop	{r4, r5, r6, r7, pc}
 1890              	.L156:
 1891              		.align	2
 1892              	.L155:
 1893 0218 00000000 		.word	bulkDriverPacket
 1894 021c 00000000 		.word	.LANCHOR0
 1895 0220 00000000 		.word	.LANCHOR1
 1896              		.cfi_endproc
 1897              	.LFE460:
 1898              		.size	Pv_EINK_PartialStageHandler, .-Pv_EINK_PartialStageHandler
ARM GAS  C:\Users\bryan.lee\AppData\Local\Temp\ccAkWdHW.s 			page 63


 1899              		.section	.text.Pv_EINK_NothingFrame,"ax",%progbits
 1900              		.align	2
 1901              		.global	Pv_EINK_NothingFrame
 1902              		.code	16
 1903              		.thumb_func
 1904              		.type	Pv_EINK_NothingFrame, %function
 1905              	Pv_EINK_NothingFrame:
 1906              	.LFB461:
 833:pervasive_eink_hardware_driver.c **** 
 834:pervasive_eink_hardware_driver.c **** /*******************************************************************************
 835:pervasive_eink_hardware_driver.c **** * Function Name:  void Pv_EINK_NothingFrame(void)
 836:pervasive_eink_hardware_driver.c **** ********************************************************************************
 837:pervasive_eink_hardware_driver.c **** *
 838:pervasive_eink_hardware_driver.c **** * Summary: Write a "Nothing Frame" to driver. For a "Nothing Frame",
 839:pervasive_eink_hardware_driver.c **** * all pixel data D(x,y) are "01".
 840:pervasive_eink_hardware_driver.c **** * For more details, please refer to the driver G2 document Section 6.
 841:pervasive_eink_hardware_driver.c **** *
 842:pervasive_eink_hardware_driver.c **** * Parameters:
 843:pervasive_eink_hardware_driver.c **** *  None
 844:pervasive_eink_hardware_driver.c **** *
 845:pervasive_eink_hardware_driver.c **** * Return:
 846:pervasive_eink_hardware_driver.c **** *  None
 847:pervasive_eink_hardware_driver.c **** *
 848:pervasive_eink_hardware_driver.c **** * Side Effects:
 849:pervasive_eink_hardware_driver.c **** *  None
 850:pervasive_eink_hardware_driver.c **** *******************************************************************************/
 851:pervasive_eink_hardware_driver.c **** void Pv_EINK_NothingFrame(void)
 852:pervasive_eink_hardware_driver.c **** {
 1907              		.loc 1 852 0
 1908              		.cfi_startproc
 1909              		@ args = 0, pretend = 0, frame = 0
 1910              		@ frame_needed = 0, uses_anonymous_args = 0
 1911 0000 70B5     		push	{r4, r5, r6, lr}
 1912              		.cfi_def_cfa_offset 16
 1913              		.cfi_offset 4, -16
 1914              		.cfi_offset 5, -12
 1915              		.cfi_offset 6, -8
 1916              		.cfi_offset 14, -4
 1917              	.LVL162:
 853:pervasive_eink_hardware_driver.c ****     /* Counter variable for data line bytes */
 854:pervasive_eink_hardware_driver.c ****     uint16_t    byteCounter;
 855:pervasive_eink_hardware_driver.c ****     
 856:pervasive_eink_hardware_driver.c ****     /* Set all Even and Odd data bytes as "Nothing" bytes */
 857:pervasive_eink_hardware_driver.c ****     for (byteCounter = 0; byteCounter < PV_EINK_HORIZONTAL_SIZE; byteCounter++)
 1918              		.loc 1 857 0
 1919 0002 0023     		movs	r3, #0
 1920 0004 07E0     		b	.L158
 1921              	.LVL163:
 1922              	.L159:
 858:pervasive_eink_hardware_driver.c ****     {
 859:pervasive_eink_hardware_driver.c ****         dataLineEven[byteCounter] = PV_EINK_NOTHING;
 1923              		.loc 1 859 0 discriminator 3
 1924 0006 1349     		ldr	r1, .L162
 1925 0008 5522     		movs	r2, #85
 1926 000a 086F     		ldr	r0, [r1, #112]
 1927 000c C254     		strb	r2, [r0, r3]
 860:pervasive_eink_hardware_driver.c ****         dataLineOdd[byteCounter] = PV_EINK_NOTHING;
ARM GAS  C:\Users\bryan.lee\AppData\Local\Temp\ccAkWdHW.s 			page 64


 1928              		.loc 1 860 0 discriminator 3
 1929 000e 496F     		ldr	r1, [r1, #116]
 1930 0010 CA54     		strb	r2, [r1, r3]
 857:pervasive_eink_hardware_driver.c ****     {
 1931              		.loc 1 857 0 discriminator 3
 1932 0012 0133     		adds	r3, r3, #1
 1933              	.LVL164:
 1934 0014 9BB2     		uxth	r3, r3
 1935              	.LVL165:
 1936              	.L158:
 857:pervasive_eink_hardware_driver.c ****     {
 1937              		.loc 1 857 0 is_stmt 0 discriminator 1
 1938 0016 202B     		cmp	r3, #32
 1939 0018 F5D9     		bls	.L159
 1940 001a 0024     		movs	r4, #0
 1941 001c 17E0     		b	.L160
 1942              	.LVL166:
 1943              	.L161:
 861:pervasive_eink_hardware_driver.c ****     }
 862:pervasive_eink_hardware_driver.c ****     /* Send the same horizontal data for all vertical lines */
 863:pervasive_eink_hardware_driver.c ****     for (byteCounter = 0; byteCounter < PV_EINK_VERTICAL_SIZE; byteCounter++)
 864:pervasive_eink_hardware_driver.c ****     {
 865:pervasive_eink_hardware_driver.c ****         /* Scan byte shift per data line */
 866:pervasive_eink_hardware_driver.c ****         dataLineScan[(byteCounter >> PV_EINK_PIXEL_SIZE)] = scanTable
 1944              		.loc 1 866 0 is_stmt 1 discriminator 3
 1945 001e A508     		lsrs	r5, r4, #2
 1946 0020 0C4E     		ldr	r6, .L162
 867:pervasive_eink_hardware_driver.c ****                             [(byteCounter % PV_EINK_SCAN_TABLE_SIZE)];
 1947              		.loc 1 867 0 discriminator 3
 1948 0022 0323     		movs	r3, #3
 1949 0024 2340     		ands	r3, r4
 1950 0026 0C4A     		ldr	r2, .L162+4
 1951 0028 D318     		adds	r3, r2, r3
 1952 002a 1B7A     		ldrb	r3, [r3, #8]
 866:pervasive_eink_hardware_driver.c ****                             [(byteCounter % PV_EINK_SCAN_TABLE_SIZE)];
 1953              		.loc 1 866 0 discriminator 3
 1954 002c B26F     		ldr	r2, [r6, #120]
 1955 002e 5355     		strb	r3, [r2, r5]
 868:pervasive_eink_hardware_driver.c ****         
 869:pervasive_eink_hardware_driver.c ****         /* Send the prepared data to the E-INK display */
 870:pervasive_eink_hardware_driver.c ****         Pv_EINK_SendData(PV_EINK_PIXEL_DATA_COMMAND_INDEX,
 1956              		.loc 1 870 0 discriminator 3
 1957 0030 6F22     		movs	r2, #111
 1958 0032 3100     		movs	r1, r6
 1959 0034 0A20     		movs	r0, #10
 1960 0036 FFF7FEFF 		bl	Pv_EINK_SendData
 1961              	.LVL167:
 871:pervasive_eink_hardware_driver.c ****                         (uint8_t*) &driverPacket.lineBuffer,
 872:pervasive_eink_hardware_driver.c ****                          PV_EINK_DATA_LINE_SIZE);
 873:pervasive_eink_hardware_driver.c ****         /* Turn on Output Enable to latch the frame */
 874:pervasive_eink_hardware_driver.c ****         Pv_EINK_SendByte(PV_EINK_ENABLE_OE_COMMAND_INDEX, 
 1962              		.loc 1 874 0 discriminator 3
 1963 003a 0721     		movs	r1, #7
 1964 003c 0220     		movs	r0, #2
 1965 003e FFF7FEFF 		bl	Pv_EINK_SendByte
 1966              	.LVL168:
 875:pervasive_eink_hardware_driver.c ****                          PV_EINK_ENABLE_OE_COMMAND_DATA);
ARM GAS  C:\Users\bryan.lee\AppData\Local\Temp\ccAkWdHW.s 			page 65


 876:pervasive_eink_hardware_driver.c ****         
 877:pervasive_eink_hardware_driver.c ****         /* Initialize the next scan byte */
 878:pervasive_eink_hardware_driver.c ****         dataLineScan[(byteCounter >> PV_EINK_PIXEL_SIZE)] = 0u;
 1967              		.loc 1 878 0 discriminator 3
 1968 0042 B36F     		ldr	r3, [r6, #120]
 1969 0044 5D19     		adds	r5, r3, r5
 1970 0046 0023     		movs	r3, #0
 1971 0048 2B70     		strb	r3, [r5]
 863:pervasive_eink_hardware_driver.c ****     {
 1972              		.loc 1 863 0 discriminator 3
 1973 004a 0134     		adds	r4, r4, #1
 1974              	.LVL169:
 1975 004c A4B2     		uxth	r4, r4
 1976              	.LVL170:
 1977              	.L160:
 863:pervasive_eink_hardware_driver.c ****     {
 1978              		.loc 1 863 0 is_stmt 0 discriminator 1
 1979 004e AF2C     		cmp	r4, #175
 1980 0050 E5D9     		bls	.L161
 879:pervasive_eink_hardware_driver.c ****     }
 880:pervasive_eink_hardware_driver.c **** }
 1981              		.loc 1 880 0 is_stmt 1
 1982              		@ sp needed
 1983              	.LVL171:
 1984 0052 70BD     		pop	{r4, r5, r6, pc}
 1985              	.L163:
 1986              		.align	2
 1987              	.L162:
 1988 0054 00000000 		.word	.LANCHOR0
 1989 0058 00000000 		.word	.LANCHOR1
 1990              		.cfi_endproc
 1991              	.LFE461:
 1992              		.size	Pv_EINK_NothingFrame, .-Pv_EINK_NothingFrame
 1993              		.section	.text.Pv_EINK_DummyLine,"ax",%progbits
 1994              		.align	2
 1995              		.global	Pv_EINK_DummyLine
 1996              		.code	16
 1997              		.thumb_func
 1998              		.type	Pv_EINK_DummyLine, %function
 1999              	Pv_EINK_DummyLine:
 2000              	.LFB462:
 881:pervasive_eink_hardware_driver.c **** 
 882:pervasive_eink_hardware_driver.c **** /*******************************************************************************
 883:pervasive_eink_hardware_driver.c **** * Function Name:  void Pv_EINK_DummyLine(void)
 884:pervasive_eink_hardware_driver.c **** ********************************************************************************
 885:pervasive_eink_hardware_driver.c **** *
 886:pervasive_eink_hardware_driver.c **** * Summary: Write a "Dummy Line" to driver. For a "Dummy Line" , all pixel data
 887:pervasive_eink_hardware_driver.c **** * are "00". For more details, please refer to the driver G2 document Section 6.
 888:pervasive_eink_hardware_driver.c **** *
 889:pervasive_eink_hardware_driver.c **** * Parameters:
 890:pervasive_eink_hardware_driver.c **** *  None
 891:pervasive_eink_hardware_driver.c **** *
 892:pervasive_eink_hardware_driver.c **** * Return:
 893:pervasive_eink_hardware_driver.c **** *  None
 894:pervasive_eink_hardware_driver.c **** *
 895:pervasive_eink_hardware_driver.c **** * Side Effects:
 896:pervasive_eink_hardware_driver.c **** *  None
ARM GAS  C:\Users\bryan.lee\AppData\Local\Temp\ccAkWdHW.s 			page 66


 897:pervasive_eink_hardware_driver.c **** *******************************************************************************/
 898:pervasive_eink_hardware_driver.c **** void Pv_EINK_DummyLine(void)
 899:pervasive_eink_hardware_driver.c **** {
 2001              		.loc 1 899 0
 2002              		.cfi_startproc
 2003              		@ args = 0, pretend = 0, frame = 0
 2004              		@ frame_needed = 0, uses_anonymous_args = 0
 2005 0000 10B5     		push	{r4, lr}
 2006              		.cfi_def_cfa_offset 8
 2007              		.cfi_offset 4, -8
 2008              		.cfi_offset 14, -4
 2009              	.LVL172:
 900:pervasive_eink_hardware_driver.c ****     /* Counter variable for data line bytes */
 901:pervasive_eink_hardware_driver.c ****     uint8_t byteCounter;
 902:pervasive_eink_hardware_driver.c ****     
 903:pervasive_eink_hardware_driver.c ****     /* Create a data line containing dummy bytes */
 904:pervasive_eink_hardware_driver.c ****     for (byteCounter = 0; byteCounter < (PV_EINK_VERTICAL_SIZE 
 2010              		.loc 1 904 0
 2011 0002 0023     		movs	r3, #0
 2012 0004 04E0     		b	.L165
 2013              	.LVL173:
 2014              	.L166:
 905:pervasive_eink_hardware_driver.c ****                                         / CY_EINK_BYTE_SIZE);
 906:pervasive_eink_hardware_driver.c ****          byteCounter++)
 907:pervasive_eink_hardware_driver.c ****     {
 908:pervasive_eink_hardware_driver.c ****         driverPacket.lineBuffer[byteCounter] = PV_EINK_DUMMY_BYTE;
 2015              		.loc 1 908 0
 2016 0006 0021     		movs	r1, #0
 2017 0008 094A     		ldr	r2, .L167
 2018 000a D154     		strb	r1, [r2, r3]
 906:pervasive_eink_hardware_driver.c ****     {
 2019              		.loc 1 906 0
 2020 000c 0133     		adds	r3, r3, #1
 2021              	.LVL174:
 2022 000e DBB2     		uxtb	r3, r3
 2023              	.LVL175:
 2024              	.L165:
 904:pervasive_eink_hardware_driver.c ****                                         / CY_EINK_BYTE_SIZE);
 2025              		.loc 1 904 0 discriminator 1
 2026 0010 152B     		cmp	r3, #21
 2027 0012 F8D9     		bls	.L166
 909:pervasive_eink_hardware_driver.c ****     }
 910:pervasive_eink_hardware_driver.c ****     
 911:pervasive_eink_hardware_driver.c ****     /* Set charge pump voltage level to reduce voltage shift */
 912:pervasive_eink_hardware_driver.c ****     Pv_EINK_SendByte(PV_EINK_PWR2_SETTING_COMMAND_INDEX, 
 2028              		.loc 1 912 0
 2029 0014 0021     		movs	r1, #0
 2030 0016 0420     		movs	r0, #4
 2031 0018 FFF7FEFF 		bl	Pv_EINK_SendByte
 2032              	.LVL176:
 913:pervasive_eink_hardware_driver.c ****                      PV_EINK_VOLTAGE_LEVEL);
 914:pervasive_eink_hardware_driver.c ****     /* Send the prepared data to the E-INK display */
 915:pervasive_eink_hardware_driver.c ****     Pv_EINK_SendData(PV_EINK_PIXEL_DATA_COMMAND_INDEX,
 2033              		.loc 1 915 0
 2034 001c 6F22     		movs	r2, #111
 2035 001e 0449     		ldr	r1, .L167
 2036 0020 0A20     		movs	r0, #10
ARM GAS  C:\Users\bryan.lee\AppData\Local\Temp\ccAkWdHW.s 			page 67


 2037 0022 FFF7FEFF 		bl	Pv_EINK_SendData
 2038              	.LVL177:
 916:pervasive_eink_hardware_driver.c ****                     (uint8_t*) &driverPacket.lineBuffer, 
 917:pervasive_eink_hardware_driver.c ****                      PV_EINK_DATA_LINE_SIZE);
 918:pervasive_eink_hardware_driver.c ****     /* Turn on Output Enable to latch the frame */
 919:pervasive_eink_hardware_driver.c ****     Pv_EINK_SendByte(PV_EINK_ENABLE_OE_COMMAND_INDEX, 
 2039              		.loc 1 919 0
 2040 0026 0721     		movs	r1, #7
 2041 0028 0220     		movs	r0, #2
 2042 002a FFF7FEFF 		bl	Pv_EINK_SendByte
 2043              	.LVL178:
 920:pervasive_eink_hardware_driver.c ****                      PV_EINK_ENABLE_OE_COMMAND_DATA);
 921:pervasive_eink_hardware_driver.c **** }
 2044              		.loc 1 921 0
 2045              		@ sp needed
 2046 002e 10BD     		pop	{r4, pc}
 2047              	.L168:
 2048              		.align	2
 2049              	.L167:
 2050 0030 00000000 		.word	.LANCHOR0
 2051              		.cfi_endproc
 2052              	.LFE462:
 2053              		.size	Pv_EINK_DummyLine, .-Pv_EINK_DummyLine
 2054              		.section	.text.Pv_EINK_HardwarePowerOn,"ax",%progbits
 2055              		.align	2
 2056              		.global	Pv_EINK_HardwarePowerOn
 2057              		.code	16
 2058              		.thumb_func
 2059              		.type	Pv_EINK_HardwarePowerOn, %function
 2060              	Pv_EINK_HardwarePowerOn:
 2061              	.LFB463:
 922:pervasive_eink_hardware_driver.c **** 
 923:pervasive_eink_hardware_driver.c **** /*******************************************************************************
 924:pervasive_eink_hardware_driver.c **** * Function Name: pv_eink_status_t Pv_EINK_HardwarePowerOn()
 925:pervasive_eink_hardware_driver.c **** ********************************************************************************
 926:pervasive_eink_hardware_driver.c **** *
 927:pervasive_eink_hardware_driver.c **** * Summary: Power on E-INK Driver. For detailed flow and description, please refer
 928:pervasive_eink_hardware_driver.c **** * to the driver G2 document Section 3.
 929:pervasive_eink_hardware_driver.c **** *
 930:pervasive_eink_hardware_driver.c **** * Parameters:
 931:pervasive_eink_hardware_driver.c **** *  None
 932:pervasive_eink_hardware_driver.c **** *
 933:pervasive_eink_hardware_driver.c **** * Return:
 934:pervasive_eink_hardware_driver.c **** *  pv_eink_status_t: Status of the power on operation
 935:pervasive_eink_hardware_driver.c **** *
 936:pervasive_eink_hardware_driver.c **** * Side Effects:
 937:pervasive_eink_hardware_driver.c **** *  None
 938:pervasive_eink_hardware_driver.c **** *******************************************************************************/
 939:pervasive_eink_hardware_driver.c **** pv_eink_status_t Pv_EINK_HardwarePowerOn(void)
 940:pervasive_eink_hardware_driver.c **** {
 2062              		.loc 1 940 0
 2063              		.cfi_startproc
 2064              		@ args = 0, pretend = 0, frame = 0
 2065              		@ frame_needed = 0, uses_anonymous_args = 0
 2066 0000 70B5     		push	{r4, r5, r6, lr}
 2067              		.cfi_def_cfa_offset 16
 2068              		.cfi_offset 4, -16
ARM GAS  C:\Users\bryan.lee\AppData\Local\Temp\ccAkWdHW.s 			page 68


 2069              		.cfi_offset 5, -12
 2070              		.cfi_offset 6, -8
 2071              		.cfi_offset 14, -4
 2072              	.LVL179:
 2073              	.LBB86:
 2074              	.LBB87:
 2075              		.loc 2 753 0
 2076 0002 0E4C     		ldr	r4, .L170
 2077 0004 1023     		movs	r3, #16
 2078 0006 A360     		str	r3, [r4, #8]
 2079              	.LVL180:
 2080              	.LBE87:
 2081              	.LBE86:
 941:pervasive_eink_hardware_driver.c ****     /* Enable the load switch connected to E-INK display's Vcc, and wait till
 942:pervasive_eink_hardware_driver.c ****     the voltage ramps up to the level required for proper operation of E-INK */
 943:pervasive_eink_hardware_driver.c ****     CY_EINK_TurnOnVcc;
 944:pervasive_eink_hardware_driver.c ****     CY_EINK_Delay(PV_EINK_PWR_DELAY);
 2082              		.loc 1 944 0
 2083 0008 1420     		movs	r0, #20
 2084 000a FFF7FEFF 		bl	Cy_SysLib_Delay
 2085              	.LVL181:
 945:pervasive_eink_hardware_driver.c ****     
 946:pervasive_eink_hardware_driver.c ****     /* Attach PSoC's SPI hardware to E-INK driver */
 947:pervasive_eink_hardware_driver.c ****     Cy_EINK_AttachSPI();
 2086              		.loc 1 947 0
 2087 000e FFF7FEFF 		bl	Cy_EINK_AttachSPI
 2088              	.LVL182:
 2089              	.LBB88:
 2090              	.LBB89:
 2091              		.loc 2 753 0
 2092 0012 0822     		movs	r2, #8
 2093 0014 0A4B     		ldr	r3, .L170+4
 2094 0016 9A60     		str	r2, [r3, #8]
 2095              	.LVL183:
 2096              	.LBE89:
 2097              	.LBE88:
 2098              	.LBB90:
 2099              	.LBB91:
 2100 0018 4023     		movs	r3, #64
 2101 001a A360     		str	r3, [r4, #8]
 2102              	.LVL184:
 2103              	.LBE91:
 2104              	.LBE90:
 2105              	.LBB92:
 2106              	.LBB93:
 2107 001c 0425     		movs	r5, #4
 2108 001e A560     		str	r5, [r4, #8]
 2109              	.LVL185:
 2110              	.LBE93:
 2111              	.LBE92:
 948:pervasive_eink_hardware_driver.c ****     /* Push the chip select, and border pins to HIGH */
 949:pervasive_eink_hardware_driver.c ****     CY_EINK_CsHigh;
 950:pervasive_eink_hardware_driver.c ****     CY_EINK_BorderHigh;
 951:pervasive_eink_hardware_driver.c ****     
 952:pervasive_eink_hardware_driver.c ****     /* Create two pulses on the reset line to properly reset the E-INK driver */
 953:pervasive_eink_hardware_driver.c ****     CY_EINK_RstHigh;
 954:pervasive_eink_hardware_driver.c ****     CY_EINK_Delay(PV_EINK_PIN_DELAY);
ARM GAS  C:\Users\bryan.lee\AppData\Local\Temp\ccAkWdHW.s 			page 69


 2112              		.loc 1 954 0
 2113 0020 0A20     		movs	r0, #10
 2114 0022 FFF7FEFF 		bl	Cy_SysLib_Delay
 2115              	.LVL186:
 2116              	.LBB94:
 2117              	.LBB95:
 749:Generated_Source\PSoC6\pdl\drivers/peripheral/gpio/cy_gpio.h ****     }
 2118              		.loc 2 749 0
 2119 0026 6560     		str	r5, [r4, #4]
 2120              	.LVL187:
 2121              	.LBE95:
 2122              	.LBE94:
 955:pervasive_eink_hardware_driver.c ****     CY_EINK_RstLow;
 956:pervasive_eink_hardware_driver.c ****     CY_EINK_Delay(PV_EINK_PIN_DELAY);
 2123              		.loc 1 956 0
 2124 0028 0A20     		movs	r0, #10
 2125 002a FFF7FEFF 		bl	Cy_SysLib_Delay
 2126              	.LVL188:
 2127              	.LBB96:
 2128              	.LBB97:
 2129              		.loc 2 753 0
 2130 002e A560     		str	r5, [r4, #8]
 2131              	.LVL189:
 2132              	.LBE97:
 2133              	.LBE96:
 957:pervasive_eink_hardware_driver.c ****     CY_EINK_RstHigh;
 958:pervasive_eink_hardware_driver.c ****     CY_EINK_Delay(PV_EINK_PIN_DELAY);
 2134              		.loc 1 958 0
 2135 0030 0A20     		movs	r0, #10
 2136 0032 FFF7FEFF 		bl	Cy_SysLib_Delay
 2137              	.LVL190:
 959:pervasive_eink_hardware_driver.c ****     
 960:pervasive_eink_hardware_driver.c ****     /* Initialize E-INK Driver */
 961:pervasive_eink_hardware_driver.c ****     return(Pv_EINK_InitDriver());
 2138              		.loc 1 961 0
 2139 0036 FFF7FEFF 		bl	Pv_EINK_InitDriver
 2140              	.LVL191:
 962:pervasive_eink_hardware_driver.c **** }
 2141              		.loc 1 962 0
 2142              		@ sp needed
 2143 003a 70BD     		pop	{r4, r5, r6, pc}
 2144              	.L171:
 2145              		.align	2
 2146              	.L170:
 2147 003c 80023240 		.word	1077019264
 2148 0040 00063240 		.word	1077020160
 2149              		.cfi_endproc
 2150              	.LFE463:
 2151              		.size	Pv_EINK_HardwarePowerOn, .-Pv_EINK_HardwarePowerOn
 2152              		.section	.text.Pv_EINK_HardwarePowerOff,"ax",%progbits
 2153              		.align	2
 2154              		.global	Pv_EINK_HardwarePowerOff
 2155              		.code	16
 2156              		.thumb_func
 2157              		.type	Pv_EINK_HardwarePowerOff, %function
 2158              	Pv_EINK_HardwarePowerOff:
 2159              	.LFB464:
ARM GAS  C:\Users\bryan.lee\AppData\Local\Temp\ccAkWdHW.s 			page 70


 963:pervasive_eink_hardware_driver.c **** 
 964:pervasive_eink_hardware_driver.c **** /*******************************************************************************
 965:pervasive_eink_hardware_driver.c **** * Function Name:  pv_eink_status_t Pv_EINK_HardwarePowerOff(void)
 966:pervasive_eink_hardware_driver.c **** ********************************************************************************
 967:pervasive_eink_hardware_driver.c **** *
 968:pervasive_eink_hardware_driver.c **** * Summary: Safely power off the E-INK display. For detailed flow and description,
 969:pervasive_eink_hardware_driver.c **** * please refer to the driver G2 document Section 6.
 970:pervasive_eink_hardware_driver.c **** *
 971:pervasive_eink_hardware_driver.c **** * Parameters:
 972:pervasive_eink_hardware_driver.c **** *  None
 973:pervasive_eink_hardware_driver.c **** *
 974:pervasive_eink_hardware_driver.c **** * Return:
 975:pervasive_eink_hardware_driver.c **** *  pv_eink_status_t : Status of the power off operation
 976:pervasive_eink_hardware_driver.c **** *
 977:pervasive_eink_hardware_driver.c **** * Side Effects:
 978:pervasive_eink_hardware_driver.c **** *  None
 979:pervasive_eink_hardware_driver.c **** *******************************************************************************/
 980:pervasive_eink_hardware_driver.c **** pv_eink_status_t Pv_EINK_HardwarePowerOff(void)
 981:pervasive_eink_hardware_driver.c **** {
 2160              		.loc 1 981 0
 2161              		.cfi_startproc
 2162              		@ args = 0, pretend = 0, frame = 0
 2163              		@ frame_needed = 0, uses_anonymous_args = 0
 2164 0000 70B5     		push	{r4, r5, r6, lr}
 2165              		.cfi_def_cfa_offset 16
 2166              		.cfi_offset 4, -16
 2167              		.cfi_offset 5, -12
 2168              		.cfi_offset 6, -8
 2169              		.cfi_offset 14, -4
 982:pervasive_eink_hardware_driver.c ****     /* Send a "Nothing Frame", followed by a "Dummy Line" to the E-INK driver */
 983:pervasive_eink_hardware_driver.c ****     Pv_EINK_NothingFrame();
 2170              		.loc 1 983 0
 2171 0002 FFF7FEFF 		bl	Pv_EINK_NothingFrame
 2172              	.LVL192:
 984:pervasive_eink_hardware_driver.c ****     Pv_EINK_DummyLine();
 2173              		.loc 1 984 0
 2174 0006 FFF7FEFF 		bl	Pv_EINK_DummyLine
 2175              	.LVL193:
 985:pervasive_eink_hardware_driver.c ****     
 986:pervasive_eink_hardware_driver.c ****     /* After E-INK updates, the border color may degrade to a gray level that is not
 987:pervasive_eink_hardware_driver.c ****     as white as the active area. Toggle the Border pin to avoid this phenomenon. */
 988:pervasive_eink_hardware_driver.c ****     CY_EINK_Delay(PV_EINK_DUMMY_LINE_DELAY);
 2176              		.loc 1 988 0
 2177 000a 1E20     		movs	r0, #30
 2178 000c FFF7FEFF 		bl	Cy_SysLib_Delay
 2179              	.LVL194:
 2180              	.LBB98:
 2181              	.LBB99:
 749:Generated_Source\PSoC6\pdl\drivers/peripheral/gpio/cy_gpio.h ****     }
 2182              		.loc 2 749 0
 2183 0010 234C     		ldr	r4, .L175
 2184 0012 4025     		movs	r5, #64
 2185 0014 6560     		str	r5, [r4, #4]
 2186              	.LVL195:
 2187              	.LBE99:
 2188              	.LBE98:
 989:pervasive_eink_hardware_driver.c ****     CY_EINK_BorderLow;
ARM GAS  C:\Users\bryan.lee\AppData\Local\Temp\ccAkWdHW.s 			page 71


 990:pervasive_eink_hardware_driver.c ****     CY_EINK_Delay(PV_EINK_BOARDER_DELAY);
 2189              		.loc 1 990 0
 2190 0016 3220     		movs	r0, #50
 2191 0018 FFF7FEFF 		bl	Cy_SysLib_Delay
 2192              	.LVL196:
 2193              	.LBB100:
 2194              	.LBB101:
 2195              		.loc 2 753 0
 2196 001c A560     		str	r5, [r4, #8]
 2197              	.LVL197:
 2198              	.LBE101:
 2199              	.LBE100:
 991:pervasive_eink_hardware_driver.c ****     CY_EINK_BorderHigh;
 992:pervasive_eink_hardware_driver.c ****     
 993:pervasive_eink_hardware_driver.c ****     /* Check DC level */
 994:pervasive_eink_hardware_driver.c ****     if ((Pv_EINK_ReadByte(PV_EINK_DC_LEVEL_READ_COMMAND_INDEX,
 2200              		.loc 1 994 0
 2201 001e 0021     		movs	r1, #0
 2202 0020 0F20     		movs	r0, #15
 2203 0022 FFF7FEFF 		bl	Pv_EINK_ReadByte
 2204              	.LVL198:
 2205 0026 4306     		lsls	r3, r0, #25
 2206 0028 37D5     		bpl	.L174
 995:pervasive_eink_hardware_driver.c ****                        PV_EINK_DC_LEVEL_READ_COMMAND_DATA) & PV_EINK_DC_LEVEL_MASK
 996:pervasive_eink_hardware_driver.c ****         ) == PV_EINK_DC_LEVEL_CHECK)
 997:pervasive_eink_hardware_driver.c ****     {
 998:pervasive_eink_hardware_driver.c ****         /* Return error message for improper DC level */
 999:pervasive_eink_hardware_driver.c ****         return(PV_EINK_ERROR_DC);
1000:pervasive_eink_hardware_driver.c ****     }
1001:pervasive_eink_hardware_driver.c ****     
1002:pervasive_eink_hardware_driver.c ****     /* Power Saving */
1003:pervasive_eink_hardware_driver.c ****     Pv_EINK_SendByte(PV_EINK_PWR_SAVING_COMMAND_INDEX,
 2207              		.loc 1 1003 0
 2208 002a 0021     		movs	r1, #0
 2209 002c 0B20     		movs	r0, #11
 2210 002e FFF7FEFF 		bl	Pv_EINK_SendByte
 2211              	.LVL199:
1004:pervasive_eink_hardware_driver.c ****                      PV_EINK_PWR2_SAVING_COMMAND_DATA);
1005:pervasive_eink_hardware_driver.c ****     /* Turn on Latch Reset */
1006:pervasive_eink_hardware_driver.c ****     Pv_EINK_SendByte(PV_EINK_LATCH_ON_COMMAND_INDEX,
 2212              		.loc 1 1006 0
 2213 0032 0121     		movs	r1, #1
 2214 0034 0320     		movs	r0, #3
 2215 0036 FFF7FEFF 		bl	Pv_EINK_SendByte
 2216              	.LVL200:
1007:pervasive_eink_hardware_driver.c ****                      PV_EINK_LATCH_ON_COMMAND_DATA);
1008:pervasive_eink_hardware_driver.c ****     /* Power off charge pump Vcom */
1009:pervasive_eink_hardware_driver.c ****     Pv_EINK_SendByte(PV_EINK_VGL_VDL_ON_COMMAND_INDEX,
 2217              		.loc 1 1009 0
 2218 003a 0321     		movs	r1, #3
 2219 003c 0520     		movs	r0, #5
 2220 003e FFF7FEFF 		bl	Pv_EINK_SendByte
 2221              	.LVL201:
1010:pervasive_eink_hardware_driver.c ****                      PV_EINK_VGL_VDL_ON_COMMAND_DATA);
1011:pervasive_eink_hardware_driver.c ****     /* Power off charge pump negative voltage */
1012:pervasive_eink_hardware_driver.c ****     Pv_EINK_SendByte(PV_EINK_VGH_VDH_ON_COMMAND_INDEX,
 2222              		.loc 1 1012 0
ARM GAS  C:\Users\bryan.lee\AppData\Local\Temp\ccAkWdHW.s 			page 72


 2223 0042 0121     		movs	r1, #1
 2224 0044 0520     		movs	r0, #5
 2225 0046 FFF7FEFF 		bl	Pv_EINK_SendByte
 2226              	.LVL202:
1013:pervasive_eink_hardware_driver.c ****                      PV_EINK_VGH_VDH_ON_COMMAND_DATA);
1014:pervasive_eink_hardware_driver.c ****     
1015:pervasive_eink_hardware_driver.c ****     CY_EINK_Delay(PV_EINK_DISCH_SPI_DELAY);
 2227              		.loc 1 1015 0
 2228 004a 3220     		movs	r0, #50
 2229 004c FFF7FEFF 		bl	Cy_SysLib_Delay
 2230              	.LVL203:
1016:pervasive_eink_hardware_driver.c ****     /* Discharge internal SPI */
1017:pervasive_eink_hardware_driver.c ****     Pv_EINK_SendByte(PV_EINK_DISCH_SPI_COMMAND_INDEX, 
 2231              		.loc 1 1017 0
 2232 0050 8021     		movs	r1, #128
 2233 0052 0420     		movs	r0, #4
 2234 0054 FFF7FEFF 		bl	Pv_EINK_SendByte
 2235              	.LVL204:
1018:pervasive_eink_hardware_driver.c ****                      PV_EINK_DISCH_SPI_COMMAND_DATA);
1019:pervasive_eink_hardware_driver.c ****     /* Turn off all charge pump */
1020:pervasive_eink_hardware_driver.c ****     Pv_EINK_SendByte(PV_EINK_CH_PUMP_OFF_COMMAND_INDEX, 
 2236              		.loc 1 1020 0
 2237 0058 0021     		movs	r1, #0
 2238 005a 0520     		movs	r0, #5
 2239 005c FFF7FEFF 		bl	Pv_EINK_SendByte
 2240              	.LVL205:
1021:pervasive_eink_hardware_driver.c ****                      PV_EINK_CH_PUMP_OFF_COMMAND_DATA);
1022:pervasive_eink_hardware_driver.c ****     /* Turn off OSC */
1023:pervasive_eink_hardware_driver.c ****     Pv_EINK_SendByte(PV_EINK_OSC_OFF_COMMAND_INDEX, 
 2241              		.loc 1 1023 0
 2242 0060 0121     		movs	r1, #1
 2243 0062 0720     		movs	r0, #7
 2244 0064 FFF7FEFF 		bl	Pv_EINK_SendByte
 2245              	.LVL206:
1024:pervasive_eink_hardware_driver.c ****                      PV_EINK_OSC_OFF_COMMAND_DATA);
1025:pervasive_eink_hardware_driver.c ****     CY_EINK_Delay(PV_EINK_PWR_OFF_DELAY);
 2246              		.loc 1 1025 0
 2247 0068 1E20     		movs	r0, #30
 2248 006a FFF7FEFF 		bl	Cy_SysLib_Delay
 2249              	.LVL207:
1026:pervasive_eink_hardware_driver.c ****     
1027:pervasive_eink_hardware_driver.c ****     /* Detach SPI and disable the load switch connected to E-INK display's Vcc */
1028:pervasive_eink_hardware_driver.c ****     Cy_EINK_DetachSPI();
 2250              		.loc 1 1028 0
 2251 006e FFF7FEFF 		bl	Cy_EINK_DetachSPI
 2252              	.LVL208:
 2253              	.LBB102:
 2254              	.LBB103:
 749:Generated_Source\PSoC6\pdl\drivers/peripheral/gpio/cy_gpio.h ****     }
 2255              		.loc 2 749 0
 2256 0072 1023     		movs	r3, #16
 2257 0074 6360     		str	r3, [r4, #4]
 2258              	.LVL209:
 2259              	.LBE103:
 2260              	.LBE102:
 2261              	.LBB104:
 2262              	.LBB105:
ARM GAS  C:\Users\bryan.lee\AppData\Local\Temp\ccAkWdHW.s 			page 73


 2263 0076 3033     		adds	r3, r3, #48
 2264 0078 6360     		str	r3, [r4, #4]
 2265              	.LVL210:
 2266              	.LBE105:
 2267              	.LBE104:
1029:pervasive_eink_hardware_driver.c ****     CY_EINK_TurnOffVcc;
1030:pervasive_eink_hardware_driver.c ****     
1031:pervasive_eink_hardware_driver.c ****     /* Return the pins to their default (OFF) values*/
1032:pervasive_eink_hardware_driver.c ****     CY_EINK_BorderLow;
1033:pervasive_eink_hardware_driver.c ****     CY_EINK_Delay(PV_EINK_CS_OFF_DELAY);
 2268              		.loc 1 1033 0
 2269 007a 1420     		movs	r0, #20
 2270 007c FFF7FEFF 		bl	Cy_SysLib_Delay
 2271              	.LVL211:
 2272              	.LBB106:
 2273              	.LBB107:
 749:Generated_Source\PSoC6\pdl\drivers/peripheral/gpio/cy_gpio.h ****     }
 2274              		.loc 2 749 0
 2275 0080 0822     		movs	r2, #8
 2276 0082 084B     		ldr	r3, .L175+4
 2277 0084 5A60     		str	r2, [r3, #4]
 2278              	.LVL212:
 2279              	.LBE107:
 2280              	.LBE106:
 2281              	.LBB108:
 2282              	.LBB109:
 2283 0086 0423     		movs	r3, #4
 2284 0088 6360     		str	r3, [r4, #4]
 2285              	.LVL213:
 2286              	.LBE109:
 2287              	.LBE108:
 2288              	.LBB110:
 2289              	.LBB111:
 2290              		.loc 2 753 0
 2291 008a 203D     		subs	r5, r5, #32
 2292 008c A560     		str	r5, [r4, #8]
 2293              	.LVL214:
 2294              	.LBE111:
 2295              	.LBE110:
1034:pervasive_eink_hardware_driver.c ****     CY_EINK_CsLow;
1035:pervasive_eink_hardware_driver.c ****     CY_EINK_RstLow;
1036:pervasive_eink_hardware_driver.c ****     CY_EINK_DischargeHigh;
1037:pervasive_eink_hardware_driver.c ****     CY_EINK_Delay(PV_EINK_DETACH_DELAY);
 2296              		.loc 1 1037 0
 2297 008e 1E20     		movs	r0, #30
 2298 0090 FFF7FEFF 		bl	Cy_SysLib_Delay
 2299              	.LVL215:
 2300              	.LBB112:
 2301              	.LBB113:
 749:Generated_Source\PSoC6\pdl\drivers/peripheral/gpio/cy_gpio.h ****     }
 2302              		.loc 2 749 0
 2303 0094 6560     		str	r5, [r4, #4]
 2304              	.LVL216:
 2305              	.LBE113:
 2306              	.LBE112:
1038:pervasive_eink_hardware_driver.c ****     CY_EINK_DischargeLow;
1039:pervasive_eink_hardware_driver.c ****     
ARM GAS  C:\Users\bryan.lee\AppData\Local\Temp\ccAkWdHW.s 			page 74


1040:pervasive_eink_hardware_driver.c ****     /* If all operations were completed successfully, send the corresponding flag */
1041:pervasive_eink_hardware_driver.c ****     return(PV_EINK_RES_OK);
 2307              		.loc 1 1041 0
 2308 0096 0020     		movs	r0, #0
 2309 0098 00E0     		b	.L173
 2310              	.L174:
 999:pervasive_eink_hardware_driver.c ****     }
 2311              		.loc 1 999 0
 2312 009a 0420     		movs	r0, #4
 2313              	.L173:
1042:pervasive_eink_hardware_driver.c **** }
 2314              		.loc 1 1042 0
 2315              		@ sp needed
 2316 009c 70BD     		pop	{r4, r5, r6, pc}
 2317              	.L176:
 2318 009e C046     		.align	2
 2319              	.L175:
 2320 00a0 80023240 		.word	1077019264
 2321 00a4 00063240 		.word	1077020160
 2322              		.cfi_endproc
 2323              	.LFE464:
 2324              		.size	Pv_EINK_HardwarePowerOff, .-Pv_EINK_HardwarePowerOff
 2325              		.global	channelSelect
 2326              		.global	scanTable
 2327              		.comm	bulkDriverPacket,19536,4
 2328              		.section	.rodata
 2329              		.align	2
 2330              		.set	.LANCHOR1,. + 0
 2331              		.type	channelSelect, %object
 2332              		.size	channelSelect, 8
 2333              	channelSelect:
 2334 0000 00       		.byte	0
 2335 0001 00       		.byte	0
 2336 0002 00       		.byte	0
 2337 0003 7F       		.byte	127
 2338 0004 FF       		.byte	-1
 2339 0005 FE       		.byte	-2
 2340 0006 00       		.byte	0
 2341 0007 00       		.byte	0
 2342              		.type	scanTable, %object
 2343              		.size	scanTable, 4
 2344              	scanTable:
 2345 0008 C0       		.byte	-64
 2346 0009 30       		.byte	48
 2347 000a 0C       		.byte	12
 2348 000b 03       		.byte	3
 2349              		.bss
 2350              		.align	2
 2351              		.set	.LANCHOR0,. + 0
 2352              		.type	driverPacket, %object
 2353              		.size	driverPacket, 111
 2354              	driverPacket:
 2355 0000 00000000 		.space	111
 2355      00000000 
 2355      00000000 
 2355      00000000 
 2355      00000000 
ARM GAS  C:\Users\bryan.lee\AppData\Local\Temp\ccAkWdHW.s 			page 75


 2356 006f 00       		.space	1
 2357              		.type	dataLineEven, %object
 2358              		.size	dataLineEven, 4
 2359              	dataLineEven:
 2360 0070 00000000 		.space	4
 2361              		.type	dataLineOdd, %object
 2362              		.size	dataLineOdd, 4
 2363              	dataLineOdd:
 2364 0074 00000000 		.space	4
 2365              		.type	dataLineScan, %object
 2366              		.size	dataLineScan, 4
 2367              	dataLineScan:
 2368 0078 00000000 		.space	4
 2369              		.type	fullUpdateTime, %object
 2370              		.size	fullUpdateTime, 2
 2371              	fullUpdateTime:
 2372 007c 0000     		.space	2
 2373              		.type	partialUpdateTime, %object
 2374              		.size	partialUpdateTime, 2
 2375              	partialUpdateTime:
 2376 007e 0000     		.space	2
 2377              		.text
 2378              	.Letext0:
 2379              		.file 3 "c:\\program files (x86)\\cypress\\psoc creator\\4.2\\psoc creator\\import\\gnu\\arm\\5.4.
 2380              		.file 4 "c:\\program files (x86)\\cypress\\psoc creator\\4.2\\psoc creator\\import\\gnu\\arm\\5.4.
 2381              		.file 5 "Generated_Source\\PSoC6\\pdl\\devices/psoc6/ip/cyip_gpio.h"
 2382              		.file 6 "Generated_Source\\PSoC6\\pdl\\drivers/peripheral/syslib/cy_syslib.h"
 2383              		.file 7 "Generated_Source\\PSoC6\\pdl\\drivers/peripheral/tcpwm/cy_tcpwm_counter.h"
 2384              		.file 8 "Generated_Source\\PSoC6\\pdl\\drivers/peripheral/scb/cy_scb_spi.h"
 2385              		.file 9 "pervasive_eink_hardware_driver.h"
 2386              		.file 10 "Generated_Source\\PSoC6/CY_EINK_Timer.h"
 2387              		.file 11 "Generated_Source\\PSoC6/CY_EINK_SPIM.h"
 2388              		.file 12 "cy_eink_psoc_interface.h"
 2389              		.section	.debug_info,"",%progbits
 2390              	.Ldebug_info0:
 2391 0000 8F150000 		.4byte	0x158f
 2392 0004 0400     		.2byte	0x4
 2393 0006 00000000 		.4byte	.Ldebug_abbrev0
 2394 000a 04       		.byte	0x4
 2395 000b 01       		.uleb128 0x1
 2396 000c BB060000 		.4byte	.LASF159
 2397 0010 0C       		.byte	0xc
 2398 0011 24030000 		.4byte	.LASF160
 2399 0015 E1040000 		.4byte	.LASF161
 2400 0019 00000000 		.4byte	.Ldebug_ranges0+0
 2401 001d 00000000 		.4byte	0
 2402 0021 00000000 		.4byte	.Ldebug_line0
 2403 0025 02       		.uleb128 0x2
 2404 0026 04       		.byte	0x4
 2405 0027 05       		.byte	0x5
 2406 0028 696E7400 		.ascii	"int\000"
 2407 002c 03       		.uleb128 0x3
 2408 002d 04       		.byte	0x4
 2409 002e 07       		.byte	0x7
 2410 002f C6020000 		.4byte	.LASF0
 2411 0033 03       		.uleb128 0x3
 2412 0034 08       		.byte	0x8
ARM GAS  C:\Users\bryan.lee\AppData\Local\Temp\ccAkWdHW.s 			page 76


 2413 0035 05       		.byte	0x5
 2414 0036 22010000 		.4byte	.LASF1
 2415 003a 03       		.uleb128 0x3
 2416 003b 08       		.byte	0x8
 2417 003c 04       		.byte	0x4
 2418 003d 56070000 		.4byte	.LASF2
 2419 0041 04       		.uleb128 0x4
 2420 0042 EA000000 		.4byte	.LASF4
 2421 0046 03       		.byte	0x3
 2422 0047 1B       		.byte	0x1b
 2423 0048 4C000000 		.4byte	0x4c
 2424 004c 03       		.uleb128 0x3
 2425 004d 01       		.byte	0x1
 2426 004e 06       		.byte	0x6
 2427 004f 4F000000 		.4byte	.LASF3
 2428 0053 04       		.uleb128 0x4
 2429 0054 5B000000 		.4byte	.LASF5
 2430 0058 03       		.byte	0x3
 2431 0059 1D       		.byte	0x1d
 2432 005a 5E000000 		.4byte	0x5e
 2433 005e 03       		.uleb128 0x3
 2434 005f 01       		.byte	0x1
 2435 0060 08       		.byte	0x8
 2436 0061 BA050000 		.4byte	.LASF6
 2437 0065 04       		.uleb128 0x4
 2438 0066 7D020000 		.4byte	.LASF7
 2439 006a 03       		.byte	0x3
 2440 006b 29       		.byte	0x29
 2441 006c 70000000 		.4byte	0x70
 2442 0070 03       		.uleb128 0x3
 2443 0071 02       		.byte	0x2
 2444 0072 05       		.byte	0x5
 2445 0073 D2010000 		.4byte	.LASF8
 2446 0077 04       		.uleb128 0x4
 2447 0078 B4070000 		.4byte	.LASF9
 2448 007c 03       		.byte	0x3
 2449 007d 2B       		.byte	0x2b
 2450 007e 82000000 		.4byte	0x82
 2451 0082 03       		.uleb128 0x3
 2452 0083 02       		.byte	0x2
 2453 0084 07       		.byte	0x7
 2454 0085 4A030000 		.4byte	.LASF10
 2455 0089 03       		.uleb128 0x3
 2456 008a 04       		.byte	0x4
 2457 008b 05       		.byte	0x5
 2458 008c B2010000 		.4byte	.LASF11
 2459 0090 04       		.uleb128 0x4
 2460 0091 50020000 		.4byte	.LASF12
 2461 0095 03       		.byte	0x3
 2462 0096 41       		.byte	0x41
 2463 0097 9B000000 		.4byte	0x9b
 2464 009b 03       		.uleb128 0x3
 2465 009c 04       		.byte	0x4
 2466 009d 07       		.byte	0x7
 2467 009e E2020000 		.4byte	.LASF13
 2468 00a2 03       		.uleb128 0x3
 2469 00a3 08       		.byte	0x8
ARM GAS  C:\Users\bryan.lee\AppData\Local\Temp\ccAkWdHW.s 			page 77


 2470 00a4 07       		.byte	0x7
 2471 00a5 AF000000 		.4byte	.LASF14
 2472 00a9 03       		.uleb128 0x3
 2473 00aa 04       		.byte	0x4
 2474 00ab 07       		.byte	0x7
 2475 00ac 5D040000 		.4byte	.LASF15
 2476 00b0 05       		.uleb128 0x5
 2477 00b1 04       		.byte	0x4
 2478 00b2 03       		.uleb128 0x3
 2479 00b3 01       		.byte	0x1
 2480 00b4 08       		.byte	0x8
 2481 00b5 62070000 		.4byte	.LASF16
 2482 00b9 04       		.uleb128 0x4
 2483 00ba 49040000 		.4byte	.LASF17
 2484 00be 04       		.byte	0x4
 2485 00bf 14       		.byte	0x14
 2486 00c0 41000000 		.4byte	0x41
 2487 00c4 04       		.uleb128 0x4
 2488 00c5 CF080000 		.4byte	.LASF18
 2489 00c9 04       		.byte	0x4
 2490 00ca 18       		.byte	0x18
 2491 00cb 53000000 		.4byte	0x53
 2492 00cf 04       		.uleb128 0x4
 2493 00d0 0B010000 		.4byte	.LASF19
 2494 00d4 04       		.byte	0x4
 2495 00d5 20       		.byte	0x20
 2496 00d6 65000000 		.4byte	0x65
 2497 00da 04       		.uleb128 0x4
 2498 00db DC010000 		.4byte	.LASF20
 2499 00df 04       		.byte	0x4
 2500 00e0 24       		.byte	0x24
 2501 00e1 77000000 		.4byte	0x77
 2502 00e5 04       		.uleb128 0x4
 2503 00e6 A2060000 		.4byte	.LASF21
 2504 00ea 04       		.byte	0x4
 2505 00eb 30       		.byte	0x30
 2506 00ec 90000000 		.4byte	0x90
 2507 00f0 06       		.uleb128 0x6
 2508 00f1 E5000000 		.4byte	0xe5
 2509 00f5 07       		.uleb128 0x7
 2510 00f6 F0000000 		.4byte	0xf0
 2511 00fa 08       		.uleb128 0x8
 2512 00fb F5000000 		.4byte	0xf5
 2513 00ff 0A010000 		.4byte	0x10a
 2514 0103 09       		.uleb128 0x9
 2515 0104 A9000000 		.4byte	0xa9
 2516 0108 0F       		.byte	0xf
 2517 0109 00       		.byte	0
 2518 010a 0A       		.uleb128 0xa
 2519 010b 80       		.byte	0x80
 2520 010c 05       		.byte	0x5
 2521 010d 22       		.byte	0x22
 2522 010e DE010000 		.4byte	0x1de
 2523 0112 0B       		.uleb128 0xb
 2524 0113 4F555400 		.ascii	"OUT\000"
 2525 0117 05       		.byte	0x5
 2526 0118 23       		.byte	0x23
ARM GAS  C:\Users\bryan.lee\AppData\Local\Temp\ccAkWdHW.s 			page 78


 2527 0119 F0000000 		.4byte	0xf0
 2528 011d 00       		.byte	0
 2529 011e 0C       		.uleb128 0xc
 2530 011f B3040000 		.4byte	.LASF22
 2531 0123 05       		.byte	0x5
 2532 0124 24       		.byte	0x24
 2533 0125 F0000000 		.4byte	0xf0
 2534 0129 04       		.byte	0x4
 2535 012a 0C       		.uleb128 0xc
 2536 012b BF070000 		.4byte	.LASF23
 2537 012f 05       		.byte	0x5
 2538 0130 25       		.byte	0x25
 2539 0131 F0000000 		.4byte	0xf0
 2540 0135 08       		.byte	0x8
 2541 0136 0C       		.uleb128 0xc
 2542 0137 D3020000 		.4byte	.LASF24
 2543 013b 05       		.byte	0x5
 2544 013c 26       		.byte	0x26
 2545 013d F0000000 		.4byte	0xf0
 2546 0141 0C       		.byte	0xc
 2547 0142 0B       		.uleb128 0xb
 2548 0143 494E00   		.ascii	"IN\000"
 2549 0146 05       		.byte	0x5
 2550 0147 27       		.byte	0x27
 2551 0148 F5000000 		.4byte	0xf5
 2552 014c 10       		.byte	0x10
 2553 014d 0C       		.uleb128 0xc
 2554 014e 90040000 		.4byte	.LASF25
 2555 0152 05       		.byte	0x5
 2556 0153 28       		.byte	0x28
 2557 0154 F0000000 		.4byte	0xf0
 2558 0158 14       		.byte	0x14
 2559 0159 0C       		.uleb128 0xc
 2560 015a 0D030000 		.4byte	.LASF26
 2561 015e 05       		.byte	0x5
 2562 015f 29       		.byte	0x29
 2563 0160 F0000000 		.4byte	0xf0
 2564 0164 18       		.byte	0x18
 2565 0165 0C       		.uleb128 0xc
 2566 0166 5D030000 		.4byte	.LASF27
 2567 016a 05       		.byte	0x5
 2568 016b 2A       		.byte	0x2a
 2569 016c F5000000 		.4byte	0xf5
 2570 0170 1C       		.byte	0x1c
 2571 0171 0C       		.uleb128 0xc
 2572 0172 FC030000 		.4byte	.LASF28
 2573 0176 05       		.byte	0x5
 2574 0177 2B       		.byte	0x2b
 2575 0178 F0000000 		.4byte	0xf0
 2576 017c 20       		.byte	0x20
 2577 017d 0C       		.uleb128 0xc
 2578 017e F3030000 		.4byte	.LASF29
 2579 0182 05       		.byte	0x5
 2580 0183 2C       		.byte	0x2c
 2581 0184 F0000000 		.4byte	0xf0
 2582 0188 24       		.byte	0x24
 2583 0189 0B       		.uleb128 0xb
ARM GAS  C:\Users\bryan.lee\AppData\Local\Temp\ccAkWdHW.s 			page 79


 2584 018a 43464700 		.ascii	"CFG\000"
 2585 018e 05       		.byte	0x5
 2586 018f 2D       		.byte	0x2d
 2587 0190 F0000000 		.4byte	0xf0
 2588 0194 28       		.byte	0x28
 2589 0195 0C       		.uleb128 0xc
 2590 0196 06030000 		.4byte	.LASF30
 2591 019a 05       		.byte	0x5
 2592 019b 2E       		.byte	0x2e
 2593 019c F0000000 		.4byte	0xf0
 2594 01a0 2C       		.byte	0x2c
 2595 01a1 0C       		.uleb128 0xc
 2596 01a2 0B090000 		.4byte	.LASF31
 2597 01a6 05       		.byte	0x5
 2598 01a7 2F       		.byte	0x2f
 2599 01a8 F0000000 		.4byte	0xf0
 2600 01ac 30       		.byte	0x30
 2601 01ad 0C       		.uleb128 0xc
 2602 01ae CF040000 		.4byte	.LASF32
 2603 01b2 05       		.byte	0x5
 2604 01b3 30       		.byte	0x30
 2605 01b4 F0000000 		.4byte	0xf0
 2606 01b8 34       		.byte	0x34
 2607 01b9 0C       		.uleb128 0xc
 2608 01ba 48060000 		.4byte	.LASF33
 2609 01be 05       		.byte	0x5
 2610 01bf 31       		.byte	0x31
 2611 01c0 F5000000 		.4byte	0xf5
 2612 01c4 38       		.byte	0x38
 2613 01c5 0C       		.uleb128 0xc
 2614 01c6 C1040000 		.4byte	.LASF34
 2615 01ca 05       		.byte	0x5
 2616 01cb 32       		.byte	0x32
 2617 01cc F0000000 		.4byte	0xf0
 2618 01d0 3C       		.byte	0x3c
 2619 01d1 0C       		.uleb128 0xc
 2620 01d2 D7040000 		.4byte	.LASF35
 2621 01d6 05       		.byte	0x5
 2622 01d7 33       		.byte	0x33
 2623 01d8 E3010000 		.4byte	0x1e3
 2624 01dc 40       		.byte	0x40
 2625 01dd 00       		.byte	0
 2626 01de 06       		.uleb128 0x6
 2627 01df FA000000 		.4byte	0xfa
 2628 01e3 07       		.uleb128 0x7
 2629 01e4 DE010000 		.4byte	0x1de
 2630 01e8 04       		.uleb128 0x4
 2631 01e9 A6070000 		.4byte	.LASF36
 2632 01ed 05       		.byte	0x5
 2633 01ee 34       		.byte	0x34
 2634 01ef 0A010000 		.4byte	0x10a
 2635 01f3 0D       		.uleb128 0xd
 2636 01f4 2440     		.2byte	0x4024
 2637 01f6 05       		.byte	0x5
 2638 01f7 39       		.byte	0x39
 2639 01f8 7E020000 		.4byte	0x27e
 2640 01fc 0B       		.uleb128 0xb
ARM GAS  C:\Users\bryan.lee\AppData\Local\Temp\ccAkWdHW.s 			page 80


 2641 01fd 50525400 		.ascii	"PRT\000"
 2642 0201 05       		.byte	0x5
 2643 0202 3A       		.byte	0x3a
 2644 0203 7E020000 		.4byte	0x27e
 2645 0207 00       		.byte	0
 2646 0208 0E       		.uleb128 0xe
 2647 0209 67070000 		.4byte	.LASF37
 2648 020d 05       		.byte	0x5
 2649 020e 3B       		.byte	0x3b
 2650 020f F5000000 		.4byte	0xf5
 2651 0213 0040     		.2byte	0x4000
 2652 0215 0E       		.uleb128 0xe
 2653 0216 73070000 		.4byte	.LASF38
 2654 021a 05       		.byte	0x5
 2655 021b 3C       		.byte	0x3c
 2656 021c F5000000 		.4byte	0xf5
 2657 0220 0440     		.2byte	0x4004
 2658 0222 0E       		.uleb128 0xe
 2659 0223 7F070000 		.4byte	.LASF39
 2660 0227 05       		.byte	0x5
 2661 0228 3D       		.byte	0x3d
 2662 0229 F5000000 		.4byte	0xf5
 2663 022d 0840     		.2byte	0x4008
 2664 022f 0E       		.uleb128 0xe
 2665 0230 8B070000 		.4byte	.LASF40
 2666 0234 05       		.byte	0x5
 2667 0235 3E       		.byte	0x3e
 2668 0236 F5000000 		.4byte	0xf5
 2669 023a 0C40     		.2byte	0x400c
 2670 023c 0E       		.uleb128 0xe
 2671 023d 22040000 		.4byte	.LASF41
 2672 0241 05       		.byte	0x5
 2673 0242 3F       		.byte	0x3f
 2674 0243 F5000000 		.4byte	0xf5
 2675 0247 1040     		.2byte	0x4010
 2676 0249 0E       		.uleb128 0xe
 2677 024a 5A060000 		.4byte	.LASF42
 2678 024e 05       		.byte	0x5
 2679 024f 40       		.byte	0x40
 2680 0250 F0000000 		.4byte	0xf0
 2681 0254 1440     		.2byte	0x4014
 2682 0256 0E       		.uleb128 0xe
 2683 0257 89000000 		.4byte	.LASF43
 2684 025b 05       		.byte	0x5
 2685 025c 41       		.byte	0x41
 2686 025d F0000000 		.4byte	0xf0
 2687 0261 1840     		.2byte	0x4018
 2688 0263 0E       		.uleb128 0xe
 2689 0264 E4070000 		.4byte	.LASF44
 2690 0268 05       		.byte	0x5
 2691 0269 42       		.byte	0x42
 2692 026a F5000000 		.4byte	0xf5
 2693 026e 1C40     		.2byte	0x401c
 2694 0270 0E       		.uleb128 0xe
 2695 0271 17030000 		.4byte	.LASF45
 2696 0275 05       		.byte	0x5
 2697 0276 43       		.byte	0x43
ARM GAS  C:\Users\bryan.lee\AppData\Local\Temp\ccAkWdHW.s 			page 81


 2698 0277 F0000000 		.4byte	0xf0
 2699 027b 2040     		.2byte	0x4020
 2700 027d 00       		.byte	0
 2701 027e 08       		.uleb128 0x8
 2702 027f E8010000 		.4byte	0x1e8
 2703 0283 8E020000 		.4byte	0x28e
 2704 0287 09       		.uleb128 0x9
 2705 0288 A9000000 		.4byte	0xa9
 2706 028c 7F       		.byte	0x7f
 2707 028d 00       		.byte	0
 2708 028e 04       		.uleb128 0x4
 2709 028f 13090000 		.4byte	.LASF46
 2710 0293 05       		.byte	0x5
 2711 0294 44       		.byte	0x44
 2712 0295 F3010000 		.4byte	0x1f3
 2713 0299 0F       		.uleb128 0xf
 2714 029a DB020000 		.4byte	.LASF47
 2715 029e 06       		.byte	0x6
 2716 029f C401     		.2byte	0x1c4
 2717 02a1 B2000000 		.4byte	0xb2
 2718 02a5 03       		.uleb128 0x3
 2719 02a6 04       		.byte	0x4
 2720 02a7 04       		.byte	0x4
 2721 02a8 BB040000 		.4byte	.LASF48
 2722 02ac 03       		.uleb128 0x3
 2723 02ad 08       		.byte	0x8
 2724 02ae 04       		.byte	0x4
 2725 02af 7F090000 		.4byte	.LASF49
 2726 02b3 0F       		.uleb128 0xf
 2727 02b4 CC010000 		.4byte	.LASF50
 2728 02b8 06       		.byte	0x6
 2729 02b9 8503     		.2byte	0x385
 2730 02bb C4000000 		.4byte	0xc4
 2731 02bf 0F       		.uleb128 0xf
 2732 02c0 05090000 		.4byte	.LASF51
 2733 02c4 06       		.byte	0x6
 2734 02c5 8903     		.2byte	0x389
 2735 02c7 CF000000 		.4byte	0xcf
 2736 02cb 03       		.uleb128 0x3
 2737 02cc 01       		.byte	0x1
 2738 02cd 02       		.byte	0x2
 2739 02ce B4050000 		.4byte	.LASF52
 2740 02d2 10       		.uleb128 0x10
 2741 02d3 2D040000 		.4byte	.LASF74
 2742 02d7 4C       		.byte	0x4c
 2743 02d8 07       		.byte	0x7
 2744 02d9 2B       		.byte	0x2b
 2745 02da C3030000 		.4byte	0x3c3
 2746 02de 0C       		.uleb128 0xc
 2747 02df 82000000 		.4byte	.LASF53
 2748 02e3 07       		.byte	0x7
 2749 02e4 2D       		.byte	0x2d
 2750 02e5 E5000000 		.4byte	0xe5
 2751 02e9 00       		.byte	0
 2752 02ea 0C       		.uleb128 0xc
 2753 02eb C6000000 		.4byte	.LASF54
 2754 02ef 07       		.byte	0x7
ARM GAS  C:\Users\bryan.lee\AppData\Local\Temp\ccAkWdHW.s 			page 82


 2755 02f0 2F       		.byte	0x2f
 2756 02f1 E5000000 		.4byte	0xe5
 2757 02f5 04       		.byte	0x4
 2758 02f6 0C       		.uleb128 0xc
 2759 02f7 00000000 		.4byte	.LASF55
 2760 02fb 07       		.byte	0x7
 2761 02fc 30       		.byte	0x30
 2762 02fd E5000000 		.4byte	0xe5
 2763 0301 08       		.byte	0x8
 2764 0302 0C       		.uleb128 0xc
 2765 0303 65000000 		.4byte	.LASF56
 2766 0307 07       		.byte	0x7
 2767 0308 31       		.byte	0x31
 2768 0309 E5000000 		.4byte	0xe5
 2769 030d 0C       		.byte	0xc
 2770 030e 0C       		.uleb128 0xc
 2771 030f 8A060000 		.4byte	.LASF57
 2772 0313 07       		.byte	0x7
 2773 0314 33       		.byte	0x33
 2774 0315 E5000000 		.4byte	0xe5
 2775 0319 10       		.byte	0x10
 2776 031a 0C       		.uleb128 0xc
 2777 031b 4D070000 		.4byte	.LASF58
 2778 031f 07       		.byte	0x7
 2779 0320 34       		.byte	0x34
 2780 0321 E5000000 		.4byte	0xe5
 2781 0325 14       		.byte	0x14
 2782 0326 0C       		.uleb128 0xc
 2783 0327 46090000 		.4byte	.LASF59
 2784 032b 07       		.byte	0x7
 2785 032c 35       		.byte	0x35
 2786 032d E5000000 		.4byte	0xe5
 2787 0331 18       		.byte	0x18
 2788 0332 0C       		.uleb128 0xc
 2789 0333 F4020000 		.4byte	.LASF60
 2790 0337 07       		.byte	0x7
 2791 0338 36       		.byte	0x36
 2792 0339 CB020000 		.4byte	0x2cb
 2793 033d 1C       		.byte	0x1c
 2794 033e 0C       		.uleb128 0xc
 2795 033f F4070000 		.4byte	.LASF61
 2796 0343 07       		.byte	0x7
 2797 0344 38       		.byte	0x38
 2798 0345 E5000000 		.4byte	0xe5
 2799 0349 20       		.byte	0x20
 2800 034a 0C       		.uleb128 0xc
 2801 034b 29020000 		.4byte	.LASF62
 2802 034f 07       		.byte	0x7
 2803 0350 39       		.byte	0x39
 2804 0351 E5000000 		.4byte	0xe5
 2805 0355 24       		.byte	0x24
 2806 0356 0C       		.uleb128 0xc
 2807 0357 97000000 		.4byte	.LASF63
 2808 035b 07       		.byte	0x7
 2809 035c 3B       		.byte	0x3b
 2810 035d E5000000 		.4byte	0xe5
 2811 0361 28       		.byte	0x28
ARM GAS  C:\Users\bryan.lee\AppData\Local\Temp\ccAkWdHW.s 			page 83


 2812 0362 0C       		.uleb128 0xc
 2813 0363 1D090000 		.4byte	.LASF64
 2814 0367 07       		.byte	0x7
 2815 0368 3C       		.byte	0x3c
 2816 0369 E5000000 		.4byte	0xe5
 2817 036d 2C       		.byte	0x2c
 2818 036e 0C       		.uleb128 0xc
 2819 036f 05080000 		.4byte	.LASF65
 2820 0373 07       		.byte	0x7
 2821 0374 3E       		.byte	0x3e
 2822 0375 E5000000 		.4byte	0xe5
 2823 0379 30       		.byte	0x30
 2824 037a 0C       		.uleb128 0xc
 2825 037b 2D080000 		.4byte	.LASF66
 2826 037f 07       		.byte	0x7
 2827 0380 3F       		.byte	0x3f
 2828 0381 E5000000 		.4byte	0xe5
 2829 0385 34       		.byte	0x34
 2830 0386 0C       		.uleb128 0xc
 2831 0387 E8030000 		.4byte	.LASF67
 2832 038b 07       		.byte	0x7
 2833 038c 41       		.byte	0x41
 2834 038d E5000000 		.4byte	0xe5
 2835 0391 38       		.byte	0x38
 2836 0392 0C       		.uleb128 0xc
 2837 0393 74000000 		.4byte	.LASF68
 2838 0397 07       		.byte	0x7
 2839 0398 42       		.byte	0x42
 2840 0399 E5000000 		.4byte	0xe5
 2841 039d 3C       		.byte	0x3c
 2842 039e 0C       		.uleb128 0xc
 2843 039f 23080000 		.4byte	.LASF69
 2844 03a3 07       		.byte	0x7
 2845 03a4 44       		.byte	0x44
 2846 03a5 E5000000 		.4byte	0xe5
 2847 03a9 40       		.byte	0x40
 2848 03aa 0C       		.uleb128 0xc
 2849 03ab D9030000 		.4byte	.LASF70
 2850 03af 07       		.byte	0x7
 2851 03b0 45       		.byte	0x45
 2852 03b1 E5000000 		.4byte	0xe5
 2853 03b5 44       		.byte	0x44
 2854 03b6 0C       		.uleb128 0xc
 2855 03b7 74090000 		.4byte	.LASF71
 2856 03bb 07       		.byte	0x7
 2857 03bc 47       		.byte	0x47
 2858 03bd E5000000 		.4byte	0xe5
 2859 03c1 48       		.byte	0x48
 2860 03c2 00       		.byte	0
 2861 03c3 04       		.uleb128 0x4
 2862 03c4 30010000 		.4byte	.LASF72
 2863 03c8 07       		.byte	0x7
 2864 03c9 48       		.byte	0x48
 2865 03ca D2020000 		.4byte	0x2d2
 2866 03ce 11       		.uleb128 0x11
 2867 03cf 04       		.byte	0x4
 2868 03d0 D4030000 		.4byte	0x3d4
ARM GAS  C:\Users\bryan.lee\AppData\Local\Temp\ccAkWdHW.s 			page 84


 2869 03d4 12       		.uleb128 0x12
 2870 03d5 DF030000 		.4byte	0x3df
 2871 03d9 13       		.uleb128 0x13
 2872 03da E5000000 		.4byte	0xe5
 2873 03de 00       		.byte	0
 2874 03df 11       		.uleb128 0x11
 2875 03e0 04       		.byte	0x4
 2876 03e1 C4000000 		.4byte	0xc4
 2877 03e5 0F       		.uleb128 0xf
 2878 03e6 94010000 		.4byte	.LASF73
 2879 03ea 08       		.byte	0x8
 2880 03eb BF01     		.2byte	0x1bf
 2881 03ed CE030000 		.4byte	0x3ce
 2882 03f1 14       		.uleb128 0x14
 2883 03f2 4E010000 		.4byte	.LASF75
 2884 03f6 24       		.byte	0x24
 2885 03f7 08       		.byte	0x8
 2886 03f8 4102     		.2byte	0x241
 2887 03fa 74040000 		.4byte	0x474
 2888 03fe 15       		.uleb128 0x15
 2889 03ff B2080000 		.4byte	.LASF76
 2890 0403 08       		.byte	0x8
 2891 0404 4402     		.2byte	0x244
 2892 0406 F0000000 		.4byte	0xf0
 2893 040a 00       		.byte	0
 2894 040b 15       		.uleb128 0x15
 2895 040c 6E080000 		.4byte	.LASF77
 2896 0410 08       		.byte	0x8
 2897 0411 4602     		.2byte	0x246
 2898 0413 B0000000 		.4byte	0xb0
 2899 0417 04       		.byte	0x4
 2900 0418 15       		.uleb128 0x15
 2901 0419 46020000 		.4byte	.LASF78
 2902 041d 08       		.byte	0x8
 2903 041e 4702     		.2byte	0x247
 2904 0420 E5000000 		.4byte	0xe5
 2905 0424 08       		.byte	0x8
 2906 0425 15       		.uleb128 0x15
 2907 0426 87020000 		.4byte	.LASF79
 2908 042a 08       		.byte	0x8
 2909 042b 4802     		.2byte	0x248
 2910 042d F0000000 		.4byte	0xf0
 2911 0431 0C       		.byte	0xc
 2912 0432 15       		.uleb128 0x15
 2913 0433 F3000000 		.4byte	.LASF80
 2914 0437 08       		.byte	0x8
 2915 0438 4A02     		.2byte	0x24a
 2916 043a B0000000 		.4byte	0xb0
 2917 043e 10       		.byte	0x10
 2918 043f 15       		.uleb128 0x15
 2919 0440 BC020000 		.4byte	.LASF81
 2920 0444 08       		.byte	0x8
 2921 0445 4B02     		.2byte	0x24b
 2922 0447 E5000000 		.4byte	0xe5
 2923 044b 14       		.byte	0x14
 2924 044c 15       		.uleb128 0x15
 2925 044d 86090000 		.4byte	.LASF82
ARM GAS  C:\Users\bryan.lee\AppData\Local\Temp\ccAkWdHW.s 			page 85


 2926 0451 08       		.byte	0x8
 2927 0452 4C02     		.2byte	0x24c
 2928 0454 F0000000 		.4byte	0xf0
 2929 0458 18       		.byte	0x18
 2930 0459 15       		.uleb128 0x15
 2931 045a 7C030000 		.4byte	.LASF83
 2932 045e 08       		.byte	0x8
 2933 045f 5202     		.2byte	0x252
 2934 0461 E5030000 		.4byte	0x3e5
 2935 0465 1C       		.byte	0x1c
 2936 0466 15       		.uleb128 0x15
 2937 0467 66080000 		.4byte	.LASF84
 2938 046b 08       		.byte	0x8
 2939 046c 5502     		.2byte	0x255
 2940 046e E5000000 		.4byte	0xe5
 2941 0472 20       		.byte	0x20
 2942 0473 00       		.byte	0
 2943 0474 0F       		.uleb128 0xf
 2944 0475 B1030000 		.4byte	.LASF85
 2945 0479 08       		.byte	0x8
 2946 047a 5802     		.2byte	0x258
 2947 047c F1030000 		.4byte	0x3f1
 2948 0480 11       		.uleb128 0x11
 2949 0481 04       		.byte	0x4
 2950 0482 E8010000 		.4byte	0x1e8
 2951 0486 04       		.uleb128 0x4
 2952 0487 D5000000 		.4byte	.LASF86
 2953 048b 09       		.byte	0x9
 2954 048c 35       		.byte	0x35
 2955 048d 5E000000 		.4byte	0x5e
 2956 0491 16       		.uleb128 0x16
 2957 0492 01       		.byte	0x1
 2958 0493 5E000000 		.4byte	0x5e
 2959 0497 09       		.byte	0x9
 2960 0498 39       		.byte	0x39
 2961 0499 C2040000 		.4byte	0x4c2
 2962 049d 17       		.uleb128 0x17
 2963 049e A5050000 		.4byte	.LASF87
 2964 04a2 00       		.byte	0
 2965 04a3 17       		.uleb128 0x17
 2966 04a4 69030000 		.4byte	.LASF88
 2967 04a8 01       		.byte	0x1
 2968 04a9 17       		.uleb128 0x17
 2969 04aa 7C050000 		.4byte	.LASF89
 2970 04ae 02       		.byte	0x2
 2971 04af 17       		.uleb128 0x17
 2972 04b0 89080000 		.4byte	.LASF90
 2973 04b4 03       		.byte	0x3
 2974 04b5 17       		.uleb128 0x17
 2975 04b6 4F090000 		.4byte	.LASF91
 2976 04ba 04       		.byte	0x4
 2977 04bb 17       		.uleb128 0x17
 2978 04bc 19000000 		.4byte	.LASF92
 2979 04c0 05       		.byte	0x5
 2980 04c1 00       		.byte	0
 2981 04c2 04       		.uleb128 0x4
 2982 04c3 6B050000 		.4byte	.LASF93
ARM GAS  C:\Users\bryan.lee\AppData\Local\Temp\ccAkWdHW.s 			page 86


 2983 04c7 09       		.byte	0x9
 2984 04c8 40       		.byte	0x40
 2985 04c9 91040000 		.4byte	0x491
 2986 04cd 16       		.uleb128 0x16
 2987 04ce 01       		.byte	0x1
 2988 04cf 5E000000 		.4byte	0x5e
 2989 04d3 09       		.byte	0x9
 2990 04d4 44       		.byte	0x44
 2991 04d5 F2040000 		.4byte	0x4f2
 2992 04d9 17       		.uleb128 0x17
 2993 04da 93030000 		.4byte	.LASF94
 2994 04de 00       		.byte	0
 2995 04df 17       		.uleb128 0x17
 2996 04e0 A2030000 		.4byte	.LASF95
 2997 04e4 01       		.byte	0x1
 2998 04e5 17       		.uleb128 0x17
 2999 04e6 13010000 		.4byte	.LASF96
 3000 04ea 02       		.byte	0x2
 3001 04eb 17       		.uleb128 0x17
 3002 04ec CA030000 		.4byte	.LASF97
 3003 04f0 03       		.byte	0x3
 3004 04f1 00       		.byte	0
 3005 04f2 04       		.uleb128 0x4
 3006 04f3 12040000 		.4byte	.LASF98
 3007 04f7 09       		.byte	0x9
 3008 04f8 49       		.byte	0x49
 3009 04f9 CD040000 		.4byte	0x4cd
 3010 04fd 10       		.uleb128 0x10
 3011 04fe 85030000 		.4byte	.LASF99
 3012 0502 6F       		.byte	0x6f
 3013 0503 01       		.byte	0x1
 3014 0504 31       		.byte	0x31
 3015 0505 3A050000 		.4byte	0x53a
 3016 0509 0C       		.uleb128 0xc
 3017 050a F7010000 		.4byte	.LASF100
 3018 050e 01       		.byte	0x1
 3019 050f 34       		.byte	0x34
 3020 0510 C4000000 		.4byte	0xc4
 3021 0514 00       		.byte	0
 3022 0515 0C       		.uleb128 0xc
 3023 0516 79040000 		.4byte	.LASF101
 3024 051a 01       		.byte	0x1
 3025 051b 37       		.byte	0x37
 3026 051c 3A050000 		.4byte	0x53a
 3027 0520 01       		.byte	0x1
 3028 0521 0C       		.uleb128 0xc
 3029 0522 BB010000 		.4byte	.LASF102
 3030 0526 01       		.byte	0x1
 3031 0527 3A       		.byte	0x3a
 3032 0528 4A050000 		.4byte	0x54a
 3033 052c 22       		.byte	0x22
 3034 052d 0B       		.uleb128 0xb
 3035 052e 6F646400 		.ascii	"odd\000"
 3036 0532 01       		.byte	0x1
 3037 0533 3D       		.byte	0x3d
 3038 0534 3A050000 		.4byte	0x53a
 3039 0538 4E       		.byte	0x4e
ARM GAS  C:\Users\bryan.lee\AppData\Local\Temp\ccAkWdHW.s 			page 87


 3040 0539 00       		.byte	0
 3041 053a 08       		.uleb128 0x8
 3042 053b C4000000 		.4byte	0xc4
 3043 053f 4A050000 		.4byte	0x54a
 3044 0543 09       		.uleb128 0x9
 3045 0544 A9000000 		.4byte	0xa9
 3046 0548 20       		.byte	0x20
 3047 0549 00       		.byte	0
 3048 054a 08       		.uleb128 0x8
 3049 054b C4000000 		.4byte	0xc4
 3050 054f 5A050000 		.4byte	0x55a
 3051 0553 09       		.uleb128 0x9
 3052 0554 A9000000 		.4byte	0xa9
 3053 0558 2B       		.byte	0x2b
 3054 0559 00       		.byte	0
 3055 055a 18       		.uleb128 0x18
 3056 055b 6F       		.byte	0x6f
 3057 055c 01       		.byte	0x1
 3058 055d 41       		.byte	0x41
 3059 055e 79050000 		.4byte	0x579
 3060 0562 19       		.uleb128 0x19
 3061 0563 1F060000 		.4byte	.LASF103
 3062 0567 01       		.byte	0x1
 3063 0568 44       		.byte	0x44
 3064 0569 FD040000 		.4byte	0x4fd
 3065 056d 19       		.uleb128 0x19
 3066 056e A4000000 		.4byte	.LASF104
 3067 0572 01       		.byte	0x1
 3068 0573 47       		.byte	0x47
 3069 0574 79050000 		.4byte	0x579
 3070 0578 00       		.byte	0
 3071 0579 08       		.uleb128 0x8
 3072 057a C4000000 		.4byte	0xc4
 3073 057e 89050000 		.4byte	0x589
 3074 0582 09       		.uleb128 0x9
 3075 0583 A9000000 		.4byte	0xa9
 3076 0587 6E       		.byte	0x6e
 3077 0588 00       		.byte	0
 3078 0589 04       		.uleb128 0x4
 3079 058a D0050000 		.4byte	.LASF105
 3080 058e 01       		.byte	0x1
 3081 058f 4A       		.byte	0x4a
 3082 0590 5A050000 		.4byte	0x55a
 3083 0594 1A       		.uleb128 0x1a
 3084 0595 86010000 		.4byte	.LASF162
 3085 0599 02       		.byte	0x2
 3086 059a E502     		.2byte	0x2e5
 3087 059c 03       		.byte	0x3
 3088 059d C6050000 		.4byte	0x5c6
 3089 05a1 1B       		.uleb128 0x1b
 3090 05a2 0D040000 		.4byte	.LASF106
 3091 05a6 02       		.byte	0x2
 3092 05a7 E502     		.2byte	0x2e5
 3093 05a9 80040000 		.4byte	0x480
 3094 05ad 1B       		.uleb128 0x1b
 3095 05ae 9B060000 		.4byte	.LASF107
 3096 05b2 02       		.byte	0x2
ARM GAS  C:\Users\bryan.lee\AppData\Local\Temp\ccAkWdHW.s 			page 88


 3097 05b3 E502     		.2byte	0x2e5
 3098 05b5 E5000000 		.4byte	0xe5
 3099 05b9 1B       		.uleb128 0x1b
 3100 05ba 84060000 		.4byte	.LASF108
 3101 05be 02       		.byte	0x2
 3102 05bf E502     		.2byte	0x2e5
 3103 05c1 E5000000 		.4byte	0xe5
 3104 05c5 00       		.byte	0
 3105 05c6 1C       		.uleb128 0x1c
 3106 05c7 65010000 		.4byte	.LASF112
 3107 05cb 01       		.byte	0x1
 3108 05cc 77       		.byte	0x77
 3109 05cd 00000000 		.4byte	.LFB453
 3110 05d1 4C000000 		.4byte	.LFE453-.LFB453
 3111 05d5 01       		.uleb128 0x1
 3112 05d6 9C       		.byte	0x9c
 3113 05d7 0C070000 		.4byte	0x70c
 3114 05db 1D       		.uleb128 0x1d
 3115 05dc 05040000 		.4byte	.LASF109
 3116 05e0 01       		.byte	0x1
 3117 05e1 77       		.byte	0x77
 3118 05e2 C4000000 		.4byte	0xc4
 3119 05e6 00000000 		.4byte	.LLST0
 3120 05ea 1D       		.uleb128 0x1d
 3121 05eb 45030000 		.4byte	.LASF110
 3122 05ef 01       		.byte	0x1
 3123 05f0 77       		.byte	0x77
 3124 05f1 DF030000 		.4byte	0x3df
 3125 05f5 21000000 		.4byte	.LLST1
 3126 05f9 1D       		.uleb128 0x1d
 3127 05fa 1E020000 		.4byte	.LASF111
 3128 05fe 01       		.byte	0x1
 3129 05ff 77       		.byte	0x77
 3130 0600 DA000000 		.4byte	0xda
 3131 0604 55000000 		.4byte	.LLST2
 3132 0608 1E       		.uleb128 0x1e
 3133 0609 94050000 		.4byte	0x594
 3134 060d 0A000000 		.4byte	.LBB58
 3135 0611 06000000 		.4byte	.LBE58-.LBB58
 3136 0615 01       		.byte	0x1
 3137 0616 7A       		.byte	0x7a
 3138 0617 37060000 		.4byte	0x637
 3139 061b 1F       		.uleb128 0x1f
 3140 061c B9050000 		.4byte	0x5b9
 3141 0620 A4000000 		.4byte	.LLST3
 3142 0624 1F       		.uleb128 0x1f
 3143 0625 AD050000 		.4byte	0x5ad
 3144 0629 B8000000 		.4byte	.LLST4
 3145 062d 1F       		.uleb128 0x1f
 3146 062e A1050000 		.4byte	0x5a1
 3147 0632 CC000000 		.4byte	.LLST5
 3148 0636 00       		.byte	0
 3149 0637 1E       		.uleb128 0x1e
 3150 0638 94050000 		.4byte	0x594
 3151 063c 1C000000 		.4byte	.LBB60
 3152 0640 02000000 		.4byte	.LBE60-.LBB60
 3153 0644 01       		.byte	0x1
ARM GAS  C:\Users\bryan.lee\AppData\Local\Temp\ccAkWdHW.s 			page 89


 3154 0645 80       		.byte	0x80
 3155 0646 66060000 		.4byte	0x666
 3156 064a 1F       		.uleb128 0x1f
 3157 064b B9050000 		.4byte	0x5b9
 3158 064f E4000000 		.4byte	.LLST6
 3159 0653 1F       		.uleb128 0x1f
 3160 0654 AD050000 		.4byte	0x5ad
 3161 0658 F8000000 		.4byte	.LLST7
 3162 065c 1F       		.uleb128 0x1f
 3163 065d A1050000 		.4byte	0x5a1
 3164 0661 0C010000 		.4byte	.LLST8
 3165 0665 00       		.byte	0
 3166 0666 1E       		.uleb128 0x1e
 3167 0667 94050000 		.4byte	0x594
 3168 066b 1E000000 		.4byte	.LBB62
 3169 066f 02000000 		.4byte	.LBE62-.LBB62
 3170 0673 01       		.byte	0x1
 3171 0674 86       		.byte	0x86
 3172 0675 95060000 		.4byte	0x695
 3173 0679 1F       		.uleb128 0x1f
 3174 067a B9050000 		.4byte	0x5b9
 3175 067e 24010000 		.4byte	.LLST9
 3176 0682 1F       		.uleb128 0x1f
 3177 0683 AD050000 		.4byte	0x5ad
 3178 0687 38010000 		.4byte	.LLST10
 3179 068b 1F       		.uleb128 0x1f
 3180 068c A1050000 		.4byte	0x5a1
 3181 0690 4C010000 		.4byte	.LLST11
 3182 0694 00       		.byte	0
 3183 0695 1E       		.uleb128 0x1e
 3184 0696 94050000 		.4byte	0x594
 3185 069a 3C000000 		.4byte	.LBB64
 3186 069e 06000000 		.4byte	.LBE64-.LBB64
 3187 06a2 01       		.byte	0x1
 3188 06a3 8F       		.byte	0x8f
 3189 06a4 C4060000 		.4byte	0x6c4
 3190 06a8 1F       		.uleb128 0x1f
 3191 06a9 B9050000 		.4byte	0x5b9
 3192 06ad 64010000 		.4byte	.LLST12
 3193 06b1 1F       		.uleb128 0x1f
 3194 06b2 AD050000 		.4byte	0x5ad
 3195 06b6 78010000 		.4byte	.LLST13
 3196 06ba 1F       		.uleb128 0x1f
 3197 06bb A1050000 		.4byte	0x5a1
 3198 06bf 8C010000 		.4byte	.LLST14
 3199 06c3 00       		.byte	0
 3200 06c4 20       		.uleb128 0x20
 3201 06c5 16000000 		.4byte	.LVL4
 3202 06c9 1A150000 		.4byte	0x151a
 3203 06cd D8060000 		.4byte	0x6d8
 3204 06d1 21       		.uleb128 0x21
 3205 06d2 01       		.uleb128 0x1
 3206 06d3 50       		.byte	0x50
 3207 06d4 02       		.uleb128 0x2
 3208 06d5 08       		.byte	0x8
 3209 06d6 70       		.byte	0x70
 3210 06d7 00       		.byte	0
ARM GAS  C:\Users\bryan.lee\AppData\Local\Temp\ccAkWdHW.s 			page 90


 3211 06d8 20       		.uleb128 0x20
 3212 06d9 1C000000 		.4byte	.LVL5
 3213 06dd 1A150000 		.4byte	0x151a
 3214 06e1 EE060000 		.4byte	0x6ee
 3215 06e5 21       		.uleb128 0x21
 3216 06e6 01       		.uleb128 0x1
 3217 06e7 50       		.byte	0x50
 3218 06e8 04       		.uleb128 0x4
 3219 06e9 91       		.byte	0x91
 3220 06ea 64       		.sleb128 -28
 3221 06eb 94       		.byte	0x94
 3222 06ec 01       		.byte	0x1
 3223 06ed 00       		.byte	0
 3224 06ee 20       		.uleb128 0x20
 3225 06ef 26000000 		.4byte	.LVL8
 3226 06f3 1A150000 		.4byte	0x151a
 3227 06f7 02070000 		.4byte	0x702
 3228 06fb 21       		.uleb128 0x21
 3229 06fc 01       		.uleb128 0x1
 3230 06fd 50       		.byte	0x50
 3231 06fe 02       		.uleb128 0x2
 3232 06ff 08       		.byte	0x8
 3233 0700 72       		.byte	0x72
 3234 0701 00       		.byte	0
 3235 0702 22       		.uleb128 0x22
 3236 0703 30000000 		.4byte	.LVL11
 3237 0707 1A150000 		.4byte	0x151a
 3238 070b 00       		.byte	0
 3239 070c 1C       		.uleb128 0x1c
 3240 070d 08000000 		.4byte	.LASF113
 3241 0711 01       		.byte	0x1
 3242 0712 A2       		.byte	0xa2
 3243 0713 00000000 		.4byte	.LFB454
 3244 0717 16000000 		.4byte	.LFE454-.LFB454
 3245 071b 01       		.uleb128 0x1
 3246 071c 9C       		.byte	0x9c
 3247 071d 55070000 		.4byte	0x755
 3248 0721 1D       		.uleb128 0x1d
 3249 0722 05040000 		.4byte	.LASF109
 3250 0726 01       		.byte	0x1
 3251 0727 A2       		.byte	0xa2
 3252 0728 C4000000 		.4byte	0xc4
 3253 072c A4010000 		.4byte	.LLST15
 3254 0730 1D       		.uleb128 0x1d
 3255 0731 45030000 		.4byte	.LASF110
 3256 0735 01       		.byte	0x1
 3257 0736 A2       		.byte	0xa2
 3258 0737 C4000000 		.4byte	0xc4
 3259 073b C5010000 		.4byte	.LLST16
 3260 073f 23       		.uleb128 0x23
 3261 0740 12000000 		.4byte	.LVL21
 3262 0744 C6050000 		.4byte	0x5c6
 3263 0748 21       		.uleb128 0x21
 3264 0749 01       		.uleb128 0x1
 3265 074a 51       		.byte	0x51
 3266 074b 02       		.uleb128 0x2
 3267 074c 7D       		.byte	0x7d
ARM GAS  C:\Users\bryan.lee\AppData\Local\Temp\ccAkWdHW.s 			page 91


 3268 074d 07       		.sleb128 7
 3269 074e 21       		.uleb128 0x21
 3270 074f 01       		.uleb128 0x1
 3271 0750 52       		.byte	0x52
 3272 0751 01       		.uleb128 0x1
 3273 0752 31       		.byte	0x31
 3274 0753 00       		.byte	0
 3275 0754 00       		.byte	0
 3276 0755 24       		.uleb128 0x24
 3277 0756 0D020000 		.4byte	.LASF115
 3278 075a 01       		.byte	0x1
 3279 075b B9       		.byte	0xb9
 3280 075c C4000000 		.4byte	0xc4
 3281 0760 00000000 		.4byte	.LFB455
 3282 0764 30000000 		.4byte	.LFE455-.LFB455
 3283 0768 01       		.uleb128 0x1
 3284 0769 9C       		.byte	0x9c
 3285 076a A2080000 		.4byte	0x8a2
 3286 076e 1D       		.uleb128 0x1d
 3287 076f 05040000 		.4byte	.LASF109
 3288 0773 01       		.byte	0x1
 3289 0774 B9       		.byte	0xb9
 3290 0775 C4000000 		.4byte	0xc4
 3291 0779 FC010000 		.4byte	.LLST17
 3292 077d 1D       		.uleb128 0x1d
 3293 077e 45030000 		.4byte	.LASF110
 3294 0782 01       		.byte	0x1
 3295 0783 B9       		.byte	0xb9
 3296 0784 C4000000 		.4byte	0xc4
 3297 0788 1D020000 		.4byte	.LLST18
 3298 078c 25       		.uleb128 0x25
 3299 078d 4B080000 		.4byte	.LASF117
 3300 0791 01       		.byte	0x1
 3301 0792 BC       		.byte	0xbc
 3302 0793 C4000000 		.4byte	0xc4
 3303 0797 01       		.uleb128 0x1
 3304 0798 50       		.byte	0x50
 3305 0799 1E       		.uleb128 0x1e
 3306 079a 94050000 		.4byte	0x594
 3307 079e 06000000 		.4byte	.LBB66
 3308 07a2 06000000 		.4byte	.LBE66-.LBB66
 3309 07a6 01       		.byte	0x1
 3310 07a7 BF       		.byte	0xbf
 3311 07a8 C8070000 		.4byte	0x7c8
 3312 07ac 1F       		.uleb128 0x1f
 3313 07ad B9050000 		.4byte	0x5b9
 3314 07b1 3E020000 		.4byte	.LLST19
 3315 07b5 1F       		.uleb128 0x1f
 3316 07b6 AD050000 		.4byte	0x5ad
 3317 07ba 52020000 		.4byte	.LLST20
 3318 07be 1F       		.uleb128 0x1f
 3319 07bf A1050000 		.4byte	0x5a1
 3320 07c3 66020000 		.4byte	.LLST21
 3321 07c7 00       		.byte	0
 3322 07c8 1E       		.uleb128 0x1e
 3323 07c9 94050000 		.4byte	0x594
 3324 07cd 18000000 		.4byte	.LBB68
ARM GAS  C:\Users\bryan.lee\AppData\Local\Temp\ccAkWdHW.s 			page 92


 3325 07d1 02000000 		.4byte	.LBE68-.LBB68
 3326 07d5 01       		.byte	0x1
 3327 07d6 C5       		.byte	0xc5
 3328 07d7 F7070000 		.4byte	0x7f7
 3329 07db 1F       		.uleb128 0x1f
 3330 07dc B9050000 		.4byte	0x5b9
 3331 07e0 7E020000 		.4byte	.LLST22
 3332 07e4 1F       		.uleb128 0x1f
 3333 07e5 AD050000 		.4byte	0x5ad
 3334 07e9 92020000 		.4byte	.LLST23
 3335 07ed 1F       		.uleb128 0x1f
 3336 07ee A1050000 		.4byte	0x5a1
 3337 07f2 A6020000 		.4byte	.LLST24
 3338 07f6 00       		.byte	0
 3339 07f7 1E       		.uleb128 0x1e
 3340 07f8 94050000 		.4byte	0x594
 3341 07fc 1A000000 		.4byte	.LBB70
 3342 0800 02000000 		.4byte	.LBE70-.LBB70
 3343 0804 01       		.byte	0x1
 3344 0805 CB       		.byte	0xcb
 3345 0806 26080000 		.4byte	0x826
 3346 080a 1F       		.uleb128 0x1f
 3347 080b B9050000 		.4byte	0x5b9
 3348 080f BE020000 		.4byte	.LLST25
 3349 0813 1F       		.uleb128 0x1f
 3350 0814 AD050000 		.4byte	0x5ad
 3351 0818 D2020000 		.4byte	.LLST26
 3352 081c 1F       		.uleb128 0x1f
 3353 081d A1050000 		.4byte	0x5a1
 3354 0821 E6020000 		.4byte	.LLST27
 3355 0825 00       		.byte	0
 3356 0826 1E       		.uleb128 0x1e
 3357 0827 94050000 		.4byte	0x594
 3358 082b 28000000 		.4byte	.LBB72
 3359 082f 02000000 		.4byte	.LBE72-.LBB72
 3360 0833 01       		.byte	0x1
 3361 0834 D1       		.byte	0xd1
 3362 0835 55080000 		.4byte	0x855
 3363 0839 1F       		.uleb128 0x1f
 3364 083a B9050000 		.4byte	0x5b9
 3365 083e FE020000 		.4byte	.LLST28
 3366 0842 1F       		.uleb128 0x1f
 3367 0843 AD050000 		.4byte	0x5ad
 3368 0847 12030000 		.4byte	.LLST29
 3369 084b 1F       		.uleb128 0x1f
 3370 084c A1050000 		.4byte	0x5a1
 3371 0850 26030000 		.4byte	.LLST30
 3372 0854 00       		.byte	0
 3373 0855 20       		.uleb128 0x20
 3374 0856 12000000 		.4byte	.LVL27
 3375 085a 1A150000 		.4byte	0x151a
 3376 085e 69080000 		.4byte	0x869
 3377 0862 21       		.uleb128 0x21
 3378 0863 01       		.uleb128 0x1
 3379 0864 50       		.byte	0x50
 3380 0865 02       		.uleb128 0x2
 3381 0866 08       		.byte	0x8
ARM GAS  C:\Users\bryan.lee\AppData\Local\Temp\ccAkWdHW.s 			page 93


 3382 0867 70       		.byte	0x70
 3383 0868 00       		.byte	0
 3384 0869 20       		.uleb128 0x20
 3385 086a 18000000 		.4byte	.LVL28
 3386 086e 1A150000 		.4byte	0x151a
 3387 0872 7D080000 		.4byte	0x87d
 3388 0876 21       		.uleb128 0x21
 3389 0877 01       		.uleb128 0x1
 3390 0878 50       		.byte	0x50
 3391 0879 02       		.uleb128 0x2
 3392 087a 77       		.byte	0x77
 3393 087b 00       		.sleb128 0
 3394 087c 00       		.byte	0
 3395 087d 20       		.uleb128 0x20
 3396 087e 22000000 		.4byte	.LVL31
 3397 0882 1A150000 		.4byte	0x151a
 3398 0886 91080000 		.4byte	0x891
 3399 088a 21       		.uleb128 0x21
 3400 088b 01       		.uleb128 0x1
 3401 088c 50       		.byte	0x50
 3402 088d 02       		.uleb128 0x2
 3403 088e 08       		.byte	0x8
 3404 088f 73       		.byte	0x73
 3405 0890 00       		.byte	0
 3406 0891 23       		.uleb128 0x23
 3407 0892 28000000 		.4byte	.LVL32
 3408 0896 25150000 		.4byte	0x1525
 3409 089a 21       		.uleb128 0x21
 3410 089b 01       		.uleb128 0x1
 3411 089c 50       		.byte	0x50
 3412 089d 02       		.uleb128 0x2
 3413 089e 76       		.byte	0x76
 3414 089f 00       		.sleb128 0
 3415 08a0 00       		.byte	0
 3416 08a1 00       		.byte	0
 3417 08a2 1C       		.uleb128 0x1c
 3418 08a3 95040000 		.4byte	.LASF114
 3419 08a7 01       		.byte	0x1
 3420 08a8 E6       		.byte	0xe6
 3421 08a9 00000000 		.4byte	.LFB456
 3422 08ad 34000000 		.4byte	.LFE456-.LFB456
 3423 08b1 01       		.uleb128 0x1
 3424 08b2 9C       		.byte	0x9c
 3425 08b3 E4090000 		.4byte	0x9e4
 3426 08b7 1E       		.uleb128 0x1e
 3427 08b8 94050000 		.4byte	0x594
 3428 08bc 02000000 		.4byte	.LBB74
 3429 08c0 06000000 		.4byte	.LBE74-.LBB74
 3430 08c4 01       		.byte	0x1
 3431 08c5 E9       		.byte	0xe9
 3432 08c6 E6080000 		.4byte	0x8e6
 3433 08ca 1F       		.uleb128 0x1f
 3434 08cb B9050000 		.4byte	0x5b9
 3435 08cf 3E030000 		.4byte	.LLST31
 3436 08d3 1F       		.uleb128 0x1f
 3437 08d4 AD050000 		.4byte	0x5ad
 3438 08d8 52030000 		.4byte	.LLST32
ARM GAS  C:\Users\bryan.lee\AppData\Local\Temp\ccAkWdHW.s 			page 94


 3439 08dc 1F       		.uleb128 0x1f
 3440 08dd A1050000 		.4byte	0x5a1
 3441 08e1 66030000 		.4byte	.LLST33
 3442 08e5 00       		.byte	0
 3443 08e6 1E       		.uleb128 0x1e
 3444 08e7 94050000 		.4byte	0x594
 3445 08eb 08000000 		.4byte	.LBB76
 3446 08ef 06000000 		.4byte	.LBE76-.LBB76
 3447 08f3 01       		.byte	0x1
 3448 08f4 EB       		.byte	0xeb
 3449 08f5 15090000 		.4byte	0x915
 3450 08f9 1F       		.uleb128 0x1f
 3451 08fa B9050000 		.4byte	0x5b9
 3452 08fe 7E030000 		.4byte	.LLST34
 3453 0902 1F       		.uleb128 0x1f
 3454 0903 AD050000 		.4byte	0x5ad
 3455 0907 92030000 		.4byte	.LLST35
 3456 090b 1F       		.uleb128 0x1f
 3457 090c A1050000 		.4byte	0x5a1
 3458 0910 A6030000 		.4byte	.LLST36
 3459 0914 00       		.byte	0
 3460 0915 1E       		.uleb128 0x1e
 3461 0916 94050000 		.4byte	0x594
 3462 091a 0E000000 		.4byte	.LBB78
 3463 091e 04000000 		.4byte	.LBE78-.LBB78
 3464 0922 01       		.byte	0x1
 3465 0923 ED       		.byte	0xed
 3466 0924 44090000 		.4byte	0x944
 3467 0928 1F       		.uleb128 0x1f
 3468 0929 B9050000 		.4byte	0x5b9
 3469 092d BE030000 		.4byte	.LLST37
 3470 0931 1F       		.uleb128 0x1f
 3471 0932 AD050000 		.4byte	0x5ad
 3472 0936 D2030000 		.4byte	.LLST38
 3473 093a 1F       		.uleb128 0x1f
 3474 093b A1050000 		.4byte	0x5a1
 3475 093f E6030000 		.4byte	.LLST39
 3476 0943 00       		.byte	0
 3477 0944 1E       		.uleb128 0x1e
 3478 0945 94050000 		.4byte	0x594
 3479 0949 16000000 		.4byte	.LBB80
 3480 094d 06000000 		.4byte	.LBE80-.LBB80
 3481 0951 01       		.byte	0x1
 3482 0952 F2       		.byte	0xf2
 3483 0953 73090000 		.4byte	0x973
 3484 0957 1F       		.uleb128 0x1f
 3485 0958 B9050000 		.4byte	0x5b9
 3486 095c FE030000 		.4byte	.LLST40
 3487 0960 1F       		.uleb128 0x1f
 3488 0961 AD050000 		.4byte	0x5ad
 3489 0965 12040000 		.4byte	.LLST41
 3490 0969 1F       		.uleb128 0x1f
 3491 096a A1050000 		.4byte	0x5a1
 3492 096e 26040000 		.4byte	.LLST42
 3493 0972 00       		.byte	0
 3494 0973 1E       		.uleb128 0x1e
 3495 0974 94050000 		.4byte	0x594
ARM GAS  C:\Users\bryan.lee\AppData\Local\Temp\ccAkWdHW.s 			page 95


 3496 0978 1C000000 		.4byte	.LBB82
 3497 097c 02000000 		.4byte	.LBE82-.LBB82
 3498 0980 01       		.byte	0x1
 3499 0981 F3       		.byte	0xf3
 3500 0982 A2090000 		.4byte	0x9a2
 3501 0986 1F       		.uleb128 0x1f
 3502 0987 B9050000 		.4byte	0x5b9
 3503 098b 3E040000 		.4byte	.LLST43
 3504 098f 1F       		.uleb128 0x1f
 3505 0990 AD050000 		.4byte	0x5ad
 3506 0994 52040000 		.4byte	.LLST44
 3507 0998 1F       		.uleb128 0x1f
 3508 0999 A1050000 		.4byte	0x5a1
 3509 099d 66040000 		.4byte	.LLST45
 3510 09a1 00       		.byte	0
 3511 09a2 1E       		.uleb128 0x1e
 3512 09a3 94050000 		.4byte	0x594
 3513 09a7 1E000000 		.4byte	.LBB84
 3514 09ab 04000000 		.4byte	.LBE84-.LBB84
 3515 09af 01       		.byte	0x1
 3516 09b0 F4       		.byte	0xf4
 3517 09b1 D1090000 		.4byte	0x9d1
 3518 09b5 1F       		.uleb128 0x1f
 3519 09b6 B9050000 		.4byte	0x5b9
 3520 09ba 7E040000 		.4byte	.LLST46
 3521 09be 1F       		.uleb128 0x1f
 3522 09bf AD050000 		.4byte	0x5ad
 3523 09c3 92040000 		.4byte	.LLST47
 3524 09c7 1F       		.uleb128 0x1f
 3525 09c8 A1050000 		.4byte	0x5a1
 3526 09cc A6040000 		.4byte	.LLST48
 3527 09d0 00       		.byte	0
 3528 09d1 22       		.uleb128 0x22
 3529 09d2 16000000 		.4byte	.LVL38
 3530 09d6 30150000 		.4byte	0x1530
 3531 09da 22       		.uleb128 0x22
 3532 09db 26000000 		.4byte	.LVL42
 3533 09df 3B150000 		.4byte	0x153b
 3534 09e3 00       		.byte	0
 3535 09e4 26       		.uleb128 0x26
 3536 09e5 66040000 		.4byte	.LASF116
 3537 09e9 01       		.byte	0x1
 3538 09ea 0A01     		.2byte	0x10a
 3539 09ec C2040000 		.4byte	0x4c2
 3540 09f0 00000000 		.4byte	.LFB457
 3541 09f4 14010000 		.4byte	.LFE457-.LFB457
 3542 09f8 01       		.uleb128 0x1
 3543 09f9 9C       		.byte	0x9c
 3544 09fa 260C0000 		.4byte	0xc26
 3545 09fe 27       		.uleb128 0x27
 3546 09ff 43000000 		.4byte	.LASF118
 3547 0a03 01       		.byte	0x1
 3548 0a04 0D01     		.2byte	0x10d
 3549 0a06 DA000000 		.4byte	0xda
 3550 0a0a BE040000 		.4byte	.LLST49
 3551 0a0e 20       		.uleb128 0x20
 3552 0a0f 0E000000 		.4byte	.LVL44
ARM GAS  C:\Users\bryan.lee\AppData\Local\Temp\ccAkWdHW.s 			page 96


 3553 0a13 46150000 		.4byte	0x1546
 3554 0a17 2D0A0000 		.4byte	0xa2d
 3555 0a1b 21       		.uleb128 0x21
 3556 0a1c 01       		.uleb128 0x1
 3557 0a1d 50       		.byte	0x50
 3558 0a1e 02       		.uleb128 0x2
 3559 0a1f 74       		.byte	0x74
 3560 0a20 00       		.sleb128 0
 3561 0a21 21       		.uleb128 0x21
 3562 0a22 01       		.uleb128 0x1
 3563 0a23 51       		.byte	0x51
 3564 0a24 01       		.uleb128 0x1
 3565 0a25 30       		.byte	0x30
 3566 0a26 21       		.uleb128 0x21
 3567 0a27 01       		.uleb128 0x1
 3568 0a28 52       		.byte	0x52
 3569 0a29 02       		.uleb128 0x2
 3570 0a2a 08       		.byte	0x8
 3571 0a2b 6F       		.byte	0x6f
 3572 0a2c 00       		.byte	0
 3573 0a2d 22       		.uleb128 0x22
 3574 0a2e 22000000 		.4byte	.LVL45
 3575 0a32 3B150000 		.4byte	0x153b
 3576 0a36 22       		.uleb128 0x22
 3577 0a37 28000000 		.4byte	.LVL46
 3578 0a3b 4F150000 		.4byte	0x154f
 3579 0a3f 22       		.uleb128 0x22
 3580 0a40 30000000 		.4byte	.LVL47
 3581 0a44 5A150000 		.4byte	0x155a
 3582 0a48 22       		.uleb128 0x22
 3583 0a49 38000000 		.4byte	.LVL48
 3584 0a4d 65150000 		.4byte	0x1565
 3585 0a51 20       		.uleb128 0x20
 3586 0a52 40000000 		.4byte	.LVL49
 3587 0a56 55070000 		.4byte	0x755
 3588 0a5a 6A0A0000 		.4byte	0xa6a
 3589 0a5e 21       		.uleb128 0x21
 3590 0a5f 01       		.uleb128 0x1
 3591 0a60 50       		.byte	0x50
 3592 0a61 02       		.uleb128 0x2
 3593 0a62 08       		.byte	0x8
 3594 0a63 72       		.byte	0x72
 3595 0a64 21       		.uleb128 0x21
 3596 0a65 01       		.uleb128 0x1
 3597 0a66 51       		.byte	0x51
 3598 0a67 01       		.uleb128 0x1
 3599 0a68 30       		.byte	0x30
 3600 0a69 00       		.byte	0
 3601 0a6a 20       		.uleb128 0x20
 3602 0a6b 4E000000 		.4byte	.LVL50
 3603 0a6f 0C070000 		.4byte	0x70c
 3604 0a73 7E0A0000 		.4byte	0xa7e
 3605 0a77 21       		.uleb128 0x21
 3606 0a78 01       		.uleb128 0x1
 3607 0a79 51       		.byte	0x51
 3608 0a7a 02       		.uleb128 0x2
 3609 0a7b 08       		.byte	0x8
ARM GAS  C:\Users\bryan.lee\AppData\Local\Temp\ccAkWdHW.s 			page 97


 3610 0a7c 40       		.byte	0x40
 3611 0a7d 00       		.byte	0
 3612 0a7e 20       		.uleb128 0x20
 3613 0a7f 56000000 		.4byte	.LVL51
 3614 0a83 55070000 		.4byte	0x755
 3615 0a87 960A0000 		.4byte	0xa96
 3616 0a8b 21       		.uleb128 0x21
 3617 0a8c 01       		.uleb128 0x1
 3618 0a8d 50       		.byte	0x50
 3619 0a8e 01       		.uleb128 0x1
 3620 0a8f 3F       		.byte	0x3f
 3621 0a90 21       		.uleb128 0x21
 3622 0a91 01       		.uleb128 0x1
 3623 0a92 51       		.byte	0x51
 3624 0a93 01       		.uleb128 0x1
 3625 0a94 30       		.byte	0x30
 3626 0a95 00       		.byte	0
 3627 0a96 20       		.uleb128 0x20
 3628 0a97 62000000 		.4byte	.LVL52
 3629 0a9b 0C070000 		.4byte	0x70c
 3630 0a9f AE0A0000 		.4byte	0xaae
 3631 0aa3 21       		.uleb128 0x21
 3632 0aa4 01       		.uleb128 0x1
 3633 0aa5 50       		.byte	0x50
 3634 0aa6 01       		.uleb128 0x1
 3635 0aa7 3B       		.byte	0x3b
 3636 0aa8 21       		.uleb128 0x21
 3637 0aa9 01       		.uleb128 0x1
 3638 0aaa 51       		.byte	0x51
 3639 0aab 01       		.uleb128 0x1
 3640 0aac 32       		.byte	0x32
 3641 0aad 00       		.byte	0
 3642 0aae 20       		.uleb128 0x20
 3643 0aaf 6C000000 		.4byte	.LVL53
 3644 0ab3 C6050000 		.4byte	0x5c6
 3645 0ab7 CF0A0000 		.4byte	0xacf
 3646 0abb 21       		.uleb128 0x21
 3647 0abc 01       		.uleb128 0x1
 3648 0abd 50       		.byte	0x50
 3649 0abe 01       		.uleb128 0x1
 3650 0abf 31       		.byte	0x31
 3651 0ac0 21       		.uleb128 0x21
 3652 0ac1 01       		.uleb128 0x1
 3653 0ac2 51       		.byte	0x51
 3654 0ac3 05       		.uleb128 0x5
 3655 0ac4 03       		.byte	0x3
 3656 0ac5 00000000 		.4byte	.LANCHOR1
 3657 0ac9 21       		.uleb128 0x21
 3658 0aca 01       		.uleb128 0x1
 3659 0acb 52       		.byte	0x52
 3660 0acc 01       		.uleb128 0x1
 3661 0acd 38       		.byte	0x38
 3662 0ace 00       		.byte	0
 3663 0acf 20       		.uleb128 0x20
 3664 0ad0 74000000 		.4byte	.LVL54
 3665 0ad4 0C070000 		.4byte	0x70c
 3666 0ad8 E80A0000 		.4byte	0xae8
ARM GAS  C:\Users\bryan.lee\AppData\Local\Temp\ccAkWdHW.s 			page 98


 3667 0adc 21       		.uleb128 0x21
 3668 0add 01       		.uleb128 0x1
 3669 0ade 50       		.byte	0x50
 3670 0adf 01       		.uleb128 0x1
 3671 0ae0 37       		.byte	0x37
 3672 0ae1 21       		.uleb128 0x21
 3673 0ae2 01       		.uleb128 0x1
 3674 0ae3 51       		.byte	0x51
 3675 0ae4 02       		.uleb128 0x2
 3676 0ae5 09       		.byte	0x9
 3677 0ae6 D1       		.byte	0xd1
 3678 0ae7 00       		.byte	0
 3679 0ae8 20       		.uleb128 0x20
 3680 0ae9 7C000000 		.4byte	.LVL55
 3681 0aed 0C070000 		.4byte	0x70c
 3682 0af1 000B0000 		.4byte	0xb00
 3683 0af5 21       		.uleb128 0x21
 3684 0af6 01       		.uleb128 0x1
 3685 0af7 50       		.byte	0x50
 3686 0af8 01       		.uleb128 0x1
 3687 0af9 38       		.byte	0x38
 3688 0afa 21       		.uleb128 0x21
 3689 0afb 01       		.uleb128 0x1
 3690 0afc 51       		.byte	0x51
 3691 0afd 01       		.uleb128 0x1
 3692 0afe 32       		.byte	0x32
 3693 0aff 00       		.byte	0
 3694 0b00 20       		.uleb128 0x20
 3695 0b01 84000000 		.4byte	.LVL56
 3696 0b05 0C070000 		.4byte	0x70c
 3697 0b09 190B0000 		.4byte	0xb19
 3698 0b0d 21       		.uleb128 0x21
 3699 0b0e 01       		.uleb128 0x1
 3700 0b0f 50       		.byte	0x50
 3701 0b10 01       		.uleb128 0x1
 3702 0b11 39       		.byte	0x39
 3703 0b12 21       		.uleb128 0x21
 3704 0b13 01       		.uleb128 0x1
 3705 0b14 51       		.byte	0x51
 3706 0b15 02       		.uleb128 0x2
 3707 0b16 09       		.byte	0x9
 3708 0b17 C2       		.byte	0xc2
 3709 0b18 00       		.byte	0
 3710 0b19 20       		.uleb128 0x20
 3711 0b1a 8C000000 		.4byte	.LVL57
 3712 0b1e 0C070000 		.4byte	0x70c
 3713 0b22 310B0000 		.4byte	0xb31
 3714 0b26 21       		.uleb128 0x21
 3715 0b27 01       		.uleb128 0x1
 3716 0b28 50       		.byte	0x50
 3717 0b29 01       		.uleb128 0x1
 3718 0b2a 34       		.byte	0x34
 3719 0b2b 21       		.uleb128 0x21
 3720 0b2c 01       		.uleb128 0x1
 3721 0b2d 51       		.byte	0x51
 3722 0b2e 01       		.uleb128 0x1
 3723 0b2f 33       		.byte	0x33
ARM GAS  C:\Users\bryan.lee\AppData\Local\Temp\ccAkWdHW.s 			page 99


 3724 0b30 00       		.byte	0
 3725 0b31 20       		.uleb128 0x20
 3726 0b32 94000000 		.4byte	.LVL58
 3727 0b36 0C070000 		.4byte	0x70c
 3728 0b3a 490B0000 		.4byte	0xb49
 3729 0b3e 21       		.uleb128 0x21
 3730 0b3f 01       		.uleb128 0x1
 3731 0b40 50       		.byte	0x50
 3732 0b41 01       		.uleb128 0x1
 3733 0b42 33       		.byte	0x33
 3734 0b43 21       		.uleb128 0x21
 3735 0b44 01       		.uleb128 0x1
 3736 0b45 51       		.byte	0x51
 3737 0b46 01       		.uleb128 0x1
 3738 0b47 31       		.byte	0x31
 3739 0b48 00       		.byte	0
 3740 0b49 20       		.uleb128 0x20
 3741 0b4a 9C000000 		.4byte	.LVL59
 3742 0b4e 0C070000 		.4byte	0x70c
 3743 0b52 610B0000 		.4byte	0xb61
 3744 0b56 21       		.uleb128 0x21
 3745 0b57 01       		.uleb128 0x1
 3746 0b58 50       		.byte	0x50
 3747 0b59 01       		.uleb128 0x1
 3748 0b5a 33       		.byte	0x33
 3749 0b5b 21       		.uleb128 0x21
 3750 0b5c 01       		.uleb128 0x1
 3751 0b5d 51       		.byte	0x51
 3752 0b5e 01       		.uleb128 0x1
 3753 0b5f 30       		.byte	0x30
 3754 0b60 00       		.byte	0
 3755 0b61 20       		.uleb128 0x20
 3756 0b62 A2000000 		.4byte	.LVL60
 3757 0b66 70150000 		.4byte	0x1570
 3758 0b6a 740B0000 		.4byte	0xb74
 3759 0b6e 21       		.uleb128 0x21
 3760 0b6f 01       		.uleb128 0x1
 3761 0b70 50       		.byte	0x50
 3762 0b71 01       		.uleb128 0x1
 3763 0b72 3A       		.byte	0x3a
 3764 0b73 00       		.byte	0
 3765 0b74 20       		.uleb128 0x20
 3766 0b75 B0000000 		.4byte	.LVL63
 3767 0b79 0C070000 		.4byte	0x70c
 3768 0b7d 8C0B0000 		.4byte	0xb8c
 3769 0b81 21       		.uleb128 0x21
 3770 0b82 01       		.uleb128 0x1
 3771 0b83 50       		.byte	0x50
 3772 0b84 01       		.uleb128 0x1
 3773 0b85 35       		.byte	0x35
 3774 0b86 21       		.uleb128 0x21
 3775 0b87 01       		.uleb128 0x1
 3776 0b88 51       		.byte	0x51
 3777 0b89 01       		.uleb128 0x1
 3778 0b8a 31       		.byte	0x31
 3779 0b8b 00       		.byte	0
 3780 0b8c 20       		.uleb128 0x20
ARM GAS  C:\Users\bryan.lee\AppData\Local\Temp\ccAkWdHW.s 			page 100


 3781 0b8d B6000000 		.4byte	.LVL64
 3782 0b91 70150000 		.4byte	0x1570
 3783 0b95 A00B0000 		.4byte	0xba0
 3784 0b99 21       		.uleb128 0x21
 3785 0b9a 01       		.uleb128 0x1
 3786 0b9b 50       		.byte	0x50
 3787 0b9c 02       		.uleb128 0x2
 3788 0b9d 08       		.byte	0x8
 3789 0b9e 64       		.byte	0x64
 3790 0b9f 00       		.byte	0
 3791 0ba0 20       		.uleb128 0x20
 3792 0ba1 BE000000 		.4byte	.LVL65
 3793 0ba5 0C070000 		.4byte	0x70c
 3794 0ba9 B80B0000 		.4byte	0xbb8
 3795 0bad 21       		.uleb128 0x21
 3796 0bae 01       		.uleb128 0x1
 3797 0baf 50       		.byte	0x50
 3798 0bb0 01       		.uleb128 0x1
 3799 0bb1 35       		.byte	0x35
 3800 0bb2 21       		.uleb128 0x21
 3801 0bb3 01       		.uleb128 0x1
 3802 0bb4 51       		.byte	0x51
 3803 0bb5 01       		.uleb128 0x1
 3804 0bb6 33       		.byte	0x33
 3805 0bb7 00       		.byte	0
 3806 0bb8 20       		.uleb128 0x20
 3807 0bb9 C4000000 		.4byte	.LVL66
 3808 0bbd 70150000 		.4byte	0x1570
 3809 0bc1 CC0B0000 		.4byte	0xbcc
 3810 0bc5 21       		.uleb128 0x21
 3811 0bc6 01       		.uleb128 0x1
 3812 0bc7 50       		.byte	0x50
 3813 0bc8 02       		.uleb128 0x2
 3814 0bc9 08       		.byte	0x8
 3815 0bca 32       		.byte	0x32
 3816 0bcb 00       		.byte	0
 3817 0bcc 20       		.uleb128 0x20
 3818 0bcd CC000000 		.4byte	.LVL67
 3819 0bd1 0C070000 		.4byte	0x70c
 3820 0bd5 E40B0000 		.4byte	0xbe4
 3821 0bd9 21       		.uleb128 0x21
 3822 0bda 01       		.uleb128 0x1
 3823 0bdb 50       		.byte	0x50
 3824 0bdc 01       		.uleb128 0x1
 3825 0bdd 35       		.byte	0x35
 3826 0bde 21       		.uleb128 0x21
 3827 0bdf 01       		.uleb128 0x1
 3828 0be0 51       		.byte	0x51
 3829 0be1 01       		.uleb128 0x1
 3830 0be2 3F       		.byte	0x3f
 3831 0be3 00       		.byte	0
 3832 0be4 20       		.uleb128 0x20
 3833 0be5 D2000000 		.4byte	.LVL68
 3834 0be9 70150000 		.4byte	0x1570
 3835 0bed F80B0000 		.4byte	0xbf8
 3836 0bf1 21       		.uleb128 0x21
 3837 0bf2 01       		.uleb128 0x1
ARM GAS  C:\Users\bryan.lee\AppData\Local\Temp\ccAkWdHW.s 			page 101


 3838 0bf3 50       		.byte	0x50
 3839 0bf4 02       		.uleb128 0x2
 3840 0bf5 08       		.byte	0x8
 3841 0bf6 32       		.byte	0x32
 3842 0bf7 00       		.byte	0
 3843 0bf8 20       		.uleb128 0x20
 3844 0bf9 DA000000 		.4byte	.LVL69
 3845 0bfd 55070000 		.4byte	0x755
 3846 0c01 100C0000 		.4byte	0xc10
 3847 0c05 21       		.uleb128 0x21
 3848 0c06 01       		.uleb128 0x1
 3849 0c07 50       		.byte	0x50
 3850 0c08 01       		.uleb128 0x1
 3851 0c09 3F       		.byte	0x3f
 3852 0c0a 21       		.uleb128 0x21
 3853 0c0b 01       		.uleb128 0x1
 3854 0c0c 51       		.byte	0x51
 3855 0c0d 01       		.uleb128 0x1
 3856 0c0e 30       		.byte	0x30
 3857 0c0f 00       		.byte	0
 3858 0c10 23       		.uleb128 0x23
 3859 0c11 E6000000 		.4byte	.LVL70
 3860 0c15 0C070000 		.4byte	0x70c
 3861 0c19 21       		.uleb128 0x21
 3862 0c1a 01       		.uleb128 0x1
 3863 0c1b 50       		.byte	0x50
 3864 0c1c 01       		.uleb128 0x1
 3865 0c1d 32       		.byte	0x32
 3866 0c1e 21       		.uleb128 0x21
 3867 0c1f 01       		.uleb128 0x1
 3868 0c20 51       		.byte	0x51
 3869 0c21 02       		.uleb128 0x2
 3870 0c22 08       		.byte	0x8
 3871 0c23 40       		.byte	0x40
 3872 0c24 00       		.byte	0
 3873 0c25 00       		.byte	0
 3874 0c26 28       		.uleb128 0x28
 3875 0c27 B9080000 		.4byte	.LASF119
 3876 0c2b 01       		.byte	0x1
 3877 0c2c 9901     		.2byte	0x199
 3878 0c2e 00000000 		.4byte	.LFB458
 3879 0c32 54000000 		.4byte	.LFE458-.LFB458
 3880 0c36 01       		.uleb128 0x1
 3881 0c37 9C       		.byte	0x9c
 3882 0c38 590C0000 		.4byte	0xc59
 3883 0c3c 29       		.uleb128 0x29
 3884 0c3d 01020000 		.4byte	.LASF120
 3885 0c41 01       		.byte	0x1
 3886 0c42 9901     		.2byte	0x199
 3887 0c44 B9000000 		.4byte	0xb9
 3888 0c48 01       		.uleb128 0x1
 3889 0c49 50       		.byte	0x50
 3890 0c4a 2A       		.uleb128 0x2a
 3891 0c4b A0080000 		.4byte	.LASF121
 3892 0c4f 01       		.byte	0x1
 3893 0c50 9C01     		.2byte	0x19c
 3894 0c52 DA000000 		.4byte	0xda
ARM GAS  C:\Users\bryan.lee\AppData\Local\Temp\ccAkWdHW.s 			page 102


 3895 0c56 01       		.uleb128 0x1
 3896 0c57 52       		.byte	0x52
 3897 0c58 00       		.byte	0
 3898 0c59 28       		.uleb128 0x28
 3899 0c5a D7080000 		.4byte	.LASF122
 3900 0c5e 01       		.byte	0x1
 3901 0c5f DE01     		.2byte	0x1de
 3902 0c61 00000000 		.4byte	.LFB459
 3903 0c65 4C040000 		.4byte	.LFE459-.LFB459
 3904 0c69 01       		.uleb128 0x1
 3905 0c6a 9C       		.byte	0x9c
 3906 0c6b 6B0D0000 		.4byte	0xd6b
 3907 0c6f 2B       		.uleb128 0x2b
 3908 0c70 51060000 		.4byte	.LASF123
 3909 0c74 01       		.byte	0x1
 3910 0c75 DE01     		.2byte	0x1de
 3911 0c77 6B0D0000 		.4byte	0xd6b
 3912 0c7b 0A050000 		.4byte	.LLST50
 3913 0c7f 2B       		.uleb128 0x2b
 3914 0c80 3A020000 		.4byte	.LASF124
 3915 0c84 01       		.byte	0x1
 3916 0c85 DF01     		.2byte	0x1df
 3917 0c87 F2040000 		.4byte	0x4f2
 3918 0c8b 40050000 		.4byte	.LLST51
 3919 0c8f 2C       		.uleb128 0x2c
 3920 0c90 7800     		.ascii	"x\000"
 3921 0c92 01       		.byte	0x1
 3922 0c93 E201     		.2byte	0x1e2
 3923 0c95 DA000000 		.4byte	0xda
 3924 0c99 61050000 		.4byte	.LLST52
 3925 0c9d 2C       		.uleb128 0x2c
 3926 0c9e 7900     		.ascii	"y\000"
 3927 0ca0 01       		.byte	0x1
 3928 0ca1 E401     		.2byte	0x1e4
 3929 0ca3 DA000000 		.4byte	0xda
 3930 0ca7 8B050000 		.4byte	.LLST53
 3931 0cab 2C       		.uleb128 0x2c
 3932 0cac 6B00     		.ascii	"k\000"
 3933 0cae 01       		.byte	0x1
 3934 0caf E601     		.2byte	0x1e6
 3935 0cb1 DA000000 		.4byte	0xda
 3936 0cb5 CC050000 		.4byte	.LLST54
 3937 0cb9 27       		.uleb128 0x27
 3938 0cba 3C080000 		.4byte	.LASF125
 3939 0cbe 01       		.byte	0x1
 3940 0cbf E901     		.2byte	0x1e9
 3941 0cc1 BF020000 		.4byte	0x2bf
 3942 0cc5 18060000 		.4byte	.LLST55
 3943 0cc9 27       		.uleb128 0x27
 3944 0cca 74020000 		.4byte	.LASF126
 3945 0cce 01       		.byte	0x1
 3946 0ccf EC01     		.2byte	0x1ec
 3947 0cd1 C4000000 		.4byte	0xc4
 3948 0cd5 47060000 		.4byte	.LLST56
 3949 0cd9 27       		.uleb128 0x27
 3950 0cda 2E060000 		.4byte	.LASF127
 3951 0cde 01       		.byte	0x1
ARM GAS  C:\Users\bryan.lee\AppData\Local\Temp\ccAkWdHW.s 			page 103


 3952 0cdf EF01     		.2byte	0x1ef
 3953 0ce1 CB020000 		.4byte	0x2cb
 3954 0ce5 88060000 		.4byte	.LLST57
 3955 0ce9 22       		.uleb128 0x22
 3956 0cea 30000000 		.4byte	.LVL86
 3957 0cee 3B150000 		.4byte	0x153b
 3958 0cf2 20       		.uleb128 0x20
 3959 0cf3 56000000 		.4byte	.LVL88
 3960 0cf7 46150000 		.4byte	0x1546
 3961 0cfb 110D0000 		.4byte	0xd11
 3962 0cff 21       		.uleb128 0x21
 3963 0d00 01       		.uleb128 0x1
 3964 0d01 50       		.byte	0x50
 3965 0d02 02       		.uleb128 0x2
 3966 0d03 7B       		.byte	0x7b
 3967 0d04 00       		.sleb128 0
 3968 0d05 21       		.uleb128 0x21
 3969 0d06 01       		.uleb128 0x1
 3970 0d07 51       		.byte	0x51
 3971 0d08 01       		.uleb128 0x1
 3972 0d09 30       		.byte	0x30
 3973 0d0a 21       		.uleb128 0x21
 3974 0d0b 01       		.uleb128 0x1
 3975 0d0c 52       		.byte	0x52
 3976 0d0d 02       		.uleb128 0x2
 3977 0d0e 08       		.byte	0x8
 3978 0d0f 6F       		.byte	0x6f
 3979 0d10 00       		.byte	0
 3980 0d11 20       		.uleb128 0x20
 3981 0d12 10040000 		.4byte	.LVL112
 3982 0d16 C6050000 		.4byte	0x5c6
 3983 0d1a 400D0000 		.4byte	0xd40
 3984 0d1e 21       		.uleb128 0x21
 3985 0d1f 01       		.uleb128 0x1
 3986 0d20 50       		.byte	0x50
 3987 0d21 01       		.uleb128 0x1
 3988 0d22 3A       		.byte	0x3a
 3989 0d23 21       		.uleb128 0x21
 3990 0d24 01       		.uleb128 0x1
 3991 0d25 51       		.byte	0x51
 3992 0d26 12       		.uleb128 0x12
 3993 0d27 74       		.byte	0x74
 3994 0d28 00       		.sleb128 0
 3995 0d29 33       		.byte	0x33
 3996 0d2a 24       		.byte	0x24
 3997 0d2b 74       		.byte	0x74
 3998 0d2c 00       		.sleb128 0
 3999 0d2d 1C       		.byte	0x1c
 4000 0d2e 34       		.byte	0x34
 4001 0d2f 24       		.byte	0x24
 4002 0d30 74       		.byte	0x74
 4003 0d31 00       		.sleb128 0
 4004 0d32 1C       		.byte	0x1c
 4005 0d33 03       		.byte	0x3
 4006 0d34 00000000 		.4byte	bulkDriverPacket
 4007 0d38 22       		.byte	0x22
 4008 0d39 21       		.uleb128 0x21
ARM GAS  C:\Users\bryan.lee\AppData\Local\Temp\ccAkWdHW.s 			page 104


 4009 0d3a 01       		.uleb128 0x1
 4010 0d3b 52       		.byte	0x52
 4011 0d3c 02       		.uleb128 0x2
 4012 0d3d 08       		.byte	0x8
 4013 0d3e 6F       		.byte	0x6f
 4014 0d3f 00       		.byte	0
 4015 0d40 20       		.uleb128 0x20
 4016 0d41 18040000 		.4byte	.LVL113
 4017 0d45 0C070000 		.4byte	0x70c
 4018 0d49 580D0000 		.4byte	0xd58
 4019 0d4d 21       		.uleb128 0x21
 4020 0d4e 01       		.uleb128 0x1
 4021 0d4f 50       		.byte	0x50
 4022 0d50 01       		.uleb128 0x1
 4023 0d51 32       		.byte	0x32
 4024 0d52 21       		.uleb128 0x21
 4025 0d53 01       		.uleb128 0x1
 4026 0d54 51       		.byte	0x51
 4027 0d55 01       		.uleb128 0x1
 4028 0d56 37       		.byte	0x37
 4029 0d57 00       		.byte	0
 4030 0d58 22       		.uleb128 0x22
 4031 0d59 2A040000 		.4byte	.LVL117
 4032 0d5d 4F150000 		.4byte	0x154f
 4033 0d61 22       		.uleb128 0x22
 4034 0d62 32040000 		.4byte	.LVL118
 4035 0d66 65150000 		.4byte	0x1565
 4036 0d6a 00       		.byte	0
 4037 0d6b 11       		.uleb128 0x11
 4038 0d6c 04       		.byte	0x4
 4039 0d6d 86040000 		.4byte	0x486
 4040 0d71 28       		.uleb128 0x28
 4041 0d72 03060000 		.4byte	.LASF128
 4042 0d76 01       		.byte	0x1
 4043 0d77 B902     		.2byte	0x2b9
 4044 0d79 00000000 		.4byte	.LFB460
 4045 0d7d 24020000 		.4byte	.LFE460-.LFB460
 4046 0d81 01       		.uleb128 0x1
 4047 0d82 9C       		.byte	0x9c
 4048 0d83 D80E0000 		.4byte	0xed8
 4049 0d87 2B       		.uleb128 0x2b
 4050 0d88 A2040000 		.4byte	.LASF129
 4051 0d8c 01       		.byte	0x1
 4052 0d8d B902     		.2byte	0x2b9
 4053 0d8f 6B0D0000 		.4byte	0xd6b
 4054 0d93 9B060000 		.4byte	.LLST58
 4055 0d97 2B       		.uleb128 0x2b
 4056 0d98 F7050000 		.4byte	.LASF130
 4057 0d9c 01       		.byte	0x1
 4058 0d9d BA02     		.2byte	0x2ba
 4059 0d9f 6B0D0000 		.4byte	0xd6b
 4060 0da3 DB060000 		.4byte	.LLST59
 4061 0da7 2C       		.uleb128 0x2c
 4062 0da8 7800     		.ascii	"x\000"
 4063 0daa 01       		.byte	0x1
 4064 0dab BD02     		.2byte	0x2bd
 4065 0dad DA000000 		.4byte	0xda
ARM GAS  C:\Users\bryan.lee\AppData\Local\Temp\ccAkWdHW.s 			page 105


 4066 0db1 0F070000 		.4byte	.LLST60
 4067 0db5 2C       		.uleb128 0x2c
 4068 0db6 7900     		.ascii	"y\000"
 4069 0db8 01       		.byte	0x1
 4070 0db9 BF02     		.2byte	0x2bf
 4071 0dbb DA000000 		.4byte	0xda
 4072 0dbf 39070000 		.4byte	.LLST61
 4073 0dc3 2C       		.uleb128 0x2c
 4074 0dc4 6B00     		.ascii	"k\000"
 4075 0dc6 01       		.byte	0x1
 4076 0dc7 C102     		.2byte	0x2c1
 4077 0dc9 DA000000 		.4byte	0xda
 4078 0dcd 7A070000 		.4byte	.LLST62
 4079 0dd1 27       		.uleb128 0x27
 4080 0dd2 40060000 		.4byte	.LASF131
 4081 0dd6 01       		.byte	0x1
 4082 0dd7 C402     		.2byte	0x2c4
 4083 0dd9 C4000000 		.4byte	0xc4
 4084 0ddd A5070000 		.4byte	.LLST63
 4085 0de1 27       		.uleb128 0x27
 4086 0de2 C8050000 		.4byte	.LASF132
 4087 0de6 01       		.byte	0x1
 4088 0de7 C602     		.2byte	0x2c6
 4089 0de9 C4000000 		.4byte	0xc4
 4090 0ded C7070000 		.4byte	.LLST64
 4091 0df1 27       		.uleb128 0x27
 4092 0df2 3C080000 		.4byte	.LASF125
 4093 0df6 01       		.byte	0x1
 4094 0df7 C902     		.2byte	0x2c9
 4095 0df9 BF020000 		.4byte	0x2bf
 4096 0dfd DA070000 		.4byte	.LLST65
 4097 0e01 22       		.uleb128 0x22
 4098 0e02 16000000 		.4byte	.LVL123
 4099 0e06 3B150000 		.4byte	0x153b
 4100 0e0a 20       		.uleb128 0x20
 4101 0e0b 1E000000 		.4byte	.LVL124
 4102 0e0f 0C070000 		.4byte	0x70c
 4103 0e13 230E0000 		.4byte	0xe23
 4104 0e17 21       		.uleb128 0x21
 4105 0e18 01       		.uleb128 0x1
 4106 0e19 50       		.byte	0x50
 4107 0e1a 01       		.uleb128 0x1
 4108 0e1b 39       		.byte	0x39
 4109 0e1c 21       		.uleb128 0x21
 4110 0e1d 01       		.uleb128 0x1
 4111 0e1e 51       		.byte	0x51
 4112 0e1f 02       		.uleb128 0x2
 4113 0e20 09       		.byte	0x9
 4114 0e21 D2       		.byte	0xd2
 4115 0e22 00       		.byte	0
 4116 0e23 20       		.uleb128 0x20
 4117 0e24 3E000000 		.4byte	.LVL126
 4118 0e28 46150000 		.4byte	0x1546
 4119 0e2c 420E0000 		.4byte	0xe42
 4120 0e30 21       		.uleb128 0x21
 4121 0e31 01       		.uleb128 0x1
 4122 0e32 50       		.byte	0x50
ARM GAS  C:\Users\bryan.lee\AppData\Local\Temp\ccAkWdHW.s 			page 106


 4123 0e33 02       		.uleb128 0x2
 4124 0e34 76       		.byte	0x76
 4125 0e35 00       		.sleb128 0
 4126 0e36 21       		.uleb128 0x21
 4127 0e37 01       		.uleb128 0x1
 4128 0e38 51       		.byte	0x51
 4129 0e39 01       		.uleb128 0x1
 4130 0e3a 30       		.byte	0x30
 4131 0e3b 21       		.uleb128 0x21
 4132 0e3c 01       		.uleb128 0x1
 4133 0e3d 52       		.byte	0x52
 4134 0e3e 02       		.uleb128 0x2
 4135 0e3f 08       		.byte	0x8
 4136 0e40 6F       		.byte	0x6f
 4137 0e41 00       		.byte	0
 4138 0e42 20       		.uleb128 0x20
 4139 0e43 BE010000 		.4byte	.LVL149
 4140 0e47 C6050000 		.4byte	0x5c6
 4141 0e4b 610E0000 		.4byte	0xe61
 4142 0e4f 21       		.uleb128 0x21
 4143 0e50 01       		.uleb128 0x1
 4144 0e51 50       		.byte	0x50
 4145 0e52 01       		.uleb128 0x1
 4146 0e53 3A       		.byte	0x3a
 4147 0e54 21       		.uleb128 0x21
 4148 0e55 01       		.uleb128 0x1
 4149 0e56 51       		.byte	0x51
 4150 0e57 02       		.uleb128 0x2
 4151 0e58 75       		.byte	0x75
 4152 0e59 00       		.sleb128 0
 4153 0e5a 21       		.uleb128 0x21
 4154 0e5b 01       		.uleb128 0x1
 4155 0e5c 52       		.byte	0x52
 4156 0e5d 02       		.uleb128 0x2
 4157 0e5e 08       		.byte	0x8
 4158 0e5f 6F       		.byte	0x6f
 4159 0e60 00       		.byte	0
 4160 0e61 20       		.uleb128 0x20
 4161 0e62 C6010000 		.4byte	.LVL150
 4162 0e66 0C070000 		.4byte	0x70c
 4163 0e6a 790E0000 		.4byte	0xe79
 4164 0e6e 21       		.uleb128 0x21
 4165 0e6f 01       		.uleb128 0x1
 4166 0e70 50       		.byte	0x50
 4167 0e71 01       		.uleb128 0x1
 4168 0e72 32       		.byte	0x32
 4169 0e73 21       		.uleb128 0x21
 4170 0e74 01       		.uleb128 0x1
 4171 0e75 51       		.byte	0x51
 4172 0e76 01       		.uleb128 0x1
 4173 0e77 37       		.byte	0x37
 4174 0e78 00       		.byte	0
 4175 0e79 20       		.uleb128 0x20
 4176 0e7a E0010000 		.4byte	.LVL153
 4177 0e7e C6050000 		.4byte	0x5c6
 4178 0e82 980E0000 		.4byte	0xe98
 4179 0e86 21       		.uleb128 0x21
ARM GAS  C:\Users\bryan.lee\AppData\Local\Temp\ccAkWdHW.s 			page 107


 4180 0e87 01       		.uleb128 0x1
 4181 0e88 50       		.byte	0x50
 4182 0e89 01       		.uleb128 0x1
 4183 0e8a 3A       		.byte	0x3a
 4184 0e8b 21       		.uleb128 0x21
 4185 0e8c 01       		.uleb128 0x1
 4186 0e8d 51       		.byte	0x51
 4187 0e8e 02       		.uleb128 0x2
 4188 0e8f 75       		.byte	0x75
 4189 0e90 00       		.sleb128 0
 4190 0e91 21       		.uleb128 0x21
 4191 0e92 01       		.uleb128 0x1
 4192 0e93 52       		.byte	0x52
 4193 0e94 02       		.uleb128 0x2
 4194 0e95 08       		.byte	0x8
 4195 0e96 6F       		.byte	0x6f
 4196 0e97 00       		.byte	0
 4197 0e98 20       		.uleb128 0x20
 4198 0e99 E8010000 		.4byte	.LVL154
 4199 0e9d 0C070000 		.4byte	0x70c
 4200 0ea1 B00E0000 		.4byte	0xeb0
 4201 0ea5 21       		.uleb128 0x21
 4202 0ea6 01       		.uleb128 0x1
 4203 0ea7 50       		.byte	0x50
 4204 0ea8 01       		.uleb128 0x1
 4205 0ea9 32       		.byte	0x32
 4206 0eaa 21       		.uleb128 0x21
 4207 0eab 01       		.uleb128 0x1
 4208 0eac 51       		.byte	0x51
 4209 0ead 01       		.uleb128 0x1
 4210 0eae 37       		.byte	0x37
 4211 0eaf 00       		.byte	0
 4212 0eb0 22       		.uleb128 0x22
 4213 0eb1 FA010000 		.4byte	.LVL158
 4214 0eb5 4F150000 		.4byte	0x154f
 4215 0eb9 22       		.uleb128 0x22
 4216 0eba 02020000 		.4byte	.LVL159
 4217 0ebe 65150000 		.4byte	0x1565
 4218 0ec2 23       		.uleb128 0x23
 4219 0ec3 0A020000 		.4byte	.LVL160
 4220 0ec7 0C070000 		.4byte	0x70c
 4221 0ecb 21       		.uleb128 0x21
 4222 0ecc 01       		.uleb128 0x1
 4223 0ecd 50       		.byte	0x50
 4224 0ece 01       		.uleb128 0x1
 4225 0ecf 39       		.byte	0x39
 4226 0ed0 21       		.uleb128 0x21
 4227 0ed1 01       		.uleb128 0x1
 4228 0ed2 51       		.byte	0x51
 4229 0ed3 02       		.uleb128 0x2
 4230 0ed4 09       		.byte	0x9
 4231 0ed5 C2       		.byte	0xc2
 4232 0ed6 00       		.byte	0
 4233 0ed7 00       		.byte	0
 4234 0ed8 28       		.uleb128 0x28
 4235 0ed9 63060000 		.4byte	.LASF133
 4236 0edd 01       		.byte	0x1
ARM GAS  C:\Users\bryan.lee\AppData\Local\Temp\ccAkWdHW.s 			page 108


 4237 0ede 5303     		.2byte	0x353
 4238 0ee0 00000000 		.4byte	.LFB461
 4239 0ee4 5C000000 		.4byte	.LFE461-.LFB461
 4240 0ee8 01       		.uleb128 0x1
 4241 0ee9 9C       		.byte	0x9c
 4242 0eea 320F0000 		.4byte	0xf32
 4243 0eee 27       		.uleb128 0x27
 4244 0eef 78060000 		.4byte	.LASF134
 4245 0ef3 01       		.byte	0x1
 4246 0ef4 5603     		.2byte	0x356
 4247 0ef6 DA000000 		.4byte	0xda
 4248 0efa 24080000 		.4byte	.LLST66
 4249 0efe 20       		.uleb128 0x20
 4250 0eff 3A000000 		.4byte	.LVL167
 4251 0f03 C6050000 		.4byte	0x5c6
 4252 0f07 1D0F0000 		.4byte	0xf1d
 4253 0f0b 21       		.uleb128 0x21
 4254 0f0c 01       		.uleb128 0x1
 4255 0f0d 50       		.byte	0x50
 4256 0f0e 01       		.uleb128 0x1
 4257 0f0f 3A       		.byte	0x3a
 4258 0f10 21       		.uleb128 0x21
 4259 0f11 01       		.uleb128 0x1
 4260 0f12 51       		.byte	0x51
 4261 0f13 02       		.uleb128 0x2
 4262 0f14 76       		.byte	0x76
 4263 0f15 00       		.sleb128 0
 4264 0f16 21       		.uleb128 0x21
 4265 0f17 01       		.uleb128 0x1
 4266 0f18 52       		.byte	0x52
 4267 0f19 02       		.uleb128 0x2
 4268 0f1a 08       		.byte	0x8
 4269 0f1b 6F       		.byte	0x6f
 4270 0f1c 00       		.byte	0
 4271 0f1d 23       		.uleb128 0x23
 4272 0f1e 42000000 		.4byte	.LVL168
 4273 0f22 0C070000 		.4byte	0x70c
 4274 0f26 21       		.uleb128 0x21
 4275 0f27 01       		.uleb128 0x1
 4276 0f28 50       		.byte	0x50
 4277 0f29 01       		.uleb128 0x1
 4278 0f2a 32       		.byte	0x32
 4279 0f2b 21       		.uleb128 0x21
 4280 0f2c 01       		.uleb128 0x1
 4281 0f2d 51       		.byte	0x51
 4282 0f2e 01       		.uleb128 0x1
 4283 0f2f 37       		.byte	0x37
 4284 0f30 00       		.byte	0
 4285 0f31 00       		.byte	0
 4286 0f32 28       		.uleb128 0x28
 4287 0f33 F9000000 		.4byte	.LASF135
 4288 0f37 01       		.byte	0x1
 4289 0f38 8203     		.2byte	0x382
 4290 0f3a 00000000 		.4byte	.LFB462
 4291 0f3e 34000000 		.4byte	.LFE462-.LFB462
 4292 0f42 01       		.uleb128 0x1
 4293 0f43 9C       		.byte	0x9c
ARM GAS  C:\Users\bryan.lee\AppData\Local\Temp\ccAkWdHW.s 			page 109


 4294 0f44 A70F0000 		.4byte	0xfa7
 4295 0f48 27       		.uleb128 0x27
 4296 0f49 78060000 		.4byte	.LASF134
 4297 0f4d 01       		.byte	0x1
 4298 0f4e 8503     		.2byte	0x385
 4299 0f50 C4000000 		.4byte	0xc4
 4300 0f54 64080000 		.4byte	.LLST67
 4301 0f58 20       		.uleb128 0x20
 4302 0f59 1C000000 		.4byte	.LVL176
 4303 0f5d 0C070000 		.4byte	0x70c
 4304 0f61 700F0000 		.4byte	0xf70
 4305 0f65 21       		.uleb128 0x21
 4306 0f66 01       		.uleb128 0x1
 4307 0f67 50       		.byte	0x50
 4308 0f68 01       		.uleb128 0x1
 4309 0f69 34       		.byte	0x34
 4310 0f6a 21       		.uleb128 0x21
 4311 0f6b 01       		.uleb128 0x1
 4312 0f6c 51       		.byte	0x51
 4313 0f6d 01       		.uleb128 0x1
 4314 0f6e 30       		.byte	0x30
 4315 0f6f 00       		.byte	0
 4316 0f70 20       		.uleb128 0x20
 4317 0f71 26000000 		.4byte	.LVL177
 4318 0f75 C6050000 		.4byte	0x5c6
 4319 0f79 920F0000 		.4byte	0xf92
 4320 0f7d 21       		.uleb128 0x21
 4321 0f7e 01       		.uleb128 0x1
 4322 0f7f 50       		.byte	0x50
 4323 0f80 01       		.uleb128 0x1
 4324 0f81 3A       		.byte	0x3a
 4325 0f82 21       		.uleb128 0x21
 4326 0f83 01       		.uleb128 0x1
 4327 0f84 51       		.byte	0x51
 4328 0f85 05       		.uleb128 0x5
 4329 0f86 03       		.byte	0x3
 4330 0f87 00000000 		.4byte	.LANCHOR0
 4331 0f8b 21       		.uleb128 0x21
 4332 0f8c 01       		.uleb128 0x1
 4333 0f8d 52       		.byte	0x52
 4334 0f8e 02       		.uleb128 0x2
 4335 0f8f 08       		.byte	0x8
 4336 0f90 6F       		.byte	0x6f
 4337 0f91 00       		.byte	0
 4338 0f92 23       		.uleb128 0x23
 4339 0f93 2E000000 		.4byte	.LVL178
 4340 0f97 0C070000 		.4byte	0x70c
 4341 0f9b 21       		.uleb128 0x21
 4342 0f9c 01       		.uleb128 0x1
 4343 0f9d 50       		.byte	0x50
 4344 0f9e 01       		.uleb128 0x1
 4345 0f9f 32       		.byte	0x32
 4346 0fa0 21       		.uleb128 0x21
 4347 0fa1 01       		.uleb128 0x1
 4348 0fa2 51       		.byte	0x51
 4349 0fa3 01       		.uleb128 0x1
 4350 0fa4 37       		.byte	0x37
ARM GAS  C:\Users\bryan.lee\AppData\Local\Temp\ccAkWdHW.s 			page 110


 4351 0fa5 00       		.byte	0
 4352 0fa6 00       		.byte	0
 4353 0fa7 26       		.uleb128 0x26
 4354 0fa8 8D050000 		.4byte	.LASF136
 4355 0fac 01       		.byte	0x1
 4356 0fad AB03     		.2byte	0x3ab
 4357 0faf C2040000 		.4byte	0x4c2
 4358 0fb3 00000000 		.4byte	.LFB463
 4359 0fb7 44000000 		.4byte	.LFE463-.LFB463
 4360 0fbb 01       		.uleb128 0x1
 4361 0fbc 9C       		.byte	0x9c
 4362 0fbd 40110000 		.4byte	0x1140
 4363 0fc1 2D       		.uleb128 0x2d
 4364 0fc2 94050000 		.4byte	0x594
 4365 0fc6 02000000 		.4byte	.LBB86
 4366 0fca 06000000 		.4byte	.LBE86-.LBB86
 4367 0fce 01       		.byte	0x1
 4368 0fcf AF03     		.2byte	0x3af
 4369 0fd1 F10F0000 		.4byte	0xff1
 4370 0fd5 1F       		.uleb128 0x1f
 4371 0fd6 B9050000 		.4byte	0x5b9
 4372 0fda 8E080000 		.4byte	.LLST68
 4373 0fde 1F       		.uleb128 0x1f
 4374 0fdf AD050000 		.4byte	0x5ad
 4375 0fe3 A2080000 		.4byte	.LLST69
 4376 0fe7 1F       		.uleb128 0x1f
 4377 0fe8 A1050000 		.4byte	0x5a1
 4378 0fec B6080000 		.4byte	.LLST70
 4379 0ff0 00       		.byte	0
 4380 0ff1 2D       		.uleb128 0x2d
 4381 0ff2 94050000 		.4byte	0x594
 4382 0ff6 12000000 		.4byte	.LBB88
 4383 0ffa 06000000 		.4byte	.LBE88-.LBB88
 4384 0ffe 01       		.byte	0x1
 4385 0fff B503     		.2byte	0x3b5
 4386 1001 21100000 		.4byte	0x1021
 4387 1005 1F       		.uleb128 0x1f
 4388 1006 B9050000 		.4byte	0x5b9
 4389 100a CE080000 		.4byte	.LLST71
 4390 100e 1F       		.uleb128 0x1f
 4391 100f AD050000 		.4byte	0x5ad
 4392 1013 E2080000 		.4byte	.LLST72
 4393 1017 1F       		.uleb128 0x1f
 4394 1018 A1050000 		.4byte	0x5a1
 4395 101c F6080000 		.4byte	.LLST73
 4396 1020 00       		.byte	0
 4397 1021 2D       		.uleb128 0x2d
 4398 1022 94050000 		.4byte	0x594
 4399 1026 18000000 		.4byte	.LBB90
 4400 102a 04000000 		.4byte	.LBE90-.LBB90
 4401 102e 01       		.byte	0x1
 4402 102f B603     		.2byte	0x3b6
 4403 1031 51100000 		.4byte	0x1051
 4404 1035 1F       		.uleb128 0x1f
 4405 1036 B9050000 		.4byte	0x5b9
 4406 103a 0E090000 		.4byte	.LLST74
 4407 103e 1F       		.uleb128 0x1f
ARM GAS  C:\Users\bryan.lee\AppData\Local\Temp\ccAkWdHW.s 			page 111


 4408 103f AD050000 		.4byte	0x5ad
 4409 1043 22090000 		.4byte	.LLST75
 4410 1047 1F       		.uleb128 0x1f
 4411 1048 A1050000 		.4byte	0x5a1
 4412 104c 36090000 		.4byte	.LLST76
 4413 1050 00       		.byte	0
 4414 1051 2D       		.uleb128 0x2d
 4415 1052 94050000 		.4byte	0x594
 4416 1056 1C000000 		.4byte	.LBB92
 4417 105a 04000000 		.4byte	.LBE92-.LBB92
 4418 105e 01       		.byte	0x1
 4419 105f B903     		.2byte	0x3b9
 4420 1061 81100000 		.4byte	0x1081
 4421 1065 1F       		.uleb128 0x1f
 4422 1066 B9050000 		.4byte	0x5b9
 4423 106a 4E090000 		.4byte	.LLST77
 4424 106e 1F       		.uleb128 0x1f
 4425 106f AD050000 		.4byte	0x5ad
 4426 1073 62090000 		.4byte	.LLST78
 4427 1077 1F       		.uleb128 0x1f
 4428 1078 A1050000 		.4byte	0x5a1
 4429 107c 76090000 		.4byte	.LLST79
 4430 1080 00       		.byte	0
 4431 1081 2D       		.uleb128 0x2d
 4432 1082 94050000 		.4byte	0x594
 4433 1086 26000000 		.4byte	.LBB94
 4434 108a 02000000 		.4byte	.LBE94-.LBB94
 4435 108e 01       		.byte	0x1
 4436 108f BB03     		.2byte	0x3bb
 4437 1091 B1100000 		.4byte	0x10b1
 4438 1095 1F       		.uleb128 0x1f
 4439 1096 B9050000 		.4byte	0x5b9
 4440 109a 8E090000 		.4byte	.LLST80
 4441 109e 1F       		.uleb128 0x1f
 4442 109f AD050000 		.4byte	0x5ad
 4443 10a3 A2090000 		.4byte	.LLST81
 4444 10a7 1F       		.uleb128 0x1f
 4445 10a8 A1050000 		.4byte	0x5a1
 4446 10ac B6090000 		.4byte	.LLST82
 4447 10b0 00       		.byte	0
 4448 10b1 2D       		.uleb128 0x2d
 4449 10b2 94050000 		.4byte	0x594
 4450 10b6 2E000000 		.4byte	.LBB96
 4451 10ba 02000000 		.4byte	.LBE96-.LBB96
 4452 10be 01       		.byte	0x1
 4453 10bf BD03     		.2byte	0x3bd
 4454 10c1 E1100000 		.4byte	0x10e1
 4455 10c5 1F       		.uleb128 0x1f
 4456 10c6 B9050000 		.4byte	0x5b9
 4457 10ca CE090000 		.4byte	.LLST83
 4458 10ce 1F       		.uleb128 0x1f
 4459 10cf AD050000 		.4byte	0x5ad
 4460 10d3 E2090000 		.4byte	.LLST84
 4461 10d7 1F       		.uleb128 0x1f
 4462 10d8 A1050000 		.4byte	0x5a1
 4463 10dc F6090000 		.4byte	.LLST85
 4464 10e0 00       		.byte	0
ARM GAS  C:\Users\bryan.lee\AppData\Local\Temp\ccAkWdHW.s 			page 112


 4465 10e1 20       		.uleb128 0x20
 4466 10e2 0E000000 		.4byte	.LVL181
 4467 10e6 70150000 		.4byte	0x1570
 4468 10ea F4100000 		.4byte	0x10f4
 4469 10ee 21       		.uleb128 0x21
 4470 10ef 01       		.uleb128 0x1
 4471 10f0 50       		.byte	0x50
 4472 10f1 01       		.uleb128 0x1
 4473 10f2 44       		.byte	0x44
 4474 10f3 00       		.byte	0
 4475 10f4 22       		.uleb128 0x22
 4476 10f5 12000000 		.4byte	.LVL182
 4477 10f9 7C150000 		.4byte	0x157c
 4478 10fd 20       		.uleb128 0x20
 4479 10fe 26000000 		.4byte	.LVL186
 4480 1102 70150000 		.4byte	0x1570
 4481 1106 10110000 		.4byte	0x1110
 4482 110a 21       		.uleb128 0x21
 4483 110b 01       		.uleb128 0x1
 4484 110c 50       		.byte	0x50
 4485 110d 01       		.uleb128 0x1
 4486 110e 3A       		.byte	0x3a
 4487 110f 00       		.byte	0
 4488 1110 20       		.uleb128 0x20
 4489 1111 2E000000 		.4byte	.LVL188
 4490 1115 70150000 		.4byte	0x1570
 4491 1119 23110000 		.4byte	0x1123
 4492 111d 21       		.uleb128 0x21
 4493 111e 01       		.uleb128 0x1
 4494 111f 50       		.byte	0x50
 4495 1120 01       		.uleb128 0x1
 4496 1121 3A       		.byte	0x3a
 4497 1122 00       		.byte	0
 4498 1123 20       		.uleb128 0x20
 4499 1124 36000000 		.4byte	.LVL190
 4500 1128 70150000 		.4byte	0x1570
 4501 112c 36110000 		.4byte	0x1136
 4502 1130 21       		.uleb128 0x21
 4503 1131 01       		.uleb128 0x1
 4504 1132 50       		.byte	0x50
 4505 1133 01       		.uleb128 0x1
 4506 1134 3A       		.byte	0x3a
 4507 1135 00       		.byte	0
 4508 1136 22       		.uleb128 0x22
 4509 1137 3A000000 		.4byte	.LVL191
 4510 113b E4090000 		.4byte	0x9e4
 4511 113f 00       		.byte	0
 4512 1140 26       		.uleb128 0x26
 4513 1141 2D090000 		.4byte	.LASF137
 4514 1145 01       		.byte	0x1
 4515 1146 D403     		.2byte	0x3d4
 4516 1148 C2040000 		.4byte	0x4c2
 4517 114c 00000000 		.4byte	.LFB464
 4518 1150 A8000000 		.4byte	.LFE464-.LFB464
 4519 1154 01       		.uleb128 0x1
 4520 1155 9C       		.byte	0x9c
 4521 1156 27140000 		.4byte	0x1427
ARM GAS  C:\Users\bryan.lee\AppData\Local\Temp\ccAkWdHW.s 			page 113


 4522 115a 2D       		.uleb128 0x2d
 4523 115b 94050000 		.4byte	0x594
 4524 115f 10000000 		.4byte	.LBB98
 4525 1163 06000000 		.4byte	.LBE98-.LBB98
 4526 1167 01       		.byte	0x1
 4527 1168 DD03     		.2byte	0x3dd
 4528 116a 8A110000 		.4byte	0x118a
 4529 116e 1F       		.uleb128 0x1f
 4530 116f B9050000 		.4byte	0x5b9
 4531 1173 0E0A0000 		.4byte	.LLST86
 4532 1177 1F       		.uleb128 0x1f
 4533 1178 AD050000 		.4byte	0x5ad
 4534 117c 220A0000 		.4byte	.LLST87
 4535 1180 1F       		.uleb128 0x1f
 4536 1181 A1050000 		.4byte	0x5a1
 4537 1185 360A0000 		.4byte	.LLST88
 4538 1189 00       		.byte	0
 4539 118a 2D       		.uleb128 0x2d
 4540 118b 94050000 		.4byte	0x594
 4541 118f 1C000000 		.4byte	.LBB100
 4542 1193 02000000 		.4byte	.LBE100-.LBB100
 4543 1197 01       		.byte	0x1
 4544 1198 DF03     		.2byte	0x3df
 4545 119a BA110000 		.4byte	0x11ba
 4546 119e 1F       		.uleb128 0x1f
 4547 119f B9050000 		.4byte	0x5b9
 4548 11a3 4E0A0000 		.4byte	.LLST89
 4549 11a7 1F       		.uleb128 0x1f
 4550 11a8 AD050000 		.4byte	0x5ad
 4551 11ac 620A0000 		.4byte	.LLST90
 4552 11b0 1F       		.uleb128 0x1f
 4553 11b1 A1050000 		.4byte	0x5a1
 4554 11b5 760A0000 		.4byte	.LLST91
 4555 11b9 00       		.byte	0
 4556 11ba 2D       		.uleb128 0x2d
 4557 11bb 94050000 		.4byte	0x594
 4558 11bf 72000000 		.4byte	.LBB102
 4559 11c3 04000000 		.4byte	.LBE102-.LBB102
 4560 11c7 01       		.byte	0x1
 4561 11c8 0504     		.2byte	0x405
 4562 11ca EA110000 		.4byte	0x11ea
 4563 11ce 1F       		.uleb128 0x1f
 4564 11cf B9050000 		.4byte	0x5b9
 4565 11d3 8E0A0000 		.4byte	.LLST92
 4566 11d7 1F       		.uleb128 0x1f
 4567 11d8 AD050000 		.4byte	0x5ad
 4568 11dc A20A0000 		.4byte	.LLST93
 4569 11e0 1F       		.uleb128 0x1f
 4570 11e1 A1050000 		.4byte	0x5a1
 4571 11e5 B60A0000 		.4byte	.LLST94
 4572 11e9 00       		.byte	0
 4573 11ea 2D       		.uleb128 0x2d
 4574 11eb 94050000 		.4byte	0x594
 4575 11ef 76000000 		.4byte	.LBB104
 4576 11f3 04000000 		.4byte	.LBE104-.LBB104
 4577 11f7 01       		.byte	0x1
 4578 11f8 0804     		.2byte	0x408
ARM GAS  C:\Users\bryan.lee\AppData\Local\Temp\ccAkWdHW.s 			page 114


 4579 11fa 1A120000 		.4byte	0x121a
 4580 11fe 1F       		.uleb128 0x1f
 4581 11ff B9050000 		.4byte	0x5b9
 4582 1203 CE0A0000 		.4byte	.LLST95
 4583 1207 1F       		.uleb128 0x1f
 4584 1208 AD050000 		.4byte	0x5ad
 4585 120c E20A0000 		.4byte	.LLST96
 4586 1210 1F       		.uleb128 0x1f
 4587 1211 A1050000 		.4byte	0x5a1
 4588 1215 F60A0000 		.4byte	.LLST97
 4589 1219 00       		.byte	0
 4590 121a 2D       		.uleb128 0x2d
 4591 121b 94050000 		.4byte	0x594
 4592 121f 80000000 		.4byte	.LBB106
 4593 1223 06000000 		.4byte	.LBE106-.LBB106
 4594 1227 01       		.byte	0x1
 4595 1228 0A04     		.2byte	0x40a
 4596 122a 4A120000 		.4byte	0x124a
 4597 122e 1F       		.uleb128 0x1f
 4598 122f B9050000 		.4byte	0x5b9
 4599 1233 0E0B0000 		.4byte	.LLST98
 4600 1237 1F       		.uleb128 0x1f
 4601 1238 AD050000 		.4byte	0x5ad
 4602 123c 220B0000 		.4byte	.LLST99
 4603 1240 1F       		.uleb128 0x1f
 4604 1241 A1050000 		.4byte	0x5a1
 4605 1245 360B0000 		.4byte	.LLST100
 4606 1249 00       		.byte	0
 4607 124a 2D       		.uleb128 0x2d
 4608 124b 94050000 		.4byte	0x594
 4609 124f 86000000 		.4byte	.LBB108
 4610 1253 04000000 		.4byte	.LBE108-.LBB108
 4611 1257 01       		.byte	0x1
 4612 1258 0B04     		.2byte	0x40b
 4613 125a 7A120000 		.4byte	0x127a
 4614 125e 1F       		.uleb128 0x1f
 4615 125f B9050000 		.4byte	0x5b9
 4616 1263 4E0B0000 		.4byte	.LLST101
 4617 1267 1F       		.uleb128 0x1f
 4618 1268 AD050000 		.4byte	0x5ad
 4619 126c 620B0000 		.4byte	.LLST102
 4620 1270 1F       		.uleb128 0x1f
 4621 1271 A1050000 		.4byte	0x5a1
 4622 1275 760B0000 		.4byte	.LLST103
 4623 1279 00       		.byte	0
 4624 127a 2D       		.uleb128 0x2d
 4625 127b 94050000 		.4byte	0x594
 4626 127f 8A000000 		.4byte	.LBB110
 4627 1283 04000000 		.4byte	.LBE110-.LBB110
 4628 1287 01       		.byte	0x1
 4629 1288 0C04     		.2byte	0x40c
 4630 128a AA120000 		.4byte	0x12aa
 4631 128e 1F       		.uleb128 0x1f
 4632 128f B9050000 		.4byte	0x5b9
 4633 1293 8E0B0000 		.4byte	.LLST104
 4634 1297 1F       		.uleb128 0x1f
 4635 1298 AD050000 		.4byte	0x5ad
ARM GAS  C:\Users\bryan.lee\AppData\Local\Temp\ccAkWdHW.s 			page 115


 4636 129c A20B0000 		.4byte	.LLST105
 4637 12a0 1F       		.uleb128 0x1f
 4638 12a1 A1050000 		.4byte	0x5a1
 4639 12a5 B60B0000 		.4byte	.LLST106
 4640 12a9 00       		.byte	0
 4641 12aa 2D       		.uleb128 0x2d
 4642 12ab 94050000 		.4byte	0x594
 4643 12af 94000000 		.4byte	.LBB112
 4644 12b3 02000000 		.4byte	.LBE112-.LBB112
 4645 12b7 01       		.byte	0x1
 4646 12b8 0E04     		.2byte	0x40e
 4647 12ba DA120000 		.4byte	0x12da
 4648 12be 1F       		.uleb128 0x1f
 4649 12bf B9050000 		.4byte	0x5b9
 4650 12c3 CE0B0000 		.4byte	.LLST107
 4651 12c7 1F       		.uleb128 0x1f
 4652 12c8 AD050000 		.4byte	0x5ad
 4653 12cc E20B0000 		.4byte	.LLST108
 4654 12d0 1F       		.uleb128 0x1f
 4655 12d1 A1050000 		.4byte	0x5a1
 4656 12d5 F60B0000 		.4byte	.LLST109
 4657 12d9 00       		.byte	0
 4658 12da 22       		.uleb128 0x22
 4659 12db 06000000 		.4byte	.LVL192
 4660 12df D80E0000 		.4byte	0xed8
 4661 12e3 22       		.uleb128 0x22
 4662 12e4 0A000000 		.4byte	.LVL193
 4663 12e8 320F0000 		.4byte	0xf32
 4664 12ec 20       		.uleb128 0x20
 4665 12ed 10000000 		.4byte	.LVL194
 4666 12f1 70150000 		.4byte	0x1570
 4667 12f5 FF120000 		.4byte	0x12ff
 4668 12f9 21       		.uleb128 0x21
 4669 12fa 01       		.uleb128 0x1
 4670 12fb 50       		.byte	0x50
 4671 12fc 01       		.uleb128 0x1
 4672 12fd 4E       		.byte	0x4e
 4673 12fe 00       		.byte	0
 4674 12ff 20       		.uleb128 0x20
 4675 1300 1C000000 		.4byte	.LVL196
 4676 1304 70150000 		.4byte	0x1570
 4677 1308 13130000 		.4byte	0x1313
 4678 130c 21       		.uleb128 0x21
 4679 130d 01       		.uleb128 0x1
 4680 130e 50       		.byte	0x50
 4681 130f 02       		.uleb128 0x2
 4682 1310 08       		.byte	0x8
 4683 1311 32       		.byte	0x32
 4684 1312 00       		.byte	0
 4685 1313 20       		.uleb128 0x20
 4686 1314 26000000 		.4byte	.LVL198
 4687 1318 55070000 		.4byte	0x755
 4688 131c 2B130000 		.4byte	0x132b
 4689 1320 21       		.uleb128 0x21
 4690 1321 01       		.uleb128 0x1
 4691 1322 50       		.byte	0x50
 4692 1323 01       		.uleb128 0x1
ARM GAS  C:\Users\bryan.lee\AppData\Local\Temp\ccAkWdHW.s 			page 116


 4693 1324 3F       		.byte	0x3f
 4694 1325 21       		.uleb128 0x21
 4695 1326 01       		.uleb128 0x1
 4696 1327 51       		.byte	0x51
 4697 1328 01       		.uleb128 0x1
 4698 1329 30       		.byte	0x30
 4699 132a 00       		.byte	0
 4700 132b 20       		.uleb128 0x20
 4701 132c 32000000 		.4byte	.LVL199
 4702 1330 0C070000 		.4byte	0x70c
 4703 1334 43130000 		.4byte	0x1343
 4704 1338 21       		.uleb128 0x21
 4705 1339 01       		.uleb128 0x1
 4706 133a 50       		.byte	0x50
 4707 133b 01       		.uleb128 0x1
 4708 133c 3B       		.byte	0x3b
 4709 133d 21       		.uleb128 0x21
 4710 133e 01       		.uleb128 0x1
 4711 133f 51       		.byte	0x51
 4712 1340 01       		.uleb128 0x1
 4713 1341 30       		.byte	0x30
 4714 1342 00       		.byte	0
 4715 1343 20       		.uleb128 0x20
 4716 1344 3A000000 		.4byte	.LVL200
 4717 1348 0C070000 		.4byte	0x70c
 4718 134c 5B130000 		.4byte	0x135b
 4719 1350 21       		.uleb128 0x21
 4720 1351 01       		.uleb128 0x1
 4721 1352 50       		.byte	0x50
 4722 1353 01       		.uleb128 0x1
 4723 1354 33       		.byte	0x33
 4724 1355 21       		.uleb128 0x21
 4725 1356 01       		.uleb128 0x1
 4726 1357 51       		.byte	0x51
 4727 1358 01       		.uleb128 0x1
 4728 1359 31       		.byte	0x31
 4729 135a 00       		.byte	0
 4730 135b 20       		.uleb128 0x20
 4731 135c 42000000 		.4byte	.LVL201
 4732 1360 0C070000 		.4byte	0x70c
 4733 1364 73130000 		.4byte	0x1373
 4734 1368 21       		.uleb128 0x21
 4735 1369 01       		.uleb128 0x1
 4736 136a 50       		.byte	0x50
 4737 136b 01       		.uleb128 0x1
 4738 136c 35       		.byte	0x35
 4739 136d 21       		.uleb128 0x21
 4740 136e 01       		.uleb128 0x1
 4741 136f 51       		.byte	0x51
 4742 1370 01       		.uleb128 0x1
 4743 1371 33       		.byte	0x33
 4744 1372 00       		.byte	0
 4745 1373 20       		.uleb128 0x20
 4746 1374 4A000000 		.4byte	.LVL202
 4747 1378 0C070000 		.4byte	0x70c
 4748 137c 8B130000 		.4byte	0x138b
 4749 1380 21       		.uleb128 0x21
ARM GAS  C:\Users\bryan.lee\AppData\Local\Temp\ccAkWdHW.s 			page 117


 4750 1381 01       		.uleb128 0x1
 4751 1382 50       		.byte	0x50
 4752 1383 01       		.uleb128 0x1
 4753 1384 35       		.byte	0x35
 4754 1385 21       		.uleb128 0x21
 4755 1386 01       		.uleb128 0x1
 4756 1387 51       		.byte	0x51
 4757 1388 01       		.uleb128 0x1
 4758 1389 31       		.byte	0x31
 4759 138a 00       		.byte	0
 4760 138b 20       		.uleb128 0x20
 4761 138c 50000000 		.4byte	.LVL203
 4762 1390 70150000 		.4byte	0x1570
 4763 1394 9F130000 		.4byte	0x139f
 4764 1398 21       		.uleb128 0x21
 4765 1399 01       		.uleb128 0x1
 4766 139a 50       		.byte	0x50
 4767 139b 02       		.uleb128 0x2
 4768 139c 08       		.byte	0x8
 4769 139d 32       		.byte	0x32
 4770 139e 00       		.byte	0
 4771 139f 20       		.uleb128 0x20
 4772 13a0 58000000 		.4byte	.LVL204
 4773 13a4 0C070000 		.4byte	0x70c
 4774 13a8 B8130000 		.4byte	0x13b8
 4775 13ac 21       		.uleb128 0x21
 4776 13ad 01       		.uleb128 0x1
 4777 13ae 50       		.byte	0x50
 4778 13af 01       		.uleb128 0x1
 4779 13b0 34       		.byte	0x34
 4780 13b1 21       		.uleb128 0x21
 4781 13b2 01       		.uleb128 0x1
 4782 13b3 51       		.byte	0x51
 4783 13b4 02       		.uleb128 0x2
 4784 13b5 09       		.byte	0x9
 4785 13b6 80       		.byte	0x80
 4786 13b7 00       		.byte	0
 4787 13b8 20       		.uleb128 0x20
 4788 13b9 60000000 		.4byte	.LVL205
 4789 13bd 0C070000 		.4byte	0x70c
 4790 13c1 D0130000 		.4byte	0x13d0
 4791 13c5 21       		.uleb128 0x21
 4792 13c6 01       		.uleb128 0x1
 4793 13c7 50       		.byte	0x50
 4794 13c8 01       		.uleb128 0x1
 4795 13c9 35       		.byte	0x35
 4796 13ca 21       		.uleb128 0x21
 4797 13cb 01       		.uleb128 0x1
 4798 13cc 51       		.byte	0x51
 4799 13cd 01       		.uleb128 0x1
 4800 13ce 30       		.byte	0x30
 4801 13cf 00       		.byte	0
 4802 13d0 20       		.uleb128 0x20
 4803 13d1 68000000 		.4byte	.LVL206
 4804 13d5 0C070000 		.4byte	0x70c
 4805 13d9 E8130000 		.4byte	0x13e8
 4806 13dd 21       		.uleb128 0x21
ARM GAS  C:\Users\bryan.lee\AppData\Local\Temp\ccAkWdHW.s 			page 118


 4807 13de 01       		.uleb128 0x1
 4808 13df 50       		.byte	0x50
 4809 13e0 01       		.uleb128 0x1
 4810 13e1 37       		.byte	0x37
 4811 13e2 21       		.uleb128 0x21
 4812 13e3 01       		.uleb128 0x1
 4813 13e4 51       		.byte	0x51
 4814 13e5 01       		.uleb128 0x1
 4815 13e6 31       		.byte	0x31
 4816 13e7 00       		.byte	0
 4817 13e8 20       		.uleb128 0x20
 4818 13e9 6E000000 		.4byte	.LVL207
 4819 13ed 70150000 		.4byte	0x1570
 4820 13f1 FB130000 		.4byte	0x13fb
 4821 13f5 21       		.uleb128 0x21
 4822 13f6 01       		.uleb128 0x1
 4823 13f7 50       		.byte	0x50
 4824 13f8 01       		.uleb128 0x1
 4825 13f9 4E       		.byte	0x4e
 4826 13fa 00       		.byte	0
 4827 13fb 22       		.uleb128 0x22
 4828 13fc 72000000 		.4byte	.LVL208
 4829 1400 87150000 		.4byte	0x1587
 4830 1404 20       		.uleb128 0x20
 4831 1405 80000000 		.4byte	.LVL211
 4832 1409 70150000 		.4byte	0x1570
 4833 140d 17140000 		.4byte	0x1417
 4834 1411 21       		.uleb128 0x21
 4835 1412 01       		.uleb128 0x1
 4836 1413 50       		.byte	0x50
 4837 1414 01       		.uleb128 0x1
 4838 1415 44       		.byte	0x44
 4839 1416 00       		.byte	0
 4840 1417 23       		.uleb128 0x23
 4841 1418 94000000 		.4byte	.LVL215
 4842 141c 70150000 		.4byte	0x1570
 4843 1420 21       		.uleb128 0x21
 4844 1421 01       		.uleb128 0x1
 4845 1422 50       		.byte	0x50
 4846 1423 01       		.uleb128 0x1
 4847 1424 4E       		.byte	0x4e
 4848 1425 00       		.byte	0
 4849 1426 00       		.byte	0
 4850 1427 25       		.uleb128 0x25
 4851 1428 D7070000 		.4byte	.LASF138
 4852 142c 01       		.byte	0x1
 4853 142d 52       		.byte	0x52
 4854 142e 89050000 		.4byte	0x589
 4855 1432 05       		.uleb128 0x5
 4856 1433 03       		.byte	0x3
 4857 1434 00000000 		.4byte	driverPacket
 4858 1438 25       		.uleb128 0x25
 4859 1439 65020000 		.4byte	.LASF139
 4860 143d 01       		.byte	0x1
 4861 143e 5D       		.byte	0x5d
 4862 143f DA000000 		.4byte	0xda
 4863 1443 05       		.uleb128 0x5
ARM GAS  C:\Users\bryan.lee\AppData\Local\Temp\ccAkWdHW.s 			page 119


 4864 1444 03       		.byte	0x3
 4865 1445 7C000000 		.4byte	fullUpdateTime
 4866 1449 25       		.uleb128 0x25
 4867 144a E5050000 		.4byte	.LASF140
 4868 144e 01       		.byte	0x1
 4869 144f 5E       		.byte	0x5e
 4870 1450 DA000000 		.4byte	0xda
 4871 1454 05       		.uleb128 0x5
 4872 1455 03       		.byte	0x3
 4873 1456 7E000000 		.4byte	partialUpdateTime
 4874 145a 25       		.uleb128 0x25
 4875 145b 50040000 		.4byte	.LASF141
 4876 145f 01       		.byte	0x1
 4877 1460 61       		.byte	0x61
 4878 1461 DF030000 		.4byte	0x3df
 4879 1465 05       		.uleb128 0x5
 4880 1466 03       		.byte	0x3
 4881 1467 70000000 		.4byte	dataLineEven
 4882 146b 25       		.uleb128 0x25
 4883 146c C0010000 		.4byte	.LASF142
 4884 1470 01       		.byte	0x1
 4885 1471 62       		.byte	0x62
 4886 1472 DF030000 		.4byte	0x3df
 4887 1476 05       		.uleb128 0x5
 4888 1477 03       		.byte	0x3
 4889 1478 74000000 		.4byte	dataLineOdd
 4890 147c 25       		.uleb128 0x25
 4891 147d 90020000 		.4byte	.LASF143
 4892 1481 01       		.byte	0x1
 4893 1482 63       		.byte	0x63
 4894 1483 DF030000 		.4byte	0x3df
 4895 1487 05       		.uleb128 0x5
 4896 1488 03       		.byte	0x3
 4897 1489 78000000 		.4byte	dataLineScan
 4898 148d 2E       		.uleb128 0x2e
 4899 148e F0080000 		.4byte	.LASF144
 4900 1492 0A       		.byte	0xa
 4901 1493 1F       		.byte	0x1f
 4902 1494 98140000 		.4byte	0x1498
 4903 1498 07       		.uleb128 0x7
 4904 1499 C3030000 		.4byte	0x3c3
 4905 149d 2E       		.uleb128 0x2e
 4906 149e 74080000 		.4byte	.LASF145
 4907 14a2 0B       		.byte	0xb
 4908 14a3 5E       		.byte	0x5e
 4909 14a4 74040000 		.4byte	0x474
 4910 14a8 08       		.uleb128 0x8
 4911 14a9 89050000 		.4byte	0x589
 4912 14ad B8140000 		.4byte	0x14b8
 4913 14b1 09       		.uleb128 0x9
 4914 14b2 A9000000 		.4byte	0xa9
 4915 14b6 AF       		.byte	0xaf
 4916 14b7 00       		.byte	0
 4917 14b8 2F       		.uleb128 0x2f
 4918 14b9 AB020000 		.4byte	.LASF146
 4919 14bd 01       		.byte	0x1
 4920 14be 4E       		.byte	0x4e
ARM GAS  C:\Users\bryan.lee\AppData\Local\Temp\ccAkWdHW.s 			page 120


 4921 14bf A8140000 		.4byte	0x14a8
 4922 14c3 05       		.uleb128 0x5
 4923 14c4 03       		.byte	0x3
 4924 14c5 00000000 		.4byte	bulkDriverPacket
 4925 14c9 08       		.uleb128 0x8
 4926 14ca D9140000 		.4byte	0x14d9
 4927 14ce D9140000 		.4byte	0x14d9
 4928 14d2 09       		.uleb128 0x9
 4929 14d3 A9000000 		.4byte	0xa9
 4930 14d7 03       		.byte	0x3
 4931 14d8 00       		.byte	0
 4932 14d9 07       		.uleb128 0x7
 4933 14da C4000000 		.4byte	0xc4
 4934 14de 2F       		.uleb128 0x2f
 4935 14df 5B020000 		.4byte	.LASF147
 4936 14e3 01       		.byte	0x1
 4937 14e4 55       		.byte	0x55
 4938 14e5 EF140000 		.4byte	0x14ef
 4939 14e9 05       		.uleb128 0x5
 4940 14ea 03       		.byte	0x3
 4941 14eb 00000000 		.4byte	scanTable
 4942 14ef 07       		.uleb128 0x7
 4943 14f0 C9140000 		.4byte	0x14c9
 4944 14f4 08       		.uleb128 0x8
 4945 14f5 D9140000 		.4byte	0x14d9
 4946 14f9 04150000 		.4byte	0x1504
 4947 14fd 09       		.uleb128 0x9
 4948 14fe A9000000 		.4byte	0xa9
 4949 1502 07       		.byte	0x7
 4950 1503 00       		.byte	0
 4951 1504 2F       		.uleb128 0x2f
 4952 1505 9D020000 		.4byte	.LASF148
 4953 1509 01       		.byte	0x1
 4954 150a 59       		.byte	0x59
 4955 150b 15150000 		.4byte	0x1515
 4956 150f 05       		.uleb128 0x5
 4957 1510 03       		.byte	0x3
 4958 1511 00000000 		.4byte	channelSelect
 4959 1515 07       		.uleb128 0x7
 4960 1516 F4140000 		.4byte	0x14f4
 4961 151a 30       		.uleb128 0x30
 4962 151b 32000000 		.4byte	.LASF149
 4963 151f 32000000 		.4byte	.LASF149
 4964 1523 0C       		.byte	0xc
 4965 1524 85       		.byte	0x85
 4966 1525 30       		.uleb128 0x30
 4967 1526 76010000 		.4byte	.LASF150
 4968 152a 76010000 		.4byte	.LASF150
 4969 152e 0C       		.byte	0xc
 4970 152f 86       		.byte	0x86
 4971 1530 30       		.uleb128 0x30
 4972 1531 C7070000 		.4byte	.LASF151
 4973 1535 C7070000 		.4byte	.LASF151
 4974 1539 0C       		.byte	0xc
 4975 153a 82       		.byte	0x82
 4976 153b 30       		.uleb128 0x30
 4977 153c E5010000 		.4byte	.LASF152
ARM GAS  C:\Users\bryan.lee\AppData\Local\Temp\ccAkWdHW.s 			page 121


 4978 1540 E5010000 		.4byte	.LASF152
 4979 1544 0C       		.byte	0xc
 4980 1545 7D       		.byte	0x7d
 4981 1546 31       		.uleb128 0x31
 4982 1547 AB080000 		.4byte	.LASF163
 4983 154b AB080000 		.4byte	.LASF163
 4984 154f 30       		.uleb128 0x30
 4985 1550 60090000 		.4byte	.LASF153
 4986 1554 60090000 		.4byte	.LASF153
 4987 1558 0C       		.byte	0xc
 4988 1559 7F       		.byte	0x7f
 4989 155a 30       		.uleb128 0x30
 4990 155b 97070000 		.4byte	.LASF154
 4991 155f 97070000 		.4byte	.LASF154
 4992 1563 0C       		.byte	0xc
 4993 1564 88       		.byte	0x88
 4994 1565 30       		.uleb128 0x30
 4995 1566 11080000 		.4byte	.LASF155
 4996 156a 11080000 		.4byte	.LASF155
 4997 156e 0C       		.byte	0xc
 4998 156f 7E       		.byte	0x7e
 4999 1570 32       		.uleb128 0x32
 5000 1571 AB060000 		.4byte	.LASF156
 5001 1575 AB060000 		.4byte	.LASF156
 5002 1579 06       		.byte	0x6
 5003 157a 2103     		.2byte	0x321
 5004 157c 30       		.uleb128 0x30
 5005 157d 54080000 		.4byte	.LASF157
 5006 1581 54080000 		.4byte	.LASF157
 5007 1585 0C       		.byte	0xc
 5008 1586 83       		.byte	0x83
 5009 1587 30       		.uleb128 0x30
 5010 1588 7E040000 		.4byte	.LASF158
 5011 158c 7E040000 		.4byte	.LASF158
 5012 1590 0C       		.byte	0xc
 5013 1591 84       		.byte	0x84
 5014 1592 00       		.byte	0
 5015              		.section	.debug_abbrev,"",%progbits
 5016              	.Ldebug_abbrev0:
 5017 0000 01       		.uleb128 0x1
 5018 0001 11       		.uleb128 0x11
 5019 0002 01       		.byte	0x1
 5020 0003 25       		.uleb128 0x25
 5021 0004 0E       		.uleb128 0xe
 5022 0005 13       		.uleb128 0x13
 5023 0006 0B       		.uleb128 0xb
 5024 0007 03       		.uleb128 0x3
 5025 0008 0E       		.uleb128 0xe
 5026 0009 1B       		.uleb128 0x1b
 5027 000a 0E       		.uleb128 0xe
 5028 000b 55       		.uleb128 0x55
 5029 000c 17       		.uleb128 0x17
 5030 000d 11       		.uleb128 0x11
 5031 000e 01       		.uleb128 0x1
 5032 000f 10       		.uleb128 0x10
 5033 0010 17       		.uleb128 0x17
 5034 0011 00       		.byte	0
ARM GAS  C:\Users\bryan.lee\AppData\Local\Temp\ccAkWdHW.s 			page 122


 5035 0012 00       		.byte	0
 5036 0013 02       		.uleb128 0x2
 5037 0014 24       		.uleb128 0x24
 5038 0015 00       		.byte	0
 5039 0016 0B       		.uleb128 0xb
 5040 0017 0B       		.uleb128 0xb
 5041 0018 3E       		.uleb128 0x3e
 5042 0019 0B       		.uleb128 0xb
 5043 001a 03       		.uleb128 0x3
 5044 001b 08       		.uleb128 0x8
 5045 001c 00       		.byte	0
 5046 001d 00       		.byte	0
 5047 001e 03       		.uleb128 0x3
 5048 001f 24       		.uleb128 0x24
 5049 0020 00       		.byte	0
 5050 0021 0B       		.uleb128 0xb
 5051 0022 0B       		.uleb128 0xb
 5052 0023 3E       		.uleb128 0x3e
 5053 0024 0B       		.uleb128 0xb
 5054 0025 03       		.uleb128 0x3
 5055 0026 0E       		.uleb128 0xe
 5056 0027 00       		.byte	0
 5057 0028 00       		.byte	0
 5058 0029 04       		.uleb128 0x4
 5059 002a 16       		.uleb128 0x16
 5060 002b 00       		.byte	0
 5061 002c 03       		.uleb128 0x3
 5062 002d 0E       		.uleb128 0xe
 5063 002e 3A       		.uleb128 0x3a
 5064 002f 0B       		.uleb128 0xb
 5065 0030 3B       		.uleb128 0x3b
 5066 0031 0B       		.uleb128 0xb
 5067 0032 49       		.uleb128 0x49
 5068 0033 13       		.uleb128 0x13
 5069 0034 00       		.byte	0
 5070 0035 00       		.byte	0
 5071 0036 05       		.uleb128 0x5
 5072 0037 0F       		.uleb128 0xf
 5073 0038 00       		.byte	0
 5074 0039 0B       		.uleb128 0xb
 5075 003a 0B       		.uleb128 0xb
 5076 003b 00       		.byte	0
 5077 003c 00       		.byte	0
 5078 003d 06       		.uleb128 0x6
 5079 003e 35       		.uleb128 0x35
 5080 003f 00       		.byte	0
 5081 0040 49       		.uleb128 0x49
 5082 0041 13       		.uleb128 0x13
 5083 0042 00       		.byte	0
 5084 0043 00       		.byte	0
 5085 0044 07       		.uleb128 0x7
 5086 0045 26       		.uleb128 0x26
 5087 0046 00       		.byte	0
 5088 0047 49       		.uleb128 0x49
 5089 0048 13       		.uleb128 0x13
 5090 0049 00       		.byte	0
 5091 004a 00       		.byte	0
ARM GAS  C:\Users\bryan.lee\AppData\Local\Temp\ccAkWdHW.s 			page 123


 5092 004b 08       		.uleb128 0x8
 5093 004c 01       		.uleb128 0x1
 5094 004d 01       		.byte	0x1
 5095 004e 49       		.uleb128 0x49
 5096 004f 13       		.uleb128 0x13
 5097 0050 01       		.uleb128 0x1
 5098 0051 13       		.uleb128 0x13
 5099 0052 00       		.byte	0
 5100 0053 00       		.byte	0
 5101 0054 09       		.uleb128 0x9
 5102 0055 21       		.uleb128 0x21
 5103 0056 00       		.byte	0
 5104 0057 49       		.uleb128 0x49
 5105 0058 13       		.uleb128 0x13
 5106 0059 2F       		.uleb128 0x2f
 5107 005a 0B       		.uleb128 0xb
 5108 005b 00       		.byte	0
 5109 005c 00       		.byte	0
 5110 005d 0A       		.uleb128 0xa
 5111 005e 13       		.uleb128 0x13
 5112 005f 01       		.byte	0x1
 5113 0060 0B       		.uleb128 0xb
 5114 0061 0B       		.uleb128 0xb
 5115 0062 3A       		.uleb128 0x3a
 5116 0063 0B       		.uleb128 0xb
 5117 0064 3B       		.uleb128 0x3b
 5118 0065 0B       		.uleb128 0xb
 5119 0066 01       		.uleb128 0x1
 5120 0067 13       		.uleb128 0x13
 5121 0068 00       		.byte	0
 5122 0069 00       		.byte	0
 5123 006a 0B       		.uleb128 0xb
 5124 006b 0D       		.uleb128 0xd
 5125 006c 00       		.byte	0
 5126 006d 03       		.uleb128 0x3
 5127 006e 08       		.uleb128 0x8
 5128 006f 3A       		.uleb128 0x3a
 5129 0070 0B       		.uleb128 0xb
 5130 0071 3B       		.uleb128 0x3b
 5131 0072 0B       		.uleb128 0xb
 5132 0073 49       		.uleb128 0x49
 5133 0074 13       		.uleb128 0x13
 5134 0075 38       		.uleb128 0x38
 5135 0076 0B       		.uleb128 0xb
 5136 0077 00       		.byte	0
 5137 0078 00       		.byte	0
 5138 0079 0C       		.uleb128 0xc
 5139 007a 0D       		.uleb128 0xd
 5140 007b 00       		.byte	0
 5141 007c 03       		.uleb128 0x3
 5142 007d 0E       		.uleb128 0xe
 5143 007e 3A       		.uleb128 0x3a
 5144 007f 0B       		.uleb128 0xb
 5145 0080 3B       		.uleb128 0x3b
 5146 0081 0B       		.uleb128 0xb
 5147 0082 49       		.uleb128 0x49
 5148 0083 13       		.uleb128 0x13
ARM GAS  C:\Users\bryan.lee\AppData\Local\Temp\ccAkWdHW.s 			page 124


 5149 0084 38       		.uleb128 0x38
 5150 0085 0B       		.uleb128 0xb
 5151 0086 00       		.byte	0
 5152 0087 00       		.byte	0
 5153 0088 0D       		.uleb128 0xd
 5154 0089 13       		.uleb128 0x13
 5155 008a 01       		.byte	0x1
 5156 008b 0B       		.uleb128 0xb
 5157 008c 05       		.uleb128 0x5
 5158 008d 3A       		.uleb128 0x3a
 5159 008e 0B       		.uleb128 0xb
 5160 008f 3B       		.uleb128 0x3b
 5161 0090 0B       		.uleb128 0xb
 5162 0091 01       		.uleb128 0x1
 5163 0092 13       		.uleb128 0x13
 5164 0093 00       		.byte	0
 5165 0094 00       		.byte	0
 5166 0095 0E       		.uleb128 0xe
 5167 0096 0D       		.uleb128 0xd
 5168 0097 00       		.byte	0
 5169 0098 03       		.uleb128 0x3
 5170 0099 0E       		.uleb128 0xe
 5171 009a 3A       		.uleb128 0x3a
 5172 009b 0B       		.uleb128 0xb
 5173 009c 3B       		.uleb128 0x3b
 5174 009d 0B       		.uleb128 0xb
 5175 009e 49       		.uleb128 0x49
 5176 009f 13       		.uleb128 0x13
 5177 00a0 38       		.uleb128 0x38
 5178 00a1 05       		.uleb128 0x5
 5179 00a2 00       		.byte	0
 5180 00a3 00       		.byte	0
 5181 00a4 0F       		.uleb128 0xf
 5182 00a5 16       		.uleb128 0x16
 5183 00a6 00       		.byte	0
 5184 00a7 03       		.uleb128 0x3
 5185 00a8 0E       		.uleb128 0xe
 5186 00a9 3A       		.uleb128 0x3a
 5187 00aa 0B       		.uleb128 0xb
 5188 00ab 3B       		.uleb128 0x3b
 5189 00ac 05       		.uleb128 0x5
 5190 00ad 49       		.uleb128 0x49
 5191 00ae 13       		.uleb128 0x13
 5192 00af 00       		.byte	0
 5193 00b0 00       		.byte	0
 5194 00b1 10       		.uleb128 0x10
 5195 00b2 13       		.uleb128 0x13
 5196 00b3 01       		.byte	0x1
 5197 00b4 03       		.uleb128 0x3
 5198 00b5 0E       		.uleb128 0xe
 5199 00b6 0B       		.uleb128 0xb
 5200 00b7 0B       		.uleb128 0xb
 5201 00b8 3A       		.uleb128 0x3a
 5202 00b9 0B       		.uleb128 0xb
 5203 00ba 3B       		.uleb128 0x3b
 5204 00bb 0B       		.uleb128 0xb
 5205 00bc 01       		.uleb128 0x1
ARM GAS  C:\Users\bryan.lee\AppData\Local\Temp\ccAkWdHW.s 			page 125


 5206 00bd 13       		.uleb128 0x13
 5207 00be 00       		.byte	0
 5208 00bf 00       		.byte	0
 5209 00c0 11       		.uleb128 0x11
 5210 00c1 0F       		.uleb128 0xf
 5211 00c2 00       		.byte	0
 5212 00c3 0B       		.uleb128 0xb
 5213 00c4 0B       		.uleb128 0xb
 5214 00c5 49       		.uleb128 0x49
 5215 00c6 13       		.uleb128 0x13
 5216 00c7 00       		.byte	0
 5217 00c8 00       		.byte	0
 5218 00c9 12       		.uleb128 0x12
 5219 00ca 15       		.uleb128 0x15
 5220 00cb 01       		.byte	0x1
 5221 00cc 27       		.uleb128 0x27
 5222 00cd 19       		.uleb128 0x19
 5223 00ce 01       		.uleb128 0x1
 5224 00cf 13       		.uleb128 0x13
 5225 00d0 00       		.byte	0
 5226 00d1 00       		.byte	0
 5227 00d2 13       		.uleb128 0x13
 5228 00d3 05       		.uleb128 0x5
 5229 00d4 00       		.byte	0
 5230 00d5 49       		.uleb128 0x49
 5231 00d6 13       		.uleb128 0x13
 5232 00d7 00       		.byte	0
 5233 00d8 00       		.byte	0
 5234 00d9 14       		.uleb128 0x14
 5235 00da 13       		.uleb128 0x13
 5236 00db 01       		.byte	0x1
 5237 00dc 03       		.uleb128 0x3
 5238 00dd 0E       		.uleb128 0xe
 5239 00de 0B       		.uleb128 0xb
 5240 00df 0B       		.uleb128 0xb
 5241 00e0 3A       		.uleb128 0x3a
 5242 00e1 0B       		.uleb128 0xb
 5243 00e2 3B       		.uleb128 0x3b
 5244 00e3 05       		.uleb128 0x5
 5245 00e4 01       		.uleb128 0x1
 5246 00e5 13       		.uleb128 0x13
 5247 00e6 00       		.byte	0
 5248 00e7 00       		.byte	0
 5249 00e8 15       		.uleb128 0x15
 5250 00e9 0D       		.uleb128 0xd
 5251 00ea 00       		.byte	0
 5252 00eb 03       		.uleb128 0x3
 5253 00ec 0E       		.uleb128 0xe
 5254 00ed 3A       		.uleb128 0x3a
 5255 00ee 0B       		.uleb128 0xb
 5256 00ef 3B       		.uleb128 0x3b
 5257 00f0 05       		.uleb128 0x5
 5258 00f1 49       		.uleb128 0x49
 5259 00f2 13       		.uleb128 0x13
 5260 00f3 38       		.uleb128 0x38
 5261 00f4 0B       		.uleb128 0xb
 5262 00f5 00       		.byte	0
ARM GAS  C:\Users\bryan.lee\AppData\Local\Temp\ccAkWdHW.s 			page 126


 5263 00f6 00       		.byte	0
 5264 00f7 16       		.uleb128 0x16
 5265 00f8 04       		.uleb128 0x4
 5266 00f9 01       		.byte	0x1
 5267 00fa 0B       		.uleb128 0xb
 5268 00fb 0B       		.uleb128 0xb
 5269 00fc 49       		.uleb128 0x49
 5270 00fd 13       		.uleb128 0x13
 5271 00fe 3A       		.uleb128 0x3a
 5272 00ff 0B       		.uleb128 0xb
 5273 0100 3B       		.uleb128 0x3b
 5274 0101 0B       		.uleb128 0xb
 5275 0102 01       		.uleb128 0x1
 5276 0103 13       		.uleb128 0x13
 5277 0104 00       		.byte	0
 5278 0105 00       		.byte	0
 5279 0106 17       		.uleb128 0x17
 5280 0107 28       		.uleb128 0x28
 5281 0108 00       		.byte	0
 5282 0109 03       		.uleb128 0x3
 5283 010a 0E       		.uleb128 0xe
 5284 010b 1C       		.uleb128 0x1c
 5285 010c 0B       		.uleb128 0xb
 5286 010d 00       		.byte	0
 5287 010e 00       		.byte	0
 5288 010f 18       		.uleb128 0x18
 5289 0110 17       		.uleb128 0x17
 5290 0111 01       		.byte	0x1
 5291 0112 0B       		.uleb128 0xb
 5292 0113 0B       		.uleb128 0xb
 5293 0114 3A       		.uleb128 0x3a
 5294 0115 0B       		.uleb128 0xb
 5295 0116 3B       		.uleb128 0x3b
 5296 0117 0B       		.uleb128 0xb
 5297 0118 01       		.uleb128 0x1
 5298 0119 13       		.uleb128 0x13
 5299 011a 00       		.byte	0
 5300 011b 00       		.byte	0
 5301 011c 19       		.uleb128 0x19
 5302 011d 0D       		.uleb128 0xd
 5303 011e 00       		.byte	0
 5304 011f 03       		.uleb128 0x3
 5305 0120 0E       		.uleb128 0xe
 5306 0121 3A       		.uleb128 0x3a
 5307 0122 0B       		.uleb128 0xb
 5308 0123 3B       		.uleb128 0x3b
 5309 0124 0B       		.uleb128 0xb
 5310 0125 49       		.uleb128 0x49
 5311 0126 13       		.uleb128 0x13
 5312 0127 00       		.byte	0
 5313 0128 00       		.byte	0
 5314 0129 1A       		.uleb128 0x1a
 5315 012a 2E       		.uleb128 0x2e
 5316 012b 01       		.byte	0x1
 5317 012c 03       		.uleb128 0x3
 5318 012d 0E       		.uleb128 0xe
 5319 012e 3A       		.uleb128 0x3a
ARM GAS  C:\Users\bryan.lee\AppData\Local\Temp\ccAkWdHW.s 			page 127


 5320 012f 0B       		.uleb128 0xb
 5321 0130 3B       		.uleb128 0x3b
 5322 0131 05       		.uleb128 0x5
 5323 0132 27       		.uleb128 0x27
 5324 0133 19       		.uleb128 0x19
 5325 0134 20       		.uleb128 0x20
 5326 0135 0B       		.uleb128 0xb
 5327 0136 01       		.uleb128 0x1
 5328 0137 13       		.uleb128 0x13
 5329 0138 00       		.byte	0
 5330 0139 00       		.byte	0
 5331 013a 1B       		.uleb128 0x1b
 5332 013b 05       		.uleb128 0x5
 5333 013c 00       		.byte	0
 5334 013d 03       		.uleb128 0x3
 5335 013e 0E       		.uleb128 0xe
 5336 013f 3A       		.uleb128 0x3a
 5337 0140 0B       		.uleb128 0xb
 5338 0141 3B       		.uleb128 0x3b
 5339 0142 05       		.uleb128 0x5
 5340 0143 49       		.uleb128 0x49
 5341 0144 13       		.uleb128 0x13
 5342 0145 00       		.byte	0
 5343 0146 00       		.byte	0
 5344 0147 1C       		.uleb128 0x1c
 5345 0148 2E       		.uleb128 0x2e
 5346 0149 01       		.byte	0x1
 5347 014a 3F       		.uleb128 0x3f
 5348 014b 19       		.uleb128 0x19
 5349 014c 03       		.uleb128 0x3
 5350 014d 0E       		.uleb128 0xe
 5351 014e 3A       		.uleb128 0x3a
 5352 014f 0B       		.uleb128 0xb
 5353 0150 3B       		.uleb128 0x3b
 5354 0151 0B       		.uleb128 0xb
 5355 0152 27       		.uleb128 0x27
 5356 0153 19       		.uleb128 0x19
 5357 0154 11       		.uleb128 0x11
 5358 0155 01       		.uleb128 0x1
 5359 0156 12       		.uleb128 0x12
 5360 0157 06       		.uleb128 0x6
 5361 0158 40       		.uleb128 0x40
 5362 0159 18       		.uleb128 0x18
 5363 015a 9742     		.uleb128 0x2117
 5364 015c 19       		.uleb128 0x19
 5365 015d 01       		.uleb128 0x1
 5366 015e 13       		.uleb128 0x13
 5367 015f 00       		.byte	0
 5368 0160 00       		.byte	0
 5369 0161 1D       		.uleb128 0x1d
 5370 0162 05       		.uleb128 0x5
 5371 0163 00       		.byte	0
 5372 0164 03       		.uleb128 0x3
 5373 0165 0E       		.uleb128 0xe
 5374 0166 3A       		.uleb128 0x3a
 5375 0167 0B       		.uleb128 0xb
 5376 0168 3B       		.uleb128 0x3b
ARM GAS  C:\Users\bryan.lee\AppData\Local\Temp\ccAkWdHW.s 			page 128


 5377 0169 0B       		.uleb128 0xb
 5378 016a 49       		.uleb128 0x49
 5379 016b 13       		.uleb128 0x13
 5380 016c 02       		.uleb128 0x2
 5381 016d 17       		.uleb128 0x17
 5382 016e 00       		.byte	0
 5383 016f 00       		.byte	0
 5384 0170 1E       		.uleb128 0x1e
 5385 0171 1D       		.uleb128 0x1d
 5386 0172 01       		.byte	0x1
 5387 0173 31       		.uleb128 0x31
 5388 0174 13       		.uleb128 0x13
 5389 0175 11       		.uleb128 0x11
 5390 0176 01       		.uleb128 0x1
 5391 0177 12       		.uleb128 0x12
 5392 0178 06       		.uleb128 0x6
 5393 0179 58       		.uleb128 0x58
 5394 017a 0B       		.uleb128 0xb
 5395 017b 59       		.uleb128 0x59
 5396 017c 0B       		.uleb128 0xb
 5397 017d 01       		.uleb128 0x1
 5398 017e 13       		.uleb128 0x13
 5399 017f 00       		.byte	0
 5400 0180 00       		.byte	0
 5401 0181 1F       		.uleb128 0x1f
 5402 0182 05       		.uleb128 0x5
 5403 0183 00       		.byte	0
 5404 0184 31       		.uleb128 0x31
 5405 0185 13       		.uleb128 0x13
 5406 0186 02       		.uleb128 0x2
 5407 0187 17       		.uleb128 0x17
 5408 0188 00       		.byte	0
 5409 0189 00       		.byte	0
 5410 018a 20       		.uleb128 0x20
 5411 018b 898201   		.uleb128 0x4109
 5412 018e 01       		.byte	0x1
 5413 018f 11       		.uleb128 0x11
 5414 0190 01       		.uleb128 0x1
 5415 0191 31       		.uleb128 0x31
 5416 0192 13       		.uleb128 0x13
 5417 0193 01       		.uleb128 0x1
 5418 0194 13       		.uleb128 0x13
 5419 0195 00       		.byte	0
 5420 0196 00       		.byte	0
 5421 0197 21       		.uleb128 0x21
 5422 0198 8A8201   		.uleb128 0x410a
 5423 019b 00       		.byte	0
 5424 019c 02       		.uleb128 0x2
 5425 019d 18       		.uleb128 0x18
 5426 019e 9142     		.uleb128 0x2111
 5427 01a0 18       		.uleb128 0x18
 5428 01a1 00       		.byte	0
 5429 01a2 00       		.byte	0
 5430 01a3 22       		.uleb128 0x22
 5431 01a4 898201   		.uleb128 0x4109
 5432 01a7 00       		.byte	0
 5433 01a8 11       		.uleb128 0x11
ARM GAS  C:\Users\bryan.lee\AppData\Local\Temp\ccAkWdHW.s 			page 129


 5434 01a9 01       		.uleb128 0x1
 5435 01aa 31       		.uleb128 0x31
 5436 01ab 13       		.uleb128 0x13
 5437 01ac 00       		.byte	0
 5438 01ad 00       		.byte	0
 5439 01ae 23       		.uleb128 0x23
 5440 01af 898201   		.uleb128 0x4109
 5441 01b2 01       		.byte	0x1
 5442 01b3 11       		.uleb128 0x11
 5443 01b4 01       		.uleb128 0x1
 5444 01b5 31       		.uleb128 0x31
 5445 01b6 13       		.uleb128 0x13
 5446 01b7 00       		.byte	0
 5447 01b8 00       		.byte	0
 5448 01b9 24       		.uleb128 0x24
 5449 01ba 2E       		.uleb128 0x2e
 5450 01bb 01       		.byte	0x1
 5451 01bc 3F       		.uleb128 0x3f
 5452 01bd 19       		.uleb128 0x19
 5453 01be 03       		.uleb128 0x3
 5454 01bf 0E       		.uleb128 0xe
 5455 01c0 3A       		.uleb128 0x3a
 5456 01c1 0B       		.uleb128 0xb
 5457 01c2 3B       		.uleb128 0x3b
 5458 01c3 0B       		.uleb128 0xb
 5459 01c4 27       		.uleb128 0x27
 5460 01c5 19       		.uleb128 0x19
 5461 01c6 49       		.uleb128 0x49
 5462 01c7 13       		.uleb128 0x13
 5463 01c8 11       		.uleb128 0x11
 5464 01c9 01       		.uleb128 0x1
 5465 01ca 12       		.uleb128 0x12
 5466 01cb 06       		.uleb128 0x6
 5467 01cc 40       		.uleb128 0x40
 5468 01cd 18       		.uleb128 0x18
 5469 01ce 9742     		.uleb128 0x2117
 5470 01d0 19       		.uleb128 0x19
 5471 01d1 01       		.uleb128 0x1
 5472 01d2 13       		.uleb128 0x13
 5473 01d3 00       		.byte	0
 5474 01d4 00       		.byte	0
 5475 01d5 25       		.uleb128 0x25
 5476 01d6 34       		.uleb128 0x34
 5477 01d7 00       		.byte	0
 5478 01d8 03       		.uleb128 0x3
 5479 01d9 0E       		.uleb128 0xe
 5480 01da 3A       		.uleb128 0x3a
 5481 01db 0B       		.uleb128 0xb
 5482 01dc 3B       		.uleb128 0x3b
 5483 01dd 0B       		.uleb128 0xb
 5484 01de 49       		.uleb128 0x49
 5485 01df 13       		.uleb128 0x13
 5486 01e0 02       		.uleb128 0x2
 5487 01e1 18       		.uleb128 0x18
 5488 01e2 00       		.byte	0
 5489 01e3 00       		.byte	0
 5490 01e4 26       		.uleb128 0x26
ARM GAS  C:\Users\bryan.lee\AppData\Local\Temp\ccAkWdHW.s 			page 130


 5491 01e5 2E       		.uleb128 0x2e
 5492 01e6 01       		.byte	0x1
 5493 01e7 3F       		.uleb128 0x3f
 5494 01e8 19       		.uleb128 0x19
 5495 01e9 03       		.uleb128 0x3
 5496 01ea 0E       		.uleb128 0xe
 5497 01eb 3A       		.uleb128 0x3a
 5498 01ec 0B       		.uleb128 0xb
 5499 01ed 3B       		.uleb128 0x3b
 5500 01ee 05       		.uleb128 0x5
 5501 01ef 27       		.uleb128 0x27
 5502 01f0 19       		.uleb128 0x19
 5503 01f1 49       		.uleb128 0x49
 5504 01f2 13       		.uleb128 0x13
 5505 01f3 11       		.uleb128 0x11
 5506 01f4 01       		.uleb128 0x1
 5507 01f5 12       		.uleb128 0x12
 5508 01f6 06       		.uleb128 0x6
 5509 01f7 40       		.uleb128 0x40
 5510 01f8 18       		.uleb128 0x18
 5511 01f9 9742     		.uleb128 0x2117
 5512 01fb 19       		.uleb128 0x19
 5513 01fc 01       		.uleb128 0x1
 5514 01fd 13       		.uleb128 0x13
 5515 01fe 00       		.byte	0
 5516 01ff 00       		.byte	0
 5517 0200 27       		.uleb128 0x27
 5518 0201 34       		.uleb128 0x34
 5519 0202 00       		.byte	0
 5520 0203 03       		.uleb128 0x3
 5521 0204 0E       		.uleb128 0xe
 5522 0205 3A       		.uleb128 0x3a
 5523 0206 0B       		.uleb128 0xb
 5524 0207 3B       		.uleb128 0x3b
 5525 0208 05       		.uleb128 0x5
 5526 0209 49       		.uleb128 0x49
 5527 020a 13       		.uleb128 0x13
 5528 020b 02       		.uleb128 0x2
 5529 020c 17       		.uleb128 0x17
 5530 020d 00       		.byte	0
 5531 020e 00       		.byte	0
 5532 020f 28       		.uleb128 0x28
 5533 0210 2E       		.uleb128 0x2e
 5534 0211 01       		.byte	0x1
 5535 0212 3F       		.uleb128 0x3f
 5536 0213 19       		.uleb128 0x19
 5537 0214 03       		.uleb128 0x3
 5538 0215 0E       		.uleb128 0xe
 5539 0216 3A       		.uleb128 0x3a
 5540 0217 0B       		.uleb128 0xb
 5541 0218 3B       		.uleb128 0x3b
 5542 0219 05       		.uleb128 0x5
 5543 021a 27       		.uleb128 0x27
 5544 021b 19       		.uleb128 0x19
 5545 021c 11       		.uleb128 0x11
 5546 021d 01       		.uleb128 0x1
 5547 021e 12       		.uleb128 0x12
ARM GAS  C:\Users\bryan.lee\AppData\Local\Temp\ccAkWdHW.s 			page 131


 5548 021f 06       		.uleb128 0x6
 5549 0220 40       		.uleb128 0x40
 5550 0221 18       		.uleb128 0x18
 5551 0222 9742     		.uleb128 0x2117
 5552 0224 19       		.uleb128 0x19
 5553 0225 01       		.uleb128 0x1
 5554 0226 13       		.uleb128 0x13
 5555 0227 00       		.byte	0
 5556 0228 00       		.byte	0
 5557 0229 29       		.uleb128 0x29
 5558 022a 05       		.uleb128 0x5
 5559 022b 00       		.byte	0
 5560 022c 03       		.uleb128 0x3
 5561 022d 0E       		.uleb128 0xe
 5562 022e 3A       		.uleb128 0x3a
 5563 022f 0B       		.uleb128 0xb
 5564 0230 3B       		.uleb128 0x3b
 5565 0231 05       		.uleb128 0x5
 5566 0232 49       		.uleb128 0x49
 5567 0233 13       		.uleb128 0x13
 5568 0234 02       		.uleb128 0x2
 5569 0235 18       		.uleb128 0x18
 5570 0236 00       		.byte	0
 5571 0237 00       		.byte	0
 5572 0238 2A       		.uleb128 0x2a
 5573 0239 34       		.uleb128 0x34
 5574 023a 00       		.byte	0
 5575 023b 03       		.uleb128 0x3
 5576 023c 0E       		.uleb128 0xe
 5577 023d 3A       		.uleb128 0x3a
 5578 023e 0B       		.uleb128 0xb
 5579 023f 3B       		.uleb128 0x3b
 5580 0240 05       		.uleb128 0x5
 5581 0241 49       		.uleb128 0x49
 5582 0242 13       		.uleb128 0x13
 5583 0243 02       		.uleb128 0x2
 5584 0244 18       		.uleb128 0x18
 5585 0245 00       		.byte	0
 5586 0246 00       		.byte	0
 5587 0247 2B       		.uleb128 0x2b
 5588 0248 05       		.uleb128 0x5
 5589 0249 00       		.byte	0
 5590 024a 03       		.uleb128 0x3
 5591 024b 0E       		.uleb128 0xe
 5592 024c 3A       		.uleb128 0x3a
 5593 024d 0B       		.uleb128 0xb
 5594 024e 3B       		.uleb128 0x3b
 5595 024f 05       		.uleb128 0x5
 5596 0250 49       		.uleb128 0x49
 5597 0251 13       		.uleb128 0x13
 5598 0252 02       		.uleb128 0x2
 5599 0253 17       		.uleb128 0x17
 5600 0254 00       		.byte	0
 5601 0255 00       		.byte	0
 5602 0256 2C       		.uleb128 0x2c
 5603 0257 34       		.uleb128 0x34
 5604 0258 00       		.byte	0
ARM GAS  C:\Users\bryan.lee\AppData\Local\Temp\ccAkWdHW.s 			page 132


 5605 0259 03       		.uleb128 0x3
 5606 025a 08       		.uleb128 0x8
 5607 025b 3A       		.uleb128 0x3a
 5608 025c 0B       		.uleb128 0xb
 5609 025d 3B       		.uleb128 0x3b
 5610 025e 05       		.uleb128 0x5
 5611 025f 49       		.uleb128 0x49
 5612 0260 13       		.uleb128 0x13
 5613 0261 02       		.uleb128 0x2
 5614 0262 17       		.uleb128 0x17
 5615 0263 00       		.byte	0
 5616 0264 00       		.byte	0
 5617 0265 2D       		.uleb128 0x2d
 5618 0266 1D       		.uleb128 0x1d
 5619 0267 01       		.byte	0x1
 5620 0268 31       		.uleb128 0x31
 5621 0269 13       		.uleb128 0x13
 5622 026a 11       		.uleb128 0x11
 5623 026b 01       		.uleb128 0x1
 5624 026c 12       		.uleb128 0x12
 5625 026d 06       		.uleb128 0x6
 5626 026e 58       		.uleb128 0x58
 5627 026f 0B       		.uleb128 0xb
 5628 0270 59       		.uleb128 0x59
 5629 0271 05       		.uleb128 0x5
 5630 0272 01       		.uleb128 0x1
 5631 0273 13       		.uleb128 0x13
 5632 0274 00       		.byte	0
 5633 0275 00       		.byte	0
 5634 0276 2E       		.uleb128 0x2e
 5635 0277 34       		.uleb128 0x34
 5636 0278 00       		.byte	0
 5637 0279 03       		.uleb128 0x3
 5638 027a 0E       		.uleb128 0xe
 5639 027b 3A       		.uleb128 0x3a
 5640 027c 0B       		.uleb128 0xb
 5641 027d 3B       		.uleb128 0x3b
 5642 027e 0B       		.uleb128 0xb
 5643 027f 49       		.uleb128 0x49
 5644 0280 13       		.uleb128 0x13
 5645 0281 3F       		.uleb128 0x3f
 5646 0282 19       		.uleb128 0x19
 5647 0283 3C       		.uleb128 0x3c
 5648 0284 19       		.uleb128 0x19
 5649 0285 00       		.byte	0
 5650 0286 00       		.byte	0
 5651 0287 2F       		.uleb128 0x2f
 5652 0288 34       		.uleb128 0x34
 5653 0289 00       		.byte	0
 5654 028a 03       		.uleb128 0x3
 5655 028b 0E       		.uleb128 0xe
 5656 028c 3A       		.uleb128 0x3a
 5657 028d 0B       		.uleb128 0xb
 5658 028e 3B       		.uleb128 0x3b
 5659 028f 0B       		.uleb128 0xb
 5660 0290 49       		.uleb128 0x49
 5661 0291 13       		.uleb128 0x13
ARM GAS  C:\Users\bryan.lee\AppData\Local\Temp\ccAkWdHW.s 			page 133


 5662 0292 3F       		.uleb128 0x3f
 5663 0293 19       		.uleb128 0x19
 5664 0294 02       		.uleb128 0x2
 5665 0295 18       		.uleb128 0x18
 5666 0296 00       		.byte	0
 5667 0297 00       		.byte	0
 5668 0298 30       		.uleb128 0x30
 5669 0299 2E       		.uleb128 0x2e
 5670 029a 00       		.byte	0
 5671 029b 3F       		.uleb128 0x3f
 5672 029c 19       		.uleb128 0x19
 5673 029d 3C       		.uleb128 0x3c
 5674 029e 19       		.uleb128 0x19
 5675 029f 6E       		.uleb128 0x6e
 5676 02a0 0E       		.uleb128 0xe
 5677 02a1 03       		.uleb128 0x3
 5678 02a2 0E       		.uleb128 0xe
 5679 02a3 3A       		.uleb128 0x3a
 5680 02a4 0B       		.uleb128 0xb
 5681 02a5 3B       		.uleb128 0x3b
 5682 02a6 0B       		.uleb128 0xb
 5683 02a7 00       		.byte	0
 5684 02a8 00       		.byte	0
 5685 02a9 31       		.uleb128 0x31
 5686 02aa 2E       		.uleb128 0x2e
 5687 02ab 00       		.byte	0
 5688 02ac 3F       		.uleb128 0x3f
 5689 02ad 19       		.uleb128 0x19
 5690 02ae 3C       		.uleb128 0x3c
 5691 02af 19       		.uleb128 0x19
 5692 02b0 6E       		.uleb128 0x6e
 5693 02b1 0E       		.uleb128 0xe
 5694 02b2 03       		.uleb128 0x3
 5695 02b3 0E       		.uleb128 0xe
 5696 02b4 00       		.byte	0
 5697 02b5 00       		.byte	0
 5698 02b6 32       		.uleb128 0x32
 5699 02b7 2E       		.uleb128 0x2e
 5700 02b8 00       		.byte	0
 5701 02b9 3F       		.uleb128 0x3f
 5702 02ba 19       		.uleb128 0x19
 5703 02bb 3C       		.uleb128 0x3c
 5704 02bc 19       		.uleb128 0x19
 5705 02bd 6E       		.uleb128 0x6e
 5706 02be 0E       		.uleb128 0xe
 5707 02bf 03       		.uleb128 0x3
 5708 02c0 0E       		.uleb128 0xe
 5709 02c1 3A       		.uleb128 0x3a
 5710 02c2 0B       		.uleb128 0xb
 5711 02c3 3B       		.uleb128 0x3b
 5712 02c4 05       		.uleb128 0x5
 5713 02c5 00       		.byte	0
 5714 02c6 00       		.byte	0
 5715 02c7 00       		.byte	0
 5716              		.section	.debug_loc,"",%progbits
 5717              	.Ldebug_loc0:
 5718              	.LLST0:
ARM GAS  C:\Users\bryan.lee\AppData\Local\Temp\ccAkWdHW.s 			page 134


 5719 0000 00000000 		.4byte	.LVL0
 5720 0004 12000000 		.4byte	.LVL3
 5721 0008 0100     		.2byte	0x1
 5722 000a 50       		.byte	0x50
 5723 000b 12000000 		.4byte	.LVL3
 5724 000f 4C000000 		.4byte	.LFE453
 5725 0013 0400     		.2byte	0x4
 5726 0015 F3       		.byte	0xf3
 5727 0016 01       		.uleb128 0x1
 5728 0017 50       		.byte	0x50
 5729 0018 9F       		.byte	0x9f
 5730 0019 00000000 		.4byte	0
 5731 001d 00000000 		.4byte	0
 5732              	.LLST1:
 5733 0021 00000000 		.4byte	.LVL0
 5734 0025 15000000 		.4byte	.LVL4-1
 5735 0029 0100     		.2byte	0x1
 5736 002b 51       		.byte	0x51
 5737 002c 15000000 		.4byte	.LVL4-1
 5738 0030 2A000000 		.4byte	.LVL10
 5739 0034 0100     		.2byte	0x1
 5740 0036 56       		.byte	0x56
 5741 0037 2A000000 		.4byte	.LVL10
 5742 003b 34000000 		.4byte	.LVL12
 5743 003f 0100     		.2byte	0x1
 5744 0041 57       		.byte	0x57
 5745 0042 34000000 		.4byte	.LVL12
 5746 0046 44000000 		.4byte	.LVL18
 5747 004a 0100     		.2byte	0x1
 5748 004c 56       		.byte	0x56
 5749 004d 00000000 		.4byte	0
 5750 0051 00000000 		.4byte	0
 5751              	.LLST2:
 5752 0055 00000000 		.4byte	.LVL0
 5753 0059 15000000 		.4byte	.LVL4-1
 5754 005d 0100     		.2byte	0x1
 5755 005f 52       		.byte	0x52
 5756 0060 15000000 		.4byte	.LVL4-1
 5757 0064 28000000 		.4byte	.LVL9
 5758 0068 0400     		.2byte	0x4
 5759 006a F3       		.byte	0xf3
 5760 006b 01       		.uleb128 0x1
 5761 006c 52       		.byte	0x52
 5762 006d 9F       		.byte	0x9f
 5763 006e 28000000 		.4byte	.LVL9
 5764 0072 34000000 		.4byte	.LVL12
 5765 0076 0100     		.2byte	0x1
 5766 0078 54       		.byte	0x54
 5767 0079 34000000 		.4byte	.LVL12
 5768 007d 38000000 		.4byte	.LVL13
 5769 0081 0100     		.2byte	0x1
 5770 0083 55       		.byte	0x55
 5771 0084 38000000 		.4byte	.LVL13
 5772 0088 44000000 		.4byte	.LVL16
 5773 008c 0100     		.2byte	0x1
 5774 008e 54       		.byte	0x54
 5775 008f 44000000 		.4byte	.LVL16
ARM GAS  C:\Users\bryan.lee\AppData\Local\Temp\ccAkWdHW.s 			page 135


 5776 0093 44000000 		.4byte	.LVL17
 5777 0097 0300     		.2byte	0x3
 5778 0099 75       		.byte	0x75
 5779 009a 7F       		.sleb128 -1
 5780 009b 9F       		.byte	0x9f
 5781 009c 00000000 		.4byte	0
 5782 00a0 00000000 		.4byte	0
 5783              	.LLST3:
 5784 00a4 0A000000 		.4byte	.LVL1
 5785 00a8 10000000 		.4byte	.LVL2
 5786 00ac 0200     		.2byte	0x2
 5787 00ae 30       		.byte	0x30
 5788 00af 9F       		.byte	0x9f
 5789 00b0 00000000 		.4byte	0
 5790 00b4 00000000 		.4byte	0
 5791              	.LLST4:
 5792 00b8 0A000000 		.4byte	.LVL1
 5793 00bc 10000000 		.4byte	.LVL2
 5794 00c0 0200     		.2byte	0x2
 5795 00c2 33       		.byte	0x33
 5796 00c3 9F       		.byte	0x9f
 5797 00c4 00000000 		.4byte	0
 5798 00c8 00000000 		.4byte	0
 5799              	.LLST5:
 5800 00cc 0A000000 		.4byte	.LVL1
 5801 00d0 10000000 		.4byte	.LVL2
 5802 00d4 0600     		.2byte	0x6
 5803 00d6 0C       		.byte	0xc
 5804 00d7 00063240 		.4byte	0x40320600
 5805 00db 9F       		.byte	0x9f
 5806 00dc 00000000 		.4byte	0
 5807 00e0 00000000 		.4byte	0
 5808              	.LLST6:
 5809 00e4 1C000000 		.4byte	.LVL5
 5810 00e8 1E000000 		.4byte	.LVL6
 5811 00ec 0200     		.2byte	0x2
 5812 00ee 31       		.byte	0x31
 5813 00ef 9F       		.byte	0x9f
 5814 00f0 00000000 		.4byte	0
 5815 00f4 00000000 		.4byte	0
 5816              	.LLST7:
 5817 00f8 1C000000 		.4byte	.LVL5
 5818 00fc 1E000000 		.4byte	.LVL6
 5819 0100 0200     		.2byte	0x2
 5820 0102 33       		.byte	0x33
 5821 0103 9F       		.byte	0x9f
 5822 0104 00000000 		.4byte	0
 5823 0108 00000000 		.4byte	0
 5824              	.LLST8:
 5825 010c 1C000000 		.4byte	.LVL5
 5826 0110 1E000000 		.4byte	.LVL6
 5827 0114 0600     		.2byte	0x6
 5828 0116 0C       		.byte	0xc
 5829 0117 00063240 		.4byte	0x40320600
 5830 011b 9F       		.byte	0x9f
 5831 011c 00000000 		.4byte	0
 5832 0120 00000000 		.4byte	0
ARM GAS  C:\Users\bryan.lee\AppData\Local\Temp\ccAkWdHW.s 			page 136


 5833              	.LLST9:
 5834 0124 1E000000 		.4byte	.LVL6
 5835 0128 20000000 		.4byte	.LVL7
 5836 012c 0200     		.2byte	0x2
 5837 012e 30       		.byte	0x30
 5838 012f 9F       		.byte	0x9f
 5839 0130 00000000 		.4byte	0
 5840 0134 00000000 		.4byte	0
 5841              	.LLST10:
 5842 0138 1E000000 		.4byte	.LVL6
 5843 013c 20000000 		.4byte	.LVL7
 5844 0140 0200     		.2byte	0x2
 5845 0142 33       		.byte	0x33
 5846 0143 9F       		.byte	0x9f
 5847 0144 00000000 		.4byte	0
 5848 0148 00000000 		.4byte	0
 5849              	.LLST11:
 5850 014c 1E000000 		.4byte	.LVL6
 5851 0150 20000000 		.4byte	.LVL7
 5852 0154 0600     		.2byte	0x6
 5853 0156 0C       		.byte	0xc
 5854 0157 00063240 		.4byte	0x40320600
 5855 015b 9F       		.byte	0x9f
 5856 015c 00000000 		.4byte	0
 5857 0160 00000000 		.4byte	0
 5858              	.LLST12:
 5859 0164 3C000000 		.4byte	.LVL14
 5860 0168 42000000 		.4byte	.LVL15
 5861 016c 0200     		.2byte	0x2
 5862 016e 31       		.byte	0x31
 5863 016f 9F       		.byte	0x9f
 5864 0170 00000000 		.4byte	0
 5865 0174 00000000 		.4byte	0
 5866              	.LLST13:
 5867 0178 3C000000 		.4byte	.LVL14
 5868 017c 42000000 		.4byte	.LVL15
 5869 0180 0200     		.2byte	0x2
 5870 0182 33       		.byte	0x33
 5871 0183 9F       		.byte	0x9f
 5872 0184 00000000 		.4byte	0
 5873 0188 00000000 		.4byte	0
 5874              	.LLST14:
 5875 018c 3C000000 		.4byte	.LVL14
 5876 0190 42000000 		.4byte	.LVL15
 5877 0194 0600     		.2byte	0x6
 5878 0196 0C       		.byte	0xc
 5879 0197 00063240 		.4byte	0x40320600
 5880 019b 9F       		.byte	0x9f
 5881 019c 00000000 		.4byte	0
 5882 01a0 00000000 		.4byte	0
 5883              	.LLST15:
 5884 01a4 00000000 		.4byte	.LVL19
 5885 01a8 11000000 		.4byte	.LVL21-1
 5886 01ac 0100     		.2byte	0x1
 5887 01ae 50       		.byte	0x50
 5888 01af 11000000 		.4byte	.LVL21-1
 5889 01b3 16000000 		.4byte	.LFE454
ARM GAS  C:\Users\bryan.lee\AppData\Local\Temp\ccAkWdHW.s 			page 137


 5890 01b7 0400     		.2byte	0x4
 5891 01b9 F3       		.byte	0xf3
 5892 01ba 01       		.uleb128 0x1
 5893 01bb 50       		.byte	0x50
 5894 01bc 9F       		.byte	0x9f
 5895 01bd 00000000 		.4byte	0
 5896 01c1 00000000 		.4byte	0
 5897              	.LLST16:
 5898 01c5 00000000 		.4byte	.LVL19
 5899 01c9 0E000000 		.4byte	.LVL20
 5900 01cd 0100     		.2byte	0x1
 5901 01cf 51       		.byte	0x51
 5902 01d0 0E000000 		.4byte	.LVL20
 5903 01d4 11000000 		.4byte	.LVL21-1
 5904 01d8 0200     		.2byte	0x2
 5905 01da 71       		.byte	0x71
 5906 01db 00       		.sleb128 0
 5907 01dc 11000000 		.4byte	.LVL21-1
 5908 01e0 14000000 		.4byte	.LVL22
 5909 01e4 0200     		.2byte	0x2
 5910 01e6 7D       		.byte	0x7d
 5911 01e7 07       		.sleb128 7
 5912 01e8 14000000 		.4byte	.LVL22
 5913 01ec 16000000 		.4byte	.LFE454
 5914 01f0 0200     		.2byte	0x2
 5915 01f2 91       		.byte	0x91
 5916 01f3 77       		.sleb128 -9
 5917 01f4 00000000 		.4byte	0
 5918 01f8 00000000 		.4byte	0
 5919              	.LLST17:
 5920 01fc 00000000 		.4byte	.LVL23
 5921 0200 0E000000 		.4byte	.LVL26
 5922 0204 0100     		.2byte	0x1
 5923 0206 50       		.byte	0x50
 5924 0207 0E000000 		.4byte	.LVL26
 5925 020b 30000000 		.4byte	.LFE455
 5926 020f 0400     		.2byte	0x4
 5927 0211 F3       		.byte	0xf3
 5928 0212 01       		.uleb128 0x1
 5929 0213 50       		.byte	0x50
 5930 0214 9F       		.byte	0x9f
 5931 0215 00000000 		.4byte	0
 5932 0219 00000000 		.4byte	0
 5933              	.LLST18:
 5934 021d 00000000 		.4byte	.LVL23
 5935 0221 11000000 		.4byte	.LVL27-1
 5936 0225 0100     		.2byte	0x1
 5937 0227 51       		.byte	0x51
 5938 0228 11000000 		.4byte	.LVL27-1
 5939 022c 30000000 		.4byte	.LFE455
 5940 0230 0400     		.2byte	0x4
 5941 0232 F3       		.byte	0xf3
 5942 0233 01       		.uleb128 0x1
 5943 0234 51       		.byte	0x51
 5944 0235 9F       		.byte	0x9f
 5945 0236 00000000 		.4byte	0
 5946 023a 00000000 		.4byte	0
ARM GAS  C:\Users\bryan.lee\AppData\Local\Temp\ccAkWdHW.s 			page 138


 5947              	.LLST19:
 5948 023e 06000000 		.4byte	.LVL24
 5949 0242 0C000000 		.4byte	.LVL25
 5950 0246 0200     		.2byte	0x2
 5951 0248 30       		.byte	0x30
 5952 0249 9F       		.byte	0x9f
 5953 024a 00000000 		.4byte	0
 5954 024e 00000000 		.4byte	0
 5955              	.LLST20:
 5956 0252 06000000 		.4byte	.LVL24
 5957 0256 0C000000 		.4byte	.LVL25
 5958 025a 0200     		.2byte	0x2
 5959 025c 33       		.byte	0x33
 5960 025d 9F       		.byte	0x9f
 5961 025e 00000000 		.4byte	0
 5962 0262 00000000 		.4byte	0
 5963              	.LLST21:
 5964 0266 06000000 		.4byte	.LVL24
 5965 026a 0C000000 		.4byte	.LVL25
 5966 026e 0600     		.2byte	0x6
 5967 0270 0C       		.byte	0xc
 5968 0271 00063240 		.4byte	0x40320600
 5969 0275 9F       		.byte	0x9f
 5970 0276 00000000 		.4byte	0
 5971 027a 00000000 		.4byte	0
 5972              	.LLST22:
 5973 027e 18000000 		.4byte	.LVL28
 5974 0282 1A000000 		.4byte	.LVL29
 5975 0286 0200     		.2byte	0x2
 5976 0288 31       		.byte	0x31
 5977 0289 9F       		.byte	0x9f
 5978 028a 00000000 		.4byte	0
 5979 028e 00000000 		.4byte	0
 5980              	.LLST23:
 5981 0292 18000000 		.4byte	.LVL28
 5982 0296 1A000000 		.4byte	.LVL29
 5983 029a 0200     		.2byte	0x2
 5984 029c 33       		.byte	0x33
 5985 029d 9F       		.byte	0x9f
 5986 029e 00000000 		.4byte	0
 5987 02a2 00000000 		.4byte	0
 5988              	.LLST24:
 5989 02a6 18000000 		.4byte	.LVL28
 5990 02aa 1A000000 		.4byte	.LVL29
 5991 02ae 0600     		.2byte	0x6
 5992 02b0 0C       		.byte	0xc
 5993 02b1 00063240 		.4byte	0x40320600
 5994 02b5 9F       		.byte	0x9f
 5995 02b6 00000000 		.4byte	0
 5996 02ba 00000000 		.4byte	0
 5997              	.LLST25:
 5998 02be 1A000000 		.4byte	.LVL29
 5999 02c2 1C000000 		.4byte	.LVL30
 6000 02c6 0200     		.2byte	0x2
 6001 02c8 30       		.byte	0x30
 6002 02c9 9F       		.byte	0x9f
 6003 02ca 00000000 		.4byte	0
ARM GAS  C:\Users\bryan.lee\AppData\Local\Temp\ccAkWdHW.s 			page 139


 6004 02ce 00000000 		.4byte	0
 6005              	.LLST26:
 6006 02d2 1A000000 		.4byte	.LVL29
 6007 02d6 1C000000 		.4byte	.LVL30
 6008 02da 0200     		.2byte	0x2
 6009 02dc 33       		.byte	0x33
 6010 02dd 9F       		.byte	0x9f
 6011 02de 00000000 		.4byte	0
 6012 02e2 00000000 		.4byte	0
 6013              	.LLST27:
 6014 02e6 1A000000 		.4byte	.LVL29
 6015 02ea 1C000000 		.4byte	.LVL30
 6016 02ee 0600     		.2byte	0x6
 6017 02f0 0C       		.byte	0xc
 6018 02f1 00063240 		.4byte	0x40320600
 6019 02f5 9F       		.byte	0x9f
 6020 02f6 00000000 		.4byte	0
 6021 02fa 00000000 		.4byte	0
 6022              	.LLST28:
 6023 02fe 28000000 		.4byte	.LVL32
 6024 0302 2A000000 		.4byte	.LVL33
 6025 0306 0200     		.2byte	0x2
 6026 0308 31       		.byte	0x31
 6027 0309 9F       		.byte	0x9f
 6028 030a 00000000 		.4byte	0
 6029 030e 00000000 		.4byte	0
 6030              	.LLST29:
 6031 0312 28000000 		.4byte	.LVL32
 6032 0316 2A000000 		.4byte	.LVL33
 6033 031a 0200     		.2byte	0x2
 6034 031c 33       		.byte	0x33
 6035 031d 9F       		.byte	0x9f
 6036 031e 00000000 		.4byte	0
 6037 0322 00000000 		.4byte	0
 6038              	.LLST30:
 6039 0326 28000000 		.4byte	.LVL32
 6040 032a 2A000000 		.4byte	.LVL33
 6041 032e 0600     		.2byte	0x6
 6042 0330 0C       		.byte	0xc
 6043 0331 00063240 		.4byte	0x40320600
 6044 0335 9F       		.byte	0x9f
 6045 0336 00000000 		.4byte	0
 6046 033a 00000000 		.4byte	0
 6047              	.LLST31:
 6048 033e 02000000 		.4byte	.LVL34
 6049 0342 08000000 		.4byte	.LVL35
 6050 0346 0200     		.2byte	0x2
 6051 0348 30       		.byte	0x30
 6052 0349 9F       		.byte	0x9f
 6053 034a 00000000 		.4byte	0
 6054 034e 00000000 		.4byte	0
 6055              	.LLST32:
 6056 0352 02000000 		.4byte	.LVL34
 6057 0356 08000000 		.4byte	.LVL35
 6058 035a 0200     		.2byte	0x2
 6059 035c 32       		.byte	0x32
 6060 035d 9F       		.byte	0x9f
ARM GAS  C:\Users\bryan.lee\AppData\Local\Temp\ccAkWdHW.s 			page 140


 6061 035e 00000000 		.4byte	0
 6062 0362 00000000 		.4byte	0
 6063              	.LLST33:
 6064 0366 02000000 		.4byte	.LVL34
 6065 036a 08000000 		.4byte	.LVL35
 6066 036e 0600     		.2byte	0x6
 6067 0370 0C       		.byte	0xc
 6068 0371 00003240 		.4byte	0x40320000
 6069 0375 9F       		.byte	0x9f
 6070 0376 00000000 		.4byte	0
 6071 037a 00000000 		.4byte	0
 6072              	.LLST34:
 6073 037e 08000000 		.4byte	.LVL35
 6074 0382 0E000000 		.4byte	.LVL36
 6075 0386 0200     		.2byte	0x2
 6076 0388 30       		.byte	0x30
 6077 0389 9F       		.byte	0x9f
 6078 038a 00000000 		.4byte	0
 6079 038e 00000000 		.4byte	0
 6080              	.LLST35:
 6081 0392 08000000 		.4byte	.LVL35
 6082 0396 0E000000 		.4byte	.LVL36
 6083 039a 0200     		.2byte	0x2
 6084 039c 36       		.byte	0x36
 6085 039d 9F       		.byte	0x9f
 6086 039e 00000000 		.4byte	0
 6087 03a2 00000000 		.4byte	0
 6088              	.LLST36:
 6089 03a6 08000000 		.4byte	.LVL35
 6090 03aa 0E000000 		.4byte	.LVL36
 6091 03ae 0600     		.2byte	0x6
 6092 03b0 0C       		.byte	0xc
 6093 03b1 80023240 		.4byte	0x40320280
 6094 03b5 9F       		.byte	0x9f
 6095 03b6 00000000 		.4byte	0
 6096 03ba 00000000 		.4byte	0
 6097              	.LLST37:
 6098 03be 0E000000 		.4byte	.LVL36
 6099 03c2 12000000 		.4byte	.LVL37
 6100 03c6 0200     		.2byte	0x2
 6101 03c8 30       		.byte	0x30
 6102 03c9 9F       		.byte	0x9f
 6103 03ca 00000000 		.4byte	0
 6104 03ce 00000000 		.4byte	0
 6105              	.LLST38:
 6106 03d2 0E000000 		.4byte	.LVL36
 6107 03d6 12000000 		.4byte	.LVL37
 6108 03da 0200     		.2byte	0x2
 6109 03dc 34       		.byte	0x34
 6110 03dd 9F       		.byte	0x9f
 6111 03de 00000000 		.4byte	0
 6112 03e2 00000000 		.4byte	0
 6113              	.LLST39:
 6114 03e6 0E000000 		.4byte	.LVL36
 6115 03ea 12000000 		.4byte	.LVL37
 6116 03ee 0600     		.2byte	0x6
 6117 03f0 0C       		.byte	0xc
ARM GAS  C:\Users\bryan.lee\AppData\Local\Temp\ccAkWdHW.s 			page 141


 6118 03f1 80023240 		.4byte	0x40320280
 6119 03f5 9F       		.byte	0x9f
 6120 03f6 00000000 		.4byte	0
 6121 03fa 00000000 		.4byte	0
 6122              	.LLST40:
 6123 03fe 16000000 		.4byte	.LVL38
 6124 0402 1C000000 		.4byte	.LVL39
 6125 0406 0200     		.2byte	0x2
 6126 0408 30       		.byte	0x30
 6127 0409 9F       		.byte	0x9f
 6128 040a 00000000 		.4byte	0
 6129 040e 00000000 		.4byte	0
 6130              	.LLST41:
 6131 0412 16000000 		.4byte	.LVL38
 6132 0416 1C000000 		.4byte	.LVL39
 6133 041a 0200     		.2byte	0x2
 6134 041c 33       		.byte	0x33
 6135 041d 9F       		.byte	0x9f
 6136 041e 00000000 		.4byte	0
 6137 0422 00000000 		.4byte	0
 6138              	.LLST42:
 6139 0426 16000000 		.4byte	.LVL38
 6140 042a 1C000000 		.4byte	.LVL39
 6141 042e 0600     		.2byte	0x6
 6142 0430 0C       		.byte	0xc
 6143 0431 00063240 		.4byte	0x40320600
 6144 0435 9F       		.byte	0x9f
 6145 0436 00000000 		.4byte	0
 6146 043a 00000000 		.4byte	0
 6147              	.LLST43:
 6148 043e 1C000000 		.4byte	.LVL39
 6149 0442 1E000000 		.4byte	.LVL40
 6150 0446 0200     		.2byte	0x2
 6151 0448 30       		.byte	0x30
 6152 0449 9F       		.byte	0x9f
 6153 044a 00000000 		.4byte	0
 6154 044e 00000000 		.4byte	0
 6155              	.LLST44:
 6156 0452 1C000000 		.4byte	.LVL39
 6157 0456 1E000000 		.4byte	.LVL40
 6158 045a 0200     		.2byte	0x2
 6159 045c 32       		.byte	0x32
 6160 045d 9F       		.byte	0x9f
 6161 045e 00000000 		.4byte	0
 6162 0462 00000000 		.4byte	0
 6163              	.LLST45:
 6164 0466 1C000000 		.4byte	.LVL39
 6165 046a 1E000000 		.4byte	.LVL40
 6166 046e 0600     		.2byte	0x6
 6167 0470 0C       		.byte	0xc
 6168 0471 80023240 		.4byte	0x40320280
 6169 0475 9F       		.byte	0x9f
 6170 0476 00000000 		.4byte	0
 6171 047a 00000000 		.4byte	0
 6172              	.LLST46:
 6173 047e 1E000000 		.4byte	.LVL40
 6174 0482 22000000 		.4byte	.LVL41
ARM GAS  C:\Users\bryan.lee\AppData\Local\Temp\ccAkWdHW.s 			page 142


 6175 0486 0200     		.2byte	0x2
 6176 0488 30       		.byte	0x30
 6177 0489 9F       		.byte	0x9f
 6178 048a 00000000 		.4byte	0
 6179 048e 00000000 		.4byte	0
 6180              	.LLST47:
 6181 0492 1E000000 		.4byte	.LVL40
 6182 0496 22000000 		.4byte	.LVL41
 6183 049a 0200     		.2byte	0x2
 6184 049c 35       		.byte	0x35
 6185 049d 9F       		.byte	0x9f
 6186 049e 00000000 		.4byte	0
 6187 04a2 00000000 		.4byte	0
 6188              	.LLST48:
 6189 04a6 1E000000 		.4byte	.LVL40
 6190 04aa 22000000 		.4byte	.LVL41
 6191 04ae 0600     		.2byte	0x6
 6192 04b0 0C       		.byte	0xc
 6193 04b1 80023240 		.4byte	0x40320280
 6194 04b5 9F       		.byte	0x9f
 6195 04b6 00000000 		.4byte	0
 6196 04ba 00000000 		.4byte	0
 6197              	.LLST49:
 6198 04be 02000000 		.4byte	.LVL43
 6199 04c2 A6000000 		.4byte	.LVL61
 6200 04c6 0200     		.2byte	0x2
 6201 04c8 30       		.byte	0x30
 6202 04c9 9F       		.byte	0x9f
 6203 04ca A6000000 		.4byte	.LVL61
 6204 04ce A8000000 		.4byte	.LVL62
 6205 04d2 0100     		.2byte	0x1
 6206 04d4 53       		.byte	0x53
 6207 04d5 A8000000 		.4byte	.LVL62
 6208 04d9 EE000000 		.4byte	.LVL71
 6209 04dd 0100     		.2byte	0x1
 6210 04df 54       		.byte	0x54
 6211 04e0 EE000000 		.4byte	.LVL71
 6212 04e4 FA000000 		.4byte	.LVL73
 6213 04e8 0100     		.2byte	0x1
 6214 04ea 53       		.byte	0x53
 6215 04eb FA000000 		.4byte	.LVL73
 6216 04ef 06010000 		.4byte	.LVL74
 6217 04f3 0200     		.2byte	0x2
 6218 04f5 30       		.byte	0x30
 6219 04f6 9F       		.byte	0x9f
 6220 04f7 06010000 		.4byte	.LVL74
 6221 04fb 08010000 		.4byte	.LVL75
 6222 04ff 0100     		.2byte	0x1
 6223 0501 53       		.byte	0x53
 6224 0502 00000000 		.4byte	0
 6225 0506 00000000 		.4byte	0
 6226              	.LLST50:
 6227 050a 00000000 		.4byte	.LVL78
 6228 050e 2F000000 		.4byte	.LVL86-1
 6229 0512 0100     		.2byte	0x1
 6230 0514 50       		.byte	0x50
 6231 0515 2F000000 		.4byte	.LVL86-1
ARM GAS  C:\Users\bryan.lee\AppData\Local\Temp\ccAkWdHW.s 			page 143


 6232 0519 82000000 		.4byte	.LVL91
 6233 051d 0100     		.2byte	0x1
 6234 051f 56       		.byte	0x56
 6235 0520 82000000 		.4byte	.LVL91
 6236 0524 86000000 		.4byte	.LVL93
 6237 0528 0300     		.2byte	0x3
 6238 052a 76       		.byte	0x76
 6239 052b 01       		.sleb128 1
 6240 052c 9F       		.byte	0x9f
 6241 052d 86000000 		.4byte	.LVL93
 6242 0531 34040000 		.4byte	.LVL119
 6243 0535 0100     		.2byte	0x1
 6244 0537 56       		.byte	0x56
 6245 0538 00000000 		.4byte	0
 6246 053c 00000000 		.4byte	0
 6247              	.LLST51:
 6248 0540 00000000 		.4byte	.LVL78
 6249 0544 2F000000 		.4byte	.LVL86-1
 6250 0548 0100     		.2byte	0x1
 6251 054a 51       		.byte	0x51
 6252 054b 2F000000 		.4byte	.LVL86-1
 6253 054f 4C040000 		.4byte	.LFE459
 6254 0553 0400     		.2byte	0x4
 6255 0555 F3       		.byte	0xf3
 6256 0556 01       		.uleb128 0x1
 6257 0557 51       		.byte	0x51
 6258 0558 9F       		.byte	0x9f
 6259 0559 00000000 		.4byte	0
 6260 055d 00000000 		.4byte	0
 6261              	.LLST52:
 6262 0561 78000000 		.4byte	.LVL89
 6263 0565 7E000000 		.4byte	.LVL90
 6264 0569 0200     		.2byte	0x2
 6265 056b 30       		.byte	0x30
 6266 056c 9F       		.byte	0x9f
 6267 056d 7E000000 		.4byte	.LVL90
 6268 0571 BE030000 		.4byte	.LVL102
 6269 0575 0100     		.2byte	0x1
 6270 0577 53       		.byte	0x53
 6271 0578 C0030000 		.4byte	.LVL103
 6272 057c C8030000 		.4byte	.LVL105
 6273 0580 0100     		.2byte	0x1
 6274 0582 53       		.byte	0x53
 6275 0583 00000000 		.4byte	0
 6276 0587 00000000 		.4byte	0
 6277              	.LLST53:
 6278 058b 30000000 		.4byte	.LVL86
 6279 058f 36000000 		.4byte	.LVL87
 6280 0593 0200     		.2byte	0x2
 6281 0595 30       		.byte	0x30
 6282 0596 9F       		.byte	0x9f
 6283 0597 36000000 		.4byte	.LVL87
 6284 059b F8030000 		.4byte	.LVL110
 6285 059f 0100     		.2byte	0x1
 6286 05a1 58       		.byte	0x58
 6287 05a2 F8030000 		.4byte	.LVL110
 6288 05a6 FC030000 		.4byte	.LVL111
ARM GAS  C:\Users\bryan.lee\AppData\Local\Temp\ccAkWdHW.s 			page 144


 6289 05aa 0200     		.2byte	0x2
 6290 05ac 30       		.byte	0x30
 6291 05ad 9F       		.byte	0x9f
 6292 05ae FC030000 		.4byte	.LVL111
 6293 05b2 1A040000 		.4byte	.LVL114
 6294 05b6 0100     		.2byte	0x1
 6295 05b8 54       		.byte	0x54
 6296 05b9 1C040000 		.4byte	.LVL115
 6297 05bd 26040000 		.4byte	.LVL116
 6298 05c1 0100     		.2byte	0x1
 6299 05c3 54       		.byte	0x54
 6300 05c4 00000000 		.4byte	0
 6301 05c8 00000000 		.4byte	0
 6302              	.LLST54:
 6303 05cc 78000000 		.4byte	.LVL89
 6304 05d0 7E000000 		.4byte	.LVL90
 6305 05d4 0300     		.2byte	0x3
 6306 05d6 08       		.byte	0x8
 6307 05d7 20       		.byte	0x20
 6308 05d8 9F       		.byte	0x9f
 6309 05d9 7E000000 		.4byte	.LVL90
 6310 05dd 42010000 		.4byte	.LVL94
 6311 05e1 0100     		.2byte	0x1
 6312 05e3 52       		.byte	0x52
 6313 05e4 44010000 		.4byte	.LVL95
 6314 05e8 08020000 		.4byte	.LVL96
 6315 05ec 0100     		.2byte	0x1
 6316 05ee 52       		.byte	0x52
 6317 05ef 0A020000 		.4byte	.LVL97
 6318 05f3 CC020000 		.4byte	.LVL98
 6319 05f7 0100     		.2byte	0x1
 6320 05f9 52       		.byte	0x52
 6321 05fa CE020000 		.4byte	.LVL99
 6322 05fe 9E030000 		.4byte	.LVL100
 6323 0602 0100     		.2byte	0x1
 6324 0604 52       		.byte	0x52
 6325 0605 A0030000 		.4byte	.LVL101
 6326 0609 CA030000 		.4byte	.LVL106
 6327 060d 0100     		.2byte	0x1
 6328 060f 52       		.byte	0x52
 6329 0610 00000000 		.4byte	0
 6330 0614 00000000 		.4byte	0
 6331              	.LLST55:
 6332 0618 12000000 		.4byte	.LVL79
 6333 061c 36000000 		.4byte	.LVL87
 6334 0620 0200     		.2byte	0x2
 6335 0622 30       		.byte	0x30
 6336 0623 9F       		.byte	0x9f
 6337 0624 C6030000 		.4byte	.LVL104
 6338 0628 CE030000 		.4byte	.LVL107
 6339 062c 0600     		.2byte	0x6
 6340 062e 08       		.byte	0x8
 6341 062f B0       		.byte	0xb0
 6342 0630 78       		.byte	0x78
 6343 0631 00       		.sleb128 0
 6344 0632 1C       		.byte	0x1c
 6345 0633 9F       		.byte	0x9f
ARM GAS  C:\Users\bryan.lee\AppData\Local\Temp\ccAkWdHW.s 			page 145


 6346 0634 CE030000 		.4byte	.LVL107
 6347 0638 D6030000 		.4byte	.LVL108
 6348 063c 0100     		.2byte	0x1
 6349 063e 53       		.byte	0x53
 6350 063f 00000000 		.4byte	0
 6351 0643 00000000 		.4byte	0
 6352              	.LLST56:
 6353 0647 14000000 		.4byte	.LVL80
 6354 064b 22000000 		.4byte	.LVL81
 6355 064f 0100     		.2byte	0x1
 6356 0651 54       		.byte	0x54
 6357 0652 22000000 		.4byte	.LVL81
 6358 0656 24000000 		.4byte	.LVL82
 6359 065a 0200     		.2byte	0x2
 6360 065c 70       		.byte	0x70
 6361 065d 00       		.sleb128 0
 6362 065e 24000000 		.4byte	.LVL82
 6363 0662 28000000 		.4byte	.LVL83
 6364 0666 0100     		.2byte	0x1
 6365 0668 54       		.byte	0x54
 6366 0669 28000000 		.4byte	.LVL83
 6367 066d 2A000000 		.4byte	.LVL84
 6368 0671 0200     		.2byte	0x2
 6369 0673 70       		.byte	0x70
 6370 0674 00       		.sleb128 0
 6371 0675 2A000000 		.4byte	.LVL84
 6372 0679 F8030000 		.4byte	.LVL110
 6373 067d 0100     		.2byte	0x1
 6374 067f 54       		.byte	0x54
 6375 0680 00000000 		.4byte	0
 6376 0684 00000000 		.4byte	0
 6377              	.LLST57:
 6378 0688 2C000000 		.4byte	.LVL85
 6379 068c 34040000 		.4byte	.LVL120
 6380 0690 0100     		.2byte	0x1
 6381 0692 57       		.byte	0x57
 6382 0693 00000000 		.4byte	0
 6383 0697 00000000 		.4byte	0
 6384              	.LLST58:
 6385 069b 00000000 		.4byte	.LVL121
 6386 069f 15000000 		.4byte	.LVL123-1
 6387 06a3 0100     		.2byte	0x1
 6388 06a5 50       		.byte	0x50
 6389 06a6 15000000 		.4byte	.LVL123-1
 6390 06aa 68000000 		.4byte	.LVL129
 6391 06ae 0100     		.2byte	0x1
 6392 06b0 57       		.byte	0x57
 6393 06b1 68000000 		.4byte	.LVL129
 6394 06b5 70000000 		.4byte	.LVL133
 6395 06b9 0100     		.2byte	0x1
 6396 06bb 53       		.byte	0x53
 6397 06bc 70000000 		.4byte	.LVL133
 6398 06c0 6C010000 		.4byte	.LVL141
 6399 06c4 0200     		.2byte	0x2
 6400 06c6 91       		.byte	0x91
 6401 06c7 54       		.sleb128 -44
 6402 06c8 6C010000 		.4byte	.LVL141
ARM GAS  C:\Users\bryan.lee\AppData\Local\Temp\ccAkWdHW.s 			page 146


 6403 06cc 0C020000 		.4byte	.LVL161
 6404 06d0 0100     		.2byte	0x1
 6405 06d2 57       		.byte	0x57
 6406 06d3 00000000 		.4byte	0
 6407 06d7 00000000 		.4byte	0
 6408              	.LLST59:
 6409 06db 00000000 		.4byte	.LVL121
 6410 06df 15000000 		.4byte	.LVL123-1
 6411 06e3 0100     		.2byte	0x1
 6412 06e5 51       		.byte	0x51
 6413 06e6 15000000 		.4byte	.LVL123-1
 6414 06ea 6C000000 		.4byte	.LVL131
 6415 06ee 0100     		.2byte	0x1
 6416 06f0 55       		.byte	0x55
 6417 06f1 6C000000 		.4byte	.LVL131
 6418 06f5 6C010000 		.4byte	.LVL141
 6419 06f9 0100     		.2byte	0x1
 6420 06fb 57       		.byte	0x57
 6421 06fc 6C010000 		.4byte	.LVL141
 6422 0700 A4010000 		.4byte	.LVL147
 6423 0704 0100     		.2byte	0x1
 6424 0706 55       		.byte	0x55
 6425 0707 00000000 		.4byte	0
 6426 070b 00000000 		.4byte	0
 6427              	.LLST60:
 6428 070f 5E000000 		.4byte	.LVL127
 6429 0713 64000000 		.4byte	.LVL128
 6430 0717 0200     		.2byte	0x2
 6431 0719 30       		.byte	0x30
 6432 071a 9F       		.byte	0x9f
 6433 071b 64000000 		.4byte	.LVL128
 6434 071f 66010000 		.4byte	.LVL138
 6435 0723 0100     		.2byte	0x1
 6436 0725 51       		.byte	0x51
 6437 0726 68010000 		.4byte	.LVL139
 6438 072a 7C010000 		.4byte	.LVL144
 6439 072e 0100     		.2byte	0x1
 6440 0730 51       		.byte	0x51
 6441 0731 00000000 		.4byte	0
 6442 0735 00000000 		.4byte	0
 6443              	.LLST61:
 6444 0739 1E000000 		.4byte	.LVL124
 6445 073d 24000000 		.4byte	.LVL125
 6446 0741 0200     		.2byte	0x2
 6447 0743 30       		.byte	0x30
 6448 0744 9F       		.byte	0x9f
 6449 0745 24000000 		.4byte	.LVL125
 6450 0749 A4010000 		.4byte	.LVL147
 6451 074d 0100     		.2byte	0x1
 6452 074f 5A       		.byte	0x5a
 6453 0750 A4010000 		.4byte	.LVL147
 6454 0754 A8010000 		.4byte	.LVL148
 6455 0758 0200     		.2byte	0x2
 6456 075a 30       		.byte	0x30
 6457 075b 9F       		.byte	0x9f
 6458 075c A8010000 		.4byte	.LVL148
 6459 0760 EA010000 		.4byte	.LVL155
ARM GAS  C:\Users\bryan.lee\AppData\Local\Temp\ccAkWdHW.s 			page 147


 6460 0764 0100     		.2byte	0x1
 6461 0766 54       		.byte	0x54
 6462 0767 EC010000 		.4byte	.LVL156
 6463 076b F6010000 		.4byte	.LVL157
 6464 076f 0100     		.2byte	0x1
 6465 0771 54       		.byte	0x54
 6466 0772 00000000 		.4byte	0
 6467 0776 00000000 		.4byte	0
 6468              	.LLST62:
 6469 077a 5E000000 		.4byte	.LVL127
 6470 077e 64000000 		.4byte	.LVL128
 6471 0782 0300     		.2byte	0x3
 6472 0784 08       		.byte	0x8
 6473 0785 20       		.byte	0x20
 6474 0786 9F       		.byte	0x9f
 6475 0787 64000000 		.4byte	.LVL128
 6476 078b 48010000 		.4byte	.LVL136
 6477 078f 0100     		.2byte	0x1
 6478 0791 54       		.byte	0x54
 6479 0792 4A010000 		.4byte	.LVL137
 6480 0796 9C010000 		.4byte	.LVL146
 6481 079a 0100     		.2byte	0x1
 6482 079c 54       		.byte	0x54
 6483 079d 00000000 		.4byte	0
 6484 07a1 00000000 		.4byte	0
 6485              	.LLST63:
 6486 07a5 6A000000 		.4byte	.LVL130
 6487 07a9 74000000 		.4byte	.LVL134
 6488 07ad 0100     		.2byte	0x1
 6489 07af 52       		.byte	0x52
 6490 07b0 74000000 		.4byte	.LVL134
 6491 07b4 88000000 		.4byte	.LVL135
 6492 07b8 0500     		.2byte	0x5
 6493 07ba 91       		.byte	0x91
 6494 07bb 54       		.sleb128 -44
 6495 07bc 06       		.byte	0x6
 6496 07bd 31       		.byte	0x31
 6497 07be 1C       		.byte	0x1c
 6498 07bf 00000000 		.4byte	0
 6499 07c3 00000000 		.4byte	0
 6500              	.LLST64:
 6501 07c7 6E000000 		.4byte	.LVL132
 6502 07cb 6A010000 		.4byte	.LVL140
 6503 07cf 0100     		.2byte	0x1
 6504 07d1 55       		.byte	0x55
 6505 07d2 00000000 		.4byte	0
 6506 07d6 00000000 		.4byte	0
 6507              	.LLST65:
 6508 07da 12000000 		.4byte	.LVL122
 6509 07de 24000000 		.4byte	.LVL125
 6510 07e2 0200     		.2byte	0x2
 6511 07e4 30       		.byte	0x30
 6512 07e5 9F       		.byte	0x9f
 6513 07e6 72010000 		.4byte	.LVL142
 6514 07ea 7A010000 		.4byte	.LVL143
 6515 07ee 0600     		.2byte	0x6
 6516 07f0 08       		.byte	0x8
ARM GAS  C:\Users\bryan.lee\AppData\Local\Temp\ccAkWdHW.s 			page 148


 6517 07f1 B0       		.byte	0xb0
 6518 07f2 7A       		.byte	0x7a
 6519 07f3 00       		.sleb128 0
 6520 07f4 1C       		.byte	0x1c
 6521 07f5 9F       		.byte	0x9f
 6522 07f6 7A010000 		.4byte	.LVL143
 6523 07fa 82010000 		.4byte	.LVL145
 6524 07fe 0100     		.2byte	0x1
 6525 0800 53       		.byte	0x53
 6526 0801 C6010000 		.4byte	.LVL150
 6527 0805 CC010000 		.4byte	.LVL151
 6528 0809 0600     		.2byte	0x6
 6529 080b 08       		.byte	0x8
 6530 080c B0       		.byte	0xb0
 6531 080d 74       		.byte	0x74
 6532 080e 00       		.sleb128 0
 6533 080f 1C       		.byte	0x1c
 6534 0810 9F       		.byte	0x9f
 6535 0811 CC010000 		.4byte	.LVL151
 6536 0815 CE010000 		.4byte	.LVL152
 6537 0819 0100     		.2byte	0x1
 6538 081b 53       		.byte	0x53
 6539 081c 00000000 		.4byte	0
 6540 0820 00000000 		.4byte	0
 6541              	.LLST66:
 6542 0824 02000000 		.4byte	.LVL162
 6543 0828 06000000 		.4byte	.LVL163
 6544 082c 0200     		.2byte	0x2
 6545 082e 30       		.byte	0x30
 6546 082f 9F       		.byte	0x9f
 6547 0830 06000000 		.4byte	.LVL163
 6548 0834 14000000 		.4byte	.LVL164
 6549 0838 0100     		.2byte	0x1
 6550 083a 53       		.byte	0x53
 6551 083b 16000000 		.4byte	.LVL165
 6552 083f 1E000000 		.4byte	.LVL166
 6553 0843 0100     		.2byte	0x1
 6554 0845 53       		.byte	0x53
 6555 0846 1E000000 		.4byte	.LVL166
 6556 084a 4C000000 		.4byte	.LVL169
 6557 084e 0100     		.2byte	0x1
 6558 0850 54       		.byte	0x54
 6559 0851 4E000000 		.4byte	.LVL170
 6560 0855 52000000 		.4byte	.LVL171
 6561 0859 0100     		.2byte	0x1
 6562 085b 54       		.byte	0x54
 6563 085c 00000000 		.4byte	0
 6564 0860 00000000 		.4byte	0
 6565              	.LLST67:
 6566 0864 02000000 		.4byte	.LVL172
 6567 0868 06000000 		.4byte	.LVL173
 6568 086c 0200     		.2byte	0x2
 6569 086e 30       		.byte	0x30
 6570 086f 9F       		.byte	0x9f
 6571 0870 06000000 		.4byte	.LVL173
 6572 0874 0E000000 		.4byte	.LVL174
 6573 0878 0100     		.2byte	0x1
ARM GAS  C:\Users\bryan.lee\AppData\Local\Temp\ccAkWdHW.s 			page 149


 6574 087a 53       		.byte	0x53
 6575 087b 10000000 		.4byte	.LVL175
 6576 087f 1B000000 		.4byte	.LVL176-1
 6577 0883 0100     		.2byte	0x1
 6578 0885 53       		.byte	0x53
 6579 0886 00000000 		.4byte	0
 6580 088a 00000000 		.4byte	0
 6581              	.LLST68:
 6582 088e 02000000 		.4byte	.LVL179
 6583 0892 08000000 		.4byte	.LVL180
 6584 0896 0200     		.2byte	0x2
 6585 0898 31       		.byte	0x31
 6586 0899 9F       		.byte	0x9f
 6587 089a 00000000 		.4byte	0
 6588 089e 00000000 		.4byte	0
 6589              	.LLST69:
 6590 08a2 02000000 		.4byte	.LVL179
 6591 08a6 08000000 		.4byte	.LVL180
 6592 08aa 0200     		.2byte	0x2
 6593 08ac 34       		.byte	0x34
 6594 08ad 9F       		.byte	0x9f
 6595 08ae 00000000 		.4byte	0
 6596 08b2 00000000 		.4byte	0
 6597              	.LLST70:
 6598 08b6 02000000 		.4byte	.LVL179
 6599 08ba 08000000 		.4byte	.LVL180
 6600 08be 0600     		.2byte	0x6
 6601 08c0 0C       		.byte	0xc
 6602 08c1 80023240 		.4byte	0x40320280
 6603 08c5 9F       		.byte	0x9f
 6604 08c6 00000000 		.4byte	0
 6605 08ca 00000000 		.4byte	0
 6606              	.LLST71:
 6607 08ce 12000000 		.4byte	.LVL182
 6608 08d2 18000000 		.4byte	.LVL183
 6609 08d6 0200     		.2byte	0x2
 6610 08d8 31       		.byte	0x31
 6611 08d9 9F       		.byte	0x9f
 6612 08da 00000000 		.4byte	0
 6613 08de 00000000 		.4byte	0
 6614              	.LLST72:
 6615 08e2 12000000 		.4byte	.LVL182
 6616 08e6 18000000 		.4byte	.LVL183
 6617 08ea 0200     		.2byte	0x2
 6618 08ec 33       		.byte	0x33
 6619 08ed 9F       		.byte	0x9f
 6620 08ee 00000000 		.4byte	0
 6621 08f2 00000000 		.4byte	0
 6622              	.LLST73:
 6623 08f6 12000000 		.4byte	.LVL182
 6624 08fa 18000000 		.4byte	.LVL183
 6625 08fe 0600     		.2byte	0x6
 6626 0900 0C       		.byte	0xc
 6627 0901 00063240 		.4byte	0x40320600
 6628 0905 9F       		.byte	0x9f
 6629 0906 00000000 		.4byte	0
 6630 090a 00000000 		.4byte	0
ARM GAS  C:\Users\bryan.lee\AppData\Local\Temp\ccAkWdHW.s 			page 150


 6631              	.LLST74:
 6632 090e 18000000 		.4byte	.LVL183
 6633 0912 1C000000 		.4byte	.LVL184
 6634 0916 0200     		.2byte	0x2
 6635 0918 31       		.byte	0x31
 6636 0919 9F       		.byte	0x9f
 6637 091a 00000000 		.4byte	0
 6638 091e 00000000 		.4byte	0
 6639              	.LLST75:
 6640 0922 18000000 		.4byte	.LVL183
 6641 0926 1C000000 		.4byte	.LVL184
 6642 092a 0200     		.2byte	0x2
 6643 092c 36       		.byte	0x36
 6644 092d 9F       		.byte	0x9f
 6645 092e 00000000 		.4byte	0
 6646 0932 00000000 		.4byte	0
 6647              	.LLST76:
 6648 0936 18000000 		.4byte	.LVL183
 6649 093a 1C000000 		.4byte	.LVL184
 6650 093e 0600     		.2byte	0x6
 6651 0940 0C       		.byte	0xc
 6652 0941 80023240 		.4byte	0x40320280
 6653 0945 9F       		.byte	0x9f
 6654 0946 00000000 		.4byte	0
 6655 094a 00000000 		.4byte	0
 6656              	.LLST77:
 6657 094e 1C000000 		.4byte	.LVL184
 6658 0952 20000000 		.4byte	.LVL185
 6659 0956 0200     		.2byte	0x2
 6660 0958 31       		.byte	0x31
 6661 0959 9F       		.byte	0x9f
 6662 095a 00000000 		.4byte	0
 6663 095e 00000000 		.4byte	0
 6664              	.LLST78:
 6665 0962 1C000000 		.4byte	.LVL184
 6666 0966 20000000 		.4byte	.LVL185
 6667 096a 0200     		.2byte	0x2
 6668 096c 32       		.byte	0x32
 6669 096d 9F       		.byte	0x9f
 6670 096e 00000000 		.4byte	0
 6671 0972 00000000 		.4byte	0
 6672              	.LLST79:
 6673 0976 1C000000 		.4byte	.LVL184
 6674 097a 20000000 		.4byte	.LVL185
 6675 097e 0600     		.2byte	0x6
 6676 0980 0C       		.byte	0xc
 6677 0981 80023240 		.4byte	0x40320280
 6678 0985 9F       		.byte	0x9f
 6679 0986 00000000 		.4byte	0
 6680 098a 00000000 		.4byte	0
 6681              	.LLST80:
 6682 098e 26000000 		.4byte	.LVL186
 6683 0992 28000000 		.4byte	.LVL187
 6684 0996 0200     		.2byte	0x2
 6685 0998 30       		.byte	0x30
 6686 0999 9F       		.byte	0x9f
 6687 099a 00000000 		.4byte	0
ARM GAS  C:\Users\bryan.lee\AppData\Local\Temp\ccAkWdHW.s 			page 151


 6688 099e 00000000 		.4byte	0
 6689              	.LLST81:
 6690 09a2 26000000 		.4byte	.LVL186
 6691 09a6 28000000 		.4byte	.LVL187
 6692 09aa 0200     		.2byte	0x2
 6693 09ac 32       		.byte	0x32
 6694 09ad 9F       		.byte	0x9f
 6695 09ae 00000000 		.4byte	0
 6696 09b2 00000000 		.4byte	0
 6697              	.LLST82:
 6698 09b6 26000000 		.4byte	.LVL186
 6699 09ba 28000000 		.4byte	.LVL187
 6700 09be 0600     		.2byte	0x6
 6701 09c0 0C       		.byte	0xc
 6702 09c1 80023240 		.4byte	0x40320280
 6703 09c5 9F       		.byte	0x9f
 6704 09c6 00000000 		.4byte	0
 6705 09ca 00000000 		.4byte	0
 6706              	.LLST83:
 6707 09ce 2E000000 		.4byte	.LVL188
 6708 09d2 30000000 		.4byte	.LVL189
 6709 09d6 0200     		.2byte	0x2
 6710 09d8 31       		.byte	0x31
 6711 09d9 9F       		.byte	0x9f
 6712 09da 00000000 		.4byte	0
 6713 09de 00000000 		.4byte	0
 6714              	.LLST84:
 6715 09e2 2E000000 		.4byte	.LVL188
 6716 09e6 30000000 		.4byte	.LVL189
 6717 09ea 0200     		.2byte	0x2
 6718 09ec 32       		.byte	0x32
 6719 09ed 9F       		.byte	0x9f
 6720 09ee 00000000 		.4byte	0
 6721 09f2 00000000 		.4byte	0
 6722              	.LLST85:
 6723 09f6 2E000000 		.4byte	.LVL188
 6724 09fa 30000000 		.4byte	.LVL189
 6725 09fe 0600     		.2byte	0x6
 6726 0a00 0C       		.byte	0xc
 6727 0a01 80023240 		.4byte	0x40320280
 6728 0a05 9F       		.byte	0x9f
 6729 0a06 00000000 		.4byte	0
 6730 0a0a 00000000 		.4byte	0
 6731              	.LLST86:
 6732 0a0e 10000000 		.4byte	.LVL194
 6733 0a12 16000000 		.4byte	.LVL195
 6734 0a16 0200     		.2byte	0x2
 6735 0a18 30       		.byte	0x30
 6736 0a19 9F       		.byte	0x9f
 6737 0a1a 00000000 		.4byte	0
 6738 0a1e 00000000 		.4byte	0
 6739              	.LLST87:
 6740 0a22 10000000 		.4byte	.LVL194
 6741 0a26 16000000 		.4byte	.LVL195
 6742 0a2a 0200     		.2byte	0x2
 6743 0a2c 36       		.byte	0x36
 6744 0a2d 9F       		.byte	0x9f
ARM GAS  C:\Users\bryan.lee\AppData\Local\Temp\ccAkWdHW.s 			page 152


 6745 0a2e 00000000 		.4byte	0
 6746 0a32 00000000 		.4byte	0
 6747              	.LLST88:
 6748 0a36 10000000 		.4byte	.LVL194
 6749 0a3a 16000000 		.4byte	.LVL195
 6750 0a3e 0600     		.2byte	0x6
 6751 0a40 0C       		.byte	0xc
 6752 0a41 80023240 		.4byte	0x40320280
 6753 0a45 9F       		.byte	0x9f
 6754 0a46 00000000 		.4byte	0
 6755 0a4a 00000000 		.4byte	0
 6756              	.LLST89:
 6757 0a4e 1C000000 		.4byte	.LVL196
 6758 0a52 1E000000 		.4byte	.LVL197
 6759 0a56 0200     		.2byte	0x2
 6760 0a58 31       		.byte	0x31
 6761 0a59 9F       		.byte	0x9f
 6762 0a5a 00000000 		.4byte	0
 6763 0a5e 00000000 		.4byte	0
 6764              	.LLST90:
 6765 0a62 1C000000 		.4byte	.LVL196
 6766 0a66 1E000000 		.4byte	.LVL197
 6767 0a6a 0200     		.2byte	0x2
 6768 0a6c 36       		.byte	0x36
 6769 0a6d 9F       		.byte	0x9f
 6770 0a6e 00000000 		.4byte	0
 6771 0a72 00000000 		.4byte	0
 6772              	.LLST91:
 6773 0a76 1C000000 		.4byte	.LVL196
 6774 0a7a 1E000000 		.4byte	.LVL197
 6775 0a7e 0600     		.2byte	0x6
 6776 0a80 0C       		.byte	0xc
 6777 0a81 80023240 		.4byte	0x40320280
 6778 0a85 9F       		.byte	0x9f
 6779 0a86 00000000 		.4byte	0
 6780 0a8a 00000000 		.4byte	0
 6781              	.LLST92:
 6782 0a8e 72000000 		.4byte	.LVL208
 6783 0a92 76000000 		.4byte	.LVL209
 6784 0a96 0200     		.2byte	0x2
 6785 0a98 30       		.byte	0x30
 6786 0a99 9F       		.byte	0x9f
 6787 0a9a 00000000 		.4byte	0
 6788 0a9e 00000000 		.4byte	0
 6789              	.LLST93:
 6790 0aa2 72000000 		.4byte	.LVL208
 6791 0aa6 76000000 		.4byte	.LVL209
 6792 0aaa 0200     		.2byte	0x2
 6793 0aac 34       		.byte	0x34
 6794 0aad 9F       		.byte	0x9f
 6795 0aae 00000000 		.4byte	0
 6796 0ab2 00000000 		.4byte	0
 6797              	.LLST94:
 6798 0ab6 72000000 		.4byte	.LVL208
 6799 0aba 76000000 		.4byte	.LVL209
 6800 0abe 0600     		.2byte	0x6
 6801 0ac0 0C       		.byte	0xc
ARM GAS  C:\Users\bryan.lee\AppData\Local\Temp\ccAkWdHW.s 			page 153


 6802 0ac1 80023240 		.4byte	0x40320280
 6803 0ac5 9F       		.byte	0x9f
 6804 0ac6 00000000 		.4byte	0
 6805 0aca 00000000 		.4byte	0
 6806              	.LLST95:
 6807 0ace 76000000 		.4byte	.LVL209
 6808 0ad2 7A000000 		.4byte	.LVL210
 6809 0ad6 0200     		.2byte	0x2
 6810 0ad8 30       		.byte	0x30
 6811 0ad9 9F       		.byte	0x9f
 6812 0ada 00000000 		.4byte	0
 6813 0ade 00000000 		.4byte	0
 6814              	.LLST96:
 6815 0ae2 76000000 		.4byte	.LVL209
 6816 0ae6 7A000000 		.4byte	.LVL210
 6817 0aea 0200     		.2byte	0x2
 6818 0aec 36       		.byte	0x36
 6819 0aed 9F       		.byte	0x9f
 6820 0aee 00000000 		.4byte	0
 6821 0af2 00000000 		.4byte	0
 6822              	.LLST97:
 6823 0af6 76000000 		.4byte	.LVL209
 6824 0afa 7A000000 		.4byte	.LVL210
 6825 0afe 0600     		.2byte	0x6
 6826 0b00 0C       		.byte	0xc
 6827 0b01 80023240 		.4byte	0x40320280
 6828 0b05 9F       		.byte	0x9f
 6829 0b06 00000000 		.4byte	0
 6830 0b0a 00000000 		.4byte	0
 6831              	.LLST98:
 6832 0b0e 80000000 		.4byte	.LVL211
 6833 0b12 86000000 		.4byte	.LVL212
 6834 0b16 0200     		.2byte	0x2
 6835 0b18 30       		.byte	0x30
 6836 0b19 9F       		.byte	0x9f
 6837 0b1a 00000000 		.4byte	0
 6838 0b1e 00000000 		.4byte	0
 6839              	.LLST99:
 6840 0b22 80000000 		.4byte	.LVL211
 6841 0b26 86000000 		.4byte	.LVL212
 6842 0b2a 0200     		.2byte	0x2
 6843 0b2c 33       		.byte	0x33
 6844 0b2d 9F       		.byte	0x9f
 6845 0b2e 00000000 		.4byte	0
 6846 0b32 00000000 		.4byte	0
 6847              	.LLST100:
 6848 0b36 80000000 		.4byte	.LVL211
 6849 0b3a 86000000 		.4byte	.LVL212
 6850 0b3e 0600     		.2byte	0x6
 6851 0b40 0C       		.byte	0xc
 6852 0b41 00063240 		.4byte	0x40320600
 6853 0b45 9F       		.byte	0x9f
 6854 0b46 00000000 		.4byte	0
 6855 0b4a 00000000 		.4byte	0
 6856              	.LLST101:
 6857 0b4e 86000000 		.4byte	.LVL212
 6858 0b52 8A000000 		.4byte	.LVL213
ARM GAS  C:\Users\bryan.lee\AppData\Local\Temp\ccAkWdHW.s 			page 154


 6859 0b56 0200     		.2byte	0x2
 6860 0b58 30       		.byte	0x30
 6861 0b59 9F       		.byte	0x9f
 6862 0b5a 00000000 		.4byte	0
 6863 0b5e 00000000 		.4byte	0
 6864              	.LLST102:
 6865 0b62 86000000 		.4byte	.LVL212
 6866 0b66 8A000000 		.4byte	.LVL213
 6867 0b6a 0200     		.2byte	0x2
 6868 0b6c 32       		.byte	0x32
 6869 0b6d 9F       		.byte	0x9f
 6870 0b6e 00000000 		.4byte	0
 6871 0b72 00000000 		.4byte	0
 6872              	.LLST103:
 6873 0b76 86000000 		.4byte	.LVL212
 6874 0b7a 8A000000 		.4byte	.LVL213
 6875 0b7e 0600     		.2byte	0x6
 6876 0b80 0C       		.byte	0xc
 6877 0b81 80023240 		.4byte	0x40320280
 6878 0b85 9F       		.byte	0x9f
 6879 0b86 00000000 		.4byte	0
 6880 0b8a 00000000 		.4byte	0
 6881              	.LLST104:
 6882 0b8e 8A000000 		.4byte	.LVL213
 6883 0b92 8E000000 		.4byte	.LVL214
 6884 0b96 0200     		.2byte	0x2
 6885 0b98 31       		.byte	0x31
 6886 0b99 9F       		.byte	0x9f
 6887 0b9a 00000000 		.4byte	0
 6888 0b9e 00000000 		.4byte	0
 6889              	.LLST105:
 6890 0ba2 8A000000 		.4byte	.LVL213
 6891 0ba6 8E000000 		.4byte	.LVL214
 6892 0baa 0200     		.2byte	0x2
 6893 0bac 35       		.byte	0x35
 6894 0bad 9F       		.byte	0x9f
 6895 0bae 00000000 		.4byte	0
 6896 0bb2 00000000 		.4byte	0
 6897              	.LLST106:
 6898 0bb6 8A000000 		.4byte	.LVL213
 6899 0bba 8E000000 		.4byte	.LVL214
 6900 0bbe 0600     		.2byte	0x6
 6901 0bc0 0C       		.byte	0xc
 6902 0bc1 80023240 		.4byte	0x40320280
 6903 0bc5 9F       		.byte	0x9f
 6904 0bc6 00000000 		.4byte	0
 6905 0bca 00000000 		.4byte	0
 6906              	.LLST107:
 6907 0bce 94000000 		.4byte	.LVL215
 6908 0bd2 96000000 		.4byte	.LVL216
 6909 0bd6 0200     		.2byte	0x2
 6910 0bd8 30       		.byte	0x30
 6911 0bd9 9F       		.byte	0x9f
 6912 0bda 00000000 		.4byte	0
 6913 0bde 00000000 		.4byte	0
 6914              	.LLST108:
 6915 0be2 94000000 		.4byte	.LVL215
ARM GAS  C:\Users\bryan.lee\AppData\Local\Temp\ccAkWdHW.s 			page 155


 6916 0be6 96000000 		.4byte	.LVL216
 6917 0bea 0200     		.2byte	0x2
 6918 0bec 35       		.byte	0x35
 6919 0bed 9F       		.byte	0x9f
 6920 0bee 00000000 		.4byte	0
 6921 0bf2 00000000 		.4byte	0
 6922              	.LLST109:
 6923 0bf6 94000000 		.4byte	.LVL215
 6924 0bfa 96000000 		.4byte	.LVL216
 6925 0bfe 0600     		.2byte	0x6
 6926 0c00 0C       		.byte	0xc
 6927 0c01 80023240 		.4byte	0x40320280
 6928 0c05 9F       		.byte	0x9f
 6929 0c06 00000000 		.4byte	0
 6930 0c0a 00000000 		.4byte	0
 6931              		.section	.debug_aranges,"",%progbits
 6932 0000 74000000 		.4byte	0x74
 6933 0004 0200     		.2byte	0x2
 6934 0006 00000000 		.4byte	.Ldebug_info0
 6935 000a 04       		.byte	0x4
 6936 000b 00       		.byte	0
 6937 000c 0000     		.2byte	0
 6938 000e 0000     		.2byte	0
 6939 0010 00000000 		.4byte	.LFB453
 6940 0014 4C000000 		.4byte	.LFE453-.LFB453
 6941 0018 00000000 		.4byte	.LFB454
 6942 001c 16000000 		.4byte	.LFE454-.LFB454
 6943 0020 00000000 		.4byte	.LFB455
 6944 0024 30000000 		.4byte	.LFE455-.LFB455
 6945 0028 00000000 		.4byte	.LFB456
 6946 002c 34000000 		.4byte	.LFE456-.LFB456
 6947 0030 00000000 		.4byte	.LFB457
 6948 0034 14010000 		.4byte	.LFE457-.LFB457
 6949 0038 00000000 		.4byte	.LFB458
 6950 003c 54000000 		.4byte	.LFE458-.LFB458
 6951 0040 00000000 		.4byte	.LFB459
 6952 0044 4C040000 		.4byte	.LFE459-.LFB459
 6953 0048 00000000 		.4byte	.LFB460
 6954 004c 24020000 		.4byte	.LFE460-.LFB460
 6955 0050 00000000 		.4byte	.LFB461
 6956 0054 5C000000 		.4byte	.LFE461-.LFB461
 6957 0058 00000000 		.4byte	.LFB462
 6958 005c 34000000 		.4byte	.LFE462-.LFB462
 6959 0060 00000000 		.4byte	.LFB463
 6960 0064 44000000 		.4byte	.LFE463-.LFB463
 6961 0068 00000000 		.4byte	.LFB464
 6962 006c A8000000 		.4byte	.LFE464-.LFB464
 6963 0070 00000000 		.4byte	0
 6964 0074 00000000 		.4byte	0
 6965              		.section	.debug_ranges,"",%progbits
 6966              	.Ldebug_ranges0:
 6967 0000 00000000 		.4byte	.LFB453
 6968 0004 4C000000 		.4byte	.LFE453
 6969 0008 00000000 		.4byte	.LFB454
 6970 000c 16000000 		.4byte	.LFE454
 6971 0010 00000000 		.4byte	.LFB455
 6972 0014 30000000 		.4byte	.LFE455
ARM GAS  C:\Users\bryan.lee\AppData\Local\Temp\ccAkWdHW.s 			page 156


 6973 0018 00000000 		.4byte	.LFB456
 6974 001c 34000000 		.4byte	.LFE456
 6975 0020 00000000 		.4byte	.LFB457
 6976 0024 14010000 		.4byte	.LFE457
 6977 0028 00000000 		.4byte	.LFB458
 6978 002c 54000000 		.4byte	.LFE458
 6979 0030 00000000 		.4byte	.LFB459
 6980 0034 4C040000 		.4byte	.LFE459
 6981 0038 00000000 		.4byte	.LFB460
 6982 003c 24020000 		.4byte	.LFE460
 6983 0040 00000000 		.4byte	.LFB461
 6984 0044 5C000000 		.4byte	.LFE461
 6985 0048 00000000 		.4byte	.LFB462
 6986 004c 34000000 		.4byte	.LFE462
 6987 0050 00000000 		.4byte	.LFB463
 6988 0054 44000000 		.4byte	.LFE463
 6989 0058 00000000 		.4byte	.LFB464
 6990 005c A8000000 		.4byte	.LFE464
 6991 0060 00000000 		.4byte	0
 6992 0064 00000000 		.4byte	0
 6993              		.section	.debug_line,"",%progbits
 6994              	.Ldebug_line0:
 6995 0000 8F080000 		.section	.debug_str,"MS",%progbits,1
 6995      0200FB02 
 6995      00000201 
 6995      FB0E0D00 
 6995      01010101 
 6996              	.LASF55:
 6997 0000 72756E4D 		.ascii	"runMode\000"
 6997      6F646500 
 6998              	.LASF113:
 6999 0008 50765F45 		.ascii	"Pv_EINK_SendByte\000"
 6999      494E4B5F 
 6999      53656E64 
 6999      42797465 
 6999      00
 7000              	.LASF92:
 7001 0019 50565F45 		.ascii	"PV_EINK_ERROR_CHARGEPUMP\000"
 7001      494E4B5F 
 7001      4552524F 
 7001      525F4348 
 7001      41524745 
 7002              	.LASF149:
 7003 0032 43795F45 		.ascii	"Cy_EINK_WriteSPI\000"
 7003      494E4B5F 
 7003      57726974 
 7003      65535049 
 7003      00
 7004              	.LASF118:
 7005 0043 6C6F6F70 		.ascii	"loopCounter\000"
 7005      436F756E 
 7005      74657200 
 7006              	.LASF3:
 7007 004f 7369676E 		.ascii	"signed char\000"
 7007      65642063 
 7007      68617200 
 7008              	.LASF5:
ARM GAS  C:\Users\bryan.lee\AppData\Local\Temp\ccAkWdHW.s 			page 157


 7009 005b 5F5F7569 		.ascii	"__uint8_t\000"
 7009      6E74385F 
 7009      7400
 7010              	.LASF56:
 7011 0065 636F756E 		.ascii	"countDirection\000"
 7011      74446972 
 7011      65637469 
 7011      6F6E00
 7012              	.LASF68:
 7013 0074 73746F70 		.ascii	"stopInputMode\000"
 7013      496E7075 
 7013      744D6F64 
 7013      6500
 7014              	.LASF53:
 7015 0082 70657269 		.ascii	"period\000"
 7015      6F6400
 7016              	.LASF43:
 7017 0089 5644445F 		.ascii	"VDD_INTR_MASK\000"
 7017      494E5452 
 7017      5F4D4153 
 7017      4B00
 7018              	.LASF63:
 7019 0097 63617074 		.ascii	"captureInput\000"
 7019      75726549 
 7019      6E707574 
 7019      00
 7020              	.LASF104:
 7021 00a4 6C696E65 		.ascii	"lineBuffer\000"
 7021      42756666 
 7021      657200
 7022              	.LASF14:
 7023 00af 6C6F6E67 		.ascii	"long long unsigned int\000"
 7023      206C6F6E 
 7023      6720756E 
 7023      7369676E 
 7023      65642069 
 7024              	.LASF54:
 7025 00c6 636C6F63 		.ascii	"clockPrescaler\000"
 7025      6B507265 
 7025      7363616C 
 7025      657200
 7026              	.LASF86:
 7027 00d5 70765F65 		.ascii	"pv_eink_frame_data_t\000"
 7027      696E6B5F 
 7027      6672616D 
 7027      655F6461 
 7027      74615F74 
 7028              	.LASF4:
 7029 00ea 5F5F696E 		.ascii	"__int8_t\000"
 7029      74385F74 
 7029      00
 7030              	.LASF80:
 7031 00f3 74784275 		.ascii	"txBuf\000"
 7031      6600
 7032              	.LASF135:
 7033 00f9 50765F45 		.ascii	"Pv_EINK_DummyLine\000"
 7033      494E4B5F 
ARM GAS  C:\Users\bryan.lee\AppData\Local\Temp\ccAkWdHW.s 			page 158


 7033      44756D6D 
 7033      794C696E 
 7033      6500
 7034              	.LASF19:
 7035 010b 696E7431 		.ascii	"int16_t\000"
 7035      365F7400 
 7036              	.LASF96:
 7037 0113 50565F45 		.ascii	"PV_EINK_STAGE3\000"
 7037      494E4B5F 
 7037      53544147 
 7037      453300
 7038              	.LASF1:
 7039 0122 6C6F6E67 		.ascii	"long long int\000"
 7039      206C6F6E 
 7039      6720696E 
 7039      7400
 7040              	.LASF72:
 7041 0130 63795F73 		.ascii	"cy_stc_tcpwm_counter_config_t\000"
 7041      74635F74 
 7041      6370776D 
 7041      5F636F75 
 7041      6E746572 
 7042              	.LASF75:
 7043 014e 63795F73 		.ascii	"cy_stc_scb_spi_context\000"
 7043      74635F73 
 7043      63625F73 
 7043      70695F63 
 7043      6F6E7465 
 7044              	.LASF112:
 7045 0165 50765F45 		.ascii	"Pv_EINK_SendData\000"
 7045      494E4B5F 
 7045      53656E64 
 7045      44617461 
 7045      00
 7046              	.LASF150:
 7047 0176 43795F45 		.ascii	"Cy_EINK_ReadSPI\000"
 7047      494E4B5F 
 7047      52656164 
 7047      53504900 
 7048              	.LASF162:
 7049 0186 43795F47 		.ascii	"Cy_GPIO_Write\000"
 7049      50494F5F 
 7049      57726974 
 7049      6500
 7050              	.LASF73:
 7051 0194 63795F63 		.ascii	"cy_cb_scb_spi_handle_events_t\000"
 7051      625F7363 
 7051      625F7370 
 7051      695F6861 
 7051      6E646C65 
 7052              	.LASF11:
 7053 01b2 6C6F6E67 		.ascii	"long int\000"
 7053      20696E74 
 7053      00
 7054              	.LASF102:
 7055 01bb 7363616E 		.ascii	"scan\000"
 7055      00
ARM GAS  C:\Users\bryan.lee\AppData\Local\Temp\ccAkWdHW.s 			page 159


 7056              	.LASF142:
 7057 01c0 64617461 		.ascii	"dataLineOdd\000"
 7057      4C696E65 
 7057      4F646400 
 7058              	.LASF50:
 7059 01cc 75696E74 		.ascii	"uint8\000"
 7059      3800
 7060              	.LASF8:
 7061 01d2 73686F72 		.ascii	"short int\000"
 7061      7420696E 
 7061      7400
 7062              	.LASF20:
 7063 01dc 75696E74 		.ascii	"uint16_t\000"
 7063      31365F74 
 7063      00
 7064              	.LASF152:
 7065 01e5 43795F45 		.ascii	"Cy_EINK_TimerInit\000"
 7065      494E4B5F 
 7065      54696D65 
 7065      72496E69 
 7065      7400
 7066              	.LASF100:
 7067 01f7 64756D6D 		.ascii	"dummyData\000"
 7067      79446174 
 7067      6100
 7068              	.LASF120:
 7069 0201 74656D70 		.ascii	"temperature\000"
 7069      65726174 
 7069      75726500 
 7070              	.LASF115:
 7071 020d 50765F45 		.ascii	"Pv_EINK_ReadByte\000"
 7071      494E4B5F 
 7071      52656164 
 7071      42797465 
 7071      00
 7072              	.LASF111:
 7073 021e 64617461 		.ascii	"dataLength\000"
 7073      4C656E67 
 7073      746800
 7074              	.LASF62:
 7075 0229 63617074 		.ascii	"captureInputMode\000"
 7075      75726549 
 7075      6E707574 
 7075      4D6F6465 
 7075      00
 7076              	.LASF124:
 7077 023a 73746167 		.ascii	"stageNumber\000"
 7077      654E756D 
 7077      62657200 
 7078              	.LASF78:
 7079 0246 72784275 		.ascii	"rxBufSize\000"
 7079      6653697A 
 7079      6500
 7080              	.LASF12:
 7081 0250 5F5F7569 		.ascii	"__uint32_t\000"
 7081      6E743332 
 7081      5F7400
ARM GAS  C:\Users\bryan.lee\AppData\Local\Temp\ccAkWdHW.s 			page 160


 7082              	.LASF147:
 7083 025b 7363616E 		.ascii	"scanTable\000"
 7083      5461626C 
 7083      6500
 7084              	.LASF139:
 7085 0265 66756C6C 		.ascii	"fullUpdateTime\000"
 7085      55706461 
 7085      74655469 
 7085      6D6500
 7086              	.LASF126:
 7087 0274 74656D70 		.ascii	"tempByte\000"
 7087      42797465 
 7087      00
 7088              	.LASF7:
 7089 027d 5F5F696E 		.ascii	"__int16_t\000"
 7089      7431365F 
 7089      7400
 7090              	.LASF79:
 7091 0287 72784275 		.ascii	"rxBufIdx\000"
 7091      66496478 
 7091      00
 7092              	.LASF143:
 7093 0290 64617461 		.ascii	"dataLineScan\000"
 7093      4C696E65 
 7093      5363616E 
 7093      00
 7094              	.LASF148:
 7095 029d 6368616E 		.ascii	"channelSelect\000"
 7095      6E656C53 
 7095      656C6563 
 7095      7400
 7096              	.LASF146:
 7097 02ab 62756C6B 		.ascii	"bulkDriverPacket\000"
 7097      44726976 
 7097      65725061 
 7097      636B6574 
 7097      00
 7098              	.LASF81:
 7099 02bc 74784275 		.ascii	"txBufSize\000"
 7099      6653697A 
 7099      6500
 7100              	.LASF0:
 7101 02c6 756E7369 		.ascii	"unsigned int\000"
 7101      676E6564 
 7101      20696E74 
 7101      00
 7102              	.LASF24:
 7103 02d3 4F55545F 		.ascii	"OUT_INV\000"
 7103      494E5600 
 7104              	.LASF47:
 7105 02db 63686172 		.ascii	"char_t\000"
 7105      5F7400
 7106              	.LASF13:
 7107 02e2 6C6F6E67 		.ascii	"long unsigned int\000"
 7107      20756E73 
 7107      69676E65 
 7107      6420696E 
ARM GAS  C:\Users\bryan.lee\AppData\Local\Temp\ccAkWdHW.s 			page 161


 7107      7400
 7108              	.LASF60:
 7109 02f4 656E6162 		.ascii	"enableCompareSwap\000"
 7109      6C65436F 
 7109      6D706172 
 7109      65537761 
 7109      7000
 7110              	.LASF30:
 7111 0306 4346475F 		.ascii	"CFG_IN\000"
 7111      494E00
 7112              	.LASF26:
 7113 030d 494E5452 		.ascii	"INTR_MASK\000"
 7113      5F4D4153 
 7113      4B00
 7114              	.LASF45:
 7115 0317 5644445F 		.ascii	"VDD_INTR_SET\000"
 7115      494E5452 
 7115      5F534554 
 7115      00
 7116              	.LASF160:
 7117 0324 70657276 		.ascii	"pervasive_eink_hardware_driver.c\000"
 7117      61736976 
 7117      655F6569 
 7117      6E6B5F68 
 7117      61726477 
 7118              	.LASF110:
 7119 0345 64617461 		.ascii	"data\000"
 7119      00
 7120              	.LASF10:
 7121 034a 73686F72 		.ascii	"short unsigned int\000"
 7121      7420756E 
 7121      7369676E 
 7121      65642069 
 7121      6E7400
 7122              	.LASF27:
 7123 035d 494E5452 		.ascii	"INTR_MASKED\000"
 7123      5F4D4153 
 7123      4B454400 
 7124              	.LASF88:
 7125 0369 50565F45 		.ascii	"PV_EINK_ERROR_BUSY\000"
 7125      494E4B5F 
 7125      4552524F 
 7125      525F4255 
 7125      535900
 7126              	.LASF83:
 7127 037c 63624576 		.ascii	"cbEvents\000"
 7127      656E7473 
 7127      00
 7128              	.LASF99:
 7129 0385 65696E6B 		.ascii	"eink_lineData\000"
 7129      5F6C696E 
 7129      65446174 
 7129      6100
 7130              	.LASF94:
 7131 0393 50565F45 		.ascii	"PV_EINK_STAGE1\000"
 7131      494E4B5F 
 7131      53544147 
ARM GAS  C:\Users\bryan.lee\AppData\Local\Temp\ccAkWdHW.s 			page 162


 7131      453100
 7132              	.LASF95:
 7133 03a2 50565F45 		.ascii	"PV_EINK_STAGE2\000"
 7133      494E4B5F 
 7133      53544147 
 7133      453200
 7134              	.LASF85:
 7135 03b1 63795F73 		.ascii	"cy_stc_scb_spi_context_t\000"
 7135      74635F73 
 7135      63625F73 
 7135      70695F63 
 7135      6F6E7465 
 7136              	.LASF97:
 7137 03ca 50565F45 		.ascii	"PV_EINK_STAGE4\000"
 7137      494E4B5F 
 7137      53544147 
 7137      453400
 7138              	.LASF70:
 7139 03d9 636F756E 		.ascii	"countInputMode\000"
 7139      74496E70 
 7139      75744D6F 
 7139      646500
 7140              	.LASF67:
 7141 03e8 73746172 		.ascii	"startInput\000"
 7141      74496E70 
 7141      757400
 7142              	.LASF29:
 7143 03f3 494E5452 		.ascii	"INTR_CFG\000"
 7143      5F434647 
 7143      00
 7144              	.LASF28:
 7145 03fc 494E5452 		.ascii	"INTR_SET\000"
 7145      5F534554 
 7145      00
 7146              	.LASF109:
 7147 0405 72656741 		.ascii	"regAddr\000"
 7147      64647200 
 7148              	.LASF106:
 7149 040d 62617365 		.ascii	"base\000"
 7149      00
 7150              	.LASF98:
 7151 0412 70765F65 		.ascii	"pv_eink_stage_t\000"
 7151      696E6B5F 
 7151      73746167 
 7151      655F7400 
 7152              	.LASF41:
 7153 0422 5644445F 		.ascii	"VDD_ACTIVE\000"
 7153      41435449 
 7153      564500
 7154              	.LASF74:
 7155 042d 63795F73 		.ascii	"cy_stc_tcpwm_counter_config\000"
 7155      74635F74 
 7155      6370776D 
 7155      5F636F75 
 7155      6E746572 
 7156              	.LASF17:
 7157 0449 696E7438 		.ascii	"int8_t\000"
ARM GAS  C:\Users\bryan.lee\AppData\Local\Temp\ccAkWdHW.s 			page 163


 7157      5F7400
 7158              	.LASF141:
 7159 0450 64617461 		.ascii	"dataLineEven\000"
 7159      4C696E65 
 7159      4576656E 
 7159      00
 7160              	.LASF15:
 7161 045d 73697A65 		.ascii	"sizetype\000"
 7161      74797065 
 7161      00
 7162              	.LASF116:
 7163 0466 50765F45 		.ascii	"Pv_EINK_InitDriver\000"
 7163      494E4B5F 
 7163      496E6974 
 7163      44726976 
 7163      657200
 7164              	.LASF101:
 7165 0479 6576656E 		.ascii	"even\000"
 7165      00
 7166              	.LASF158:
 7167 047e 43795F45 		.ascii	"Cy_EINK_DetachSPI\000"
 7167      494E4B5F 
 7167      44657461 
 7167      63685350 
 7167      4900
 7168              	.LASF25:
 7169 0490 494E5452 		.ascii	"INTR\000"
 7169      00
 7170              	.LASF114:
 7171 0495 50765F45 		.ascii	"Pv_EINK_Init\000"
 7171      494E4B5F 
 7171      496E6974 
 7171      00
 7172              	.LASF129:
 7173 04a2 70726576 		.ascii	"previousImagePtr\000"
 7173      696F7573 
 7173      496D6167 
 7173      65507472 
 7173      00
 7174              	.LASF22:
 7175 04b3 4F55545F 		.ascii	"OUT_CLR\000"
 7175      434C5200 
 7176              	.LASF48:
 7177 04bb 666C6F61 		.ascii	"float\000"
 7177      7400
 7178              	.LASF34:
 7179 04c1 4346475F 		.ascii	"CFG_IN_GPIO5V\000"
 7179      494E5F47 
 7179      50494F35 
 7179      5600
 7180              	.LASF32:
 7181 04cf 4346475F 		.ascii	"CFG_SIO\000"
 7181      53494F00 
 7182              	.LASF35:
 7183 04d7 52455345 		.ascii	"RESERVED1\000"
 7183      52564544 
 7183      3100
ARM GAS  C:\Users\bryan.lee\AppData\Local\Temp\ccAkWdHW.s 			page 164


 7184              	.LASF161:
 7185 04e1 433A5C55 		.ascii	"C:\\Users\\bryan.lee\\Desktop\\PSoC-6-MCU-Pioneer-K"
 7185      73657273 
 7185      5C627279 
 7185      616E2E6C 
 7185      65655C44 
 7186 0510 6974732D 		.ascii	"its-master\\CY8CKIT-062-BLE Pioneer Kit\\CE218133_E"
 7186      6D617374 
 7186      65725C43 
 7186      5938434B 
 7186      49542D30 
 7187 0541 494E4B5F 		.ascii	"INK_CapSense\\CE218133_EINK_CapSense.cydsn\000"
 7187      43617053 
 7187      656E7365 
 7187      5C434532 
 7187      31383133 
 7188              	.LASF93:
 7189 056b 70765F65 		.ascii	"pv_eink_status_t\000"
 7189      696E6B5F 
 7189      73746174 
 7189      75735F74 
 7189      00
 7190              	.LASF89:
 7191 057c 50565F45 		.ascii	"PV_EINK_ERROR_ID\000"
 7191      494E4B5F 
 7191      4552524F 
 7191      525F4944 
 7191      00
 7192              	.LASF136:
 7193 058d 50765F45 		.ascii	"Pv_EINK_HardwarePowerOn\000"
 7193      494E4B5F 
 7193      48617264 
 7193      77617265 
 7193      506F7765 
 7194              	.LASF87:
 7195 05a5 50565F45 		.ascii	"PV_EINK_RES_OK\000"
 7195      494E4B5F 
 7195      5245535F 
 7195      4F4B00
 7196              	.LASF52:
 7197 05b4 5F426F6F 		.ascii	"_Bool\000"
 7197      6C00
 7198              	.LASF6:
 7199 05ba 756E7369 		.ascii	"unsigned char\000"
 7199      676E6564 
 7199      20636861 
 7199      7200
 7200              	.LASF132:
 7201 05c8 6E657742 		.ascii	"newByte\000"
 7201      79746500 
 7202              	.LASF105:
 7203 05d0 64726976 		.ascii	"driver_data_packet_t\000"
 7203      65725F64 
 7203      6174615F 
 7203      7061636B 
 7203      65745F74 
 7204              	.LASF140:
ARM GAS  C:\Users\bryan.lee\AppData\Local\Temp\ccAkWdHW.s 			page 165


 7205 05e5 70617274 		.ascii	"partialUpdateTime\000"
 7205      69616C55 
 7205      70646174 
 7205      6554696D 
 7205      6500
 7206              	.LASF130:
 7207 05f7 6E657749 		.ascii	"newImagePtr\000"
 7207      6D616765 
 7207      50747200 
 7208              	.LASF128:
 7209 0603 50765F45 		.ascii	"Pv_EINK_PartialStageHandler\000"
 7209      494E4B5F 
 7209      50617274 
 7209      69616C53 
 7209      74616765 
 7210              	.LASF103:
 7211 061f 6C696E65 		.ascii	"lineDataBySize\000"
 7211      44617461 
 7211      42795369 
 7211      7A6500
 7212              	.LASF127:
 7213 062e 626C6163 		.ascii	"blackOrWhiteFrame\000"
 7213      6B4F7257 
 7213      68697465 
 7213      4672616D 
 7213      6500
 7214              	.LASF131:
 7215 0640 6F6C6442 		.ascii	"oldByte\000"
 7215      79746500 
 7216              	.LASF33:
 7217 0648 52455345 		.ascii	"RESERVED\000"
 7217      52564544 
 7217      00
 7218              	.LASF123:
 7219 0651 696D6167 		.ascii	"imagePtr\000"
 7219      65507472 
 7219      00
 7220              	.LASF42:
 7221 065a 5644445F 		.ascii	"VDD_INTR\000"
 7221      494E5452 
 7221      00
 7222              	.LASF133:
 7223 0663 50765F45 		.ascii	"Pv_EINK_NothingFrame\000"
 7223      494E4B5F 
 7223      4E6F7468 
 7223      696E6746 
 7223      72616D65 
 7224              	.LASF134:
 7225 0678 62797465 		.ascii	"byteCounter\000"
 7225      436F756E 
 7225      74657200 
 7226              	.LASF108:
 7227 0684 76616C75 		.ascii	"value\000"
 7227      6500
 7228              	.LASF57:
 7229 068a 636F6D70 		.ascii	"compareOrCapture\000"
 7229      6172654F 
ARM GAS  C:\Users\bryan.lee\AppData\Local\Temp\ccAkWdHW.s 			page 166


 7229      72436170 
 7229      74757265 
 7229      00
 7230              	.LASF107:
 7231 069b 70696E4E 		.ascii	"pinNum\000"
 7231      756D00
 7232              	.LASF21:
 7233 06a2 75696E74 		.ascii	"uint32_t\000"
 7233      33325F74 
 7233      00
 7234              	.LASF156:
 7235 06ab 43795F53 		.ascii	"Cy_SysLib_Delay\000"
 7235      79734C69 
 7235      625F4465 
 7235      6C617900 
 7236              	.LASF159:
 7237 06bb 474E5520 		.ascii	"GNU C11 5.4.1 20160609 (release) [ARM/embedded-5-br"
 7237      43313120 
 7237      352E342E 
 7237      31203230 
 7237      31363036 
 7238 06ee 616E6368 		.ascii	"anch revision 237715] -mcpu=cortex-m0plus -mthumb -"
 7238      20726576 
 7238      6973696F 
 7238      6E203233 
 7238      37373135 
 7239 0721 67202D4F 		.ascii	"g -Og -ffunction-sections -ffat-lto-objects\000"
 7239      67202D66 
 7239      66756E63 
 7239      74696F6E 
 7239      2D736563 
 7240              	.LASF58:
 7241 074d 636F6D70 		.ascii	"compare0\000"
 7241      61726530 
 7241      00
 7242              	.LASF2:
 7243 0756 6C6F6E67 		.ascii	"long double\000"
 7243      20646F75 
 7243      626C6500 
 7244              	.LASF16:
 7245 0762 63686172 		.ascii	"char\000"
 7245      00
 7246              	.LASF37:
 7247 0767 494E5452 		.ascii	"INTR_CAUSE0\000"
 7247      5F434155 
 7247      53453000 
 7248              	.LASF38:
 7249 0773 494E5452 		.ascii	"INTR_CAUSE1\000"
 7249      5F434155 
 7249      53453100 
 7250              	.LASF39:
 7251 077f 494E5452 		.ascii	"INTR_CAUSE2\000"
 7251      5F434155 
 7251      53453200 
 7252              	.LASF40:
 7253 078b 494E5452 		.ascii	"INTR_CAUSE3\000"
 7253      5F434155 
ARM GAS  C:\Users\bryan.lee\AppData\Local\Temp\ccAkWdHW.s 			page 167


 7253      53453300 
 7254              	.LASF154:
 7255 0797 43795F45 		.ascii	"Cy_EINK_IsBusy\000"
 7255      494E4B5F 
 7255      49734275 
 7255      737900
 7256              	.LASF36:
 7257 07a6 4750494F 		.ascii	"GPIO_PRT_Type\000"
 7257      5F505254 
 7257      5F547970 
 7257      6500
 7258              	.LASF9:
 7259 07b4 5F5F7569 		.ascii	"__uint16_t\000"
 7259      6E743136 
 7259      5F7400
 7260              	.LASF23:
 7261 07bf 4F55545F 		.ascii	"OUT_SET\000"
 7261      53455400 
 7262              	.LASF151:
 7263 07c7 43795F45 		.ascii	"Cy_EINK_InitSPI\000"
 7263      494E4B5F 
 7263      496E6974 
 7263      53504900 
 7264              	.LASF138:
 7265 07d7 64726976 		.ascii	"driverPacket\000"
 7265      65725061 
 7265      636B6574 
 7265      00
 7266              	.LASF44:
 7267 07e4 5644445F 		.ascii	"VDD_INTR_MASKED\000"
 7267      494E5452 
 7267      5F4D4153 
 7267      4B454400 
 7268              	.LASF61:
 7269 07f4 696E7465 		.ascii	"interruptSources\000"
 7269      72727570 
 7269      74536F75 
 7269      72636573 
 7269      00
 7270              	.LASF65:
 7271 0805 72656C6F 		.ascii	"reloadInput\000"
 7271      6164496E 
 7271      70757400 
 7272              	.LASF155:
 7273 0811 43795F45 		.ascii	"Cy_EINK_TimerStop\000"
 7273      494E4B5F 
 7273      54696D65 
 7273      7253746F 
 7273      7000
 7274              	.LASF69:
 7275 0823 73746F70 		.ascii	"stopInput\000"
 7275      496E7075 
 7275      7400
 7276              	.LASF66:
 7277 082d 73746172 		.ascii	"startInputMode\000"
 7277      74496E70 
 7277      75744D6F 
ARM GAS  C:\Users\bryan.lee\AppData\Local\Temp\ccAkWdHW.s 			page 168


 7277      646500
 7278              	.LASF125:
 7279 083c 7363616E 		.ascii	"scanlineNumber\000"
 7279      6C696E65 
 7279      4E756D62 
 7279      657200
 7280              	.LASF117:
 7281 084b 64617461 		.ascii	"dataRead\000"
 7281      52656164 
 7281      00
 7282              	.LASF157:
 7283 0854 43795F45 		.ascii	"Cy_EINK_AttachSPI\000"
 7283      494E4B5F 
 7283      41747461 
 7283      63685350 
 7283      4900
 7284              	.LASF84:
 7285 0866 696E6974 		.ascii	"initKey\000"
 7285      4B657900 
 7286              	.LASF77:
 7287 086e 72784275 		.ascii	"rxBuf\000"
 7287      6600
 7288              	.LASF145:
 7289 0874 43595F45 		.ascii	"CY_EINK_SPIM_context\000"
 7289      494E4B5F 
 7289      5350494D 
 7289      5F636F6E 
 7289      74657874 
 7290              	.LASF90:
 7291 0889 50565F45 		.ascii	"PV_EINK_ERROR_BREAKAGE\000"
 7291      494E4B5F 
 7291      4552524F 
 7291      525F4252 
 7291      45414B41 
 7292              	.LASF121:
 7293 08a0 75706461 		.ascii	"updateTime\000"
 7293      74655469 
 7293      6D6500
 7294              	.LASF163:
 7295 08ab 6D656D73 		.ascii	"memset\000"
 7295      657400
 7296              	.LASF76:
 7297 08b2 73746174 		.ascii	"status\000"
 7297      757300
 7298              	.LASF119:
 7299 08b9 50765F45 		.ascii	"Pv_EINK_SetTempFactor\000"
 7299      494E4B5F 
 7299      53657454 
 7299      656D7046 
 7299      6163746F 
 7300              	.LASF18:
 7301 08cf 75696E74 		.ascii	"uint8_t\000"
 7301      385F7400 
 7302              	.LASF122:
 7303 08d7 50765F45 		.ascii	"Pv_EINK_FullStageHandler\000"
 7303      494E4B5F 
 7303      46756C6C 
ARM GAS  C:\Users\bryan.lee\AppData\Local\Temp\ccAkWdHW.s 			page 169


 7303      53746167 
 7303      6548616E 
 7304              	.LASF144:
 7305 08f0 43595F45 		.ascii	"CY_EINK_Timer_config\000"
 7305      494E4B5F 
 7305      54696D65 
 7305      725F636F 
 7305      6E666967 
 7306              	.LASF51:
 7307 0905 696E7431 		.ascii	"int16\000"
 7307      3600
 7308              	.LASF31:
 7309 090b 4346475F 		.ascii	"CFG_OUT\000"
 7309      4F555400 
 7310              	.LASF46:
 7311 0913 4750494F 		.ascii	"GPIO_Type\000"
 7311      5F547970 
 7311      6500
 7312              	.LASF64:
 7313 091d 72656C6F 		.ascii	"reloadInputMode\000"
 7313      6164496E 
 7313      7075744D 
 7313      6F646500 
 7314              	.LASF137:
 7315 092d 50765F45 		.ascii	"Pv_EINK_HardwarePowerOff\000"
 7315      494E4B5F 
 7315      48617264 
 7315      77617265 
 7315      506F7765 
 7316              	.LASF59:
 7317 0946 636F6D70 		.ascii	"compare1\000"
 7317      61726531 
 7317      00
 7318              	.LASF91:
 7319 094f 50565F45 		.ascii	"PV_EINK_ERROR_DC\000"
 7319      494E4B5F 
 7319      4552524F 
 7319      525F4443 
 7319      00
 7320              	.LASF153:
 7321 0960 43795F45 		.ascii	"Cy_EINK_GetTimeTick\000"
 7321      494E4B5F 
 7321      47657454 
 7321      696D6554 
 7321      69636B00 
 7322              	.LASF71:
 7323 0974 636F756E 		.ascii	"countInput\000"
 7323      74496E70 
 7323      757400
 7324              	.LASF49:
 7325 097f 646F7562 		.ascii	"double\000"
 7325      6C6500
 7326              	.LASF82:
 7327 0986 74784275 		.ascii	"txBufIdx\000"
 7327      66496478 
 7327      00
 7328              		.ident	"GCC: (GNU Tools for ARM Embedded Processors) 5.4.1 20160609 (release) [ARM/embedded-5-bran
ARM GAS  C:\Users\bryan.lee\AppData\Local\Temp\ccAkWdHW.s 			page 170


