ARM GAS  C:\Users\bryan.lee\AppData\Local\Temp\ccAkWdHW.s 			page 1


   1              		.syntax unified
   2              		.cpu cortex-m0plus
   3              		.fpu softvfp
   4              		.eabi_attribute 20, 1
   5              		.eabi_attribute 21, 1
   6              		.eabi_attribute 23, 3
   7              		.eabi_attribute 24, 1
   8              		.eabi_attribute 25, 1
   9              		.eabi_attribute 26, 1
  10              		.eabi_attribute 30, 1
  11              		.eabi_attribute 34, 0
  12              		.eabi_attribute 18, 4
  13              		.thumb
  14              		.syntax unified
  15              		.file	"pervasive_eink_hardware_driver.c"
  16              		.text
  17              	.Ltext0:
  18              		.cfi_sections	.debug_frame
  19              		.section	.text.Pv_EINK_SendData,"ax",%progbits
  20              		.align	2
  21              		.global	Pv_EINK_SendData
  22              		.code	16
  23              		.thumb_func
  24              		.type	Pv_EINK_SendData, %function
  25              	Pv_EINK_SendData:
  26              	.LFB453:
  27              		.file 1 "pervasive_eink_hardware_driver.c"
   1:pervasive_eink_hardware_driver.c **** /*******************************************************************************
   2:pervasive_eink_hardware_driver.c **** * Copyright (2017), Pervasive Displays Inc.
   3:pervasive_eink_hardware_driver.c **** *******************************************************************************
   4:pervasive_eink_hardware_driver.c **** *
   5:pervasive_eink_hardware_driver.c **** *  Authors: Pervasive Displays Inc.
   6:pervasive_eink_hardware_driver.c **** *
   7:pervasive_eink_hardware_driver.c **** *  Redistribution and use in source and binary forms, with or without
   8:pervasive_eink_hardware_driver.c **** *  modification, are permitted provided that the following conditions
   9:pervasive_eink_hardware_driver.c **** *  are met:
  10:pervasive_eink_hardware_driver.c **** *
  11:pervasive_eink_hardware_driver.c **** *  1. Redistributions of source code must retain the above copyright
  12:pervasive_eink_hardware_driver.c **** *     notice, this list of conditions and the following disclaimer.
  13:pervasive_eink_hardware_driver.c **** *  2. Redistributions in binary form must reproduce the above copyright
  14:pervasive_eink_hardware_driver.c **** *     notice, this list of conditions and the following disclaimer in
  15:pervasive_eink_hardware_driver.c **** *     the documentation and/or other materials provided with the
  16:pervasive_eink_hardware_driver.c **** *     distribution.
  17:pervasive_eink_hardware_driver.c **** *
  18:pervasive_eink_hardware_driver.c **** *  THIS SOFTWARE IS PROVIDED BY THE COPYRIGHT HOLDERS AND CONTRIBUTORS
  19:pervasive_eink_hardware_driver.c **** *  "AS IS" AND ANY EXPRESS OR IMPLIED WARRANTIES, INCLUDING, BUT NOT
  20:pervasive_eink_hardware_driver.c **** *  LIMITED TO, THE IMPLIED WARRANTIES OF MERCHANTABILITY AND FITNESS FOR
  21:pervasive_eink_hardware_driver.c **** *  A PARTICULAR PURPOSE ARE DISCLAIMED. IN NO EVENT SHALL THE COPYRIGHT
  22:pervasive_eink_hardware_driver.c **** *  OWNER OR CONTRIBUTORS BE LIABLE FOR ANY DIRECT, INDIRECT, INCIDENTAL,
  23:pervasive_eink_hardware_driver.c **** *  SPECIAL, EXEMPLARY, OR CONSEQUENTIAL DAMAGES (INCLUDING, BUT NOT
  24:pervasive_eink_hardware_driver.c **** *  LIMITED TO, PROCUREMENT OF SUBSTITUTE GOODS OR SERVICES; LOSS OF USE,
  25:pervasive_eink_hardware_driver.c **** *  DATA, OR PROFITS; OR BUSINESS INTERRUPTION) HOWEVER CAUSED AND ON ANY
  26:pervasive_eink_hardware_driver.c **** *  THEORY OF LIABILITY, WHETHER IN CONTRACT, STRICT LIABILITY, OR TORT
  27:pervasive_eink_hardware_driver.c **** *  (INCLUDING NEGLIGENCE OR OTHERWISE) ARISING IN ANY WAY OUT OF THE USE
  28:pervasive_eink_hardware_driver.c **** *  OF THIS SOFTWARE, EVEN IF ADVISED OF THE POSSIBILITY OF SUCH DAMAGE.
  29:pervasive_eink_hardware_driver.c **** *******************************************************************************/
  30:pervasive_eink_hardware_driver.c **** /******************************************************************************
ARM GAS  C:\Users\bryan.lee\AppData\Local\Temp\ccAkWdHW.s 			page 2


  31:pervasive_eink_hardware_driver.c **** * For the details of E-INK display hardware and driver, see the 2.7 inch display
  32:pervasive_eink_hardware_driver.c **** * product specification and G2 COG driver interface documents available at the
  33:pervasive_eink_hardware_driver.c **** * following location:
  34:pervasive_eink_hardware_driver.c **** * http://www.pervasivedisplays.com/products/271
  35:pervasive_eink_hardware_driver.c **** *******************************************************************************/
  36:pervasive_eink_hardware_driver.c **** 
  37:pervasive_eink_hardware_driver.c **** /* Header file includes */
  38:pervasive_eink_hardware_driver.c **** #include <string.h>
  39:pervasive_eink_hardware_driver.c **** #include "pervasive_eink_hardware_driver.h"
  40:pervasive_eink_hardware_driver.c **** 
  41:pervasive_eink_hardware_driver.c **** /* Macro for the dummy byte used in the line data */
  42:pervasive_eink_hardware_driver.c **** #define PV_EINK_DUMMY_BYTE     (uint8_t)(0x00u)
  43:pervasive_eink_hardware_driver.c **** 
  44:pervasive_eink_hardware_driver.c **** /* Data used to initialize the scan bytes */
  45:pervasive_eink_hardware_driver.c **** #define PV_EINK_SCAN_BYTE_INIT (uint8_t)(0x00u)
  46:pervasive_eink_hardware_driver.c **** 
  47:pervasive_eink_hardware_driver.c **** /* Line data structure of 2.7" display. Refer to driver document Section 5.1 
  48:pervasive_eink_hardware_driver.c ****    for details */
  49:pervasive_eink_hardware_driver.c **** struct eink_lineData
  50:pervasive_eink_hardware_driver.c **** {
  51:pervasive_eink_hardware_driver.c ****     /*  Dummy byte (0x00) */
  52:pervasive_eink_hardware_driver.c ****     uint8_t dummyData;
  53:pervasive_eink_hardware_driver.c **** 
  54:pervasive_eink_hardware_driver.c ****     /*  2.7" even byte array */
  55:pervasive_eink_hardware_driver.c ****     uint8_t even[PV_EINK_HORIZONTAL_SIZE];
  56:pervasive_eink_hardware_driver.c **** 
  57:pervasive_eink_hardware_driver.c ****     /*  2.7" scan byte array */
  58:pervasive_eink_hardware_driver.c ****     uint8_t scan[PV_EINK_SCAN_LINE_SIZE];
  59:pervasive_eink_hardware_driver.c **** 
  60:pervasive_eink_hardware_driver.c ****     /*  2.7" odd byte array */
  61:pervasive_eink_hardware_driver.c ****     uint8_t odd[PV_EINK_HORIZONTAL_SIZE];
  62:pervasive_eink_hardware_driver.c **** };
  63:pervasive_eink_hardware_driver.c **** 
  64:pervasive_eink_hardware_driver.c **** /* Packet structure of a line data */
  65:pervasive_eink_hardware_driver.c **** typedef union
  66:pervasive_eink_hardware_driver.c **** {
  67:pervasive_eink_hardware_driver.c ****     /* Line data structure of 2.7" E-INK display */
  68:pervasive_eink_hardware_driver.c ****     struct eink_lineData    lineDataBySize;
  69:pervasive_eink_hardware_driver.c **** 
  70:pervasive_eink_hardware_driver.c ****     /* Line buffer equal to the data line size */
  71:pervasive_eink_hardware_driver.c ****     uint8_t                 lineBuffer[PV_EINK_DATA_LINE_SIZE];
  72:pervasive_eink_hardware_driver.c **** 
  73:pervasive_eink_hardware_driver.c ****     /* The maximum line buffer data size as length */
  74:pervasive_eink_hardware_driver.c **** }   driver_data_packet_t;
  75:pervasive_eink_hardware_driver.c **** 
  76:pervasive_eink_hardware_driver.c **** /* Variable that stores the packets for one full drive frame. This variable
  77:pervasive_eink_hardware_driver.c ****    is used for full and partial updates */
  78:pervasive_eink_hardware_driver.c **** driver_data_packet_t  bulkDriverPacket[PV_EINK_VERTICAL_SIZE];
  79:pervasive_eink_hardware_driver.c **** 
  80:pervasive_eink_hardware_driver.c **** /* Variable that stores a single line data. This variable is used to prepare 
  81:pervasive_eink_hardware_driver.c ****    dummy frames */
  82:pervasive_eink_hardware_driver.c **** driver_data_packet_t  static driverPacket;
  83:pervasive_eink_hardware_driver.c **** 
  84:pervasive_eink_hardware_driver.c **** /* Scan table for the four stages of display update*/
  85:pervasive_eink_hardware_driver.c **** uint8_t const               scanTable[PV_EINK_SCAN_TABLE_SIZE] =
  86:pervasive_eink_hardware_driver.c ****                             PV_EINK_SCAN_TABLE_DATA;
  87:pervasive_eink_hardware_driver.c **** 
ARM GAS  C:\Users\bryan.lee\AppData\Local\Temp\ccAkWdHW.s 			page 3


  88:pervasive_eink_hardware_driver.c **** /* The SPI register addresses for Channel Select */
  89:pervasive_eink_hardware_driver.c **** uint8_t const               channelSelect[PV_EINK_CHANNEL_SEL_SIZE] =
  90:pervasive_eink_hardware_driver.c ****                             PV_EINK_CHANNEL_SEL_DATA;
  91:pervasive_eink_hardware_driver.c **** 
  92:pervasive_eink_hardware_driver.c **** /* Variables that store the driver timing information */
  93:pervasive_eink_hardware_driver.c **** uint16_t static             fullUpdateTime;
  94:pervasive_eink_hardware_driver.c **** uint16_t static             partialUpdateTime;
  95:pervasive_eink_hardware_driver.c **** 
  96:pervasive_eink_hardware_driver.c **** /* Pointers for the data structures used by the driver */
  97:pervasive_eink_hardware_driver.c **** uint8_t static*             dataLineEven;
  98:pervasive_eink_hardware_driver.c **** uint8_t static*             dataLineOdd;
  99:pervasive_eink_hardware_driver.c **** uint8_t static*             dataLineScan;
 100:pervasive_eink_hardware_driver.c **** 
 101:pervasive_eink_hardware_driver.c **** /*******************************************************************************
 102:pervasive_eink_hardware_driver.c **** * Function Name: void Pv_EINK_SendData(uint8_t regAddr, uint8_t* data, 
 103:pervasive_eink_hardware_driver.c **** *                                   uint16_t dataLength)
 104:pervasive_eink_hardware_driver.c **** ********************************************************************************
 105:pervasive_eink_hardware_driver.c **** *
 106:pervasive_eink_hardware_driver.c **** * Summary: Sends an array of data to the E-INK driver.
 107:pervasive_eink_hardware_driver.c **** *
 108:pervasive_eink_hardware_driver.c **** * Parameters:
 109:pervasive_eink_hardware_driver.c **** *  uint8_t regAddr    : Display driver register address
 110:pervasive_eink_hardware_driver.c **** *  uint8_t* data      : Pointer to the data array that will be sent to the driver
 111:pervasive_eink_hardware_driver.c **** *  uint16_t dataLength: Length of the data array
 112:pervasive_eink_hardware_driver.c **** *
 113:pervasive_eink_hardware_driver.c **** * Return:
 114:pervasive_eink_hardware_driver.c **** *  None
 115:pervasive_eink_hardware_driver.c **** *
 116:pervasive_eink_hardware_driver.c **** * Side Effects:
 117:pervasive_eink_hardware_driver.c **** *  None
 118:pervasive_eink_hardware_driver.c **** *******************************************************************************/
 119:pervasive_eink_hardware_driver.c **** void Pv_EINK_SendData(uint8_t regAddr, uint8_t* data, uint16_t dataLength)
 120:pervasive_eink_hardware_driver.c **** {
  28              		.loc 1 120 0
  29              		.cfi_startproc
  30              		@ args = 0, pretend = 0, frame = 8
  31              		@ frame_needed = 0, uses_anonymous_args = 0
  32              	.LVL0:
  33 0000 F0B5     		push	{r4, r5, r6, r7, lr}
  34              		.cfi_def_cfa_offset 20
  35              		.cfi_offset 4, -20
  36              		.cfi_offset 5, -16
  37              		.cfi_offset 6, -12
  38              		.cfi_offset 7, -8
  39              		.cfi_offset 14, -4
  40 0002 83B0     		sub	sp, sp, #12
  41              		.cfi_def_cfa_offset 32
  42 0004 0190     		str	r0, [sp, #4]
  43 0006 0E00     		movs	r6, r1
  44 0008 1500     		movs	r5, r2
  45              	.LVL1:
  46              	.LBB58:
  47              	.LBB59:
  48              		.file 2 "Generated_Source\\PSoC6\\pdl\\drivers/peripheral/gpio/cy_gpio.h"
   1:Generated_Source\PSoC6\pdl\drivers/peripheral/gpio/cy_gpio.h **** /***************************************************************************//**
   2:Generated_Source\PSoC6\pdl\drivers/peripheral/gpio/cy_gpio.h **** * \file cy_gpio.h
   3:Generated_Source\PSoC6\pdl\drivers/peripheral/gpio/cy_gpio.h **** * \version 1.10.1
ARM GAS  C:\Users\bryan.lee\AppData\Local\Temp\ccAkWdHW.s 			page 4


   4:Generated_Source\PSoC6\pdl\drivers/peripheral/gpio/cy_gpio.h **** *
   5:Generated_Source\PSoC6\pdl\drivers/peripheral/gpio/cy_gpio.h **** * \brief
   6:Generated_Source\PSoC6\pdl\drivers/peripheral/gpio/cy_gpio.h **** * Provides an API declaration of the GPIO driver
   7:Generated_Source\PSoC6\pdl\drivers/peripheral/gpio/cy_gpio.h **** *
   8:Generated_Source\PSoC6\pdl\drivers/peripheral/gpio/cy_gpio.h **** ********************************************************************************
   9:Generated_Source\PSoC6\pdl\drivers/peripheral/gpio/cy_gpio.h **** * \copyright
  10:Generated_Source\PSoC6\pdl\drivers/peripheral/gpio/cy_gpio.h **** * Copyright 2016-2018, Cypress Semiconductor Corporation. All rights reserved.
  11:Generated_Source\PSoC6\pdl\drivers/peripheral/gpio/cy_gpio.h **** * You may use this file only in accordance with the license, terms, conditions,
  12:Generated_Source\PSoC6\pdl\drivers/peripheral/gpio/cy_gpio.h **** * disclaimers, and limitations in the end user license agreement accompanying
  13:Generated_Source\PSoC6\pdl\drivers/peripheral/gpio/cy_gpio.h **** * the software package with which this file was provided.
  14:Generated_Source\PSoC6\pdl\drivers/peripheral/gpio/cy_gpio.h **** *******************************************************************************/
  15:Generated_Source\PSoC6\pdl\drivers/peripheral/gpio/cy_gpio.h **** 
  16:Generated_Source\PSoC6\pdl\drivers/peripheral/gpio/cy_gpio.h **** /**
  17:Generated_Source\PSoC6\pdl\drivers/peripheral/gpio/cy_gpio.h **** * \defgroup group_gpio General Purpose Input Output (GPIO)
  18:Generated_Source\PSoC6\pdl\drivers/peripheral/gpio/cy_gpio.h **** * \{
  19:Generated_Source\PSoC6\pdl\drivers/peripheral/gpio/cy_gpio.h **** * The GPIO driver provides an API to configure and access device Input/Output pins.
  20:Generated_Source\PSoC6\pdl\drivers/peripheral/gpio/cy_gpio.h **** * IO pins include all general purpose types such as GPIO, SIO, HSIO, AUXIO, and
  21:Generated_Source\PSoC6\pdl\drivers/peripheral/gpio/cy_gpio.h **** * their variants.
  22:Generated_Source\PSoC6\pdl\drivers/peripheral/gpio/cy_gpio.h **** *
  23:Generated_Source\PSoC6\pdl\drivers/peripheral/gpio/cy_gpio.h **** * Initialization can be performed either at the port level or by configuring the
  24:Generated_Source\PSoC6\pdl\drivers/peripheral/gpio/cy_gpio.h **** * individual pins. For efficient use of code space, port
  25:Generated_Source\PSoC6\pdl\drivers/peripheral/gpio/cy_gpio.h **** * configuration should be used in the field. Refer to the product device header files 
  26:Generated_Source\PSoC6\pdl\drivers/peripheral/gpio/cy_gpio.h **** * for the list of supported ports and pins.
  27:Generated_Source\PSoC6\pdl\drivers/peripheral/gpio/cy_gpio.h **** * 
  28:Generated_Source\PSoC6\pdl\drivers/peripheral/gpio/cy_gpio.h **** * - Single pin configuration is performed by using \ref Cy_GPIO_Pin_FastInit 
  29:Generated_Source\PSoC6\pdl\drivers/peripheral/gpio/cy_gpio.h **** *   (provide specific values) or \ref Cy_GPIO_Pin_Init (provide a filled
  30:Generated_Source\PSoC6\pdl\drivers/peripheral/gpio/cy_gpio.h **** *   cy_stc_gpio_pin_config_t structure).
  31:Generated_Source\PSoC6\pdl\drivers/peripheral/gpio/cy_gpio.h **** * - An entire port can be configured using \ref Cy_GPIO_Port_Init. Provide a filled 
  32:Generated_Source\PSoC6\pdl\drivers/peripheral/gpio/cy_gpio.h **** *   cy_stc_gpio_prt_config_t structure. The values in the structure are 
  33:Generated_Source\PSoC6\pdl\drivers/peripheral/gpio/cy_gpio.h **** *   bitfields representing the desired value for each pin in the port.
  34:Generated_Source\PSoC6\pdl\drivers/peripheral/gpio/cy_gpio.h **** * - Pin configuration and management is based on the port address and pin number.
  35:Generated_Source\PSoC6\pdl\drivers/peripheral/gpio/cy_gpio.h **** *   \ref Cy_GPIO_PortToAddr function can optionally be used to calculate the port
  36:Generated_Source\PSoC6\pdl\drivers/peripheral/gpio/cy_gpio.h **** *   address from the port number at run-time.
  37:Generated_Source\PSoC6\pdl\drivers/peripheral/gpio/cy_gpio.h **** *
  38:Generated_Source\PSoC6\pdl\drivers/peripheral/gpio/cy_gpio.h **** * Once the pin/port initialization is complete, each pin can be accessed by 
  39:Generated_Source\PSoC6\pdl\drivers/peripheral/gpio/cy_gpio.h **** * specifying the port (GPIO_PRT_Type) and the pin (0-7) in the provided API 
  40:Generated_Source\PSoC6\pdl\drivers/peripheral/gpio/cy_gpio.h **** * functions.
  41:Generated_Source\PSoC6\pdl\drivers/peripheral/gpio/cy_gpio.h **** *
  42:Generated_Source\PSoC6\pdl\drivers/peripheral/gpio/cy_gpio.h **** * \section group_gpio_configuration Configuration Considerations
  43:Generated_Source\PSoC6\pdl\drivers/peripheral/gpio/cy_gpio.h **** *
  44:Generated_Source\PSoC6\pdl\drivers/peripheral/gpio/cy_gpio.h **** * 1. Pin multiplexing is controlled through the High-Speed IO Matrix (HSIOM) selection.
  45:Generated_Source\PSoC6\pdl\drivers/peripheral/gpio/cy_gpio.h **** *    This allows the pin to connect to signal sources/sinks throughout the device,
  46:Generated_Source\PSoC6\pdl\drivers/peripheral/gpio/cy_gpio.h **** *    as defined by the pin HSIOM selection options (en_hsiom_sel_t).
  47:Generated_Source\PSoC6\pdl\drivers/peripheral/gpio/cy_gpio.h **** * 2. All pins are initialized to High-Z drive mode with HSIOM connected to CPU (SW
  48:Generated_Source\PSoC6\pdl\drivers/peripheral/gpio/cy_gpio.h **** *    control digital pin only) at Power-On-Reset(POR).
  49:Generated_Source\PSoC6\pdl\drivers/peripheral/gpio/cy_gpio.h **** * 3. Some API functions perform read-modify-write operations on shared port
  50:Generated_Source\PSoC6\pdl\drivers/peripheral/gpio/cy_gpio.h **** *    registers. These functions are not thread safe and care must be taken when
  51:Generated_Source\PSoC6\pdl\drivers/peripheral/gpio/cy_gpio.h **** *    called by the application.
  52:Generated_Source\PSoC6\pdl\drivers/peripheral/gpio/cy_gpio.h **** *
  53:Generated_Source\PSoC6\pdl\drivers/peripheral/gpio/cy_gpio.h **** * Multiple pins on a port can be updated using direct port register writes with an
  54:Generated_Source\PSoC6\pdl\drivers/peripheral/gpio/cy_gpio.h **** * appropriate port mask. An example is shown below, highlighting the different ways of 
  55:Generated_Source\PSoC6\pdl\drivers/peripheral/gpio/cy_gpio.h **** * configuring Port 1 pins using,
  56:Generated_Source\PSoC6\pdl\drivers/peripheral/gpio/cy_gpio.h **** * 
  57:Generated_Source\PSoC6\pdl\drivers/peripheral/gpio/cy_gpio.h **** * - Port output data register
  58:Generated_Source\PSoC6\pdl\drivers/peripheral/gpio/cy_gpio.h **** * - Port output data set register
  59:Generated_Source\PSoC6\pdl\drivers/peripheral/gpio/cy_gpio.h **** * - Port output data clear register
  60:Generated_Source\PSoC6\pdl\drivers/peripheral/gpio/cy_gpio.h **** *
ARM GAS  C:\Users\bryan.lee\AppData\Local\Temp\ccAkWdHW.s 			page 5


  61:Generated_Source\PSoC6\pdl\drivers/peripheral/gpio/cy_gpio.h **** * \snippet gpio/gpio_v1_10_sut_01.cydsn/main_cm4.c Cy_GPIO_Snippet
  62:Generated_Source\PSoC6\pdl\drivers/peripheral/gpio/cy_gpio.h **** *
  63:Generated_Source\PSoC6\pdl\drivers/peripheral/gpio/cy_gpio.h **** * \section group_gpio_more_information More Information
  64:Generated_Source\PSoC6\pdl\drivers/peripheral/gpio/cy_gpio.h **** *
  65:Generated_Source\PSoC6\pdl\drivers/peripheral/gpio/cy_gpio.h **** * Refer to the technical reference manual (TRM) and the device datasheet.
  66:Generated_Source\PSoC6\pdl\drivers/peripheral/gpio/cy_gpio.h **** *
  67:Generated_Source\PSoC6\pdl\drivers/peripheral/gpio/cy_gpio.h **** * \section group_gpio_MISRA MISRA-C Compliance]
  68:Generated_Source\PSoC6\pdl\drivers/peripheral/gpio/cy_gpio.h **** * <table class="doxtable">
  69:Generated_Source\PSoC6\pdl\drivers/peripheral/gpio/cy_gpio.h **** *   <tr>
  70:Generated_Source\PSoC6\pdl\drivers/peripheral/gpio/cy_gpio.h **** *     <th>MISRA Rule</th>
  71:Generated_Source\PSoC6\pdl\drivers/peripheral/gpio/cy_gpio.h **** *     <th>Rule Class (Required/Advisory)</th>
  72:Generated_Source\PSoC6\pdl\drivers/peripheral/gpio/cy_gpio.h **** *     <th>Rule Description</th>
  73:Generated_Source\PSoC6\pdl\drivers/peripheral/gpio/cy_gpio.h **** *     <th>Description of Deviation(s)</th>
  74:Generated_Source\PSoC6\pdl\drivers/peripheral/gpio/cy_gpio.h **** *   </tr>
  75:Generated_Source\PSoC6\pdl\drivers/peripheral/gpio/cy_gpio.h **** *   <tr>
  76:Generated_Source\PSoC6\pdl\drivers/peripheral/gpio/cy_gpio.h **** *     <td>16.7</td>
  77:Generated_Source\PSoC6\pdl\drivers/peripheral/gpio/cy_gpio.h **** *     <td>A</td>
  78:Generated_Source\PSoC6\pdl\drivers/peripheral/gpio/cy_gpio.h **** *     <td>A pointer parameter in a function prototype should be declared as pointer 
  79:Generated_Source\PSoC6\pdl\drivers/peripheral/gpio/cy_gpio.h **** *         to const if the pointer is not used to modify the addressed object.</td>
  80:Generated_Source\PSoC6\pdl\drivers/peripheral/gpio/cy_gpio.h **** *     <td>The objects pointed to by the base addresses of the GPIO port are not always modified.
  81:Generated_Source\PSoC6\pdl\drivers/peripheral/gpio/cy_gpio.h **** *         While a const qualifier can be used in select scenarios, it brings little benefit
  82:Generated_Source\PSoC6\pdl\drivers/peripheral/gpio/cy_gpio.h **** *         in adding this to the affected functions. </td>
  83:Generated_Source\PSoC6\pdl\drivers/peripheral/gpio/cy_gpio.h **** *   </tr>
  84:Generated_Source\PSoC6\pdl\drivers/peripheral/gpio/cy_gpio.h **** * </table>
  85:Generated_Source\PSoC6\pdl\drivers/peripheral/gpio/cy_gpio.h **** *
  86:Generated_Source\PSoC6\pdl\drivers/peripheral/gpio/cy_gpio.h **** * \section group_gpio_changelog Changelog
  87:Generated_Source\PSoC6\pdl\drivers/peripheral/gpio/cy_gpio.h **** * <table class="doxtable">
  88:Generated_Source\PSoC6\pdl\drivers/peripheral/gpio/cy_gpio.h **** *   <tr><th>Version</th><th>Changes</th><th>Reason for Change</th></tr>
  89:Generated_Source\PSoC6\pdl\drivers/peripheral/gpio/cy_gpio.h **** *   <tr>
  90:Generated_Source\PSoC6\pdl\drivers/peripheral/gpio/cy_gpio.h **** *     <td>1.10.1</td>
  91:Generated_Source\PSoC6\pdl\drivers/peripheral/gpio/cy_gpio.h **** *     <td>Updated description for the functions: \ref Cy_GPIO_GetInterruptStatus, 
  92:Generated_Source\PSoC6\pdl\drivers/peripheral/gpio/cy_gpio.h **** *         \ref Cy_GPIO_GetInterruptMask, \ref Cy_GPIO_GetInterruptStatusMasked.
  93:Generated_Source\PSoC6\pdl\drivers/peripheral/gpio/cy_gpio.h **** *         Minor documentation edits.
  94:Generated_Source\PSoC6\pdl\drivers/peripheral/gpio/cy_gpio.h **** *     </td>
  95:Generated_Source\PSoC6\pdl\drivers/peripheral/gpio/cy_gpio.h **** *     <td>Documentation update and clarification</td>
  96:Generated_Source\PSoC6\pdl\drivers/peripheral/gpio/cy_gpio.h **** *   </tr>
  97:Generated_Source\PSoC6\pdl\drivers/peripheral/gpio/cy_gpio.h **** *   <tr>
  98:Generated_Source\PSoC6\pdl\drivers/peripheral/gpio/cy_gpio.h **** *     <td>1.10</td>
  99:Generated_Source\PSoC6\pdl\drivers/peripheral/gpio/cy_gpio.h **** *     <td>Added input parameter validation to the API functions</td>
 100:Generated_Source\PSoC6\pdl\drivers/peripheral/gpio/cy_gpio.h **** *     <td></td>
 101:Generated_Source\PSoC6\pdl\drivers/peripheral/gpio/cy_gpio.h **** *   </tr>
 102:Generated_Source\PSoC6\pdl\drivers/peripheral/gpio/cy_gpio.h **** *   <tr>
 103:Generated_Source\PSoC6\pdl\drivers/peripheral/gpio/cy_gpio.h **** *     <td>1.0</td>
 104:Generated_Source\PSoC6\pdl\drivers/peripheral/gpio/cy_gpio.h **** *     <td>Initial version</td>
 105:Generated_Source\PSoC6\pdl\drivers/peripheral/gpio/cy_gpio.h **** *     <td></td>
 106:Generated_Source\PSoC6\pdl\drivers/peripheral/gpio/cy_gpio.h **** *   </tr>
 107:Generated_Source\PSoC6\pdl\drivers/peripheral/gpio/cy_gpio.h **** * </table>
 108:Generated_Source\PSoC6\pdl\drivers/peripheral/gpio/cy_gpio.h **** *
 109:Generated_Source\PSoC6\pdl\drivers/peripheral/gpio/cy_gpio.h **** * \defgroup group_gpio_macros Macros
 110:Generated_Source\PSoC6\pdl\drivers/peripheral/gpio/cy_gpio.h **** * \defgroup group_gpio_functions Functions
 111:Generated_Source\PSoC6\pdl\drivers/peripheral/gpio/cy_gpio.h **** * \{
 112:Generated_Source\PSoC6\pdl\drivers/peripheral/gpio/cy_gpio.h **** *   \defgroup group_gpio_functions_init       Initialization Functions
 113:Generated_Source\PSoC6\pdl\drivers/peripheral/gpio/cy_gpio.h **** *   \defgroup group_gpio_functions_gpio       GPIO Functions
 114:Generated_Source\PSoC6\pdl\drivers/peripheral/gpio/cy_gpio.h **** *   \defgroup group_gpio_functions_sio        SIO Functions
 115:Generated_Source\PSoC6\pdl\drivers/peripheral/gpio/cy_gpio.h **** *   \defgroup group_gpio_functions_interrupt  Port Interrupt Functions
 116:Generated_Source\PSoC6\pdl\drivers/peripheral/gpio/cy_gpio.h **** * \}
 117:Generated_Source\PSoC6\pdl\drivers/peripheral/gpio/cy_gpio.h **** * \defgroup group_gpio_data_structures Data Structures
ARM GAS  C:\Users\bryan.lee\AppData\Local\Temp\ccAkWdHW.s 			page 6


 118:Generated_Source\PSoC6\pdl\drivers/peripheral/gpio/cy_gpio.h **** * \defgroup group_gpio_enums Enumerated Types
 119:Generated_Source\PSoC6\pdl\drivers/peripheral/gpio/cy_gpio.h **** */
 120:Generated_Source\PSoC6\pdl\drivers/peripheral/gpio/cy_gpio.h **** 
 121:Generated_Source\PSoC6\pdl\drivers/peripheral/gpio/cy_gpio.h **** #if !defined(CY_GPIO_H)
 122:Generated_Source\PSoC6\pdl\drivers/peripheral/gpio/cy_gpio.h **** #define CY_GPIO_H
 123:Generated_Source\PSoC6\pdl\drivers/peripheral/gpio/cy_gpio.h **** 
 124:Generated_Source\PSoC6\pdl\drivers/peripheral/gpio/cy_gpio.h **** #include <stddef.h>
 125:Generated_Source\PSoC6\pdl\drivers/peripheral/gpio/cy_gpio.h **** #include "syslib/cy_syslib.h"
 126:Generated_Source\PSoC6\pdl\drivers/peripheral/gpio/cy_gpio.h **** #include "cy_device_headers.h"
 127:Generated_Source\PSoC6\pdl\drivers/peripheral/gpio/cy_gpio.h **** 
 128:Generated_Source\PSoC6\pdl\drivers/peripheral/gpio/cy_gpio.h **** #if defined(__cplusplus)
 129:Generated_Source\PSoC6\pdl\drivers/peripheral/gpio/cy_gpio.h **** extern "C" {
 130:Generated_Source\PSoC6\pdl\drivers/peripheral/gpio/cy_gpio.h **** #endif
 131:Generated_Source\PSoC6\pdl\drivers/peripheral/gpio/cy_gpio.h **** 
 132:Generated_Source\PSoC6\pdl\drivers/peripheral/gpio/cy_gpio.h **** /** \addtogroup group_gpio_macros
 133:Generated_Source\PSoC6\pdl\drivers/peripheral/gpio/cy_gpio.h **** * \{
 134:Generated_Source\PSoC6\pdl\drivers/peripheral/gpio/cy_gpio.h **** */
 135:Generated_Source\PSoC6\pdl\drivers/peripheral/gpio/cy_gpio.h **** 
 136:Generated_Source\PSoC6\pdl\drivers/peripheral/gpio/cy_gpio.h **** /** Driver major version */
 137:Generated_Source\PSoC6\pdl\drivers/peripheral/gpio/cy_gpio.h **** #define CY_GPIO_DRV_VERSION_MAJOR       1
 138:Generated_Source\PSoC6\pdl\drivers/peripheral/gpio/cy_gpio.h **** 
 139:Generated_Source\PSoC6\pdl\drivers/peripheral/gpio/cy_gpio.h **** /** Driver minor version */
 140:Generated_Source\PSoC6\pdl\drivers/peripheral/gpio/cy_gpio.h **** #define CY_GPIO_DRV_VERSION_MINOR       10
 141:Generated_Source\PSoC6\pdl\drivers/peripheral/gpio/cy_gpio.h **** 
 142:Generated_Source\PSoC6\pdl\drivers/peripheral/gpio/cy_gpio.h **** /** GPIO driver ID */
 143:Generated_Source\PSoC6\pdl\drivers/peripheral/gpio/cy_gpio.h **** #define CY_GPIO_ID CY_PDL_DRV_ID(0x16u)
 144:Generated_Source\PSoC6\pdl\drivers/peripheral/gpio/cy_gpio.h **** 
 145:Generated_Source\PSoC6\pdl\drivers/peripheral/gpio/cy_gpio.h **** /** \} group_gpio_macros */
 146:Generated_Source\PSoC6\pdl\drivers/peripheral/gpio/cy_gpio.h **** 
 147:Generated_Source\PSoC6\pdl\drivers/peripheral/gpio/cy_gpio.h **** 
 148:Generated_Source\PSoC6\pdl\drivers/peripheral/gpio/cy_gpio.h **** /***************************************
 149:Generated_Source\PSoC6\pdl\drivers/peripheral/gpio/cy_gpio.h **** *       Enumerations
 150:Generated_Source\PSoC6\pdl\drivers/peripheral/gpio/cy_gpio.h **** ***************************************/
 151:Generated_Source\PSoC6\pdl\drivers/peripheral/gpio/cy_gpio.h **** /**
 152:Generated_Source\PSoC6\pdl\drivers/peripheral/gpio/cy_gpio.h **** * \addtogroup group_gpio_enums
 153:Generated_Source\PSoC6\pdl\drivers/peripheral/gpio/cy_gpio.h **** * \{
 154:Generated_Source\PSoC6\pdl\drivers/peripheral/gpio/cy_gpio.h **** */
 155:Generated_Source\PSoC6\pdl\drivers/peripheral/gpio/cy_gpio.h **** 
 156:Generated_Source\PSoC6\pdl\drivers/peripheral/gpio/cy_gpio.h **** /**
 157:Generated_Source\PSoC6\pdl\drivers/peripheral/gpio/cy_gpio.h **** * GPIO Driver error codes
 158:Generated_Source\PSoC6\pdl\drivers/peripheral/gpio/cy_gpio.h **** */
 159:Generated_Source\PSoC6\pdl\drivers/peripheral/gpio/cy_gpio.h **** typedef enum 
 160:Generated_Source\PSoC6\pdl\drivers/peripheral/gpio/cy_gpio.h **** {
 161:Generated_Source\PSoC6\pdl\drivers/peripheral/gpio/cy_gpio.h ****     CY_GPIO_SUCCESS   = 0x00u,                                    /**< Returned successful */
 162:Generated_Source\PSoC6\pdl\drivers/peripheral/gpio/cy_gpio.h ****     CY_GPIO_BAD_PARAM = CY_GPIO_ID | CY_PDL_STATUS_ERROR | 0x01u, /**< Bad parameter was passed */
 163:Generated_Source\PSoC6\pdl\drivers/peripheral/gpio/cy_gpio.h **** } cy_en_gpio_status_t;
 164:Generated_Source\PSoC6\pdl\drivers/peripheral/gpio/cy_gpio.h **** 
 165:Generated_Source\PSoC6\pdl\drivers/peripheral/gpio/cy_gpio.h **** /** \} group_gpio_enums */
 166:Generated_Source\PSoC6\pdl\drivers/peripheral/gpio/cy_gpio.h **** 
 167:Generated_Source\PSoC6\pdl\drivers/peripheral/gpio/cy_gpio.h **** 
 168:Generated_Source\PSoC6\pdl\drivers/peripheral/gpio/cy_gpio.h **** /***************************************
 169:Generated_Source\PSoC6\pdl\drivers/peripheral/gpio/cy_gpio.h **** *       Configuration Structures
 170:Generated_Source\PSoC6\pdl\drivers/peripheral/gpio/cy_gpio.h **** ***************************************/
 171:Generated_Source\PSoC6\pdl\drivers/peripheral/gpio/cy_gpio.h **** 
 172:Generated_Source\PSoC6\pdl\drivers/peripheral/gpio/cy_gpio.h **** /**
 173:Generated_Source\PSoC6\pdl\drivers/peripheral/gpio/cy_gpio.h **** * \addtogroup group_gpio_data_structures
 174:Generated_Source\PSoC6\pdl\drivers/peripheral/gpio/cy_gpio.h **** * \{
ARM GAS  C:\Users\bryan.lee\AppData\Local\Temp\ccAkWdHW.s 			page 7


 175:Generated_Source\PSoC6\pdl\drivers/peripheral/gpio/cy_gpio.h **** */
 176:Generated_Source\PSoC6\pdl\drivers/peripheral/gpio/cy_gpio.h **** 
 177:Generated_Source\PSoC6\pdl\drivers/peripheral/gpio/cy_gpio.h **** /** This structure is used to initialize a port of GPIO pins */
 178:Generated_Source\PSoC6\pdl\drivers/peripheral/gpio/cy_gpio.h **** typedef struct {
 179:Generated_Source\PSoC6\pdl\drivers/peripheral/gpio/cy_gpio.h ****     uint32_t out;           /**< Initial output data for the IO pins in the port */
 180:Generated_Source\PSoC6\pdl\drivers/peripheral/gpio/cy_gpio.h ****     uint32_t intrMask;      /**< Interrupt enable mask for the port interrupt */
 181:Generated_Source\PSoC6\pdl\drivers/peripheral/gpio/cy_gpio.h ****     uint32_t intrCfg;       /**< Port pin interrupt edge detection configuration */
 182:Generated_Source\PSoC6\pdl\drivers/peripheral/gpio/cy_gpio.h ****     uint32_t cfg;           /**< Port pin drive modes and input buffer enable configuration */
 183:Generated_Source\PSoC6\pdl\drivers/peripheral/gpio/cy_gpio.h ****     uint32_t cfgIn;         /**< Port pin input buffer configuration */
 184:Generated_Source\PSoC6\pdl\drivers/peripheral/gpio/cy_gpio.h ****     uint32_t cfgOut;        /**< Port pin output buffer configuration */
 185:Generated_Source\PSoC6\pdl\drivers/peripheral/gpio/cy_gpio.h ****     uint32_t cfgSIO;        /**< Port SIO pins configuration */
 186:Generated_Source\PSoC6\pdl\drivers/peripheral/gpio/cy_gpio.h ****     uint32_t sel0Active;    /**< HSIOM selection for port pins 0,1,2,3 */
 187:Generated_Source\PSoC6\pdl\drivers/peripheral/gpio/cy_gpio.h ****     uint32_t sel1Active;    /**< HSIOM selection for port pins 4,5,6,7 */
 188:Generated_Source\PSoC6\pdl\drivers/peripheral/gpio/cy_gpio.h **** } cy_stc_gpio_prt_config_t;
 189:Generated_Source\PSoC6\pdl\drivers/peripheral/gpio/cy_gpio.h **** 
 190:Generated_Source\PSoC6\pdl\drivers/peripheral/gpio/cy_gpio.h **** /** This structure is used to initialize a single GPIO pin */
 191:Generated_Source\PSoC6\pdl\drivers/peripheral/gpio/cy_gpio.h **** typedef struct {
 192:Generated_Source\PSoC6\pdl\drivers/peripheral/gpio/cy_gpio.h ****     uint32_t outVal;         /**< Pin output state */
 193:Generated_Source\PSoC6\pdl\drivers/peripheral/gpio/cy_gpio.h ****     uint32_t driveMode;      /**< Drive mode */
 194:Generated_Source\PSoC6\pdl\drivers/peripheral/gpio/cy_gpio.h ****     en_hsiom_sel_t hsiom;   /**< HSIOM selection */
 195:Generated_Source\PSoC6\pdl\drivers/peripheral/gpio/cy_gpio.h ****     uint32_t intEdge;        /**< Interrupt Edge type */
 196:Generated_Source\PSoC6\pdl\drivers/peripheral/gpio/cy_gpio.h ****     uint32_t intMask;        /**< Interrupt enable mask */
 197:Generated_Source\PSoC6\pdl\drivers/peripheral/gpio/cy_gpio.h ****     uint32_t vtrip;          /**< Input buffer voltage trip type */
 198:Generated_Source\PSoC6\pdl\drivers/peripheral/gpio/cy_gpio.h ****     uint32_t slewRate;       /**< Output buffer slew rate */
 199:Generated_Source\PSoC6\pdl\drivers/peripheral/gpio/cy_gpio.h ****     uint32_t driveSel;       /**< Drive strength */
 200:Generated_Source\PSoC6\pdl\drivers/peripheral/gpio/cy_gpio.h ****     uint32_t vregEn;         /**< SIO pair output buffer mode */
 201:Generated_Source\PSoC6\pdl\drivers/peripheral/gpio/cy_gpio.h ****     uint32_t ibufMode;       /**< SIO pair input buffer mode */
 202:Generated_Source\PSoC6\pdl\drivers/peripheral/gpio/cy_gpio.h ****     uint32_t vtripSel;       /**< SIO pair input buffer trip point */
 203:Generated_Source\PSoC6\pdl\drivers/peripheral/gpio/cy_gpio.h ****     uint32_t vrefSel;        /**< SIO pair reference voltage for input buffer trip point */
 204:Generated_Source\PSoC6\pdl\drivers/peripheral/gpio/cy_gpio.h ****     uint32_t vohSel;         /**< SIO pair regulated voltage output level */
 205:Generated_Source\PSoC6\pdl\drivers/peripheral/gpio/cy_gpio.h **** } cy_stc_gpio_pin_config_t;
 206:Generated_Source\PSoC6\pdl\drivers/peripheral/gpio/cy_gpio.h **** 
 207:Generated_Source\PSoC6\pdl\drivers/peripheral/gpio/cy_gpio.h **** /** \} group_gpio_data_structures */
 208:Generated_Source\PSoC6\pdl\drivers/peripheral/gpio/cy_gpio.h **** 
 209:Generated_Source\PSoC6\pdl\drivers/peripheral/gpio/cy_gpio.h **** /***************************************
 210:Generated_Source\PSoC6\pdl\drivers/peripheral/gpio/cy_gpio.h **** *        Constants
 211:Generated_Source\PSoC6\pdl\drivers/peripheral/gpio/cy_gpio.h **** ***************************************/
 212:Generated_Source\PSoC6\pdl\drivers/peripheral/gpio/cy_gpio.h **** 
 213:Generated_Source\PSoC6\pdl\drivers/peripheral/gpio/cy_gpio.h **** /** \cond INTERNAL */
 214:Generated_Source\PSoC6\pdl\drivers/peripheral/gpio/cy_gpio.h **** 
 215:Generated_Source\PSoC6\pdl\drivers/peripheral/gpio/cy_gpio.h **** /* General Constants */
 216:Generated_Source\PSoC6\pdl\drivers/peripheral/gpio/cy_gpio.h **** #define CY_GPIO_PRT_HALF                       (4UL)      /**< Half-way point of a GPIO port */
 217:Generated_Source\PSoC6\pdl\drivers/peripheral/gpio/cy_gpio.h **** #define CY_GPIO_PRT_DEINIT                     (0UL)      /**< De-init value for port registers */
 218:Generated_Source\PSoC6\pdl\drivers/peripheral/gpio/cy_gpio.h **** 
 219:Generated_Source\PSoC6\pdl\drivers/peripheral/gpio/cy_gpio.h **** /* GPIO Masks */
 220:Generated_Source\PSoC6\pdl\drivers/peripheral/gpio/cy_gpio.h **** #define CY_GPIO_HSIOM_MASK                     (0x1FUL)   /**< HSIOM selection mask */
 221:Generated_Source\PSoC6\pdl\drivers/peripheral/gpio/cy_gpio.h **** #define CY_GPIO_OUT_MASK                       (0x01UL)   /**< Single pin mask for OUT register */
 222:Generated_Source\PSoC6\pdl\drivers/peripheral/gpio/cy_gpio.h **** #define CY_GPIO_IN_MASK                        (0x01UL)   /**< Single pin mask for IN register */
 223:Generated_Source\PSoC6\pdl\drivers/peripheral/gpio/cy_gpio.h **** #define CY_GPIO_CFG_DM_MASK                    (0x0FUL)   /**< Single pin mask for drive mode in CF
 224:Generated_Source\PSoC6\pdl\drivers/peripheral/gpio/cy_gpio.h **** #define CY_GPIO_CFG_IN_VTRIP_SEL_MASK          (0x01UL)   /**< Single pin mask for VTRIP selection 
 225:Generated_Source\PSoC6\pdl\drivers/peripheral/gpio/cy_gpio.h **** #define CY_GPIO_CFG_OUT_SLOW_MASK              (0x01UL)   /**< Single pin mask for slew rate in CFG
 226:Generated_Source\PSoC6\pdl\drivers/peripheral/gpio/cy_gpio.h **** #define CY_GPIO_CFG_OUT_DRIVE_SEL_MASK         (0x03UL)   /**< Single pin mask for drive strength i
 227:Generated_Source\PSoC6\pdl\drivers/peripheral/gpio/cy_gpio.h **** #define CY_GPIO_INTR_STATUS_MASK               (0x01UL)   /**< Single pin mask for interrupt status
 228:Generated_Source\PSoC6\pdl\drivers/peripheral/gpio/cy_gpio.h **** #define CY_GPIO_INTR_EN_MASK                   (0x01UL)   /**< Single pin mask for interrupt status
 229:Generated_Source\PSoC6\pdl\drivers/peripheral/gpio/cy_gpio.h **** #define CY_GPIO_INTR_MASKED_MASK               (0x01UL)   /**< Single pin mask for masked interrupt
 230:Generated_Source\PSoC6\pdl\drivers/peripheral/gpio/cy_gpio.h **** #define CY_GPIO_INTR_SET_MASK                  (0x01UL)   /**< Single pin mask for setting the inte
 231:Generated_Source\PSoC6\pdl\drivers/peripheral/gpio/cy_gpio.h **** #define CY_GPIO_INTR_EDGE_MASK                 (0x03UL)   /**< Single pin mask for interrupt edge t
ARM GAS  C:\Users\bryan.lee\AppData\Local\Temp\ccAkWdHW.s 			page 8


 232:Generated_Source\PSoC6\pdl\drivers/peripheral/gpio/cy_gpio.h **** #define CY_GPIO_INTR_FLT_EDGE_MASK             (0x07UL)   /**< Single pin mask for setting filtered
 233:Generated_Source\PSoC6\pdl\drivers/peripheral/gpio/cy_gpio.h **** 
 234:Generated_Source\PSoC6\pdl\drivers/peripheral/gpio/cy_gpio.h **** /* SIO Masks */
 235:Generated_Source\PSoC6\pdl\drivers/peripheral/gpio/cy_gpio.h **** #define CY_GPIO_VREG_EN_MASK                   (0x01UL)   /**< Single SIO pin mask for voltage regu
 236:Generated_Source\PSoC6\pdl\drivers/peripheral/gpio/cy_gpio.h **** #define CY_GPIO_IBUF_MASK                      (0x01UL)   /**< Single SIO pin mask for input buffer
 237:Generated_Source\PSoC6\pdl\drivers/peripheral/gpio/cy_gpio.h **** #define CY_GPIO_IBUF_SHIFT                     (0x01UL)   /**< Single SIO pin shift for input buffe
 238:Generated_Source\PSoC6\pdl\drivers/peripheral/gpio/cy_gpio.h **** #define CY_GPIO_VTRIP_SEL_MASK                 (0x01UL)   /**< Single SIO pin mask for the input bu
 239:Generated_Source\PSoC6\pdl\drivers/peripheral/gpio/cy_gpio.h **** #define CY_GPIO_VTRIP_SEL_SHIFT                (0x02UL)   /**< Single SIO pin shift for the input b
 240:Generated_Source\PSoC6\pdl\drivers/peripheral/gpio/cy_gpio.h **** #define CY_GPIO_VREF_SEL_MASK                  (0x03UL)   /**< Single SIO pin mask for voltage refe
 241:Generated_Source\PSoC6\pdl\drivers/peripheral/gpio/cy_gpio.h **** #define CY_GPIO_VREF_SEL_SHIFT                 (0x03UL)   /**< Single SIO pin shift for voltage ref
 242:Generated_Source\PSoC6\pdl\drivers/peripheral/gpio/cy_gpio.h **** #define CY_GPIO_VOH_SEL_MASK                   (0x07UL)   /**< Single SIO pin mask for VOH */
 243:Generated_Source\PSoC6\pdl\drivers/peripheral/gpio/cy_gpio.h **** #define CY_GPIO_VOH_SEL_SHIFT                  (0x05UL)   /**< Single SIO pin shift for VOH */
 244:Generated_Source\PSoC6\pdl\drivers/peripheral/gpio/cy_gpio.h **** 
 245:Generated_Source\PSoC6\pdl\drivers/peripheral/gpio/cy_gpio.h **** /* Special mask for SIO pin pair setting */
 246:Generated_Source\PSoC6\pdl\drivers/peripheral/gpio/cy_gpio.h **** #define CY_GPIO_SIO_ODD_PIN_MASK               (0x00FEUL) /**< SIO pin pair selection mask */
 247:Generated_Source\PSoC6\pdl\drivers/peripheral/gpio/cy_gpio.h **** #define CY_GPIO_SIO_PIN_MASK                   (0x00FFUL) /**< SIO pin pair mask */
 248:Generated_Source\PSoC6\pdl\drivers/peripheral/gpio/cy_gpio.h **** 
 249:Generated_Source\PSoC6\pdl\drivers/peripheral/gpio/cy_gpio.h **** /* Offsets */
 250:Generated_Source\PSoC6\pdl\drivers/peripheral/gpio/cy_gpio.h **** #define CY_GPIO_HSIOM_OFFSET                   (3UL)      /**< Offset for HSIOM */
 251:Generated_Source\PSoC6\pdl\drivers/peripheral/gpio/cy_gpio.h **** #define CY_GPIO_DRIVE_MODE_OFFSET              (2UL)      /**< Offset for Drive mode */
 252:Generated_Source\PSoC6\pdl\drivers/peripheral/gpio/cy_gpio.h **** #define CY_GPIO_INBUF_OFFSET                   (3UL)      /**< Offset for input buffer */
 253:Generated_Source\PSoC6\pdl\drivers/peripheral/gpio/cy_gpio.h **** #define CY_GPIO_CFG_OUT_DRIVE_OFFSET           (16UL)     /**< Offset for drive strength */
 254:Generated_Source\PSoC6\pdl\drivers/peripheral/gpio/cy_gpio.h **** #define CY_GPIO_INTR_CFG_OFFSET                (1UL)      /**< Offset for interrupt config */
 255:Generated_Source\PSoC6\pdl\drivers/peripheral/gpio/cy_gpio.h **** #define CY_GPIO_INTR_FILT_OFFSET               (18UL)     /**< Offset for filtered interrupt config
 256:Generated_Source\PSoC6\pdl\drivers/peripheral/gpio/cy_gpio.h **** #define CY_GPIO_CFG_SIO_OFFSET                 (2UL)      /**< Offset for SIO config */
 257:Generated_Source\PSoC6\pdl\drivers/peripheral/gpio/cy_gpio.h **** 
 258:Generated_Source\PSoC6\pdl\drivers/peripheral/gpio/cy_gpio.h **** /* Parameter validation constants */
 259:Generated_Source\PSoC6\pdl\drivers/peripheral/gpio/cy_gpio.h **** #define CY_GPIO_PINS_MAX                       (8UL)      /**< Number of pins in the port */
 260:Generated_Source\PSoC6\pdl\drivers/peripheral/gpio/cy_gpio.h **** #define CY_GPIO_PRT_PINS_MASK                  (0x0000000FFUL)
 261:Generated_Source\PSoC6\pdl\drivers/peripheral/gpio/cy_gpio.h **** #define CY_GPIO_PRT_INTR_CFG_EDGE_SEL_MASK     (GPIO_PRT_INTR_CFG_EDGE0_SEL_Msk | \
 262:Generated_Source\PSoC6\pdl\drivers/peripheral/gpio/cy_gpio.h ****                                                 GPIO_PRT_INTR_CFG_EDGE1_SEL_Msk | \
 263:Generated_Source\PSoC6\pdl\drivers/peripheral/gpio/cy_gpio.h ****                                                 GPIO_PRT_INTR_CFG_EDGE2_SEL_Msk | \
 264:Generated_Source\PSoC6\pdl\drivers/peripheral/gpio/cy_gpio.h ****                                                 GPIO_PRT_INTR_CFG_EDGE3_SEL_Msk | \
 265:Generated_Source\PSoC6\pdl\drivers/peripheral/gpio/cy_gpio.h ****                                                 GPIO_PRT_INTR_CFG_EDGE4_SEL_Msk | \
 266:Generated_Source\PSoC6\pdl\drivers/peripheral/gpio/cy_gpio.h ****                                                 GPIO_PRT_INTR_CFG_EDGE5_SEL_Msk | \
 267:Generated_Source\PSoC6\pdl\drivers/peripheral/gpio/cy_gpio.h ****                                                 GPIO_PRT_INTR_CFG_EDGE6_SEL_Msk | \
 268:Generated_Source\PSoC6\pdl\drivers/peripheral/gpio/cy_gpio.h ****                                                 GPIO_PRT_INTR_CFG_EDGE7_SEL_Msk)            
 269:Generated_Source\PSoC6\pdl\drivers/peripheral/gpio/cy_gpio.h **** #define CY_GPIO_PRT_INTR_CFG_RANGE_MASK        (CY_GPIO_PRT_INTR_CFG_EDGE_SEL_MASK | \
 270:Generated_Source\PSoC6\pdl\drivers/peripheral/gpio/cy_gpio.h ****                                                 GPIO_PRT_INTR_CFG_FLT_EDGE_SEL_Msk | \
 271:Generated_Source\PSoC6\pdl\drivers/peripheral/gpio/cy_gpio.h ****                                                 GPIO_PRT_INTR_CFG_FLT_SEL_Msk)
 272:Generated_Source\PSoC6\pdl\drivers/peripheral/gpio/cy_gpio.h **** #define CY_GPIO_PRT_INT_MASK_MASK              (0x0000001FFUL)
 273:Generated_Source\PSoC6\pdl\drivers/peripheral/gpio/cy_gpio.h **** #define CY_GPIO_PRT_SEL_ACTIVE_MASK            (0x1FFFFFFFUL)
 274:Generated_Source\PSoC6\pdl\drivers/peripheral/gpio/cy_gpio.h **** 
 275:Generated_Source\PSoC6\pdl\drivers/peripheral/gpio/cy_gpio.h **** /* Parameter validation macros */
 276:Generated_Source\PSoC6\pdl\drivers/peripheral/gpio/cy_gpio.h **** #define CY_GPIO_IS_PIN_VALID(pinNum)           (CY_GPIO_PINS_MAX > (pinNum))
 277:Generated_Source\PSoC6\pdl\drivers/peripheral/gpio/cy_gpio.h **** #define CY_GPIO_IS_FILTER_PIN_VALID(pinNum)    (CY_GPIO_PINS_MAX >= (pinNum))
 278:Generated_Source\PSoC6\pdl\drivers/peripheral/gpio/cy_gpio.h **** #define CY_GPIO_IS_VALUE_VALID(outVal)         (1UL >= (outVal))
 279:Generated_Source\PSoC6\pdl\drivers/peripheral/gpio/cy_gpio.h **** #define CY_GPIO_IS_DM_VALID(driveMode)         (0U == ((driveMode) & (uint32_t)~CY_GPIO_CFG_DM_MASK
 280:Generated_Source\PSoC6\pdl\drivers/peripheral/gpio/cy_gpio.h **** 
 281:Generated_Source\PSoC6\pdl\drivers/peripheral/gpio/cy_gpio.h **** #define CY_GPIO_IS_HSIOM_VALID(hsiom)          (0U == ((hsiom) & (uint32_t)~CY_GPIO_HSIOM_MASK))
 282:Generated_Source\PSoC6\pdl\drivers/peripheral/gpio/cy_gpio.h **** 
 283:Generated_Source\PSoC6\pdl\drivers/peripheral/gpio/cy_gpio.h **** #define CY_GPIO_IS_INT_EDGE_VALID(intEdge)     ((CY_GPIO_INTR_DISABLE  == (intEdge)) || \
 284:Generated_Source\PSoC6\pdl\drivers/peripheral/gpio/cy_gpio.h ****                                                 (CY_GPIO_INTR_RISING   == (intEdge)) || \
 285:Generated_Source\PSoC6\pdl\drivers/peripheral/gpio/cy_gpio.h ****                                                 (CY_GPIO_INTR_FALLING  == (intEdge)) || \
 286:Generated_Source\PSoC6\pdl\drivers/peripheral/gpio/cy_gpio.h ****                                                 (CY_GPIO_INTR_BOTH     == (intEdge)))
 287:Generated_Source\PSoC6\pdl\drivers/peripheral/gpio/cy_gpio.h **** 
 288:Generated_Source\PSoC6\pdl\drivers/peripheral/gpio/cy_gpio.h **** #define CY_GPIO_IS_DRIVE_SEL_VALID(driveSel)   ((CY_GPIO_DRIVE_FULL    == (driveSel)) || \
ARM GAS  C:\Users\bryan.lee\AppData\Local\Temp\ccAkWdHW.s 			page 9


 289:Generated_Source\PSoC6\pdl\drivers/peripheral/gpio/cy_gpio.h ****                                                 (CY_GPIO_DRIVE_1_2     == (driveSel)) || \
 290:Generated_Source\PSoC6\pdl\drivers/peripheral/gpio/cy_gpio.h ****                                                 (CY_GPIO_DRIVE_1_4     == (driveSel)) || \
 291:Generated_Source\PSoC6\pdl\drivers/peripheral/gpio/cy_gpio.h ****                                                 (CY_GPIO_DRIVE_1_8     == (driveSel)))
 292:Generated_Source\PSoC6\pdl\drivers/peripheral/gpio/cy_gpio.h **** 
 293:Generated_Source\PSoC6\pdl\drivers/peripheral/gpio/cy_gpio.h **** #define CY_GPIO_IS_VREF_SEL_VALID(vrefSel)     ((CY_SIO_VREF_PINREF    == (vrefSel)) || \
 294:Generated_Source\PSoC6\pdl\drivers/peripheral/gpio/cy_gpio.h ****                                                 (CY_SIO_VREF_1_2V      == (vrefSel)) || \
 295:Generated_Source\PSoC6\pdl\drivers/peripheral/gpio/cy_gpio.h ****                                                 (CY_SIO_VREF_AMUX_A    == (vrefSel)) || \
 296:Generated_Source\PSoC6\pdl\drivers/peripheral/gpio/cy_gpio.h ****                                                 (CY_SIO_VREF_AMUX_B    == (vrefSel)))
 297:Generated_Source\PSoC6\pdl\drivers/peripheral/gpio/cy_gpio.h **** 
 298:Generated_Source\PSoC6\pdl\drivers/peripheral/gpio/cy_gpio.h **** #define CY_GPIO_IS_VOH_SEL_VALID(vrefSel)      ((CY_SIO_VOH_1_00       == (vrefSel)) || \
 299:Generated_Source\PSoC6\pdl\drivers/peripheral/gpio/cy_gpio.h ****                                                 (CY_SIO_VOH_1_25       == (vrefSel)) || \
 300:Generated_Source\PSoC6\pdl\drivers/peripheral/gpio/cy_gpio.h ****                                                 (CY_SIO_VOH_1_49       == (vrefSel)) || \
 301:Generated_Source\PSoC6\pdl\drivers/peripheral/gpio/cy_gpio.h ****                                                 (CY_SIO_VOH_1_67       == (vrefSel)) || \
 302:Generated_Source\PSoC6\pdl\drivers/peripheral/gpio/cy_gpio.h ****                                                 (CY_SIO_VOH_2_08       == (vrefSel)) || \
 303:Generated_Source\PSoC6\pdl\drivers/peripheral/gpio/cy_gpio.h ****                                                 (CY_SIO_VOH_2_50       == (vrefSel)) || \
 304:Generated_Source\PSoC6\pdl\drivers/peripheral/gpio/cy_gpio.h ****                                                 (CY_SIO_VOH_2_78       == (vrefSel)) || \
 305:Generated_Source\PSoC6\pdl\drivers/peripheral/gpio/cy_gpio.h ****                                                 (CY_SIO_VOH_4_16       == (vrefSel)))
 306:Generated_Source\PSoC6\pdl\drivers/peripheral/gpio/cy_gpio.h ****                    
 307:Generated_Source\PSoC6\pdl\drivers/peripheral/gpio/cy_gpio.h **** #define CY_GPIO_IS_PIN_BIT_VALID(pinBit)       (0U == ((pinBit) & (uint32_t)~CY_GPIO_PRT_PINS_MASK)
 308:Generated_Source\PSoC6\pdl\drivers/peripheral/gpio/cy_gpio.h **** #define CY_GPIO_IS_INTR_CFG_VALID(intrCfg)     (0U == ((intrCfg) & (uint32_t)~CY_GPIO_PRT_INTR_CFG_
 309:Generated_Source\PSoC6\pdl\drivers/peripheral/gpio/cy_gpio.h **** #define CY_GPIO_IS_INTR_MASK_VALID(intrMask)   (0U == ((intrMask) & (uint32_t)~CY_GPIO_PRT_INT_MASK
 310:Generated_Source\PSoC6\pdl\drivers/peripheral/gpio/cy_gpio.h **** #define CY_GPIO_IS_SEL_ACT_VALID(selActive)    (0U == ((selActive) & (uint32_t)~CY_GPIO_PRT_SEL_ACT
 311:Generated_Source\PSoC6\pdl\drivers/peripheral/gpio/cy_gpio.h **** 
 312:Generated_Source\PSoC6\pdl\drivers/peripheral/gpio/cy_gpio.h **** /** \endcond */
 313:Generated_Source\PSoC6\pdl\drivers/peripheral/gpio/cy_gpio.h **** 
 314:Generated_Source\PSoC6\pdl\drivers/peripheral/gpio/cy_gpio.h **** 
 315:Generated_Source\PSoC6\pdl\drivers/peripheral/gpio/cy_gpio.h **** /***************************************
 316:Generated_Source\PSoC6\pdl\drivers/peripheral/gpio/cy_gpio.h **** *        Function Constants
 317:Generated_Source\PSoC6\pdl\drivers/peripheral/gpio/cy_gpio.h **** ***************************************/
 318:Generated_Source\PSoC6\pdl\drivers/peripheral/gpio/cy_gpio.h **** 
 319:Generated_Source\PSoC6\pdl\drivers/peripheral/gpio/cy_gpio.h **** /**
 320:Generated_Source\PSoC6\pdl\drivers/peripheral/gpio/cy_gpio.h **** * \addtogroup group_gpio_macros
 321:Generated_Source\PSoC6\pdl\drivers/peripheral/gpio/cy_gpio.h **** * \{
 322:Generated_Source\PSoC6\pdl\drivers/peripheral/gpio/cy_gpio.h **** */
 323:Generated_Source\PSoC6\pdl\drivers/peripheral/gpio/cy_gpio.h **** 
 324:Generated_Source\PSoC6\pdl\drivers/peripheral/gpio/cy_gpio.h **** /**
 325:Generated_Source\PSoC6\pdl\drivers/peripheral/gpio/cy_gpio.h **** * \defgroup group_gpio_driveModes Pin drive mode
 326:Generated_Source\PSoC6\pdl\drivers/peripheral/gpio/cy_gpio.h **** * \{
 327:Generated_Source\PSoC6\pdl\drivers/peripheral/gpio/cy_gpio.h **** * Constants to be used for setting the drive mode of the pin.
 328:Generated_Source\PSoC6\pdl\drivers/peripheral/gpio/cy_gpio.h **** */
 329:Generated_Source\PSoC6\pdl\drivers/peripheral/gpio/cy_gpio.h **** #define CY_GPIO_DM_ANALOG                      (0x00UL) /**< \brief Analog High-Z. Input buffer off
 330:Generated_Source\PSoC6\pdl\drivers/peripheral/gpio/cy_gpio.h **** #define CY_GPIO_DM_PULLUP_IN_OFF               (0x02UL) /**< \brief Resistive Pull-Up. Input buffer
 331:Generated_Source\PSoC6\pdl\drivers/peripheral/gpio/cy_gpio.h **** #define CY_GPIO_DM_PULLDOWN_IN_OFF             (0x03UL) /**< \brief Resistive Pull-Down. Input buff
 332:Generated_Source\PSoC6\pdl\drivers/peripheral/gpio/cy_gpio.h **** #define CY_GPIO_DM_OD_DRIVESLOW_IN_OFF         (0x04UL) /**< \brief Open Drain, Drives Low. Input b
 333:Generated_Source\PSoC6\pdl\drivers/peripheral/gpio/cy_gpio.h **** #define CY_GPIO_DM_OD_DRIVESHIGH_IN_OFF        (0x05UL) /**< \brief Open Drain, Drives High. Input 
 334:Generated_Source\PSoC6\pdl\drivers/peripheral/gpio/cy_gpio.h **** #define CY_GPIO_DM_STRONG_IN_OFF               (0x06UL) /**< \brief Strong Drive. Input buffer off 
 335:Generated_Source\PSoC6\pdl\drivers/peripheral/gpio/cy_gpio.h **** #define CY_GPIO_DM_PULLUP_DOWN_IN_OFF          (0x07UL) /**< \brief Resistive Pull-Up/Down. Input b
 336:Generated_Source\PSoC6\pdl\drivers/peripheral/gpio/cy_gpio.h **** #define CY_GPIO_DM_HIGHZ                       (0x08UL) /**< \brief Digital High-Z. Input buffer on
 337:Generated_Source\PSoC6\pdl\drivers/peripheral/gpio/cy_gpio.h **** #define CY_GPIO_DM_PULLUP                      (0x0AUL) /**< \brief Resistive Pull-Up. Input buffer
 338:Generated_Source\PSoC6\pdl\drivers/peripheral/gpio/cy_gpio.h **** #define CY_GPIO_DM_PULLDOWN                    (0x0BUL) /**< \brief Resistive Pull-Down. Input buff
 339:Generated_Source\PSoC6\pdl\drivers/peripheral/gpio/cy_gpio.h **** #define CY_GPIO_DM_OD_DRIVESLOW                (0x0CUL) /**< \brief Open Drain, Drives Low. Input b
 340:Generated_Source\PSoC6\pdl\drivers/peripheral/gpio/cy_gpio.h **** #define CY_GPIO_DM_OD_DRIVESHIGH               (0x0DUL) /**< \brief Open Drain, Drives High. Input 
 341:Generated_Source\PSoC6\pdl\drivers/peripheral/gpio/cy_gpio.h **** #define CY_GPIO_DM_STRONG                      (0x0EUL) /**< \brief Strong Drive. Input buffer on *
 342:Generated_Source\PSoC6\pdl\drivers/peripheral/gpio/cy_gpio.h **** #define CY_GPIO_DM_PULLUP_DOWN                 (0x0FUL) /**< \brief Resistive Pull-Up/Down. Input b
 343:Generated_Source\PSoC6\pdl\drivers/peripheral/gpio/cy_gpio.h **** /** \} */
 344:Generated_Source\PSoC6\pdl\drivers/peripheral/gpio/cy_gpio.h **** 
 345:Generated_Source\PSoC6\pdl\drivers/peripheral/gpio/cy_gpio.h **** /**
ARM GAS  C:\Users\bryan.lee\AppData\Local\Temp\ccAkWdHW.s 			page 10


 346:Generated_Source\PSoC6\pdl\drivers/peripheral/gpio/cy_gpio.h **** * \defgroup group_gpio_vtrip Voltage trip mode
 347:Generated_Source\PSoC6\pdl\drivers/peripheral/gpio/cy_gpio.h **** * \{
 348:Generated_Source\PSoC6\pdl\drivers/peripheral/gpio/cy_gpio.h **** * Constants to be used for setting the voltage trip type on the pin.
 349:Generated_Source\PSoC6\pdl\drivers/peripheral/gpio/cy_gpio.h **** */
 350:Generated_Source\PSoC6\pdl\drivers/peripheral/gpio/cy_gpio.h **** #define CY_GPIO_VTRIP_CMOS                     (0x00UL) /**< \brief Input buffer compatible with CM
 351:Generated_Source\PSoC6\pdl\drivers/peripheral/gpio/cy_gpio.h **** #define CY_GPIO_VTRIP_TTL                      (0x01UL) /**< \brief Input buffer compatible with TT
 352:Generated_Source\PSoC6\pdl\drivers/peripheral/gpio/cy_gpio.h **** /** \} */
 353:Generated_Source\PSoC6\pdl\drivers/peripheral/gpio/cy_gpio.h **** 
 354:Generated_Source\PSoC6\pdl\drivers/peripheral/gpio/cy_gpio.h **** /**
 355:Generated_Source\PSoC6\pdl\drivers/peripheral/gpio/cy_gpio.h **** * \defgroup group_gpio_slewRate Slew Rate Mode
 356:Generated_Source\PSoC6\pdl\drivers/peripheral/gpio/cy_gpio.h **** * \{
 357:Generated_Source\PSoC6\pdl\drivers/peripheral/gpio/cy_gpio.h **** * Constants to be used for setting the slew rate of the pin.
 358:Generated_Source\PSoC6\pdl\drivers/peripheral/gpio/cy_gpio.h **** */
 359:Generated_Source\PSoC6\pdl\drivers/peripheral/gpio/cy_gpio.h **** #define CY_GPIO_SLEW_FAST                      (0x00UL) /**< \brief Fast slew rate */
 360:Generated_Source\PSoC6\pdl\drivers/peripheral/gpio/cy_gpio.h **** #define CY_GPIO_SLEW_SLOW                      (0x01UL) /**< \brief Slow slew rate */
 361:Generated_Source\PSoC6\pdl\drivers/peripheral/gpio/cy_gpio.h **** /** \} */
 362:Generated_Source\PSoC6\pdl\drivers/peripheral/gpio/cy_gpio.h **** 
 363:Generated_Source\PSoC6\pdl\drivers/peripheral/gpio/cy_gpio.h **** /**
 364:Generated_Source\PSoC6\pdl\drivers/peripheral/gpio/cy_gpio.h **** * \defgroup group_gpio_driveStrength Pin drive strength
 365:Generated_Source\PSoC6\pdl\drivers/peripheral/gpio/cy_gpio.h **** * \{
 366:Generated_Source\PSoC6\pdl\drivers/peripheral/gpio/cy_gpio.h **** * Constants to be used for setting the drive strength of the pin.
 367:Generated_Source\PSoC6\pdl\drivers/peripheral/gpio/cy_gpio.h **** */
 368:Generated_Source\PSoC6\pdl\drivers/peripheral/gpio/cy_gpio.h **** #define CY_GPIO_DRIVE_FULL                     (0x00UL) /**< \brief Full drive strength: Max drive 
 369:Generated_Source\PSoC6\pdl\drivers/peripheral/gpio/cy_gpio.h **** #define CY_GPIO_DRIVE_1_2                      (0x01UL) /**< \brief 1/2 drive strength: 1/2 drive c
 370:Generated_Source\PSoC6\pdl\drivers/peripheral/gpio/cy_gpio.h **** #define CY_GPIO_DRIVE_1_4                      (0x02UL) /**< \brief 1/4 drive strength: 1/4 drive c
 371:Generated_Source\PSoC6\pdl\drivers/peripheral/gpio/cy_gpio.h **** #define CY_GPIO_DRIVE_1_8                      (0x03UL) /**< \brief 1/8 drive strength: 1/8 drive c
 372:Generated_Source\PSoC6\pdl\drivers/peripheral/gpio/cy_gpio.h **** /** \} */
 373:Generated_Source\PSoC6\pdl\drivers/peripheral/gpio/cy_gpio.h **** 
 374:Generated_Source\PSoC6\pdl\drivers/peripheral/gpio/cy_gpio.h **** /**
 375:Generated_Source\PSoC6\pdl\drivers/peripheral/gpio/cy_gpio.h **** * \defgroup group_gpio_interruptTrigger Interrupt trigger type
 376:Generated_Source\PSoC6\pdl\drivers/peripheral/gpio/cy_gpio.h **** * \{
 377:Generated_Source\PSoC6\pdl\drivers/peripheral/gpio/cy_gpio.h **** * Constants to be used for setting the interrupt trigger type on the pin.
 378:Generated_Source\PSoC6\pdl\drivers/peripheral/gpio/cy_gpio.h **** */
 379:Generated_Source\PSoC6\pdl\drivers/peripheral/gpio/cy_gpio.h **** #define CY_GPIO_INTR_DISABLE                   (0x00UL) /**< \brief Disable the pin interrupt gener
 380:Generated_Source\PSoC6\pdl\drivers/peripheral/gpio/cy_gpio.h **** #define CY_GPIO_INTR_RISING                    (0x01UL) /**< \brief Rising-Edge interrupt */
 381:Generated_Source\PSoC6\pdl\drivers/peripheral/gpio/cy_gpio.h **** #define CY_GPIO_INTR_FALLING                   (0x02UL) /**< \brief Falling-Edge interrupt */
 382:Generated_Source\PSoC6\pdl\drivers/peripheral/gpio/cy_gpio.h **** #define CY_GPIO_INTR_BOTH                      (0x03UL) /**< \brief Both-Edge interrupt */
 383:Generated_Source\PSoC6\pdl\drivers/peripheral/gpio/cy_gpio.h **** /** \} */
 384:Generated_Source\PSoC6\pdl\drivers/peripheral/gpio/cy_gpio.h **** 
 385:Generated_Source\PSoC6\pdl\drivers/peripheral/gpio/cy_gpio.h **** /**
 386:Generated_Source\PSoC6\pdl\drivers/peripheral/gpio/cy_gpio.h **** * \defgroup group_gpio_sioVreg SIO output buffer mode
 387:Generated_Source\PSoC6\pdl\drivers/peripheral/gpio/cy_gpio.h **** * \{
 388:Generated_Source\PSoC6\pdl\drivers/peripheral/gpio/cy_gpio.h **** * Constants to be used for setting the SIO output buffer mode on the pin.
 389:Generated_Source\PSoC6\pdl\drivers/peripheral/gpio/cy_gpio.h **** */
 390:Generated_Source\PSoC6\pdl\drivers/peripheral/gpio/cy_gpio.h **** #define CY_SIO_VREG_UNREGULATED                (0x00UL) /**< \brief Unregulated output buffer */
 391:Generated_Source\PSoC6\pdl\drivers/peripheral/gpio/cy_gpio.h **** #define CY_SIO_VREG_REGULATED                  (0x01UL) /**< \brief Regulated output buffer */
 392:Generated_Source\PSoC6\pdl\drivers/peripheral/gpio/cy_gpio.h **** /** \} */
 393:Generated_Source\PSoC6\pdl\drivers/peripheral/gpio/cy_gpio.h **** 
 394:Generated_Source\PSoC6\pdl\drivers/peripheral/gpio/cy_gpio.h **** /**
 395:Generated_Source\PSoC6\pdl\drivers/peripheral/gpio/cy_gpio.h **** * \defgroup group_gpio_sioIbuf SIO input buffer mode
 396:Generated_Source\PSoC6\pdl\drivers/peripheral/gpio/cy_gpio.h **** * \{
 397:Generated_Source\PSoC6\pdl\drivers/peripheral/gpio/cy_gpio.h **** * Constants to be used for setting the SIO input buffer mode on the pin.
 398:Generated_Source\PSoC6\pdl\drivers/peripheral/gpio/cy_gpio.h **** */
 399:Generated_Source\PSoC6\pdl\drivers/peripheral/gpio/cy_gpio.h **** #define CY_SIO_IBUF_SINGLEENDED                (0x00UL) /**< \brief Single ended input buffer */
 400:Generated_Source\PSoC6\pdl\drivers/peripheral/gpio/cy_gpio.h **** #define CY_SIO_IBUF_DIFFERENTIAL               (0x01UL) /**< \brief Differential input buffer */
 401:Generated_Source\PSoC6\pdl\drivers/peripheral/gpio/cy_gpio.h **** /** \} */
 402:Generated_Source\PSoC6\pdl\drivers/peripheral/gpio/cy_gpio.h **** 
ARM GAS  C:\Users\bryan.lee\AppData\Local\Temp\ccAkWdHW.s 			page 11


 403:Generated_Source\PSoC6\pdl\drivers/peripheral/gpio/cy_gpio.h **** /**
 404:Generated_Source\PSoC6\pdl\drivers/peripheral/gpio/cy_gpio.h **** * \defgroup group_gpio_sioVtrip SIO input buffer trip-point
 405:Generated_Source\PSoC6\pdl\drivers/peripheral/gpio/cy_gpio.h **** * \{
 406:Generated_Source\PSoC6\pdl\drivers/peripheral/gpio/cy_gpio.h **** * Constants to be used for setting the SIO input buffer trip-point of the pin.
 407:Generated_Source\PSoC6\pdl\drivers/peripheral/gpio/cy_gpio.h **** */
 408:Generated_Source\PSoC6\pdl\drivers/peripheral/gpio/cy_gpio.h **** #define CY_SIO_VTRIP_CMOS                      (0x00UL) /**< \brief CMOS input buffer (single-ended
 409:Generated_Source\PSoC6\pdl\drivers/peripheral/gpio/cy_gpio.h **** #define CY_SIO_VTRIP_TTL                       (0x01UL) /**< \brief TTL input buffer (single-ended)
 410:Generated_Source\PSoC6\pdl\drivers/peripheral/gpio/cy_gpio.h **** #define CY_SIO_VTRIP_0_5VDDIO_0_5VOH           (0x00UL) /**< \brief 0.5xVddio or 0.5xVoh (different
 411:Generated_Source\PSoC6\pdl\drivers/peripheral/gpio/cy_gpio.h **** #define CY_SIO_VTRIP_0_4VDDIO_1_0VREF          (0x01UL) /**< \brief 0.4xVddio or 0.4xVoh (different
 412:Generated_Source\PSoC6\pdl\drivers/peripheral/gpio/cy_gpio.h **** /** \} */
 413:Generated_Source\PSoC6\pdl\drivers/peripheral/gpio/cy_gpio.h **** 
 414:Generated_Source\PSoC6\pdl\drivers/peripheral/gpio/cy_gpio.h **** /**
 415:Generated_Source\PSoC6\pdl\drivers/peripheral/gpio/cy_gpio.h **** * \defgroup group_gpio_sioVref SIO reference voltage for input buffer trip-point
 416:Generated_Source\PSoC6\pdl\drivers/peripheral/gpio/cy_gpio.h **** * \{
 417:Generated_Source\PSoC6\pdl\drivers/peripheral/gpio/cy_gpio.h **** * Constants to be used for setting the reference voltage of SIO input buffer trip-point.
 418:Generated_Source\PSoC6\pdl\drivers/peripheral/gpio/cy_gpio.h **** */
 419:Generated_Source\PSoC6\pdl\drivers/peripheral/gpio/cy_gpio.h **** #define CY_SIO_VREF_PINREF                     (0x00UL) /**< \brief Vref from analog pin */
 420:Generated_Source\PSoC6\pdl\drivers/peripheral/gpio/cy_gpio.h **** #define CY_SIO_VREF_1_2V                       (0x01UL) /**< \brief Vref from internal 1.2V referen
 421:Generated_Source\PSoC6\pdl\drivers/peripheral/gpio/cy_gpio.h **** #define CY_SIO_VREF_AMUX_A                     (0x02UL) /**< \brief Vref from AMUXBUS_A */
 422:Generated_Source\PSoC6\pdl\drivers/peripheral/gpio/cy_gpio.h **** #define CY_SIO_VREF_AMUX_B                     (0x03UL) /**< \brief Vref from AMUXBUS_B */
 423:Generated_Source\PSoC6\pdl\drivers/peripheral/gpio/cy_gpio.h **** /** \} */
 424:Generated_Source\PSoC6\pdl\drivers/peripheral/gpio/cy_gpio.h **** 
 425:Generated_Source\PSoC6\pdl\drivers/peripheral/gpio/cy_gpio.h **** /**
 426:Generated_Source\PSoC6\pdl\drivers/peripheral/gpio/cy_gpio.h **** * \defgroup group_gpio_sioVoh Regulated output voltage level (Voh) and input buffer trip-point of a
 427:Generated_Source\PSoC6\pdl\drivers/peripheral/gpio/cy_gpio.h **** * \{
 428:Generated_Source\PSoC6\pdl\drivers/peripheral/gpio/cy_gpio.h **** * Constants to be used for setting the Voh and input buffer trip-point of an SIO pair
 429:Generated_Source\PSoC6\pdl\drivers/peripheral/gpio/cy_gpio.h **** */
 430:Generated_Source\PSoC6\pdl\drivers/peripheral/gpio/cy_gpio.h **** #define CY_SIO_VOH_1_00                        (0x00UL) /**< \brief Voh = 1 x Reference */
 431:Generated_Source\PSoC6\pdl\drivers/peripheral/gpio/cy_gpio.h **** #define CY_SIO_VOH_1_25                        (0x01UL) /**< \brief Voh = 1.25 x Reference */
 432:Generated_Source\PSoC6\pdl\drivers/peripheral/gpio/cy_gpio.h **** #define CY_SIO_VOH_1_49                        (0x02UL) /**< \brief Voh = 1.49 x Reference */
 433:Generated_Source\PSoC6\pdl\drivers/peripheral/gpio/cy_gpio.h **** #define CY_SIO_VOH_1_67                        (0x03UL) /**< \brief Voh = 1.67 x Reference */
 434:Generated_Source\PSoC6\pdl\drivers/peripheral/gpio/cy_gpio.h **** #define CY_SIO_VOH_2_08                        (0x04UL) /**< \brief Voh = 2.08 x Reference */
 435:Generated_Source\PSoC6\pdl\drivers/peripheral/gpio/cy_gpio.h **** #define CY_SIO_VOH_2_50                        (0x05UL) /**< \brief Voh = 2.50 x Reference */
 436:Generated_Source\PSoC6\pdl\drivers/peripheral/gpio/cy_gpio.h **** #define CY_SIO_VOH_2_78                        (0x06UL) /**< \brief Voh = 2.78 x Reference */
 437:Generated_Source\PSoC6\pdl\drivers/peripheral/gpio/cy_gpio.h **** #define CY_SIO_VOH_4_16                        (0x07UL) /**< \brief Voh = 4.16 x Reference */
 438:Generated_Source\PSoC6\pdl\drivers/peripheral/gpio/cy_gpio.h **** /** \} */
 439:Generated_Source\PSoC6\pdl\drivers/peripheral/gpio/cy_gpio.h **** 
 440:Generated_Source\PSoC6\pdl\drivers/peripheral/gpio/cy_gpio.h **** /** \} group_gpio_macros */
 441:Generated_Source\PSoC6\pdl\drivers/peripheral/gpio/cy_gpio.h **** 
 442:Generated_Source\PSoC6\pdl\drivers/peripheral/gpio/cy_gpio.h **** /***************************************
 443:Generated_Source\PSoC6\pdl\drivers/peripheral/gpio/cy_gpio.h **** *        Function Prototypes
 444:Generated_Source\PSoC6\pdl\drivers/peripheral/gpio/cy_gpio.h **** ***************************************/
 445:Generated_Source\PSoC6\pdl\drivers/peripheral/gpio/cy_gpio.h **** 
 446:Generated_Source\PSoC6\pdl\drivers/peripheral/gpio/cy_gpio.h **** /**
 447:Generated_Source\PSoC6\pdl\drivers/peripheral/gpio/cy_gpio.h **** * \addtogroup group_gpio_functions
 448:Generated_Source\PSoC6\pdl\drivers/peripheral/gpio/cy_gpio.h **** * \{
 449:Generated_Source\PSoC6\pdl\drivers/peripheral/gpio/cy_gpio.h **** */
 450:Generated_Source\PSoC6\pdl\drivers/peripheral/gpio/cy_gpio.h **** 
 451:Generated_Source\PSoC6\pdl\drivers/peripheral/gpio/cy_gpio.h **** /**
 452:Generated_Source\PSoC6\pdl\drivers/peripheral/gpio/cy_gpio.h **** * \addtogroup group_gpio_functions_init
 453:Generated_Source\PSoC6\pdl\drivers/peripheral/gpio/cy_gpio.h **** * \{
 454:Generated_Source\PSoC6\pdl\drivers/peripheral/gpio/cy_gpio.h **** */
 455:Generated_Source\PSoC6\pdl\drivers/peripheral/gpio/cy_gpio.h **** 
 456:Generated_Source\PSoC6\pdl\drivers/peripheral/gpio/cy_gpio.h **** cy_en_gpio_status_t Cy_GPIO_Pin_Init(GPIO_PRT_Type* base, uint32_t pinNum, const cy_stc_gpio_pin_co
 457:Generated_Source\PSoC6\pdl\drivers/peripheral/gpio/cy_gpio.h **** cy_en_gpio_status_t Cy_GPIO_Port_Init(GPIO_PRT_Type* base, const cy_stc_gpio_prt_config_t *config);
 458:Generated_Source\PSoC6\pdl\drivers/peripheral/gpio/cy_gpio.h **** void Cy_GPIO_Pin_FastInit(GPIO_PRT_Type* base, uint32_t pinNum, uint32_t driveMode, uint32_t outVal
 459:Generated_Source\PSoC6\pdl\drivers/peripheral/gpio/cy_gpio.h **** void Cy_GPIO_Port_Deinit(GPIO_PRT_Type* base);
ARM GAS  C:\Users\bryan.lee\AppData\Local\Temp\ccAkWdHW.s 			page 12


 460:Generated_Source\PSoC6\pdl\drivers/peripheral/gpio/cy_gpio.h **** __STATIC_INLINE void Cy_GPIO_SetHSIOM(GPIO_PRT_Type* base, uint32_t pinNum, en_hsiom_sel_t value);
 461:Generated_Source\PSoC6\pdl\drivers/peripheral/gpio/cy_gpio.h **** __STATIC_INLINE en_hsiom_sel_t Cy_GPIO_GetHSIOM(GPIO_PRT_Type* base, uint32_t pinNum);
 462:Generated_Source\PSoC6\pdl\drivers/peripheral/gpio/cy_gpio.h **** __STATIC_INLINE GPIO_PRT_Type* Cy_GPIO_PortToAddr(uint32_t portNum);
 463:Generated_Source\PSoC6\pdl\drivers/peripheral/gpio/cy_gpio.h **** 
 464:Generated_Source\PSoC6\pdl\drivers/peripheral/gpio/cy_gpio.h **** /** \} group_gpio_functions_init */
 465:Generated_Source\PSoC6\pdl\drivers/peripheral/gpio/cy_gpio.h **** 
 466:Generated_Source\PSoC6\pdl\drivers/peripheral/gpio/cy_gpio.h **** /**
 467:Generated_Source\PSoC6\pdl\drivers/peripheral/gpio/cy_gpio.h **** * \addtogroup group_gpio_functions_gpio
 468:Generated_Source\PSoC6\pdl\drivers/peripheral/gpio/cy_gpio.h **** * \{
 469:Generated_Source\PSoC6\pdl\drivers/peripheral/gpio/cy_gpio.h **** */
 470:Generated_Source\PSoC6\pdl\drivers/peripheral/gpio/cy_gpio.h **** 
 471:Generated_Source\PSoC6\pdl\drivers/peripheral/gpio/cy_gpio.h **** __STATIC_INLINE uint32_t Cy_GPIO_Read(GPIO_PRT_Type* base, uint32_t pinNum);
 472:Generated_Source\PSoC6\pdl\drivers/peripheral/gpio/cy_gpio.h **** __STATIC_INLINE void Cy_GPIO_Write(GPIO_PRT_Type* base, uint32_t pinNum, uint32_t value);
 473:Generated_Source\PSoC6\pdl\drivers/peripheral/gpio/cy_gpio.h **** __STATIC_INLINE uint32_t Cy_GPIO_ReadOut(GPIO_PRT_Type* base, uint32_t pinNum);
 474:Generated_Source\PSoC6\pdl\drivers/peripheral/gpio/cy_gpio.h **** __STATIC_INLINE void Cy_GPIO_Set(GPIO_PRT_Type* base, uint32_t pinNum);
 475:Generated_Source\PSoC6\pdl\drivers/peripheral/gpio/cy_gpio.h **** __STATIC_INLINE void Cy_GPIO_Clr(GPIO_PRT_Type* base, uint32_t pinNum);
 476:Generated_Source\PSoC6\pdl\drivers/peripheral/gpio/cy_gpio.h **** __STATIC_INLINE void Cy_GPIO_Inv(GPIO_PRT_Type* base, uint32_t pinNum);
 477:Generated_Source\PSoC6\pdl\drivers/peripheral/gpio/cy_gpio.h **** __STATIC_INLINE void Cy_GPIO_SetDrivemode(GPIO_PRT_Type* base, uint32_t pinNum, uint32_t value);
 478:Generated_Source\PSoC6\pdl\drivers/peripheral/gpio/cy_gpio.h **** __STATIC_INLINE uint32_t Cy_GPIO_GetDrivemode(GPIO_PRT_Type* base, uint32_t pinNum);
 479:Generated_Source\PSoC6\pdl\drivers/peripheral/gpio/cy_gpio.h **** __STATIC_INLINE void Cy_GPIO_SetVtrip(GPIO_PRT_Type* base, uint32_t pinNum, uint32_t value);
 480:Generated_Source\PSoC6\pdl\drivers/peripheral/gpio/cy_gpio.h **** __STATIC_INLINE uint32_t Cy_GPIO_GetVtrip(GPIO_PRT_Type* base, uint32_t pinNum);
 481:Generated_Source\PSoC6\pdl\drivers/peripheral/gpio/cy_gpio.h **** __STATIC_INLINE void Cy_GPIO_SetSlewRate(GPIO_PRT_Type* base, uint32_t pinNum, uint32_t value);
 482:Generated_Source\PSoC6\pdl\drivers/peripheral/gpio/cy_gpio.h **** __STATIC_INLINE uint32_t Cy_GPIO_GetSlewRate(GPIO_PRT_Type* base, uint32_t pinNum);
 483:Generated_Source\PSoC6\pdl\drivers/peripheral/gpio/cy_gpio.h **** __STATIC_INLINE void Cy_GPIO_SetDriveSel(GPIO_PRT_Type* base, uint32_t pinNum, uint32_t value);
 484:Generated_Source\PSoC6\pdl\drivers/peripheral/gpio/cy_gpio.h **** __STATIC_INLINE uint32_t Cy_GPIO_GetDriveSel(GPIO_PRT_Type* base, uint32_t pinNum);
 485:Generated_Source\PSoC6\pdl\drivers/peripheral/gpio/cy_gpio.h **** 
 486:Generated_Source\PSoC6\pdl\drivers/peripheral/gpio/cy_gpio.h **** /** \} group_gpio_functions_gpio */
 487:Generated_Source\PSoC6\pdl\drivers/peripheral/gpio/cy_gpio.h **** 
 488:Generated_Source\PSoC6\pdl\drivers/peripheral/gpio/cy_gpio.h **** /**
 489:Generated_Source\PSoC6\pdl\drivers/peripheral/gpio/cy_gpio.h **** * \addtogroup group_gpio_functions_sio
 490:Generated_Source\PSoC6\pdl\drivers/peripheral/gpio/cy_gpio.h **** * \{
 491:Generated_Source\PSoC6\pdl\drivers/peripheral/gpio/cy_gpio.h **** */
 492:Generated_Source\PSoC6\pdl\drivers/peripheral/gpio/cy_gpio.h **** 
 493:Generated_Source\PSoC6\pdl\drivers/peripheral/gpio/cy_gpio.h **** __STATIC_INLINE void Cy_GPIO_SetVregEn(GPIO_PRT_Type* base, uint32_t pinNum, uint32_t value);
 494:Generated_Source\PSoC6\pdl\drivers/peripheral/gpio/cy_gpio.h **** __STATIC_INLINE uint32_t Cy_GPIO_GetVregEn(GPIO_PRT_Type* base, uint32_t pinNum);
 495:Generated_Source\PSoC6\pdl\drivers/peripheral/gpio/cy_gpio.h **** __STATIC_INLINE void Cy_GPIO_SetIbufMode(GPIO_PRT_Type* base, uint32_t pinNum, uint32_t value);
 496:Generated_Source\PSoC6\pdl\drivers/peripheral/gpio/cy_gpio.h **** __STATIC_INLINE uint32_t Cy_GPIO_GetIbufMode(GPIO_PRT_Type* base, uint32_t pinNum);
 497:Generated_Source\PSoC6\pdl\drivers/peripheral/gpio/cy_gpio.h **** __STATIC_INLINE void Cy_GPIO_SetVtripSel(GPIO_PRT_Type* base, uint32_t pinNum, uint32_t value);
 498:Generated_Source\PSoC6\pdl\drivers/peripheral/gpio/cy_gpio.h **** __STATIC_INLINE uint32_t Cy_GPIO_GetVtripSel(GPIO_PRT_Type* base, uint32_t pinNum);
 499:Generated_Source\PSoC6\pdl\drivers/peripheral/gpio/cy_gpio.h **** __STATIC_INLINE void Cy_GPIO_SetVrefSel(GPIO_PRT_Type* base, uint32_t pinNum, uint32_t value);
 500:Generated_Source\PSoC6\pdl\drivers/peripheral/gpio/cy_gpio.h **** __STATIC_INLINE uint32_t Cy_GPIO_GetVrefSel(GPIO_PRT_Type* base, uint32_t pinNum);
 501:Generated_Source\PSoC6\pdl\drivers/peripheral/gpio/cy_gpio.h **** __STATIC_INLINE void Cy_GPIO_SetVohSel(GPIO_PRT_Type* base, uint32_t pinNum, uint32_t value);
 502:Generated_Source\PSoC6\pdl\drivers/peripheral/gpio/cy_gpio.h **** __STATIC_INLINE uint32_t Cy_GPIO_GetVohSel(GPIO_PRT_Type* base, uint32_t pinNum);
 503:Generated_Source\PSoC6\pdl\drivers/peripheral/gpio/cy_gpio.h **** 
 504:Generated_Source\PSoC6\pdl\drivers/peripheral/gpio/cy_gpio.h **** /** \} group_gpio_functions_sio */
 505:Generated_Source\PSoC6\pdl\drivers/peripheral/gpio/cy_gpio.h **** 
 506:Generated_Source\PSoC6\pdl\drivers/peripheral/gpio/cy_gpio.h **** /**
 507:Generated_Source\PSoC6\pdl\drivers/peripheral/gpio/cy_gpio.h **** * \addtogroup group_gpio_functions_interrupt
 508:Generated_Source\PSoC6\pdl\drivers/peripheral/gpio/cy_gpio.h **** * \{
 509:Generated_Source\PSoC6\pdl\drivers/peripheral/gpio/cy_gpio.h **** */
 510:Generated_Source\PSoC6\pdl\drivers/peripheral/gpio/cy_gpio.h **** 
 511:Generated_Source\PSoC6\pdl\drivers/peripheral/gpio/cy_gpio.h **** __STATIC_INLINE uint32_t Cy_GPIO_GetInterruptStatus(GPIO_PRT_Type* base, uint32_t pinNum);
 512:Generated_Source\PSoC6\pdl\drivers/peripheral/gpio/cy_gpio.h **** __STATIC_INLINE void Cy_GPIO_ClearInterrupt(GPIO_PRT_Type* base, uint32_t pinNum);
 513:Generated_Source\PSoC6\pdl\drivers/peripheral/gpio/cy_gpio.h **** __STATIC_INLINE void Cy_GPIO_SetInterruptMask(GPIO_PRT_Type* base, uint32_t pinNum, uint32_t value)
 514:Generated_Source\PSoC6\pdl\drivers/peripheral/gpio/cy_gpio.h **** __STATIC_INLINE uint32_t Cy_GPIO_GetInterruptMask(GPIO_PRT_Type* base, uint32_t pinNum);
 515:Generated_Source\PSoC6\pdl\drivers/peripheral/gpio/cy_gpio.h **** __STATIC_INLINE uint32_t Cy_GPIO_GetInterruptStatusMasked(GPIO_PRT_Type* base, uint32_t pinNum);
 516:Generated_Source\PSoC6\pdl\drivers/peripheral/gpio/cy_gpio.h **** __STATIC_INLINE void Cy_GPIO_SetSwInterrupt(GPIO_PRT_Type* base, uint32_t pinNum);
ARM GAS  C:\Users\bryan.lee\AppData\Local\Temp\ccAkWdHW.s 			page 13


 517:Generated_Source\PSoC6\pdl\drivers/peripheral/gpio/cy_gpio.h **** __STATIC_INLINE void Cy_GPIO_SetInterruptEdge(GPIO_PRT_Type* base, uint32_t pinNum, uint32_t value)
 518:Generated_Source\PSoC6\pdl\drivers/peripheral/gpio/cy_gpio.h **** __STATIC_INLINE uint32_t Cy_GPIO_GetInterruptEdge(GPIO_PRT_Type* base, uint32_t pinNum);
 519:Generated_Source\PSoC6\pdl\drivers/peripheral/gpio/cy_gpio.h **** __STATIC_INLINE void Cy_GPIO_SetFilter(GPIO_PRT_Type* base, uint32_t value);
 520:Generated_Source\PSoC6\pdl\drivers/peripheral/gpio/cy_gpio.h **** __STATIC_INLINE uint32_t Cy_GPIO_GetFilter(GPIO_PRT_Type* base);
 521:Generated_Source\PSoC6\pdl\drivers/peripheral/gpio/cy_gpio.h **** 
 522:Generated_Source\PSoC6\pdl\drivers/peripheral/gpio/cy_gpio.h **** #if (IOSS_GPIO_GPIO_PORT_NR_0_31 != 0) || defined (CY_DOXYGEN)
 523:Generated_Source\PSoC6\pdl\drivers/peripheral/gpio/cy_gpio.h **** __STATIC_INLINE uint32_t Cy_GPIO_GetInterruptCause0(void);
 524:Generated_Source\PSoC6\pdl\drivers/peripheral/gpio/cy_gpio.h **** #endif /* (IOSS_GPIO_GPIO_PORT_NR_0_31 != 0) */
 525:Generated_Source\PSoC6\pdl\drivers/peripheral/gpio/cy_gpio.h **** 
 526:Generated_Source\PSoC6\pdl\drivers/peripheral/gpio/cy_gpio.h **** #if (IOSS_GPIO_GPIO_PORT_NR_32_63 != 0) || defined (CY_DOXYGEN)
 527:Generated_Source\PSoC6\pdl\drivers/peripheral/gpio/cy_gpio.h **** __STATIC_INLINE uint32_t Cy_GPIO_GetInterruptCause1(void);
 528:Generated_Source\PSoC6\pdl\drivers/peripheral/gpio/cy_gpio.h **** #endif /* (IOSS_GPIO_GPIO_PORT_NR_32_63 != 0) */
 529:Generated_Source\PSoC6\pdl\drivers/peripheral/gpio/cy_gpio.h **** 
 530:Generated_Source\PSoC6\pdl\drivers/peripheral/gpio/cy_gpio.h **** #if (IOSS_GPIO_GPIO_PORT_NR_64_95 != 0) || defined (CY_DOXYGEN)
 531:Generated_Source\PSoC6\pdl\drivers/peripheral/gpio/cy_gpio.h **** __STATIC_INLINE uint32_t Cy_GPIO_GetInterruptCause2(void);
 532:Generated_Source\PSoC6\pdl\drivers/peripheral/gpio/cy_gpio.h **** #endif /* (IOSS_GPIO_GPIO_PORT_NR_64_95 != 0) */
 533:Generated_Source\PSoC6\pdl\drivers/peripheral/gpio/cy_gpio.h **** 
 534:Generated_Source\PSoC6\pdl\drivers/peripheral/gpio/cy_gpio.h **** #if (IOSS_GPIO_GPIO_PORT_NR_96_127 != 0) || defined (CY_DOXYGEN)
 535:Generated_Source\PSoC6\pdl\drivers/peripheral/gpio/cy_gpio.h **** __STATIC_INLINE uint32_t Cy_GPIO_GetInterruptCause3(void);
 536:Generated_Source\PSoC6\pdl\drivers/peripheral/gpio/cy_gpio.h **** #endif /* (IOSS_GPIO_GPIO_PORT_NR_96_127 != 0) */
 537:Generated_Source\PSoC6\pdl\drivers/peripheral/gpio/cy_gpio.h **** 
 538:Generated_Source\PSoC6\pdl\drivers/peripheral/gpio/cy_gpio.h **** /** \} group_gpio_functions_interrupt */
 539:Generated_Source\PSoC6\pdl\drivers/peripheral/gpio/cy_gpio.h **** 
 540:Generated_Source\PSoC6\pdl\drivers/peripheral/gpio/cy_gpio.h **** 
 541:Generated_Source\PSoC6\pdl\drivers/peripheral/gpio/cy_gpio.h **** /**
 542:Generated_Source\PSoC6\pdl\drivers/peripheral/gpio/cy_gpio.h **** * \addtogroup group_gpio_functions_init
 543:Generated_Source\PSoC6\pdl\drivers/peripheral/gpio/cy_gpio.h **** * \{
 544:Generated_Source\PSoC6\pdl\drivers/peripheral/gpio/cy_gpio.h **** */
 545:Generated_Source\PSoC6\pdl\drivers/peripheral/gpio/cy_gpio.h **** 
 546:Generated_Source\PSoC6\pdl\drivers/peripheral/gpio/cy_gpio.h **** /*******************************************************************************
 547:Generated_Source\PSoC6\pdl\drivers/peripheral/gpio/cy_gpio.h **** * Function Name: Cy_GPIO_SetHSIOM
 548:Generated_Source\PSoC6\pdl\drivers/peripheral/gpio/cy_gpio.h **** ****************************************************************************//**
 549:Generated_Source\PSoC6\pdl\drivers/peripheral/gpio/cy_gpio.h **** *
 550:Generated_Source\PSoC6\pdl\drivers/peripheral/gpio/cy_gpio.h **** * \brief Configures the HSIOM connection to the pin.
 551:Generated_Source\PSoC6\pdl\drivers/peripheral/gpio/cy_gpio.h **** *
 552:Generated_Source\PSoC6\pdl\drivers/peripheral/gpio/cy_gpio.h **** * Connects the specified High-Speed Input Output Multiplexer (HSIOM) selection
 553:Generated_Source\PSoC6\pdl\drivers/peripheral/gpio/cy_gpio.h **** * to the pin.
 554:Generated_Source\PSoC6\pdl\drivers/peripheral/gpio/cy_gpio.h **** *
 555:Generated_Source\PSoC6\pdl\drivers/peripheral/gpio/cy_gpio.h **** * \param base
 556:Generated_Source\PSoC6\pdl\drivers/peripheral/gpio/cy_gpio.h **** * Pointer to the pin's port register base address
 557:Generated_Source\PSoC6\pdl\drivers/peripheral/gpio/cy_gpio.h **** *
 558:Generated_Source\PSoC6\pdl\drivers/peripheral/gpio/cy_gpio.h **** * \param pinNum
 559:Generated_Source\PSoC6\pdl\drivers/peripheral/gpio/cy_gpio.h **** * Position of the pin bit-field within the port register
 560:Generated_Source\PSoC6\pdl\drivers/peripheral/gpio/cy_gpio.h **** *
 561:Generated_Source\PSoC6\pdl\drivers/peripheral/gpio/cy_gpio.h **** * \param value
 562:Generated_Source\PSoC6\pdl\drivers/peripheral/gpio/cy_gpio.h **** * HSIOM input selection
 563:Generated_Source\PSoC6\pdl\drivers/peripheral/gpio/cy_gpio.h **** *
 564:Generated_Source\PSoC6\pdl\drivers/peripheral/gpio/cy_gpio.h **** * \return
 565:Generated_Source\PSoC6\pdl\drivers/peripheral/gpio/cy_gpio.h **** * void
 566:Generated_Source\PSoC6\pdl\drivers/peripheral/gpio/cy_gpio.h **** *
 567:Generated_Source\PSoC6\pdl\drivers/peripheral/gpio/cy_gpio.h **** * \note 
 568:Generated_Source\PSoC6\pdl\drivers/peripheral/gpio/cy_gpio.h **** * This function modifies a port register in a read-modify-write operation. It is
 569:Generated_Source\PSoC6\pdl\drivers/peripheral/gpio/cy_gpio.h **** * not thread safe as the resource is shared among multiple pins on a port.
 570:Generated_Source\PSoC6\pdl\drivers/peripheral/gpio/cy_gpio.h **** *
 571:Generated_Source\PSoC6\pdl\drivers/peripheral/gpio/cy_gpio.h **** * \funcusage
 572:Generated_Source\PSoC6\pdl\drivers/peripheral/gpio/cy_gpio.h **** * \snippet gpio/gpio_v1_10_sut_01.cydsn/main_cm4.c snippet_Cy_GPIO_SetHSIOM
 573:Generated_Source\PSoC6\pdl\drivers/peripheral/gpio/cy_gpio.h **** *
ARM GAS  C:\Users\bryan.lee\AppData\Local\Temp\ccAkWdHW.s 			page 14


 574:Generated_Source\PSoC6\pdl\drivers/peripheral/gpio/cy_gpio.h **** *******************************************************************************/
 575:Generated_Source\PSoC6\pdl\drivers/peripheral/gpio/cy_gpio.h **** __STATIC_INLINE void Cy_GPIO_SetHSIOM(GPIO_PRT_Type* base, uint32_t pinNum, en_hsiom_sel_t value)
 576:Generated_Source\PSoC6\pdl\drivers/peripheral/gpio/cy_gpio.h **** {
 577:Generated_Source\PSoC6\pdl\drivers/peripheral/gpio/cy_gpio.h ****     uint32_t portNum;
 578:Generated_Source\PSoC6\pdl\drivers/peripheral/gpio/cy_gpio.h ****     uint32_t tempReg;
 579:Generated_Source\PSoC6\pdl\drivers/peripheral/gpio/cy_gpio.h ****     HSIOM_PRT_Type* portAddrHSIOM;
 580:Generated_Source\PSoC6\pdl\drivers/peripheral/gpio/cy_gpio.h **** 
 581:Generated_Source\PSoC6\pdl\drivers/peripheral/gpio/cy_gpio.h ****     CY_ASSERT_L2(CY_GPIO_IS_PIN_VALID(pinNum));
 582:Generated_Source\PSoC6\pdl\drivers/peripheral/gpio/cy_gpio.h ****     CY_ASSERT_L2(CY_GPIO_IS_HSIOM_VALID(value));
 583:Generated_Source\PSoC6\pdl\drivers/peripheral/gpio/cy_gpio.h **** 
 584:Generated_Source\PSoC6\pdl\drivers/peripheral/gpio/cy_gpio.h ****     portNum = ((uint32_t)(base) - GPIO_BASE) / GPIO_PRT_SECTION_SIZE;
 585:Generated_Source\PSoC6\pdl\drivers/peripheral/gpio/cy_gpio.h ****     portAddrHSIOM = (HSIOM_PRT_Type*)(HSIOM_BASE + (HSIOM_PRT_SECTION_SIZE * portNum));
 586:Generated_Source\PSoC6\pdl\drivers/peripheral/gpio/cy_gpio.h **** 
 587:Generated_Source\PSoC6\pdl\drivers/peripheral/gpio/cy_gpio.h ****     if(pinNum < CY_GPIO_PRT_HALF)
 588:Generated_Source\PSoC6\pdl\drivers/peripheral/gpio/cy_gpio.h ****     {
 589:Generated_Source\PSoC6\pdl\drivers/peripheral/gpio/cy_gpio.h ****         tempReg = portAddrHSIOM->PORT_SEL0 & ~(CY_GPIO_HSIOM_MASK << (pinNum << CY_GPIO_HSIOM_OFFSE
 590:Generated_Source\PSoC6\pdl\drivers/peripheral/gpio/cy_gpio.h ****         portAddrHSIOM->PORT_SEL0 = tempReg | ((value & CY_GPIO_HSIOM_MASK) << (pinNum << CY_GPIO_HS
 591:Generated_Source\PSoC6\pdl\drivers/peripheral/gpio/cy_gpio.h ****     }
 592:Generated_Source\PSoC6\pdl\drivers/peripheral/gpio/cy_gpio.h ****     else
 593:Generated_Source\PSoC6\pdl\drivers/peripheral/gpio/cy_gpio.h ****     {
 594:Generated_Source\PSoC6\pdl\drivers/peripheral/gpio/cy_gpio.h ****         pinNum -= CY_GPIO_PRT_HALF;
 595:Generated_Source\PSoC6\pdl\drivers/peripheral/gpio/cy_gpio.h ****         tempReg = portAddrHSIOM->PORT_SEL1 & ~(CY_GPIO_HSIOM_MASK << (pinNum << CY_GPIO_HSIOM_OFFSE
 596:Generated_Source\PSoC6\pdl\drivers/peripheral/gpio/cy_gpio.h ****         portAddrHSIOM->PORT_SEL1 = tempReg | ((value & CY_GPIO_HSIOM_MASK) << (pinNum << CY_GPIO_HS
 597:Generated_Source\PSoC6\pdl\drivers/peripheral/gpio/cy_gpio.h ****     }
 598:Generated_Source\PSoC6\pdl\drivers/peripheral/gpio/cy_gpio.h **** }
 599:Generated_Source\PSoC6\pdl\drivers/peripheral/gpio/cy_gpio.h **** 
 600:Generated_Source\PSoC6\pdl\drivers/peripheral/gpio/cy_gpio.h **** 
 601:Generated_Source\PSoC6\pdl\drivers/peripheral/gpio/cy_gpio.h **** /*******************************************************************************
 602:Generated_Source\PSoC6\pdl\drivers/peripheral/gpio/cy_gpio.h **** * Function Name: Cy_GPIO_GetHSIOM
 603:Generated_Source\PSoC6\pdl\drivers/peripheral/gpio/cy_gpio.h **** ****************************************************************************//**
 604:Generated_Source\PSoC6\pdl\drivers/peripheral/gpio/cy_gpio.h **** *
 605:Generated_Source\PSoC6\pdl\drivers/peripheral/gpio/cy_gpio.h **** * \brief Returns the current HSIOM multiplexer connection to the pin.
 606:Generated_Source\PSoC6\pdl\drivers/peripheral/gpio/cy_gpio.h **** *
 607:Generated_Source\PSoC6\pdl\drivers/peripheral/gpio/cy_gpio.h **** * \param base
 608:Generated_Source\PSoC6\pdl\drivers/peripheral/gpio/cy_gpio.h **** * Pointer to the pin's port register base address
 609:Generated_Source\PSoC6\pdl\drivers/peripheral/gpio/cy_gpio.h **** *
 610:Generated_Source\PSoC6\pdl\drivers/peripheral/gpio/cy_gpio.h **** * \param pinNum
 611:Generated_Source\PSoC6\pdl\drivers/peripheral/gpio/cy_gpio.h **** * Position of the pin bit-field within the port register
 612:Generated_Source\PSoC6\pdl\drivers/peripheral/gpio/cy_gpio.h **** *
 613:Generated_Source\PSoC6\pdl\drivers/peripheral/gpio/cy_gpio.h **** * \return
 614:Generated_Source\PSoC6\pdl\drivers/peripheral/gpio/cy_gpio.h **** * HSIOM input selection
 615:Generated_Source\PSoC6\pdl\drivers/peripheral/gpio/cy_gpio.h **** *
 616:Generated_Source\PSoC6\pdl\drivers/peripheral/gpio/cy_gpio.h **** * \funcusage
 617:Generated_Source\PSoC6\pdl\drivers/peripheral/gpio/cy_gpio.h **** * \snippet gpio/gpio_v1_10_sut_01.cydsn/main_cm4.c snippet_Cy_GPIO_SetHSIOM
 618:Generated_Source\PSoC6\pdl\drivers/peripheral/gpio/cy_gpio.h **** *
 619:Generated_Source\PSoC6\pdl\drivers/peripheral/gpio/cy_gpio.h **** *******************************************************************************/
 620:Generated_Source\PSoC6\pdl\drivers/peripheral/gpio/cy_gpio.h **** __STATIC_INLINE en_hsiom_sel_t Cy_GPIO_GetHSIOM(GPIO_PRT_Type* base, uint32_t pinNum)
 621:Generated_Source\PSoC6\pdl\drivers/peripheral/gpio/cy_gpio.h **** {
 622:Generated_Source\PSoC6\pdl\drivers/peripheral/gpio/cy_gpio.h ****     uint32_t returnValue;
 623:Generated_Source\PSoC6\pdl\drivers/peripheral/gpio/cy_gpio.h ****     uint32_t portNum;
 624:Generated_Source\PSoC6\pdl\drivers/peripheral/gpio/cy_gpio.h ****     HSIOM_PRT_Type* portAddrHSIOM;
 625:Generated_Source\PSoC6\pdl\drivers/peripheral/gpio/cy_gpio.h ****     
 626:Generated_Source\PSoC6\pdl\drivers/peripheral/gpio/cy_gpio.h ****     CY_ASSERT_L2(CY_GPIO_IS_PIN_VALID(pinNum));
 627:Generated_Source\PSoC6\pdl\drivers/peripheral/gpio/cy_gpio.h **** 
 628:Generated_Source\PSoC6\pdl\drivers/peripheral/gpio/cy_gpio.h ****     portNum = ((uint32_t)(base) - GPIO_BASE) / GPIO_PRT_SECTION_SIZE;
 629:Generated_Source\PSoC6\pdl\drivers/peripheral/gpio/cy_gpio.h ****     portAddrHSIOM = (HSIOM_PRT_Type*)(HSIOM_BASE + (HSIOM_PRT_SECTION_SIZE * portNum));
 630:Generated_Source\PSoC6\pdl\drivers/peripheral/gpio/cy_gpio.h **** 
ARM GAS  C:\Users\bryan.lee\AppData\Local\Temp\ccAkWdHW.s 			page 15


 631:Generated_Source\PSoC6\pdl\drivers/peripheral/gpio/cy_gpio.h ****     if(pinNum < CY_GPIO_PRT_HALF)
 632:Generated_Source\PSoC6\pdl\drivers/peripheral/gpio/cy_gpio.h ****     {
 633:Generated_Source\PSoC6\pdl\drivers/peripheral/gpio/cy_gpio.h ****         returnValue = (portAddrHSIOM->PORT_SEL0 >> (pinNum << CY_GPIO_HSIOM_OFFSET)) & CY_GPIO_HSIO
 634:Generated_Source\PSoC6\pdl\drivers/peripheral/gpio/cy_gpio.h ****     }
 635:Generated_Source\PSoC6\pdl\drivers/peripheral/gpio/cy_gpio.h ****     else
 636:Generated_Source\PSoC6\pdl\drivers/peripheral/gpio/cy_gpio.h ****     {
 637:Generated_Source\PSoC6\pdl\drivers/peripheral/gpio/cy_gpio.h ****         pinNum -= CY_GPIO_PRT_HALF;
 638:Generated_Source\PSoC6\pdl\drivers/peripheral/gpio/cy_gpio.h ****         returnValue = (portAddrHSIOM->PORT_SEL1 >> (pinNum << CY_GPIO_HSIOM_OFFSET)) & CY_GPIO_HSIO
 639:Generated_Source\PSoC6\pdl\drivers/peripheral/gpio/cy_gpio.h ****     }
 640:Generated_Source\PSoC6\pdl\drivers/peripheral/gpio/cy_gpio.h **** 
 641:Generated_Source\PSoC6\pdl\drivers/peripheral/gpio/cy_gpio.h ****     return (en_hsiom_sel_t)returnValue;
 642:Generated_Source\PSoC6\pdl\drivers/peripheral/gpio/cy_gpio.h **** }
 643:Generated_Source\PSoC6\pdl\drivers/peripheral/gpio/cy_gpio.h **** 
 644:Generated_Source\PSoC6\pdl\drivers/peripheral/gpio/cy_gpio.h **** 
 645:Generated_Source\PSoC6\pdl\drivers/peripheral/gpio/cy_gpio.h **** /*******************************************************************************
 646:Generated_Source\PSoC6\pdl\drivers/peripheral/gpio/cy_gpio.h **** * Function Name: Cy_GPIO_PortToAddr
 647:Generated_Source\PSoC6\pdl\drivers/peripheral/gpio/cy_gpio.h **** ****************************************************************************//**
 648:Generated_Source\PSoC6\pdl\drivers/peripheral/gpio/cy_gpio.h **** *
 649:Generated_Source\PSoC6\pdl\drivers/peripheral/gpio/cy_gpio.h **** * \brief Retrieves the port address based on the given port number.
 650:Generated_Source\PSoC6\pdl\drivers/peripheral/gpio/cy_gpio.h **** *
 651:Generated_Source\PSoC6\pdl\drivers/peripheral/gpio/cy_gpio.h **** * This is a helper function to calculate the port base address when given a port
 652:Generated_Source\PSoC6\pdl\drivers/peripheral/gpio/cy_gpio.h **** * number. It is to be used when pin access needs to be calculated at runtime.
 653:Generated_Source\PSoC6\pdl\drivers/peripheral/gpio/cy_gpio.h **** *
 654:Generated_Source\PSoC6\pdl\drivers/peripheral/gpio/cy_gpio.h **** * \param portNum
 655:Generated_Source\PSoC6\pdl\drivers/peripheral/gpio/cy_gpio.h **** * Port number
 656:Generated_Source\PSoC6\pdl\drivers/peripheral/gpio/cy_gpio.h **** *
 657:Generated_Source\PSoC6\pdl\drivers/peripheral/gpio/cy_gpio.h **** * \return
 658:Generated_Source\PSoC6\pdl\drivers/peripheral/gpio/cy_gpio.h **** * Base address of the port register structure
 659:Generated_Source\PSoC6\pdl\drivers/peripheral/gpio/cy_gpio.h **** *
 660:Generated_Source\PSoC6\pdl\drivers/peripheral/gpio/cy_gpio.h **** * \funcusage
 661:Generated_Source\PSoC6\pdl\drivers/peripheral/gpio/cy_gpio.h **** * \snippet gpio/gpio_v1_10_sut_01.cydsn/main_cm4.c snippet_Cy_GPIO_PortToAddr
 662:Generated_Source\PSoC6\pdl\drivers/peripheral/gpio/cy_gpio.h **** *
 663:Generated_Source\PSoC6\pdl\drivers/peripheral/gpio/cy_gpio.h **** *******************************************************************************/
 664:Generated_Source\PSoC6\pdl\drivers/peripheral/gpio/cy_gpio.h **** __STATIC_INLINE GPIO_PRT_Type* Cy_GPIO_PortToAddr(uint32_t portNum)
 665:Generated_Source\PSoC6\pdl\drivers/peripheral/gpio/cy_gpio.h **** {
 666:Generated_Source\PSoC6\pdl\drivers/peripheral/gpio/cy_gpio.h ****     GPIO_PRT_Type* base;
 667:Generated_Source\PSoC6\pdl\drivers/peripheral/gpio/cy_gpio.h ****     
 668:Generated_Source\PSoC6\pdl\drivers/peripheral/gpio/cy_gpio.h ****     if(portNum < (uint32_t)IOSS_GPIO_GPIO_PORT_NR)
 669:Generated_Source\PSoC6\pdl\drivers/peripheral/gpio/cy_gpio.h ****     {
 670:Generated_Source\PSoC6\pdl\drivers/peripheral/gpio/cy_gpio.h ****          base = (GPIO_PRT_Type *)(GPIO_BASE + (GPIO_PRT_SECTION_SIZE * portNum));
 671:Generated_Source\PSoC6\pdl\drivers/peripheral/gpio/cy_gpio.h ****     }
 672:Generated_Source\PSoC6\pdl\drivers/peripheral/gpio/cy_gpio.h ****     else
 673:Generated_Source\PSoC6\pdl\drivers/peripheral/gpio/cy_gpio.h ****     {
 674:Generated_Source\PSoC6\pdl\drivers/peripheral/gpio/cy_gpio.h ****         /* Error: Return default base address */
 675:Generated_Source\PSoC6\pdl\drivers/peripheral/gpio/cy_gpio.h ****         base = (GPIO_PRT_Type *)(GPIO_BASE);
 676:Generated_Source\PSoC6\pdl\drivers/peripheral/gpio/cy_gpio.h ****     }
 677:Generated_Source\PSoC6\pdl\drivers/peripheral/gpio/cy_gpio.h **** 
 678:Generated_Source\PSoC6\pdl\drivers/peripheral/gpio/cy_gpio.h ****     return (base);
 679:Generated_Source\PSoC6\pdl\drivers/peripheral/gpio/cy_gpio.h **** }
 680:Generated_Source\PSoC6\pdl\drivers/peripheral/gpio/cy_gpio.h **** 
 681:Generated_Source\PSoC6\pdl\drivers/peripheral/gpio/cy_gpio.h **** /** \} group_gpio_functions_init */
 682:Generated_Source\PSoC6\pdl\drivers/peripheral/gpio/cy_gpio.h **** 
 683:Generated_Source\PSoC6\pdl\drivers/peripheral/gpio/cy_gpio.h **** /**
 684:Generated_Source\PSoC6\pdl\drivers/peripheral/gpio/cy_gpio.h **** * \addtogroup group_gpio_functions_gpio
 685:Generated_Source\PSoC6\pdl\drivers/peripheral/gpio/cy_gpio.h **** * \{
 686:Generated_Source\PSoC6\pdl\drivers/peripheral/gpio/cy_gpio.h **** */
 687:Generated_Source\PSoC6\pdl\drivers/peripheral/gpio/cy_gpio.h **** 
ARM GAS  C:\Users\bryan.lee\AppData\Local\Temp\ccAkWdHW.s 			page 16


 688:Generated_Source\PSoC6\pdl\drivers/peripheral/gpio/cy_gpio.h **** /*******************************************************************************
 689:Generated_Source\PSoC6\pdl\drivers/peripheral/gpio/cy_gpio.h **** * Function Name: Cy_GPIO_Read
 690:Generated_Source\PSoC6\pdl\drivers/peripheral/gpio/cy_gpio.h **** ****************************************************************************//**
 691:Generated_Source\PSoC6\pdl\drivers/peripheral/gpio/cy_gpio.h **** *
 692:Generated_Source\PSoC6\pdl\drivers/peripheral/gpio/cy_gpio.h **** * \brief Reads the current logic level on the input buffer of the pin.
 693:Generated_Source\PSoC6\pdl\drivers/peripheral/gpio/cy_gpio.h **** *
 694:Generated_Source\PSoC6\pdl\drivers/peripheral/gpio/cy_gpio.h **** * \param base
 695:Generated_Source\PSoC6\pdl\drivers/peripheral/gpio/cy_gpio.h **** * Pointer to the pin's port register base address
 696:Generated_Source\PSoC6\pdl\drivers/peripheral/gpio/cy_gpio.h **** *
 697:Generated_Source\PSoC6\pdl\drivers/peripheral/gpio/cy_gpio.h **** * \param pinNum
 698:Generated_Source\PSoC6\pdl\drivers/peripheral/gpio/cy_gpio.h **** * Position of the pin bit-field within the port register.
 699:Generated_Source\PSoC6\pdl\drivers/peripheral/gpio/cy_gpio.h **** * Bit position 8 is the routed pin through the port glitch filter.
 700:Generated_Source\PSoC6\pdl\drivers/peripheral/gpio/cy_gpio.h **** *
 701:Generated_Source\PSoC6\pdl\drivers/peripheral/gpio/cy_gpio.h **** * \return
 702:Generated_Source\PSoC6\pdl\drivers/peripheral/gpio/cy_gpio.h **** * Logic level present on the pin
 703:Generated_Source\PSoC6\pdl\drivers/peripheral/gpio/cy_gpio.h **** *
 704:Generated_Source\PSoC6\pdl\drivers/peripheral/gpio/cy_gpio.h **** * \funcusage
 705:Generated_Source\PSoC6\pdl\drivers/peripheral/gpio/cy_gpio.h **** * \snippet gpio/gpio_v1_10_sut_01.cydsn/main_cm4.c snippet_Cy_GPIO_Read
 706:Generated_Source\PSoC6\pdl\drivers/peripheral/gpio/cy_gpio.h **** *
 707:Generated_Source\PSoC6\pdl\drivers/peripheral/gpio/cy_gpio.h **** *******************************************************************************/
 708:Generated_Source\PSoC6\pdl\drivers/peripheral/gpio/cy_gpio.h **** __STATIC_INLINE uint32_t Cy_GPIO_Read(GPIO_PRT_Type* base, uint32_t pinNum)
 709:Generated_Source\PSoC6\pdl\drivers/peripheral/gpio/cy_gpio.h **** {
 710:Generated_Source\PSoC6\pdl\drivers/peripheral/gpio/cy_gpio.h ****     CY_ASSERT_L2(CY_GPIO_IS_FILTER_PIN_VALID(pinNum));
 711:Generated_Source\PSoC6\pdl\drivers/peripheral/gpio/cy_gpio.h ****     
 712:Generated_Source\PSoC6\pdl\drivers/peripheral/gpio/cy_gpio.h ****     return (base->IN >> (pinNum)) & CY_GPIO_IN_MASK;
 713:Generated_Source\PSoC6\pdl\drivers/peripheral/gpio/cy_gpio.h **** }
 714:Generated_Source\PSoC6\pdl\drivers/peripheral/gpio/cy_gpio.h **** 
 715:Generated_Source\PSoC6\pdl\drivers/peripheral/gpio/cy_gpio.h **** 
 716:Generated_Source\PSoC6\pdl\drivers/peripheral/gpio/cy_gpio.h **** /*******************************************************************************
 717:Generated_Source\PSoC6\pdl\drivers/peripheral/gpio/cy_gpio.h **** * Function Name: Cy_GPIO_Write
 718:Generated_Source\PSoC6\pdl\drivers/peripheral/gpio/cy_gpio.h **** ****************************************************************************//**
 719:Generated_Source\PSoC6\pdl\drivers/peripheral/gpio/cy_gpio.h **** *
 720:Generated_Source\PSoC6\pdl\drivers/peripheral/gpio/cy_gpio.h **** * \brief Write a logic 0 or logic 1 state to the output driver.
 721:Generated_Source\PSoC6\pdl\drivers/peripheral/gpio/cy_gpio.h **** *
 722:Generated_Source\PSoC6\pdl\drivers/peripheral/gpio/cy_gpio.h **** * This function should be used only for software driven pins. It does not have
 723:Generated_Source\PSoC6\pdl\drivers/peripheral/gpio/cy_gpio.h **** * any effect on peripheral driven pins.
 724:Generated_Source\PSoC6\pdl\drivers/peripheral/gpio/cy_gpio.h **** *
 725:Generated_Source\PSoC6\pdl\drivers/peripheral/gpio/cy_gpio.h **** * \param base
 726:Generated_Source\PSoC6\pdl\drivers/peripheral/gpio/cy_gpio.h **** * Pointer to the pin's port register base address
 727:Generated_Source\PSoC6\pdl\drivers/peripheral/gpio/cy_gpio.h **** *
 728:Generated_Source\PSoC6\pdl\drivers/peripheral/gpio/cy_gpio.h **** * \param pinNum
 729:Generated_Source\PSoC6\pdl\drivers/peripheral/gpio/cy_gpio.h **** * Position of the pin bit-field within the port register
 730:Generated_Source\PSoC6\pdl\drivers/peripheral/gpio/cy_gpio.h **** *
 731:Generated_Source\PSoC6\pdl\drivers/peripheral/gpio/cy_gpio.h **** * \param value
 732:Generated_Source\PSoC6\pdl\drivers/peripheral/gpio/cy_gpio.h **** * Logic level to drive out on the pin
 733:Generated_Source\PSoC6\pdl\drivers/peripheral/gpio/cy_gpio.h **** *
 734:Generated_Source\PSoC6\pdl\drivers/peripheral/gpio/cy_gpio.h **** * \return
 735:Generated_Source\PSoC6\pdl\drivers/peripheral/gpio/cy_gpio.h **** * void
 736:Generated_Source\PSoC6\pdl\drivers/peripheral/gpio/cy_gpio.h **** *
 737:Generated_Source\PSoC6\pdl\drivers/peripheral/gpio/cy_gpio.h **** * \funcusage
 738:Generated_Source\PSoC6\pdl\drivers/peripheral/gpio/cy_gpio.h **** * \snippet gpio/gpio_v1_10_sut_01.cydsn/main_cm4.c snippet_Cy_GPIO_Write
 739:Generated_Source\PSoC6\pdl\drivers/peripheral/gpio/cy_gpio.h **** *
 740:Generated_Source\PSoC6\pdl\drivers/peripheral/gpio/cy_gpio.h **** *******************************************************************************/
 741:Generated_Source\PSoC6\pdl\drivers/peripheral/gpio/cy_gpio.h **** __STATIC_INLINE void Cy_GPIO_Write(GPIO_PRT_Type* base, uint32_t pinNum, uint32_t value)
 742:Generated_Source\PSoC6\pdl\drivers/peripheral/gpio/cy_gpio.h **** {
 743:Generated_Source\PSoC6\pdl\drivers/peripheral/gpio/cy_gpio.h ****     CY_ASSERT_L2(CY_GPIO_IS_PIN_VALID(pinNum));
 744:Generated_Source\PSoC6\pdl\drivers/peripheral/gpio/cy_gpio.h ****     CY_ASSERT_L2(CY_GPIO_IS_VALUE_VALID(value));
ARM GAS  C:\Users\bryan.lee\AppData\Local\Temp\ccAkWdHW.s 			page 17


 745:Generated_Source\PSoC6\pdl\drivers/peripheral/gpio/cy_gpio.h **** 
 746:Generated_Source\PSoC6\pdl\drivers/peripheral/gpio/cy_gpio.h ****     /* Thread-safe: Directly access the pin registers instead of base->OUT */
 747:Generated_Source\PSoC6\pdl\drivers/peripheral/gpio/cy_gpio.h ****     if(0UL == value)
 748:Generated_Source\PSoC6\pdl\drivers/peripheral/gpio/cy_gpio.h ****     {
 749:Generated_Source\PSoC6\pdl\drivers/peripheral/gpio/cy_gpio.h ****         base->OUT_CLR = CY_GPIO_OUT_MASK << pinNum;
  49              		.loc 2 749 0
  50 000a 0F4C     		ldr	r4, .L4
  51 000c 0827     		movs	r7, #8
  52 000e 6760     		str	r7, [r4, #4]
  53              	.LVL2:
  54              	.LBE59:
  55              	.LBE58:
 121:pervasive_eink_hardware_driver.c ****     /* Pull the chip select line LOW to begin communication */
 122:pervasive_eink_hardware_driver.c ****     CY_EINK_CsLow;
 123:pervasive_eink_hardware_driver.c ****     /* Send the header of register address index */
 124:pervasive_eink_hardware_driver.c ****     Cy_EINK_WriteSPI(PV_EINK_REG_INDEX_HEADER);
  56              		.loc 1 124 0
  57 0010 7020     		movs	r0, #112
  58              	.LVL3:
  59 0012 FFF7FEFF 		bl	Cy_EINK_WriteSPI
  60              	.LVL4:
 125:pervasive_eink_hardware_driver.c ****     /* Send the register address */
 126:pervasive_eink_hardware_driver.c ****     Cy_EINK_WriteSPI(regAddr);
  61              		.loc 1 126 0
  62 0016 0198     		ldr	r0, [sp, #4]
  63 0018 FFF7FEFF 		bl	Cy_EINK_WriteSPI
  64              	.LVL5:
  65              	.LBB60:
  66              	.LBB61:
 750:Generated_Source\PSoC6\pdl\drivers/peripheral/gpio/cy_gpio.h ****     }
 751:Generated_Source\PSoC6\pdl\drivers/peripheral/gpio/cy_gpio.h ****     else
 752:Generated_Source\PSoC6\pdl\drivers/peripheral/gpio/cy_gpio.h ****     {
 753:Generated_Source\PSoC6\pdl\drivers/peripheral/gpio/cy_gpio.h ****         base->OUT_SET = CY_GPIO_OUT_MASK << pinNum;
  67              		.loc 2 753 0
  68 001c A760     		str	r7, [r4, #8]
  69              	.LVL6:
  70              	.LBE61:
  71              	.LBE60:
  72              	.LBB62:
  73              	.LBB63:
 749:Generated_Source\PSoC6\pdl\drivers/peripheral/gpio/cy_gpio.h ****     }
  74              		.loc 2 749 0
  75 001e 6760     		str	r7, [r4, #4]
  76              	.LVL7:
  77              	.LBE63:
  78              	.LBE62:
 127:pervasive_eink_hardware_driver.c ****     /* Push the chip select line HIGH to end communication */
 128:pervasive_eink_hardware_driver.c ****     CY_EINK_CsHigh;
 129:pervasive_eink_hardware_driver.c ****     
 130:pervasive_eink_hardware_driver.c ****     /* Wait for 10uS before the next transmission */
 131:pervasive_eink_hardware_driver.c ****     CY_EINK_Wait10uS;
 132:pervasive_eink_hardware_driver.c ****     
 133:pervasive_eink_hardware_driver.c ****     /* Pull the chip select line LOW to begin communication */
 134:pervasive_eink_hardware_driver.c ****     CY_EINK_CsLow;
 135:pervasive_eink_hardware_driver.c ****     /* Send the header of data write index */
 136:pervasive_eink_hardware_driver.c ****     Cy_EINK_WriteSPI(PV_EINK_REG_DATA_WRITE);
  79              		.loc 1 136 0
ARM GAS  C:\Users\bryan.lee\AppData\Local\Temp\ccAkWdHW.s 			page 18


  80 0020 7220     		movs	r0, #114
  81 0022 FFF7FEFF 		bl	Cy_EINK_WriteSPI
  82              	.LVL8:
 137:pervasive_eink_hardware_driver.c ****     /* Send the array of data */
 138:pervasive_eink_hardware_driver.c ****     while (dataLength--)
  83              		.loc 1 138 0
  84 0026 05E0     		b	.L2
  85              	.LVL9:
  86              	.L3:
 139:pervasive_eink_hardware_driver.c ****     {
 140:pervasive_eink_hardware_driver.c ****         Cy_EINK_WriteSPI(*data++);
  87              		.loc 1 140 0
  88 0028 771C     		adds	r7, r6, #1
  89              	.LVL10:
  90 002a 3078     		ldrb	r0, [r6]
  91 002c FFF7FEFF 		bl	Cy_EINK_WriteSPI
  92              	.LVL11:
 138:pervasive_eink_hardware_driver.c ****     {
  93              		.loc 1 138 0
  94 0030 2500     		movs	r5, r4
  95              		.loc 1 140 0
  96 0032 3E00     		movs	r6, r7
  97              	.LVL12:
  98              	.L2:
 138:pervasive_eink_hardware_driver.c ****     {
  99              		.loc 1 138 0
 100 0034 6B1E     		subs	r3, r5, #1
 101 0036 9CB2     		uxth	r4, r3
 102              	.LVL13:
 103 0038 002D     		cmp	r5, #0
 104 003a F5D1     		bne	.L3
 105              	.LVL14:
 106              	.LBB64:
 107              	.LBB65:
 108              		.loc 2 753 0
 109 003c 0822     		movs	r2, #8
 110 003e 024B     		ldr	r3, .L4
 111 0040 9A60     		str	r2, [r3, #8]
 112              	.LVL15:
 113              	.LBE65:
 114              	.LBE64:
 141:pervasive_eink_hardware_driver.c ****     }
 142:pervasive_eink_hardware_driver.c ****     /* Push the chip select line HIGH to end communication */
 143:pervasive_eink_hardware_driver.c ****     CY_EINK_CsHigh;
 144:pervasive_eink_hardware_driver.c **** }
 115              		.loc 1 144 0
 116 0042 03B0     		add	sp, sp, #12
 117              		@ sp needed
 118              	.LVL16:
 119              	.LVL17:
 120              	.LVL18:
 121 0044 F0BD     		pop	{r4, r5, r6, r7, pc}
 122              	.L5:
 123 0046 C046     		.align	2
 124              	.L4:
 125 0048 00063240 		.word	1077020160
 126              		.cfi_endproc
ARM GAS  C:\Users\bryan.lee\AppData\Local\Temp\ccAkWdHW.s 			page 19


 127              	.LFE453:
 128              		.size	Pv_EINK_SendData, .-Pv_EINK_SendData
 129              		.section	.text.Pv_EINK_SendByte,"ax",%progbits
 130              		.align	2
 131              		.global	Pv_EINK_SendByte
 132              		.code	16
 133              		.thumb_func
 134              		.type	Pv_EINK_SendByte, %function
 135              	Pv_EINK_SendByte:
 136              	.LFB454:
 145:pervasive_eink_hardware_driver.c **** 
 146:pervasive_eink_hardware_driver.c **** /*******************************************************************************
 147:pervasive_eink_hardware_driver.c **** * Function Name: void Pv_EINK_SendByte(uint8_t regAddr, uint8_t data)
 148:pervasive_eink_hardware_driver.c **** ********************************************************************************
 149:pervasive_eink_hardware_driver.c **** *
 150:pervasive_eink_hardware_driver.c **** * Summary: Sends a byte of data to the E-INK driver.
 151:pervasive_eink_hardware_driver.c **** *
 152:pervasive_eink_hardware_driver.c **** * Parameters:
 153:pervasive_eink_hardware_driver.c **** *  uint8_t regAddr: Display driver register address
 154:pervasive_eink_hardware_driver.c **** *  uint8_t data   : Data byte that will be sent to the driver
 155:pervasive_eink_hardware_driver.c **** *
 156:pervasive_eink_hardware_driver.c **** * Return:
 157:pervasive_eink_hardware_driver.c **** *  None
 158:pervasive_eink_hardware_driver.c **** *
 159:pervasive_eink_hardware_driver.c **** * Side Effects:
 160:pervasive_eink_hardware_driver.c **** *  None
 161:pervasive_eink_hardware_driver.c **** *******************************************************************************/
 162:pervasive_eink_hardware_driver.c **** void Pv_EINK_SendByte(uint8_t regAddr, uint8_t data)
 163:pervasive_eink_hardware_driver.c **** {
 137              		.loc 1 163 0
 138              		.cfi_startproc
 139              		@ args = 0, pretend = 0, frame = 8
 140              		@ frame_needed = 0, uses_anonymous_args = 0
 141              	.LVL19:
 142 0000 00B5     		push	{lr}
 143              		.cfi_def_cfa_offset 4
 144              		.cfi_offset 14, -4
 145 0002 83B0     		sub	sp, sp, #12
 146              		.cfi_def_cfa_offset 16
 147 0004 6B46     		mov	r3, sp
 148 0006 D971     		strb	r1, [r3, #7]
 149 0008 0733     		adds	r3, r3, #7
 164:pervasive_eink_hardware_driver.c ****     /* Send a single byte of data */
 165:pervasive_eink_hardware_driver.c ****     Pv_EINK_SendData(regAddr, &data, CY_EINK_SINGLE_BYTE);
 150              		.loc 1 165 0
 151 000a 0122     		movs	r2, #1
 152 000c 1900     		movs	r1, r3
 153              	.LVL20:
 154 000e FFF7FEFF 		bl	Pv_EINK_SendData
 155              	.LVL21:
 166:pervasive_eink_hardware_driver.c **** }
 156              		.loc 1 166 0
 157 0012 03B0     		add	sp, sp, #12
 158              	.LVL22:
 159              		@ sp needed
 160 0014 00BD     		pop	{pc}
 161              		.cfi_endproc
ARM GAS  C:\Users\bryan.lee\AppData\Local\Temp\ccAkWdHW.s 			page 20


 162              	.LFE454:
 163              		.size	Pv_EINK_SendByte, .-Pv_EINK_SendByte
 164 0016 C046     		.section	.text.Pv_EINK_ReadByte,"ax",%progbits
 165              		.align	2
 166              		.global	Pv_EINK_ReadByte
 167              		.code	16
 168              		.thumb_func
 169              		.type	Pv_EINK_ReadByte, %function
 170              	Pv_EINK_ReadByte:
 171              	.LFB455:
 167:pervasive_eink_hardware_driver.c **** 
 168:pervasive_eink_hardware_driver.c **** /*******************************************************************************
 169:pervasive_eink_hardware_driver.c **** * Function Name: uint8_t Pv_EINK_ReadByte(uint8_t regAddr, uint8_t data)
 170:pervasive_eink_hardware_driver.c **** ********************************************************************************
 171:pervasive_eink_hardware_driver.c **** *
 172:pervasive_eink_hardware_driver.c **** * Summary: Sends a read command to the E-INK driver and receives a byte of data
 173:pervasive_eink_hardware_driver.c **** *  from the driver.
 174:pervasive_eink_hardware_driver.c **** *
 175:pervasive_eink_hardware_driver.c **** * Parameters:
 176:pervasive_eink_hardware_driver.c **** *  uint8_t regAddr: Display driver register address
 177:pervasive_eink_hardware_driver.c **** *  uint8_t data   : Data command that will be sent to the driver
 178:pervasive_eink_hardware_driver.c **** *
 179:pervasive_eink_hardware_driver.c **** * Return:
 180:pervasive_eink_hardware_driver.c **** *  uint8_t :  Data received from the display driver
 181:pervasive_eink_hardware_driver.c **** *
 182:pervasive_eink_hardware_driver.c **** * Side Effects:
 183:pervasive_eink_hardware_driver.c **** *  None
 184:pervasive_eink_hardware_driver.c **** *******************************************************************************/
 185:pervasive_eink_hardware_driver.c **** uint8_t Pv_EINK_ReadByte(uint8_t regAddr, uint8_t data)
 186:pervasive_eink_hardware_driver.c **** {
 172              		.loc 1 186 0
 173              		.cfi_startproc
 174              		@ args = 0, pretend = 0, frame = 0
 175              		@ frame_needed = 0, uses_anonymous_args = 0
 176              	.LVL23:
 177 0000 F8B5     		push	{r3, r4, r5, r6, r7, lr}
 178              		.cfi_def_cfa_offset 24
 179              		.cfi_offset 3, -24
 180              		.cfi_offset 4, -20
 181              		.cfi_offset 5, -16
 182              		.cfi_offset 6, -12
 183              		.cfi_offset 7, -8
 184              		.cfi_offset 14, -4
 185 0002 0700     		movs	r7, r0
 186 0004 0E00     		movs	r6, r1
 187              	.LVL24:
 188              	.LBB66:
 189              	.LBB67:
 749:Generated_Source\PSoC6\pdl\drivers/peripheral/gpio/cy_gpio.h ****     }
 190              		.loc 2 749 0
 191 0006 094C     		ldr	r4, .L8
 192 0008 0825     		movs	r5, #8
 193 000a 6560     		str	r5, [r4, #4]
 194              	.LVL25:
 195              	.LBE67:
 196              	.LBE66:
 187:pervasive_eink_hardware_driver.c ****     /* Variable that stores received data */
ARM GAS  C:\Users\bryan.lee\AppData\Local\Temp\ccAkWdHW.s 			page 21


 188:pervasive_eink_hardware_driver.c ****     uint8_t dataRead;
 189:pervasive_eink_hardware_driver.c ****     
 190:pervasive_eink_hardware_driver.c ****     /* Pull the chip select line LOW to begin communication */
 191:pervasive_eink_hardware_driver.c ****     CY_EINK_CsLow;
 192:pervasive_eink_hardware_driver.c ****     /* Send the header of register address index */
 193:pervasive_eink_hardware_driver.c ****     Cy_EINK_WriteSPI(PV_EINK_REG_INDEX_HEADER);
 197              		.loc 1 193 0
 198 000c 7020     		movs	r0, #112
 199              	.LVL26:
 200 000e FFF7FEFF 		bl	Cy_EINK_WriteSPI
 201              	.LVL27:
 194:pervasive_eink_hardware_driver.c ****     /* Send the register address */
 195:pervasive_eink_hardware_driver.c ****     Cy_EINK_WriteSPI(regAddr);
 202              		.loc 1 195 0
 203 0012 3800     		movs	r0, r7
 204 0014 FFF7FEFF 		bl	Cy_EINK_WriteSPI
 205              	.LVL28:
 206              	.LBB68:
 207              	.LBB69:
 208              		.loc 2 753 0
 209 0018 A560     		str	r5, [r4, #8]
 210              	.LVL29:
 211              	.LBE69:
 212              	.LBE68:
 213              	.LBB70:
 214              	.LBB71:
 749:Generated_Source\PSoC6\pdl\drivers/peripheral/gpio/cy_gpio.h ****     }
 215              		.loc 2 749 0
 216 001a 6560     		str	r5, [r4, #4]
 217              	.LVL30:
 218              	.LBE71:
 219              	.LBE70:
 196:pervasive_eink_hardware_driver.c ****     /* Push the chip select line HIGH to end communication */
 197:pervasive_eink_hardware_driver.c ****     CY_EINK_CsHigh;
 198:pervasive_eink_hardware_driver.c ****     
 199:pervasive_eink_hardware_driver.c ****     /* Wait for 10uS before the next transmission */
 200:pervasive_eink_hardware_driver.c ****     CY_EINK_Wait10uS;
 201:pervasive_eink_hardware_driver.c ****     
 202:pervasive_eink_hardware_driver.c ****     /* Pull the chip select line LOW to begin communication */
 203:pervasive_eink_hardware_driver.c ****     CY_EINK_CsLow;
 204:pervasive_eink_hardware_driver.c ****     /* Send the header of data read index */
 205:pervasive_eink_hardware_driver.c ****     Cy_EINK_WriteSPI(PV_EINK_REG_DATA_READ);
 220              		.loc 1 205 0
 221 001c 7320     		movs	r0, #115
 222 001e FFF7FEFF 		bl	Cy_EINK_WriteSPI
 223              	.LVL31:
 206:pervasive_eink_hardware_driver.c ****     /* Send the command to receive a byte of data */
 207:pervasive_eink_hardware_driver.c ****     dataRead = Cy_EINK_ReadSPI(data);
 224              		.loc 1 207 0
 225 0022 3000     		movs	r0, r6
 226 0024 FFF7FEFF 		bl	Cy_EINK_ReadSPI
 227              	.LVL32:
 228              	.LBB72:
 229              	.LBB73:
 230              		.loc 2 753 0
 231 0028 A560     		str	r5, [r4, #8]
 232              	.LVL33:
ARM GAS  C:\Users\bryan.lee\AppData\Local\Temp\ccAkWdHW.s 			page 22


 233              	.LBE73:
 234              	.LBE72:
 208:pervasive_eink_hardware_driver.c ****     /* Push the chip select line HIGH to end communication*/
 209:pervasive_eink_hardware_driver.c ****     CY_EINK_CsHigh;
 210:pervasive_eink_hardware_driver.c ****     
 211:pervasive_eink_hardware_driver.c ****     /* Return the received data */
 212:pervasive_eink_hardware_driver.c ****     return(dataRead);
 213:pervasive_eink_hardware_driver.c **** }
 235              		.loc 1 213 0
 236              		@ sp needed
 237 002a F8BD     		pop	{r3, r4, r5, r6, r7, pc}
 238              	.L9:
 239              		.align	2
 240              	.L8:
 241 002c 00063240 		.word	1077020160
 242              		.cfi_endproc
 243              	.LFE455:
 244              		.size	Pv_EINK_ReadByte, .-Pv_EINK_ReadByte
 245              		.section	.text.Pv_EINK_Init,"ax",%progbits
 246              		.align	2
 247              		.global	Pv_EINK_Init
 248              		.code	16
 249              		.thumb_func
 250              		.type	Pv_EINK_Init, %function
 251              	Pv_EINK_Init:
 252              	.LFB456:
 214:pervasive_eink_hardware_driver.c **** 
 215:pervasive_eink_hardware_driver.c **** /*******************************************************************************
 216:pervasive_eink_hardware_driver.c **** * Function Name: void  Pv_EINK_Init()
 217:pervasive_eink_hardware_driver.c **** ********************************************************************************
 218:pervasive_eink_hardware_driver.c **** *
 219:pervasive_eink_hardware_driver.c **** * Summary: Initialize the E-INK display hardware and associated PSoC components.
 220:pervasive_eink_hardware_driver.c **** *
 221:pervasive_eink_hardware_driver.c **** * Parameters:
 222:pervasive_eink_hardware_driver.c **** *  None
 223:pervasive_eink_hardware_driver.c **** *
 224:pervasive_eink_hardware_driver.c **** * Return:
 225:pervasive_eink_hardware_driver.c **** *  None
 226:pervasive_eink_hardware_driver.c **** *
 227:pervasive_eink_hardware_driver.c **** * Side Effects:
 228:pervasive_eink_hardware_driver.c **** *  None
 229:pervasive_eink_hardware_driver.c **** *******************************************************************************/
 230:pervasive_eink_hardware_driver.c **** void Pv_EINK_Init(void)
 231:pervasive_eink_hardware_driver.c **** {
 253              		.loc 1 231 0
 254              		.cfi_startproc
 255              		@ args = 0, pretend = 0, frame = 0
 256              		@ frame_needed = 0, uses_anonymous_args = 0
 257 0000 70B5     		push	{r4, r5, r6, lr}
 258              		.cfi_def_cfa_offset 16
 259              		.cfi_offset 4, -16
 260              		.cfi_offset 5, -12
 261              		.cfi_offset 6, -8
 262              		.cfi_offset 14, -4
 263              	.LVL34:
 264              	.LBB74:
 265              	.LBB75:
ARM GAS  C:\Users\bryan.lee\AppData\Local\Temp\ccAkWdHW.s 			page 23


 749:Generated_Source\PSoC6\pdl\drivers/peripheral/gpio/cy_gpio.h ****     }
 266              		.loc 2 749 0
 267 0002 0425     		movs	r5, #4
 268 0004 084B     		ldr	r3, .L11
 269 0006 5D60     		str	r5, [r3, #4]
 270              	.LVL35:
 271              	.LBE75:
 272              	.LBE74:
 273              	.LBB76:
 274              	.LBB77:
 275 0008 084C     		ldr	r4, .L11+4
 276 000a 4023     		movs	r3, #64
 277 000c 6360     		str	r3, [r4, #4]
 278              	.LVL36:
 279              	.LBE77:
 280              	.LBE76:
 281              	.LBB78:
 282              	.LBB79:
 283 000e 303B     		subs	r3, r3, #48
 284 0010 6360     		str	r3, [r4, #4]
 285              	.LVL37:
 286              	.LBE79:
 287              	.LBE78:
 232:pervasive_eink_hardware_driver.c ****     /* Enable the level translator located between PSoC and the E-INK display */
 233:pervasive_eink_hardware_driver.c ****     CY_EINK_EnableIO;
 234:pervasive_eink_hardware_driver.c ****     /* Pull the Border pin to LOW */
 235:pervasive_eink_hardware_driver.c ****     CY_EINK_BorderLow;
 236:pervasive_eink_hardware_driver.c ****     /* Disable the load switch connected to E-INK display's Vcc */
 237:pervasive_eink_hardware_driver.c ****     CY_EINK_TurnOffVcc;
 238:pervasive_eink_hardware_driver.c ****     
 239:pervasive_eink_hardware_driver.c ****     /* Initialize the PSoC SPI */
 240:pervasive_eink_hardware_driver.c ****     Cy_EINK_InitSPI();
 288              		.loc 1 240 0
 289 0012 FFF7FEFF 		bl	Cy_EINK_InitSPI
 290              	.LVL38:
 291              	.LBB80:
 292              	.LBB81:
 749:Generated_Source\PSoC6\pdl\drivers/peripheral/gpio/cy_gpio.h ****     }
 293              		.loc 2 749 0
 294 0016 0822     		movs	r2, #8
 295 0018 054B     		ldr	r3, .L11+8
 296 001a 5A60     		str	r2, [r3, #4]
 297              	.LVL39:
 298              	.LBE81:
 299              	.LBE80:
 300              	.LBB82:
 301              	.LBB83:
 302 001c 6560     		str	r5, [r4, #4]
 303              	.LVL40:
 304              	.LBE83:
 305              	.LBE82:
 306              	.LBB84:
 307              	.LBB85:
 308 001e 2023     		movs	r3, #32
 309 0020 6360     		str	r3, [r4, #4]
 310              	.LVL41:
 311              	.LBE85:
ARM GAS  C:\Users\bryan.lee\AppData\Local\Temp\ccAkWdHW.s 			page 24


 312              	.LBE84:
 241:pervasive_eink_hardware_driver.c ****     /* Pull the chip select, reset and discharge pins to LOW */
 242:pervasive_eink_hardware_driver.c ****     CY_EINK_CsLow;
 243:pervasive_eink_hardware_driver.c ****     CY_EINK_RstLow;
 244:pervasive_eink_hardware_driver.c ****     CY_EINK_DischargeLow;
 245:pervasive_eink_hardware_driver.c ****     
 246:pervasive_eink_hardware_driver.c ****     /* Initialize the E-INK display Timer */
 247:pervasive_eink_hardware_driver.c ****     Cy_EINK_TimerInit();
 313              		.loc 1 247 0
 314 0022 FFF7FEFF 		bl	Cy_EINK_TimerInit
 315              	.LVL42:
 248:pervasive_eink_hardware_driver.c **** }
 316              		.loc 1 248 0
 317              		@ sp needed
 318 0026 70BD     		pop	{r4, r5, r6, pc}
 319              	.L12:
 320              		.align	2
 321              	.L11:
 322 0028 00003240 		.word	1077018624
 323 002c 80023240 		.word	1077019264
 324 0030 00063240 		.word	1077020160
 325              		.cfi_endproc
 326              	.LFE456:
 327              		.size	Pv_EINK_Init, .-Pv_EINK_Init
 328              		.section	.text.Pv_EINK_InitDriver,"ax",%progbits
 329              		.align	2
 330              		.global	Pv_EINK_InitDriver
 331              		.code	16
 332              		.thumb_func
 333              		.type	Pv_EINK_InitDriver, %function
 334              	Pv_EINK_InitDriver:
 335              	.LFB457:
 249:pervasive_eink_hardware_driver.c **** 
 250:pervasive_eink_hardware_driver.c **** /*******************************************************************************
 251:pervasive_eink_hardware_driver.c **** * Function Name: Cy_EINK_Status PV_EINK_InitDriver(void)
 252:pervasive_eink_hardware_driver.c **** ********************************************************************************
 253:pervasive_eink_hardware_driver.c **** *
 254:pervasive_eink_hardware_driver.c **** * Summary: Initialize E-INK Driver. For detailed flow and description, please 
 255:pervasive_eink_hardware_driver.c **** * refer to the driver G2 document Section 4.
 256:pervasive_eink_hardware_driver.c **** *
 257:pervasive_eink_hardware_driver.c **** * Parameters:
 258:pervasive_eink_hardware_driver.c **** *  None
 259:pervasive_eink_hardware_driver.c **** *
 260:pervasive_eink_hardware_driver.c **** * Return:
 261:pervasive_eink_hardware_driver.c **** *  pv_eink_status_t: Status of the initialization
 262:pervasive_eink_hardware_driver.c **** *
 263:pervasive_eink_hardware_driver.c **** * Side Effects:
 264:pervasive_eink_hardware_driver.c **** *  None
 265:pervasive_eink_hardware_driver.c **** *******************************************************************************/
 266:pervasive_eink_hardware_driver.c **** pv_eink_status_t Pv_EINK_InitDriver(void)
 267:pervasive_eink_hardware_driver.c **** {
 336              		.loc 1 267 0
 337              		.cfi_startproc
 338              		@ args = 0, pretend = 0, frame = 0
 339              		@ frame_needed = 0, uses_anonymous_args = 0
 340 0000 10B5     		push	{r4, lr}
 341              		.cfi_def_cfa_offset 8
ARM GAS  C:\Users\bryan.lee\AppData\Local\Temp\ccAkWdHW.s 			page 25


 342              		.cfi_offset 4, -8
 343              		.cfi_offset 14, -4
 344              	.LVL43:
 268:pervasive_eink_hardware_driver.c ****     /* Variable used to count the number of loops */
 269:pervasive_eink_hardware_driver.c ****     uint16_t    loopCounter = 0;
 270:pervasive_eink_hardware_driver.c ****     
 271:pervasive_eink_hardware_driver.c ****     /* Clear the line buffer with all zeros */
 272:pervasive_eink_hardware_driver.c ****     memset(&driverPacket.lineBuffer, 0, sizeof(driverPacket.lineBuffer)) ;
 345              		.loc 1 272 0
 346 0002 424C     		ldr	r4, .L25
 347 0004 6F22     		movs	r2, #111
 348 0006 0021     		movs	r1, #0
 349 0008 2000     		movs	r0, r4
 350 000a FFF7FEFF 		bl	memset
 351              	.LVL44:
 273:pervasive_eink_hardware_driver.c ****     
 274:pervasive_eink_hardware_driver.c ****     /* Initialize the even data, odd data and scan data pointers */
 275:pervasive_eink_hardware_driver.c ****     dataLineEven = &driverPacket.lineDataBySize.even[0];
 352              		.loc 1 275 0
 353 000e 631C     		adds	r3, r4, #1
 354 0010 2367     		str	r3, [r4, #112]
 276:pervasive_eink_hardware_driver.c ****     dataLineOdd  = &driverPacket.lineDataBySize.odd[0];
 355              		.loc 1 276 0
 356 0012 2300     		movs	r3, r4
 357 0014 4E33     		adds	r3, r3, #78
 358 0016 6367     		str	r3, [r4, #116]
 277:pervasive_eink_hardware_driver.c ****     dataLineScan = &driverPacket.lineDataBySize.scan[0];
 359              		.loc 1 277 0
 360 0018 2300     		movs	r3, r4
 361 001a 2233     		adds	r3, r3, #34
 362 001c A367     		str	r3, [r4, #120]
 278:pervasive_eink_hardware_driver.c ****     
 279:pervasive_eink_hardware_driver.c ****     /* Initialize and start the E-INK Timer   */
 280:pervasive_eink_hardware_driver.c ****     Cy_EINK_TimerInit();
 363              		.loc 1 280 0
 364 001e FFF7FEFF 		bl	Cy_EINK_TimerInit
 365              	.LVL45:
 281:pervasive_eink_hardware_driver.c ****         
 282:pervasive_eink_hardware_driver.c ****     /* Check if E-INK driver is busy */
 283:pervasive_eink_hardware_driver.c ****     while (Cy_EINK_IsBusy())
 366              		.loc 1 283 0
 367 0022 03E0     		b	.L14
 368              	.L16:
 284:pervasive_eink_hardware_driver.c ****     {
 285:pervasive_eink_hardware_driver.c ****         /* If the E-INK driver is busy for more than maximum allowed time,
 286:pervasive_eink_hardware_driver.c ****            return an error message */
 287:pervasive_eink_hardware_driver.c ****         if (Cy_EINK_GetTimeTick() >= PV_EINK_MAX_PV_EINK_BUSY_TIME)
 369              		.loc 1 287 0
 370 0024 FFF7FEFF 		bl	Cy_EINK_GetTimeTick
 371              	.LVL46:
 372 0028 0328     		cmp	r0, #3
 373 002a 66D8     		bhi	.L20
 374              	.L14:
 283:pervasive_eink_hardware_driver.c ****     {
 375              		.loc 1 283 0
 376 002c FFF7FEFF 		bl	Cy_EINK_IsBusy
 377              	.LVL47:
ARM GAS  C:\Users\bryan.lee\AppData\Local\Temp\ccAkWdHW.s 			page 26


 378 0030 0028     		cmp	r0, #0
 379 0032 F7D1     		bne	.L16
 288:pervasive_eink_hardware_driver.c ****         {
 289:pervasive_eink_hardware_driver.c ****             return(PV_EINK_ERROR_BUSY);
 290:pervasive_eink_hardware_driver.c ****         }
 291:pervasive_eink_hardware_driver.c ****     }
 292:pervasive_eink_hardware_driver.c ****     
 293:pervasive_eink_hardware_driver.c ****     /* Stop the E-INK Timer */
 294:pervasive_eink_hardware_driver.c ****     Cy_EINK_TimerStop();
 380              		.loc 1 294 0
 381 0034 FFF7FEFF 		bl	Cy_EINK_TimerStop
 382              	.LVL48:
 295:pervasive_eink_hardware_driver.c ****     
 296:pervasive_eink_hardware_driver.c ****     /* Check the driver ID */
 297:pervasive_eink_hardware_driver.c ****     if ((Pv_EINK_ReadByte(PV_EINK_DRIVER_ID_COMMAND_INDEX, 
 383              		.loc 1 297 0
 384 0038 0021     		movs	r1, #0
 385 003a 7220     		movs	r0, #114
 386 003c FFF7FEFF 		bl	Pv_EINK_ReadByte
 387              	.LVL49:
 388 0040 0F23     		movs	r3, #15
 389 0042 1840     		ands	r0, r3
 390 0044 0228     		cmp	r0, #2
 391 0046 5AD1     		bne	.L21
 298:pervasive_eink_hardware_driver.c ****                           PV_EINK_DRIVER_ID_COMMAND_DATA)
 299:pervasive_eink_hardware_driver.c ****                           & PV_EINK_DRIVER_ID_MASK)
 300:pervasive_eink_hardware_driver.c ****                           != PV_EINK_DRIVER_ID_CHECK)
 301:pervasive_eink_hardware_driver.c ****     {
 302:pervasive_eink_hardware_driver.c ****         /* Return an error message if incorrect driver ID is received */
 303:pervasive_eink_hardware_driver.c ****         return(PV_EINK_ERROR_ID);
 304:pervasive_eink_hardware_driver.c ****     }
 305:pervasive_eink_hardware_driver.c ****     /* Disable OE */
 306:pervasive_eink_hardware_driver.c ****     Pv_EINK_SendByte(PV_EINK_DISABLE_OE_COMMAND_INDEX, 
 392              		.loc 1 306 0
 393 0048 4021     		movs	r1, #64
 394 004a FFF7FEFF 		bl	Pv_EINK_SendByte
 395              	.LVL50:
 307:pervasive_eink_hardware_driver.c ****                      PV_EINK_DISABLE_OE_COMMAND_DATA);
 308:pervasive_eink_hardware_driver.c ****     
 309:pervasive_eink_hardware_driver.c ****     /* Check Breakage */
 310:pervasive_eink_hardware_driver.c ****     if ((Pv_EINK_ReadByte(PV_EINK_TEST_BREAKAGE_COMMAND_INDEX,
 396              		.loc 1 310 0
 397 004e 0021     		movs	r1, #0
 398 0050 0F20     		movs	r0, #15
 399 0052 FFF7FEFF 		bl	Pv_EINK_ReadByte
 400              	.LVL51:
 401 0056 0306     		lsls	r3, r0, #24
 402 0058 53D5     		bpl	.L22
 311:pervasive_eink_hardware_driver.c ****                           PV_EINK_TEST_BREAKAGE_COMMAND_DATA) & 
 312:pervasive_eink_hardware_driver.c ****                           PV_EINK_TEST_BREAKAGE_MASK)
 313:pervasive_eink_hardware_driver.c ****                           != PV_EINK_TEST_BREAKAGE_CHECK)
 314:pervasive_eink_hardware_driver.c ****     {
 315:pervasive_eink_hardware_driver.c ****         /* Send the error message for breakage */
 316:pervasive_eink_hardware_driver.c ****         return(PV_EINK_ERROR_BREAKAGE);
 317:pervasive_eink_hardware_driver.c ****     }
 318:pervasive_eink_hardware_driver.c ****     /* Power Saving Mode */
 319:pervasive_eink_hardware_driver.c ****     Pv_EINK_SendByte(PV_EINK_PWR_SAVING_COMMAND_INDEX, 
ARM GAS  C:\Users\bryan.lee\AppData\Local\Temp\ccAkWdHW.s 			page 27


 403              		.loc 1 319 0
 404 005a 0221     		movs	r1, #2
 405 005c 0B20     		movs	r0, #11
 406 005e FFF7FEFF 		bl	Pv_EINK_SendByte
 407              	.LVL52:
 320:pervasive_eink_hardware_driver.c ****                   PV_EINK_PWR1_SAVING_COMMAND_DATA);
 321:pervasive_eink_hardware_driver.c ****     
 322:pervasive_eink_hardware_driver.c ****     /* Channel Select */
 323:pervasive_eink_hardware_driver.c ****     Pv_EINK_SendData(PV_EINK_CHANNEL_SEL_COMMAND_INDEX, 
 408              		.loc 1 323 0
 409 0062 0822     		movs	r2, #8
 410 0064 2A49     		ldr	r1, .L25+4
 411 0066 0120     		movs	r0, #1
 412 0068 FFF7FEFF 		bl	Pv_EINK_SendData
 413              	.LVL53:
 324:pervasive_eink_hardware_driver.c ****                     (uint8_t*) &channelSelect,
 325:pervasive_eink_hardware_driver.c ****                      PV_EINK_CHANNEL_SEL_SIZE);
 326:pervasive_eink_hardware_driver.c ****     
 327:pervasive_eink_hardware_driver.c ****     /* High Power Mode Oscillator Setting */
 328:pervasive_eink_hardware_driver.c ****     Pv_EINK_SendByte(PV_EINK_OSC_SETTING_COMMAND_INDEX, 
 414              		.loc 1 328 0
 415 006c D121     		movs	r1, #209
 416 006e 0720     		movs	r0, #7
 417 0070 FFF7FEFF 		bl	Pv_EINK_SendByte
 418              	.LVL54:
 329:pervasive_eink_hardware_driver.c ****                      PV_EINK_OSC_SETTING_COMMAND_DATA);
 330:pervasive_eink_hardware_driver.c ****     /* Power Setting */
 331:pervasive_eink_hardware_driver.c ****     Pv_EINK_SendByte(PV_EINK_PWR1_SETTING_COMMAND_INDEX,
 419              		.loc 1 331 0
 420 0074 0221     		movs	r1, #2
 421 0076 0820     		movs	r0, #8
 422 0078 FFF7FEFF 		bl	Pv_EINK_SendByte
 423              	.LVL55:
 332:pervasive_eink_hardware_driver.c ****                      PV_EINK_PWR1_SETTING_COMMAND_DATA);
 333:pervasive_eink_hardware_driver.c ****     /* Set Vcom level */
 334:pervasive_eink_hardware_driver.c ****     Pv_EINK_SendByte(PV_EINK_VCOM1_LEVEL_COMMAND_INDEX, 
 424              		.loc 1 334 0
 425 007c C221     		movs	r1, #194
 426 007e 0920     		movs	r0, #9
 427 0080 FFF7FEFF 		bl	Pv_EINK_SendByte
 428              	.LVL56:
 335:pervasive_eink_hardware_driver.c ****                      PV_EINK_VCOM1_LEVEL_COMMAND_DATA);
 336:pervasive_eink_hardware_driver.c ****     /* Power Setting */
 337:pervasive_eink_hardware_driver.c ****     Pv_EINK_SendByte(PV_EINK_PWR2_SETTING_COMMAND_INDEX,
 429              		.loc 1 337 0
 430 0084 0321     		movs	r1, #3
 431 0086 0420     		movs	r0, #4
 432 0088 FFF7FEFF 		bl	Pv_EINK_SendByte
 433              	.LVL57:
 338:pervasive_eink_hardware_driver.c ****                      PV_EINK_PWR2_SETTING_COMMAND_DATA);
 339:pervasive_eink_hardware_driver.c ****                   
 340:pervasive_eink_hardware_driver.c ****     /* Driver latch on */
 341:pervasive_eink_hardware_driver.c ****     Pv_EINK_SendByte(PV_EINK_LATCH_OFF_COMMAND_INDEX,
 434              		.loc 1 341 0
 435 008c 0121     		movs	r1, #1
 436 008e 0320     		movs	r0, #3
 437 0090 FFF7FEFF 		bl	Pv_EINK_SendByte
ARM GAS  C:\Users\bryan.lee\AppData\Local\Temp\ccAkWdHW.s 			page 28


 438              	.LVL58:
 342:pervasive_eink_hardware_driver.c ****                      PV_EINK_LATCH_ON_COMMAND_DATA);
 343:pervasive_eink_hardware_driver.c ****     /* Driver latch off */
 344:pervasive_eink_hardware_driver.c ****     Pv_EINK_SendByte(PV_EINK_LATCH_OFF_COMMAND_INDEX, 
 439              		.loc 1 344 0
 440 0094 0021     		movs	r1, #0
 441 0096 0320     		movs	r0, #3
 442 0098 FFF7FEFF 		bl	Pv_EINK_SendByte
 443              	.LVL59:
 345:pervasive_eink_hardware_driver.c ****                      PV_EINK_LATCH_OFF_COMMAND_DATA);
 346:pervasive_eink_hardware_driver.c ****     CY_EINK_Delay(PV_EINK_PIN_DELAY);
 444              		.loc 1 346 0
 445 009c 0A20     		movs	r0, #10
 446 009e FFF7FEFF 		bl	Cy_SysLib_Delay
 447              	.LVL60:
 269:pervasive_eink_hardware_driver.c ****     
 448              		.loc 1 269 0
 449 00a2 0024     		movs	r4, #0
 450 00a4 00E0     		b	.L19
 451              	.LVL61:
 452              	.L23:
 347:pervasive_eink_hardware_driver.c ****     
 348:pervasive_eink_hardware_driver.c ****     /* Start the charge pump */
 349:pervasive_eink_hardware_driver.c ****     do
 350:pervasive_eink_hardware_driver.c ****     {
 351:pervasive_eink_hardware_driver.c ****         /* Start charge pump positive voltage (VGH & VDH on) */
 352:pervasive_eink_hardware_driver.c ****         Pv_EINK_SendByte(PV_EINK_VGH_VDH_ON_COMMAND_INDEX,
 353:pervasive_eink_hardware_driver.c ****                       PV_EINK_VGH_VDH_ON_COMMAND_DATA);
 354:pervasive_eink_hardware_driver.c ****         CY_EINK_Delay(PV_EINK_POSITIVE_V_DELAY);
 355:pervasive_eink_hardware_driver.c ****         
 356:pervasive_eink_hardware_driver.c ****         /* Start charge pump negative voltage (VGL & VDL on) */
 357:pervasive_eink_hardware_driver.c ****         Pv_EINK_SendByte(PV_EINK_VGH_VDH_ON_COMMAND_INDEX,
 358:pervasive_eink_hardware_driver.c ****                       PV_EINK_VGL_VDL_ON_COMMAND_DATA);
 359:pervasive_eink_hardware_driver.c ****         CY_EINK_Delay(PV_EINK_PWR_CTRL_DELAY);
 360:pervasive_eink_hardware_driver.c ****         
 361:pervasive_eink_hardware_driver.c ****         /* Set charge pump (Vcom_Driver on) */
 362:pervasive_eink_hardware_driver.c ****         Pv_EINK_SendByte(PV_EINK_VCOM_DRIVE_ON_COMMAND_INDEX,
 363:pervasive_eink_hardware_driver.c ****                       PV_EINK_VCOM_DRIVE_ON_COMMAND_DATA);
 364:pervasive_eink_hardware_driver.c ****         CY_EINK_Delay(PV_EINK_PWR_CTRL_DELAY);
 365:pervasive_eink_hardware_driver.c ****         
 366:pervasive_eink_hardware_driver.c ****         /* Check DC level */
 367:pervasive_eink_hardware_driver.c ****         if ((Pv_EINK_ReadByte(PV_EINK_DC_LEVEL_READ_COMMAND_INDEX,
 368:pervasive_eink_hardware_driver.c ****                            PV_EINK_DC_LEVEL_READ_COMMAND_DATA) & 
 369:pervasive_eink_hardware_driver.c ****                            PV_EINK_DC_LEVEL_MASK)
 370:pervasive_eink_hardware_driver.c ****                            != PV_EINK_DC_LEVEL_CHECK)
 371:pervasive_eink_hardware_driver.c ****         {
 372:pervasive_eink_hardware_driver.c ****             /* Disable OLE */
 373:pervasive_eink_hardware_driver.c ****             Pv_EINK_SendByte(PV_EINK_DISABLE_OE_COMMAND_INDEX,
 374:pervasive_eink_hardware_driver.c ****                           PV_EINK_DISABLE_OE_COMMAND_DATA);
 375:pervasive_eink_hardware_driver.c ****             break;
 376:pervasive_eink_hardware_driver.c ****         }
 377:pervasive_eink_hardware_driver.c ****     }
 378:pervasive_eink_hardware_driver.c ****     /* Perform this operation for required charge pump write cycles */
 379:pervasive_eink_hardware_driver.c ****     while ((loopCounter++) != PV_EINK_CHARGE_PUMP_MAX_WRITE);
 453              		.loc 1 379 0
 454 00a6 1C00     		movs	r4, r3
 455              	.LVL62:
ARM GAS  C:\Users\bryan.lee\AppData\Local\Temp\ccAkWdHW.s 			page 29


 456              	.L19:
 352:pervasive_eink_hardware_driver.c ****                       PV_EINK_VGH_VDH_ON_COMMAND_DATA);
 457              		.loc 1 352 0
 458 00a8 0121     		movs	r1, #1
 459 00aa 0520     		movs	r0, #5
 460 00ac FFF7FEFF 		bl	Pv_EINK_SendByte
 461              	.LVL63:
 354:pervasive_eink_hardware_driver.c ****         
 462              		.loc 1 354 0
 463 00b0 6420     		movs	r0, #100
 464 00b2 FFF7FEFF 		bl	Cy_SysLib_Delay
 465              	.LVL64:
 357:pervasive_eink_hardware_driver.c ****                       PV_EINK_VGL_VDL_ON_COMMAND_DATA);
 466              		.loc 1 357 0
 467 00b6 0321     		movs	r1, #3
 468 00b8 0520     		movs	r0, #5
 469 00ba FFF7FEFF 		bl	Pv_EINK_SendByte
 470              	.LVL65:
 359:pervasive_eink_hardware_driver.c ****         
 471              		.loc 1 359 0
 472 00be 3220     		movs	r0, #50
 473 00c0 FFF7FEFF 		bl	Cy_SysLib_Delay
 474              	.LVL66:
 362:pervasive_eink_hardware_driver.c ****                       PV_EINK_VCOM_DRIVE_ON_COMMAND_DATA);
 475              		.loc 1 362 0
 476 00c4 0F21     		movs	r1, #15
 477 00c6 0520     		movs	r0, #5
 478 00c8 FFF7FEFF 		bl	Pv_EINK_SendByte
 479              	.LVL67:
 364:pervasive_eink_hardware_driver.c ****         
 480              		.loc 1 364 0
 481 00cc 3220     		movs	r0, #50
 482 00ce FFF7FEFF 		bl	Cy_SysLib_Delay
 483              	.LVL68:
 367:pervasive_eink_hardware_driver.c ****                            PV_EINK_DC_LEVEL_READ_COMMAND_DATA) & 
 484              		.loc 1 367 0
 485 00d2 0021     		movs	r1, #0
 486 00d4 0F20     		movs	r0, #15
 487 00d6 FFF7FEFF 		bl	Pv_EINK_ReadByte
 488              	.LVL69:
 489 00da 4306     		lsls	r3, r0, #25
 490 00dc 05D5     		bpl	.L17
 373:pervasive_eink_hardware_driver.c ****                           PV_EINK_DISABLE_OE_COMMAND_DATA);
 491              		.loc 1 373 0
 492 00de 4021     		movs	r1, #64
 493 00e0 0220     		movs	r0, #2
 494 00e2 FFF7FEFF 		bl	Pv_EINK_SendByte
 495              	.LVL70:
 375:pervasive_eink_hardware_driver.c ****         }
 496              		.loc 1 375 0
 497 00e6 2300     		movs	r3, r4
 498 00e8 03E0     		b	.L18
 499              	.L17:
 500              		.loc 1 379 0
 501 00ea 631C     		adds	r3, r4, #1
 502 00ec 9BB2     		uxth	r3, r3
 503              	.LVL71:
ARM GAS  C:\Users\bryan.lee\AppData\Local\Temp\ccAkWdHW.s 			page 30


 504 00ee 042C     		cmp	r4, #4
 505 00f0 D9D1     		bne	.L23
 506              	.LVL72:
 507              	.L18:
 380:pervasive_eink_hardware_driver.c ****     
 381:pervasive_eink_hardware_driver.c ****     /* If the operation not completed within the required write cycles, send an 
 382:pervasive_eink_hardware_driver.c ****        error message */
 383:pervasive_eink_hardware_driver.c ****     if (loopCounter >= PV_EINK_CHARGE_PUMP_MAX_WRITE)
 508              		.loc 1 383 0
 509 00f2 032B     		cmp	r3, #3
 510 00f4 07D9     		bls	.L24
 384:pervasive_eink_hardware_driver.c ****     {
 385:pervasive_eink_hardware_driver.c ****         CY_EINK_Wait10uS;
 386:pervasive_eink_hardware_driver.c ****         return(PV_EINK_ERROR_CHARGEPUMP);
 511              		.loc 1 386 0
 512 00f6 0520     		movs	r0, #5
 513 00f8 06E0     		b	.L15
 514              	.LVL73:
 515              	.L20:
 289:pervasive_eink_hardware_driver.c ****         }
 516              		.loc 1 289 0
 517 00fa 0120     		movs	r0, #1
 518 00fc 04E0     		b	.L15
 519              	.L21:
 303:pervasive_eink_hardware_driver.c ****     }
 520              		.loc 1 303 0
 521 00fe 0220     		movs	r0, #2
 522 0100 02E0     		b	.L15
 523              	.L22:
 316:pervasive_eink_hardware_driver.c ****     }
 524              		.loc 1 316 0
 525 0102 0320     		movs	r0, #3
 526 0104 00E0     		b	.L15
 527              	.LVL74:
 528              	.L24:
 387:pervasive_eink_hardware_driver.c ****     }
 388:pervasive_eink_hardware_driver.c ****     /* If all operations completed successfully, send the corresponding status 
 389:pervasive_eink_hardware_driver.c ****        message */
 390:pervasive_eink_hardware_driver.c ****     return(PV_EINK_RES_OK);
 529              		.loc 1 390 0
 530 0106 0020     		movs	r0, #0
 531              	.LVL75:
 532              	.L15:
 391:pervasive_eink_hardware_driver.c **** }
 533              		.loc 1 391 0
 534              		@ sp needed
 535 0108 10BD     		pop	{r4, pc}
 536              	.L26:
 537 010a C046     		.align	2
 538              	.L25:
 539 010c 00000000 		.word	.LANCHOR0
 540 0110 00000000 		.word	.LANCHOR1
 541              		.cfi_endproc
 542              	.LFE457:
 543              		.size	Pv_EINK_InitDriver, .-Pv_EINK_InitDriver
 544              		.section	.text.Pv_EINK_SetTempFactor,"ax",%progbits
 545              		.align	2
ARM GAS  C:\Users\bryan.lee\AppData\Local\Temp\ccAkWdHW.s 			page 31


 546              		.global	Pv_EINK_SetTempFactor
 547              		.code	16
 548              		.thumb_func
 549              		.type	Pv_EINK_SetTempFactor, %function
 550              	Pv_EINK_SetTempFactor:
 551              	.LFB458:
 392:pervasive_eink_hardware_driver.c **** 
 393:pervasive_eink_hardware_driver.c **** /*******************************************************************************
 394:pervasive_eink_hardware_driver.c **** * Function Name: void Pv_EINK_SetTempFactor(int8_t temperature)
 395:pervasive_eink_hardware_driver.c **** ********************************************************************************
 396:pervasive_eink_hardware_driver.c **** *
 397:pervasive_eink_hardware_driver.c **** * Summary: Set the E-INK update times per the ambient temperature. For detailed
 398:pervasive_eink_hardware_driver.c **** * flow and description, please refer to the driver G2 document Section 5.4.
 399:pervasive_eink_hardware_driver.c **** *
 400:pervasive_eink_hardware_driver.c **** * Parameters:
 401:pervasive_eink_hardware_driver.c **** * int8_t temperature: Ambient temperature in degree Celsius
 402:pervasive_eink_hardware_driver.c **** *
 403:pervasive_eink_hardware_driver.c **** * Return:
 404:pervasive_eink_hardware_driver.c **** *  None
 405:pervasive_eink_hardware_driver.c **** *
 406:pervasive_eink_hardware_driver.c **** * Side Effects:
 407:pervasive_eink_hardware_driver.c **** *  None
 408:pervasive_eink_hardware_driver.c **** *******************************************************************************/
 409:pervasive_eink_hardware_driver.c **** void Pv_EINK_SetTempFactor(int8_t temperature)
 410:pervasive_eink_hardware_driver.c **** {
 552              		.loc 1 410 0
 553              		.cfi_startproc
 554              		@ args = 0, pretend = 0, frame = 0
 555              		@ frame_needed = 0, uses_anonymous_args = 0
 556              		@ link register save eliminated.
 557              	.LVL76:
 411:pervasive_eink_hardware_driver.c ****     /* Variable used to store the update time */
 412:pervasive_eink_hardware_driver.c ****     uint16_t    updateTime;
 413:pervasive_eink_hardware_driver.c ****     /* Set the update time per the temperature table */
 414:pervasive_eink_hardware_driver.c ****     if (PV_EINK_TEMP_DEG_M10 >= temperature)
 558              		.loc 1 414 0
 559 0000 0300     		movs	r3, r0
 560 0002 0933     		adds	r3, r3, #9
 561 0004 0DDB     		blt	.L29
 415:pervasive_eink_hardware_driver.c ****     {
 416:pervasive_eink_hardware_driver.c ****         updateTime = PV_EINK_TEMP_SEL0;
 417:pervasive_eink_hardware_driver.c ****     }
 418:pervasive_eink_hardware_driver.c ****     else if (PV_EINK_TEMP_DEG_M5 >= temperature)
 562              		.loc 1 418 0
 563 0006 031D     		adds	r3, r0, #4
 564 0008 0EDB     		blt	.L30
 419:pervasive_eink_hardware_driver.c ****     {
 420:pervasive_eink_hardware_driver.c ****         updateTime = PV_EINK_TEMP_SEL1;
 421:pervasive_eink_hardware_driver.c ****     }
 422:pervasive_eink_hardware_driver.c ****     else if (PV_EINK_TEMP_DEG_5 >= temperature)
 565              		.loc 1 422 0
 566 000a 0528     		cmp	r0, #5
 567 000c 0FDD     		ble	.L31
 423:pervasive_eink_hardware_driver.c ****     {
 424:pervasive_eink_hardware_driver.c ****         updateTime = PV_EINK_TEMP_SEL2;
 425:pervasive_eink_hardware_driver.c ****     }
 426:pervasive_eink_hardware_driver.c ****     else if (PV_EINK_TEMP_DEG_10 >= temperature)
ARM GAS  C:\Users\bryan.lee\AppData\Local\Temp\ccAkWdHW.s 			page 32


 568              		.loc 1 426 0
 569 000e 0A28     		cmp	r0, #10
 570 0010 10DD     		ble	.L32
 427:pervasive_eink_hardware_driver.c ****     {
 428:pervasive_eink_hardware_driver.c ****         updateTime = PV_EINK_TEMP_SEL3;
 429:pervasive_eink_hardware_driver.c ****     }
 430:pervasive_eink_hardware_driver.c ****     else if (PV_EINK_TEMP_DEG_15 >= temperature)
 571              		.loc 1 430 0
 572 0012 0F28     		cmp	r0, #15
 573 0014 11DD     		ble	.L33
 431:pervasive_eink_hardware_driver.c ****     {
 432:pervasive_eink_hardware_driver.c ****         updateTime = PV_EINK_TEMP_SEL4;
 433:pervasive_eink_hardware_driver.c ****     }
 434:pervasive_eink_hardware_driver.c ****     else if (PV_EINK_TEMP_DEG_20 >= temperature)
 574              		.loc 1 434 0
 575 0016 1428     		cmp	r0, #20
 576 0018 11DD     		ble	.L34
 435:pervasive_eink_hardware_driver.c ****     {
 436:pervasive_eink_hardware_driver.c ****         updateTime = PV_EINK_TEMP_SEL5;
 437:pervasive_eink_hardware_driver.c ****     }
 438:pervasive_eink_hardware_driver.c ****     else if (PV_EINK_TEMP_DEG_40 >= temperature)
 577              		.loc 1 438 0
 578 001a 2828     		cmp	r0, #40
 579 001c 11DC     		bgt	.L35
 439:pervasive_eink_hardware_driver.c ****     {
 440:pervasive_eink_hardware_driver.c ****         updateTime = PV_EINK_TEMP_SEL6;
 580              		.loc 1 440 0
 581 001e 5A22     		movs	r2, #90
 582 0020 10E0     		b	.L28
 583              	.L29:
 416:pervasive_eink_hardware_driver.c ****     }
 584              		.loc 1 416 0
 585 0022 9622     		movs	r2, #150
 586 0024 D200     		lsls	r2, r2, #3
 587 0026 0DE0     		b	.L28
 588              	.L30:
 420:pervasive_eink_hardware_driver.c ****     }
 589              		.loc 1 420 0
 590 0028 E122     		movs	r2, #225
 591 002a 9200     		lsls	r2, r2, #2
 592 002c 0AE0     		b	.L28
 593              	.L31:
 424:pervasive_eink_hardware_driver.c ****     }
 594              		.loc 1 424 0
 595 002e 9622     		movs	r2, #150
 596 0030 9200     		lsls	r2, r2, #2
 597 0032 07E0     		b	.L28
 598              	.L32:
 428:pervasive_eink_hardware_driver.c ****     }
 599              		.loc 1 428 0
 600 0034 A522     		movs	r2, #165
 601 0036 5200     		lsls	r2, r2, #1
 602 0038 04E0     		b	.L28
 603              	.L33:
 432:pervasive_eink_hardware_driver.c ****     }
 604              		.loc 1 432 0
 605 003a DC22     		movs	r2, #220
ARM GAS  C:\Users\bryan.lee\AppData\Local\Temp\ccAkWdHW.s 			page 33


 606 003c 02E0     		b	.L28
 607              	.L34:
 436:pervasive_eink_hardware_driver.c ****     }
 608              		.loc 1 436 0
 609 003e B422     		movs	r2, #180
 610 0040 00E0     		b	.L28
 611              	.L35:
 441:pervasive_eink_hardware_driver.c ****     }
 442:pervasive_eink_hardware_driver.c ****     else
 443:pervasive_eink_hardware_driver.c ****     {
 444:pervasive_eink_hardware_driver.c ****         updateTime = PV_EINK_TEMP_SEL7;
 612              		.loc 1 444 0
 613 0042 3C22     		movs	r2, #60
 614              	.L28:
 615              	.LVL77:
 445:pervasive_eink_hardware_driver.c ****     }
 446:pervasive_eink_hardware_driver.c ****     /* Scale the update times : this is a speed-contrast trade-off */
 447:pervasive_eink_hardware_driver.c ****     fullUpdateTime = updateTime * PV_EINK_SCALING_FULL;
 616              		.loc 1 447 0
 617 0044 024B     		ldr	r3, .L36
 618 0046 7C21     		movs	r1, #124
 619 0048 5A52     		strh	r2, [r3, r1]
 448:pervasive_eink_hardware_driver.c ****     partialUpdateTime = updateTime * PV_EINK_SCALING_PARTIAL;
 620              		.loc 1 448 0
 621 004a 0231     		adds	r1, r1, #2
 622 004c 5A52     		strh	r2, [r3, r1]
 449:pervasive_eink_hardware_driver.c **** }
 623              		.loc 1 449 0
 624              		@ sp needed
 625 004e 7047     		bx	lr
 626              	.L37:
 627              		.align	2
 628              	.L36:
 629 0050 00000000 		.word	.LANCHOR0
 630              		.cfi_endproc
 631              	.LFE458:
 632              		.size	Pv_EINK_SetTempFactor, .-Pv_EINK_SetTempFactor
 633              		.section	.text.Pv_EINK_FullStageHandler,"ax",%progbits
 634              		.align	2
 635              		.global	Pv_EINK_FullStageHandler
 636              		.code	16
 637              		.thumb_func
 638              		.type	Pv_EINK_FullStageHandler, %function
 639              	Pv_EINK_FullStageHandler:
 640              	.LFB459:
 450:pervasive_eink_hardware_driver.c **** 
 451:pervasive_eink_hardware_driver.c **** /*******************************************************************************
 452:pervasive_eink_hardware_driver.c **** * Function Name: void Pv_EINK_FullStageHandler(pv_eink_frame_data_t* imagePtr,
 453:pervasive_eink_hardware_driver.c **** *                                              pv_eink_stage_t stageNumber)
 454:pervasive_eink_hardware_driver.c **** ********************************************************************************
 455:pervasive_eink_hardware_driver.c **** *
 456:pervasive_eink_hardware_driver.c **** * Summary: The full update driving stages for getting Odd and Even bytes, and
 457:pervasive_eink_hardware_driver.c **** * then writing the data from memory array to E-INK driver.
 458:pervasive_eink_hardware_driver.c **** *
 459:pervasive_eink_hardware_driver.c **** * One dot/pixel is comprised of 2 bits that can be White(10), Black(11) or 
 460:pervasive_eink_hardware_driver.c **** * Nothing * (01 or 00). The image data bytes must be divided into Odd and Even 
 461:pervasive_eink_hardware_driver.c **** * bytes.
ARM GAS  C:\Users\bryan.lee\AppData\Local\Temp\ccAkWdHW.s 			page 34


 462:pervasive_eink_hardware_driver.c **** * Line data flow is first half of data bytes -> scan bytes -> second half of data
 463:pervasive_eink_hardware_driver.c **** * bytes. For more details on the driving stages, please refer to the driver G2
 464:pervasive_eink_hardware_driver.c **** * document Section 5.
 465:pervasive_eink_hardware_driver.c **** *
 466:pervasive_eink_hardware_driver.c **** * Parameters:
 467:pervasive_eink_hardware_driver.c **** * pv_eink_frame_data_t* imagePtr    : The pointer to the memory that contains a
 468:pervasive_eink_hardware_driver.c **** *                                     frame
 469:pervasive_eink_hardware_driver.c **** * pv_eink_stage_t stageNumber       : The assigned stage number
 470:pervasive_eink_hardware_driver.c **** *
 471:pervasive_eink_hardware_driver.c **** * Return:
 472:pervasive_eink_hardware_driver.c **** *  None
 473:pervasive_eink_hardware_driver.c **** *
 474:pervasive_eink_hardware_driver.c **** * Side Effects:
 475:pervasive_eink_hardware_driver.c **** *  This is a blocking function. CPU will be busy during the entire operation,
 476:pervasive_eink_hardware_driver.c **** * which can be 1 to 2 seconds.
 477:pervasive_eink_hardware_driver.c **** *******************************************************************************/
 478:pervasive_eink_hardware_driver.c **** void Pv_EINK_FullStageHandler(pv_eink_frame_data_t* imagePtr, 
 479:pervasive_eink_hardware_driver.c ****                               pv_eink_stage_t stageNumber)
 480:pervasive_eink_hardware_driver.c **** {
 641              		.loc 1 480 0
 642              		.cfi_startproc
 643              		@ args = 0, pretend = 0, frame = 8
 644              		@ frame_needed = 0, uses_anonymous_args = 0
 645              	.LVL78:
 646 0000 F0B5     		push	{r4, r5, r6, r7, lr}
 647              		.cfi_def_cfa_offset 20
 648              		.cfi_offset 4, -20
 649              		.cfi_offset 5, -16
 650              		.cfi_offset 6, -12
 651              		.cfi_offset 7, -8
 652              		.cfi_offset 14, -4
 653 0002 5F46     		mov	r7, fp
 654 0004 5646     		mov	r6, r10
 655 0006 4D46     		mov	r5, r9
 656 0008 4446     		mov	r4, r8
 657 000a F0B4     		push	{r4, r5, r6, r7}
 658              		.cfi_def_cfa_offset 36
 659              		.cfi_offset 8, -36
 660              		.cfi_offset 9, -32
 661              		.cfi_offset 10, -28
 662              		.cfi_offset 11, -24
 663 000c 83B0     		sub	sp, sp, #12
 664              		.cfi_def_cfa_offset 48
 665 000e 0600     		movs	r6, r0
 666 0010 0D00     		movs	r5, r1
 667              	.LVL79:
 481:pervasive_eink_hardware_driver.c ****     /* Counter variable for the horizontal pixel loop */
 482:pervasive_eink_hardware_driver.c ****     uint16_t    x;
 483:pervasive_eink_hardware_driver.c ****     /* Counter variable for the vertical pixel loop */
 484:pervasive_eink_hardware_driver.c ****     uint16_t    y;
 485:pervasive_eink_hardware_driver.c ****     /* Counter variable for the horizontal byte loop */
 486:pervasive_eink_hardware_driver.c ****     uint16_t    k;
 487:pervasive_eink_hardware_driver.c ****       
 488:pervasive_eink_hardware_driver.c ****     /* Variable for storing the line number under scan */
 489:pervasive_eink_hardware_driver.c ****     int16       scanlineNumber = 0;
 490:pervasive_eink_hardware_driver.c ****     
 491:pervasive_eink_hardware_driver.c ****     /* Temporary storage for image data byte */
ARM GAS  C:\Users\bryan.lee\AppData\Local\Temp\ccAkWdHW.s 			page 35


 492:pervasive_eink_hardware_driver.c ****     uint8_t     tempByte = *imagePtr;
 668              		.loc 1 492 0
 669 0012 0478     		ldrb	r4, [r0]
 670              	.LVL80:
 493:pervasive_eink_hardware_driver.c ****     
 494:pervasive_eink_hardware_driver.c ****     /* Flag to check if the current pointer is a macro of white/black frame */
 495:pervasive_eink_hardware_driver.c ****     bool        blackOrWhiteFrame;
 496:pervasive_eink_hardware_driver.c ****     
 497:pervasive_eink_hardware_driver.c ****     /* If the current pointer is a macro of the white frame */
 498:pervasive_eink_hardware_driver.c ****     if (imagePtr == PV_EINK_WHITE_FRAME_ADDRESS)
 671              		.loc 1 498 0
 672 0014 0028     		cmp	r0, #0
 673 0016 05D0     		beq	.L85
 499:pervasive_eink_hardware_driver.c ****     {
 500:pervasive_eink_hardware_driver.c ****         /* Set the white/black frame flag */
 501:pervasive_eink_hardware_driver.c ****         blackOrWhiteFrame = true;
 502:pervasive_eink_hardware_driver.c ****         /* Set the tempByte to white pixel byte */
 503:pervasive_eink_hardware_driver.c ****         tempByte = PV_EINK_WHITE_PIXEL_BYTE;
 504:pervasive_eink_hardware_driver.c ****         
 505:pervasive_eink_hardware_driver.c ****     }
 506:pervasive_eink_hardware_driver.c ****     /* If the current pointer is a macro of the black frame */
 507:pervasive_eink_hardware_driver.c ****     else if (imagePtr == PV_EINK_BLACK_FRAME_ADDRESS)
 674              		.loc 1 507 0
 675 0018 C84B     		ldr	r3, .L119
 676 001a 9842     		cmp	r0, r3
 677 001c 05D1     		bne	.L86
 508:pervasive_eink_hardware_driver.c ****     {
 509:pervasive_eink_hardware_driver.c ****          /* Set the white/black frame flag */
 510:pervasive_eink_hardware_driver.c ****         blackOrWhiteFrame = true;
 678              		.loc 1 510 0
 679 001e 0127     		movs	r7, #1
 511:pervasive_eink_hardware_driver.c ****         /* set the tempByte to black pixel byte */
 512:pervasive_eink_hardware_driver.c ****         tempByte = PV_EINK_BLACK_PIXEL_BYTE;
 680              		.loc 1 512 0
 681 0020 0024     		movs	r4, #0
 682              	.LVL81:
 683 0022 03E0     		b	.L39
 684              	.LVL82:
 685              	.L85:
 501:pervasive_eink_hardware_driver.c ****         /* Set the tempByte to white pixel byte */
 686              		.loc 1 501 0
 687 0024 0127     		movs	r7, #1
 503:pervasive_eink_hardware_driver.c ****         
 688              		.loc 1 503 0
 689 0026 FF24     		movs	r4, #255
 690              	.LVL83:
 691 0028 00E0     		b	.L39
 692              	.LVL84:
 693              	.L86:
 513:pervasive_eink_hardware_driver.c ****     }
 514:pervasive_eink_hardware_driver.c ****     /* If the current pointer is of an image stored in flash */
 515:pervasive_eink_hardware_driver.c ****     else
 516:pervasive_eink_hardware_driver.c ****     {
 517:pervasive_eink_hardware_driver.c ****         /* Clear the white/black frame flag */
 518:pervasive_eink_hardware_driver.c ****         blackOrWhiteFrame = false;
 694              		.loc 1 518 0
 695 002a 0027     		movs	r7, #0
ARM GAS  C:\Users\bryan.lee\AppData\Local\Temp\ccAkWdHW.s 			page 36


 696              	.LVL85:
 697              	.L39:
 519:pervasive_eink_hardware_driver.c ****     }
 520:pervasive_eink_hardware_driver.c **** 
 521:pervasive_eink_hardware_driver.c ****     /* Re-initialize E-INK timer to ensure the same duration of each stage */
 522:pervasive_eink_hardware_driver.c ****     Cy_EINK_TimerInit();
 698              		.loc 1 522 0
 699 002c FFF7FEFF 		bl	Cy_EINK_TimerInit
 700              	.LVL86:
 523:pervasive_eink_hardware_driver.c **** 
 524:pervasive_eink_hardware_driver.c ****     /* Vertical pixel loop */
 525:pervasive_eink_hardware_driver.c ****     for (y = 0; y < PV_EINK_VERTICAL_SIZE; y++)
 701              		.loc 1 525 0
 702 0030 0023     		movs	r3, #0
 703 0032 9846     		mov	r8, r3
 704 0034 DCE1     		b	.L40
 705              	.LVL87:
 706              	.L81:
 526:pervasive_eink_hardware_driver.c ****     {
 527:pervasive_eink_hardware_driver.c ****         /* Clear the line buffer with all zeros */
 528:pervasive_eink_hardware_driver.c ****         memset(&bulkDriverPacket[y].lineBuffer, 0, 
 707              		.loc 1 528 0
 708 0036 4346     		mov	r3, r8
 709 0038 DB00     		lsls	r3, r3, #3
 710 003a 4246     		mov	r2, r8
 711 003c 9B1A     		subs	r3, r3, r2
 712 003e 1B01     		lsls	r3, r3, #4
 713 0040 9B1A     		subs	r3, r3, r2
 714 0042 9946     		mov	r9, r3
 715 0044 BE4B     		ldr	r3, .L119+4
 716 0046 9A46     		mov	r10, r3
 717 0048 CB46     		mov	fp, r9
 718 004a D344     		add	fp, fp, r10
 719 004c 6F22     		movs	r2, #111
 720 004e 0021     		movs	r1, #0
 721 0050 5846     		mov	r0, fp
 722 0052 FFF7FEFF 		bl	memset
 723              	.LVL88:
 529:pervasive_eink_hardware_driver.c ****                sizeof(bulkDriverPacket[y].lineBuffer)) ;
 530:pervasive_eink_hardware_driver.c **** 
 531:pervasive_eink_hardware_driver.c ****         /* Initialize the even data, odd data and scan data pointers */
 532:pervasive_eink_hardware_driver.c ****         dataLineEven = &bulkDriverPacket[y].lineDataBySize.even[0];
 724              		.loc 1 532 0
 725 0056 0123     		movs	r3, #1
 726 0058 5B44     		add	r3, r3, fp
 727 005a 9C46     		mov	ip, r3
 728 005c B94A     		ldr	r2, .L119+8
 729 005e 1367     		str	r3, [r2, #112]
 533:pervasive_eink_hardware_driver.c ****         dataLineOdd  = &bulkDriverPacket[y].lineDataBySize.odd[0];
 730              		.loc 1 533 0
 731 0060 4846     		mov	r0, r9
 732 0062 4830     		adds	r0, r0, #72
 733 0064 5044     		add	r0, r0, r10
 734 0066 831D     		adds	r3, r0, #6
 735 0068 0193     		str	r3, [sp, #4]
 736 006a 5367     		str	r3, [r2, #116]
 534:pervasive_eink_hardware_driver.c ****         dataLineScan = &bulkDriverPacket[y].lineDataBySize.scan[0];
ARM GAS  C:\Users\bryan.lee\AppData\Local\Temp\ccAkWdHW.s 			page 37


 737              		.loc 1 534 0
 738 006c 4B46     		mov	r3, r9
 739 006e 2033     		adds	r3, r3, #32
 740 0070 5344     		add	r3, r3, r10
 741 0072 0233     		adds	r3, r3, #2
 742 0074 9A46     		mov	r10, r3
 743 0076 9367     		str	r3, [r2, #120]
 744              	.LVL89:
 535:pervasive_eink_hardware_driver.c ****         
 536:pervasive_eink_hardware_driver.c ****         /* Horizontal bytes initialization */
 537:pervasive_eink_hardware_driver.c ****         k = PV_EINK_HORIZONTAL_SIZE;
 538:pervasive_eink_hardware_driver.c ****         k--;
 745              		.loc 1 538 0
 746 0078 2022     		movs	r2, #32
 539:pervasive_eink_hardware_driver.c ****         
 540:pervasive_eink_hardware_driver.c ****         /* Horizontal pixel loop */
 541:pervasive_eink_hardware_driver.c ****         for (x = 0; x < PV_EINK_HORIZONTAL_SIZE; x++)
 747              		.loc 1 541 0
 748 007a 0023     		movs	r3, #0
 749 007c A0E1     		b	.L41
 750              	.LVL90:
 751              	.L80:
 542:pervasive_eink_hardware_driver.c ****         {
 543:pervasive_eink_hardware_driver.c ****             /* If the current pointer is of an image stored in flash */
 544:pervasive_eink_hardware_driver.c ****             if(!blackOrWhiteFrame)
 752              		.loc 1 544 0
 753 007e 002F     		cmp	r7, #0
 754 0080 01D1     		bne	.L42
 755              	.LVL91:
 545:pervasive_eink_hardware_driver.c ****             {
 546:pervasive_eink_hardware_driver.c ****                 /* Fetch successive data bytes */
 547:pervasive_eink_hardware_driver.c ****                 tempByte = *imagePtr++;
 756              		.loc 1 547 0
 757 0082 3478     		ldrb	r4, [r6]
 758              	.LVL92:
 759 0084 0136     		adds	r6, r6, #1
 760              	.LVL93:
 761              	.L42:
 548:pervasive_eink_hardware_driver.c ****             }
 549:pervasive_eink_hardware_driver.c ****             /* Perform one of the four stage operations */
 550:pervasive_eink_hardware_driver.c ****             switch (stageNumber)
 762              		.loc 1 550 0
 763 0086 012D     		cmp	r5, #1
 764 0088 6BD0     		beq	.L44
 765 008a 002D     		cmp	r5, #0
 766 008c 06D0     		beq	.L45
 767 008e 022D     		cmp	r5, #2
 768 0090 00D1     		bne	.LCB763
 769 0092 C8E0     		b	.L46	@long jump
 770              	.LCB763:
 771 0094 032D     		cmp	r5, #3
 772 0096 00D1     		bne	.LCB765
 773 0098 27E1     		b	.L47	@long jump
 774              	.LCB765:
 775 009a 8FE1     		b	.L43
 776              	.L45:
 551:pervasive_eink_hardware_driver.c ****             {
ARM GAS  C:\Users\bryan.lee\AppData\Local\Temp\ccAkWdHW.s 			page 38


 552:pervasive_eink_hardware_driver.c ****             /* Stage 1: Calculate the inverted Even and Odd bytes of 
 553:pervasive_eink_hardware_driver.c ****                the previous image data */
 554:pervasive_eink_hardware_driver.c ****             case PV_EINK_STAGE1:
 555:pervasive_eink_hardware_driver.c ****                 dataLineOdd[x]       = ((tempByte & PV_EINK_ODD_MASK_A)  ? 
 777              		.loc 1 555 0
 778 009c 0199     		ldr	r1, [sp, #4]
 779 009e C918     		adds	r1, r1, r3
 780 00a0 8946     		mov	r9, r1
 781 00a2 6106     		lsls	r1, r4, #25
 782 00a4 01D5     		bpl	.L87
 783 00a6 C021     		movs	r1, #192
 784 00a8 00E0     		b	.L48
 785              	.L87:
 786 00aa 8021     		movs	r1, #128
 787              	.L48:
 788              		.loc 1 555 0 is_stmt 0 discriminator 4
 789 00ac 4846     		mov	r0, r9
 790 00ae 0170     		strb	r1, [r0]
 556:pervasive_eink_hardware_driver.c ****                                         PV_EINK_BLACK3 : PV_EINK_WHITE3);
 557:pervasive_eink_hardware_driver.c ****                 dataLineOdd[x]      |= ((tempByte & PV_EINK_ODD_MASK_B)  ? 
 791              		.loc 1 557 0 is_stmt 1 discriminator 4
 792 00b0 49B2     		sxtb	r1, r1
 793 00b2 E006     		lsls	r0, r4, #27
 794 00b4 02D5     		bpl	.L88
 795              		.loc 1 557 0 is_stmt 0
 796 00b6 3020     		movs	r0, #48
 797 00b8 8346     		mov	fp, r0
 798 00ba 01E0     		b	.L49
 799              	.L88:
 800 00bc 2020     		movs	r0, #32
 801 00be 8346     		mov	fp, r0
 802              	.L49:
 803              		.loc 1 557 0 discriminator 4
 804 00c0 5846     		mov	r0, fp
 805 00c2 0843     		orrs	r0, r1
 806 00c4 0100     		movs	r1, r0
 807 00c6 4846     		mov	r0, r9
 808 00c8 0170     		strb	r1, [r0]
 558:pervasive_eink_hardware_driver.c ****                                         PV_EINK_BLACK2 : PV_EINK_WHITE2);
 559:pervasive_eink_hardware_driver.c ****                 dataLineOdd[x]      |= ((tempByte & PV_EINK_ODD_MASK_C)  ? 
 809              		.loc 1 559 0 is_stmt 1 discriminator 4
 810 00ca 6007     		lsls	r0, r4, #29
 811 00cc 02D5     		bpl	.L89
 812              		.loc 1 559 0 is_stmt 0
 813 00ce 0C20     		movs	r0, #12
 814 00d0 8346     		mov	fp, r0
 815 00d2 01E0     		b	.L50
 816              	.L89:
 817 00d4 0820     		movs	r0, #8
 818 00d6 8346     		mov	fp, r0
 819              	.L50:
 820              		.loc 1 559 0 discriminator 4
 821 00d8 5846     		mov	r0, fp
 822 00da 0843     		orrs	r0, r1
 823 00dc 0100     		movs	r1, r0
 824 00de 4846     		mov	r0, r9
 825 00e0 0170     		strb	r1, [r0]
ARM GAS  C:\Users\bryan.lee\AppData\Local\Temp\ccAkWdHW.s 			page 39


 560:pervasive_eink_hardware_driver.c ****                                         PV_EINK_BLACK1 : PV_EINK_WHITE1);
 561:pervasive_eink_hardware_driver.c ****                 dataLineOdd[x]      |= ((tempByte & PV_EINK_ODD_MASK_D)  ? 
 826              		.loc 1 561 0 is_stmt 1 discriminator 4
 827 00e2 E007     		lsls	r0, r4, #31
 828 00e4 02D5     		bpl	.L90
 829              		.loc 1 561 0 is_stmt 0
 830 00e6 0320     		movs	r0, #3
 831 00e8 8346     		mov	fp, r0
 832 00ea 01E0     		b	.L51
 833              	.L90:
 834 00ec 0220     		movs	r0, #2
 835 00ee 8346     		mov	fp, r0
 836              	.L51:
 837              		.loc 1 561 0 discriminator 4
 838 00f0 5846     		mov	r0, fp
 839 00f2 0843     		orrs	r0, r1
 840 00f4 0100     		movs	r1, r0
 841 00f6 4846     		mov	r0, r9
 842 00f8 0170     		strb	r1, [r0]
 562:pervasive_eink_hardware_driver.c ****                                         PV_EINK_BLACK0 : PV_EINK_WHITE0);
 563:pervasive_eink_hardware_driver.c ****                 dataLineEven[k]      = ((tempByte & PV_EINK_EVEN_MASK_A) ? 
 843              		.loc 1 563 0 is_stmt 1 discriminator 4
 844 00fa 9146     		mov	r9, r2
 845 00fc E144     		add	r9, r9, ip
 846 00fe 61B2     		sxtb	r1, r4
 847 0100 0029     		cmp	r1, #0
 848 0102 01DA     		bge	.L91
 849              		.loc 1 563 0 is_stmt 0
 850 0104 0321     		movs	r1, #3
 851 0106 00E0     		b	.L52
 852              	.L91:
 853 0108 0221     		movs	r1, #2
 854              	.L52:
 855              		.loc 1 563 0 discriminator 4
 856 010a 4846     		mov	r0, r9
 857 010c 0170     		strb	r1, [r0]
 564:pervasive_eink_hardware_driver.c ****                                         PV_EINK_BLACK0 : PV_EINK_WHITE0);
 565:pervasive_eink_hardware_driver.c ****                 dataLineEven[k]     |= ((tempByte & PV_EINK_EVEN_MASK_B) ? 
 858              		.loc 1 565 0 is_stmt 1 discriminator 4
 859 010e 49B2     		sxtb	r1, r1
 860 0110 A006     		lsls	r0, r4, #26
 861 0112 02D5     		bpl	.L92
 862              		.loc 1 565 0 is_stmt 0
 863 0114 0C20     		movs	r0, #12
 864 0116 8346     		mov	fp, r0
 865 0118 01E0     		b	.L53
 866              	.L92:
 867 011a 0820     		movs	r0, #8
 868 011c 8346     		mov	fp, r0
 869              	.L53:
 870              		.loc 1 565 0 discriminator 4
 871 011e 5846     		mov	r0, fp
 872 0120 0843     		orrs	r0, r1
 873 0122 0100     		movs	r1, r0
 874 0124 4846     		mov	r0, r9
 875 0126 0170     		strb	r1, [r0]
 566:pervasive_eink_hardware_driver.c ****                                         PV_EINK_BLACK1 : PV_EINK_WHITE1);
ARM GAS  C:\Users\bryan.lee\AppData\Local\Temp\ccAkWdHW.s 			page 40


 567:pervasive_eink_hardware_driver.c ****                 dataLineEven[k]     |= ((tempByte & PV_EINK_EVEN_MASK_C) ? 
 876              		.loc 1 567 0 is_stmt 1 discriminator 4
 877 0128 2007     		lsls	r0, r4, #28
 878 012a 02D5     		bpl	.L93
 879              		.loc 1 567 0 is_stmt 0
 880 012c 3020     		movs	r0, #48
 881 012e 8346     		mov	fp, r0
 882 0130 01E0     		b	.L54
 883              	.L93:
 884 0132 2020     		movs	r0, #32
 885 0134 8346     		mov	fp, r0
 886              	.L54:
 887              		.loc 1 567 0 discriminator 4
 888 0136 5846     		mov	r0, fp
 889 0138 0843     		orrs	r0, r1
 890 013a 0100     		movs	r1, r0
 891 013c 4846     		mov	r0, r9
 892 013e 0170     		strb	r1, [r0]
 568:pervasive_eink_hardware_driver.c ****                                         PV_EINK_BLACK2 : PV_EINK_WHITE2);
 569:pervasive_eink_hardware_driver.c ****                 dataLineEven[k--]   |= ((tempByte & PV_EINK_EVEN_MASK_D) ? 
 893              		.loc 1 569 0 is_stmt 1 discriminator 4
 894 0140 013A     		subs	r2, r2, #1
 895              	.LVL94:
 896 0142 92B2     		uxth	r2, r2
 897              	.LVL95:
 898 0144 A007     		lsls	r0, r4, #30
 899 0146 03D5     		bpl	.L94
 900              		.loc 1 569 0 is_stmt 0
 901 0148 4020     		movs	r0, #64
 902 014a 4042     		rsbs	r0, r0, #0
 903 014c 8346     		mov	fp, r0
 904 014e 02E0     		b	.L55
 905              	.L94:
 906 0150 8020     		movs	r0, #128
 907 0152 4042     		rsbs	r0, r0, #0
 908 0154 8346     		mov	fp, r0
 909              	.L55:
 910              		.loc 1 569 0 discriminator 4
 911 0156 5846     		mov	r0, fp
 912 0158 0843     		orrs	r0, r1
 913 015a 0100     		movs	r1, r0
 914 015c 4846     		mov	r0, r9
 915 015e 0170     		strb	r1, [r0]
 570:pervasive_eink_hardware_driver.c ****                                         PV_EINK_BLACK3 : PV_EINK_WHITE3);
 571:pervasive_eink_hardware_driver.c ****                 break;
 916              		.loc 1 571 0 is_stmt 1 discriminator 4
 917 0160 2CE1     		b	.L43
 918              	.L44:
 572:pervasive_eink_hardware_driver.c ****             /* Stage 2: Calculate the Even and Odd bytes of an all-white
 573:pervasive_eink_hardware_driver.c ****                frame */
 574:pervasive_eink_hardware_driver.c ****             case PV_EINK_STAGE2:
 575:pervasive_eink_hardware_driver.c ****                 dataLineOdd[x]       = ((tempByte & PV_EINK_ODD_MASK_A)  ? 
 919              		.loc 1 575 0
 920 0162 0199     		ldr	r1, [sp, #4]
 921 0164 C918     		adds	r1, r1, r3
 922 0166 8946     		mov	r9, r1
 923 0168 6106     		lsls	r1, r4, #25
ARM GAS  C:\Users\bryan.lee\AppData\Local\Temp\ccAkWdHW.s 			page 41


 924 016a 01D5     		bpl	.L95
 925 016c 8021     		movs	r1, #128
 926 016e 00E0     		b	.L56
 927              	.L95:
 928 0170 4021     		movs	r1, #64
 929              	.L56:
 930              		.loc 1 575 0 is_stmt 0 discriminator 4
 931 0172 4846     		mov	r0, r9
 932 0174 0170     		strb	r1, [r0]
 576:pervasive_eink_hardware_driver.c ****                                         PV_EINK_WHITE3 : PV_EINK_NOTHING3);
 577:pervasive_eink_hardware_driver.c ****                 dataLineOdd[x]      |= ((tempByte & PV_EINK_ODD_MASK_B)  ? 
 933              		.loc 1 577 0 is_stmt 1 discriminator 4
 934 0176 49B2     		sxtb	r1, r1
 935 0178 E006     		lsls	r0, r4, #27
 936 017a 02D5     		bpl	.L96
 937              		.loc 1 577 0 is_stmt 0
 938 017c 2020     		movs	r0, #32
 939 017e 8346     		mov	fp, r0
 940 0180 01E0     		b	.L57
 941              	.L96:
 942 0182 1020     		movs	r0, #16
 943 0184 8346     		mov	fp, r0
 944              	.L57:
 945              		.loc 1 577 0 discriminator 4
 946 0186 5846     		mov	r0, fp
 947 0188 0843     		orrs	r0, r1
 948 018a 0100     		movs	r1, r0
 949 018c 4846     		mov	r0, r9
 950 018e 0170     		strb	r1, [r0]
 578:pervasive_eink_hardware_driver.c ****                                         PV_EINK_WHITE2 : PV_EINK_NOTHING2);
 579:pervasive_eink_hardware_driver.c ****                 dataLineOdd[x]      |= ((tempByte & PV_EINK_ODD_MASK_C)  ? 
 951              		.loc 1 579 0 is_stmt 1 discriminator 4
 952 0190 6007     		lsls	r0, r4, #29
 953 0192 02D5     		bpl	.L97
 954              		.loc 1 579 0 is_stmt 0
 955 0194 0820     		movs	r0, #8
 956 0196 8346     		mov	fp, r0
 957 0198 01E0     		b	.L58
 958              	.L97:
 959 019a 0420     		movs	r0, #4
 960 019c 8346     		mov	fp, r0
 961              	.L58:
 962              		.loc 1 579 0 discriminator 4
 963 019e 5846     		mov	r0, fp
 964 01a0 0843     		orrs	r0, r1
 965 01a2 0100     		movs	r1, r0
 966 01a4 4846     		mov	r0, r9
 967 01a6 0170     		strb	r1, [r0]
 580:pervasive_eink_hardware_driver.c ****                                         PV_EINK_WHITE1 : PV_EINK_NOTHING1);
 581:pervasive_eink_hardware_driver.c ****                 dataLineOdd[x]      |= ((tempByte & PV_EINK_ODD_MASK_D)  ? 
 968              		.loc 1 581 0 is_stmt 1 discriminator 4
 969 01a8 E007     		lsls	r0, r4, #31
 970 01aa 02D5     		bpl	.L98
 971              		.loc 1 581 0 is_stmt 0
 972 01ac 0220     		movs	r0, #2
 973 01ae 8346     		mov	fp, r0
 974 01b0 01E0     		b	.L59
ARM GAS  C:\Users\bryan.lee\AppData\Local\Temp\ccAkWdHW.s 			page 42


 975              	.L98:
 976 01b2 0120     		movs	r0, #1
 977 01b4 8346     		mov	fp, r0
 978              	.L59:
 979              		.loc 1 581 0 discriminator 4
 980 01b6 5846     		mov	r0, fp
 981 01b8 0843     		orrs	r0, r1
 982 01ba 0100     		movs	r1, r0
 983 01bc 4846     		mov	r0, r9
 984 01be 0170     		strb	r1, [r0]
 582:pervasive_eink_hardware_driver.c ****                                         PV_EINK_WHITE0 : PV_EINK_NOTHING0);
 583:pervasive_eink_hardware_driver.c ****                 dataLineEven[k]      = ((tempByte & PV_EINK_EVEN_MASK_A) ?
 985              		.loc 1 583 0 is_stmt 1 discriminator 4
 986 01c0 9146     		mov	r9, r2
 987 01c2 E144     		add	r9, r9, ip
 988 01c4 61B2     		sxtb	r1, r4
 989 01c6 0029     		cmp	r1, #0
 990 01c8 01DA     		bge	.L99
 991              		.loc 1 583 0 is_stmt 0
 992 01ca 0221     		movs	r1, #2
 993 01cc 00E0     		b	.L60
 994              	.L99:
 995 01ce 0121     		movs	r1, #1
 996              	.L60:
 997              		.loc 1 583 0 discriminator 4
 998 01d0 4846     		mov	r0, r9
 999 01d2 0170     		strb	r1, [r0]
 584:pervasive_eink_hardware_driver.c ****                                         PV_EINK_WHITE0 : PV_EINK_NOTHING0);
 585:pervasive_eink_hardware_driver.c ****                 dataLineEven[k]     |= ((tempByte & PV_EINK_EVEN_MASK_B) ? 
 1000              		.loc 1 585 0 is_stmt 1 discriminator 4
 1001 01d4 49B2     		sxtb	r1, r1
 1002 01d6 A006     		lsls	r0, r4, #26
 1003 01d8 02D5     		bpl	.L100
 1004              		.loc 1 585 0 is_stmt 0
 1005 01da 0820     		movs	r0, #8
 1006 01dc 8346     		mov	fp, r0
 1007 01de 01E0     		b	.L61
 1008              	.L100:
 1009 01e0 0420     		movs	r0, #4
 1010 01e2 8346     		mov	fp, r0
 1011              	.L61:
 1012              		.loc 1 585 0 discriminator 4
 1013 01e4 5846     		mov	r0, fp
 1014 01e6 0843     		orrs	r0, r1
 1015 01e8 0100     		movs	r1, r0
 1016 01ea 4846     		mov	r0, r9
 1017 01ec 0170     		strb	r1, [r0]
 586:pervasive_eink_hardware_driver.c ****                                         PV_EINK_WHITE1 : PV_EINK_NOTHING1);
 587:pervasive_eink_hardware_driver.c ****                 dataLineEven[k]     |= ((tempByte & PV_EINK_EVEN_MASK_C) ? 
 1018              		.loc 1 587 0 is_stmt 1 discriminator 4
 1019 01ee 2007     		lsls	r0, r4, #28
 1020 01f0 02D5     		bpl	.L101
 1021              		.loc 1 587 0 is_stmt 0
 1022 01f2 2020     		movs	r0, #32
 1023 01f4 8346     		mov	fp, r0
 1024 01f6 01E0     		b	.L62
 1025              	.L101:
ARM GAS  C:\Users\bryan.lee\AppData\Local\Temp\ccAkWdHW.s 			page 43


 1026 01f8 1020     		movs	r0, #16
 1027 01fa 8346     		mov	fp, r0
 1028              	.L62:
 1029              		.loc 1 587 0 discriminator 4
 1030 01fc 5846     		mov	r0, fp
 1031 01fe 0843     		orrs	r0, r1
 1032 0200 0100     		movs	r1, r0
 1033 0202 4846     		mov	r0, r9
 1034 0204 0170     		strb	r1, [r0]
 588:pervasive_eink_hardware_driver.c ****                                         PV_EINK_WHITE2 : PV_EINK_NOTHING2);
 589:pervasive_eink_hardware_driver.c ****                 dataLineEven[k--]   |= ((tempByte & PV_EINK_EVEN_MASK_D) ? 
 1035              		.loc 1 589 0 is_stmt 1 discriminator 4
 1036 0206 013A     		subs	r2, r2, #1
 1037              	.LVL96:
 1038 0208 92B2     		uxth	r2, r2
 1039              	.LVL97:
 1040 020a A007     		lsls	r0, r4, #30
 1041 020c 03D5     		bpl	.L102
 1042              		.loc 1 589 0 is_stmt 0
 1043 020e 8020     		movs	r0, #128
 1044 0210 4042     		rsbs	r0, r0, #0
 1045 0212 8346     		mov	fp, r0
 1046 0214 01E0     		b	.L63
 1047              	.L102:
 1048 0216 4020     		movs	r0, #64
 1049 0218 8346     		mov	fp, r0
 1050              	.L63:
 1051              		.loc 1 589 0 discriminator 4
 1052 021a 5846     		mov	r0, fp
 1053 021c 0843     		orrs	r0, r1
 1054 021e 0100     		movs	r1, r0
 1055 0220 4846     		mov	r0, r9
 1056 0222 0170     		strb	r1, [r0]
 590:pervasive_eink_hardware_driver.c ****                                         PV_EINK_WHITE3 : PV_EINK_NOTHING3);
 591:pervasive_eink_hardware_driver.c ****                 break;
 1057              		.loc 1 591 0 is_stmt 1 discriminator 4
 1058 0224 CAE0     		b	.L43
 1059              	.L46:
 592:pervasive_eink_hardware_driver.c ****             /* Stage 3: Calculate the inverted Even and Odd bytes of the
 593:pervasive_eink_hardware_driver.c ****                new image data */
 594:pervasive_eink_hardware_driver.c ****             case PV_EINK_STAGE3:
 595:pervasive_eink_hardware_driver.c ****                 dataLineOdd[x]       = ((tempByte & PV_EINK_ODD_MASK_A)  ? 
 1060              		.loc 1 595 0
 1061 0226 0199     		ldr	r1, [sp, #4]
 1062 0228 C918     		adds	r1, r1, r3
 1063 022a 8946     		mov	r9, r1
 1064 022c 6106     		lsls	r1, r4, #25
 1065 022e 01D5     		bpl	.L103
 1066 0230 C021     		movs	r1, #192
 1067 0232 00E0     		b	.L64
 1068              	.L103:
 1069 0234 4021     		movs	r1, #64
 1070              	.L64:
 1071              		.loc 1 595 0 is_stmt 0 discriminator 4
 1072 0236 4846     		mov	r0, r9
 1073 0238 0170     		strb	r1, [r0]
 596:pervasive_eink_hardware_driver.c ****                                         PV_EINK_BLACK3 : PV_EINK_NOTHING3);
ARM GAS  C:\Users\bryan.lee\AppData\Local\Temp\ccAkWdHW.s 			page 44


 597:pervasive_eink_hardware_driver.c ****                 dataLineOdd[x]      |= ((tempByte & PV_EINK_ODD_MASK_B)  ? 
 1074              		.loc 1 597 0 is_stmt 1 discriminator 4
 1075 023a 49B2     		sxtb	r1, r1
 1076 023c E006     		lsls	r0, r4, #27
 1077 023e 02D5     		bpl	.L104
 1078              		.loc 1 597 0 is_stmt 0
 1079 0240 3020     		movs	r0, #48
 1080 0242 8346     		mov	fp, r0
 1081 0244 01E0     		b	.L65
 1082              	.L104:
 1083 0246 1020     		movs	r0, #16
 1084 0248 8346     		mov	fp, r0
 1085              	.L65:
 1086              		.loc 1 597 0 discriminator 4
 1087 024a 5846     		mov	r0, fp
 1088 024c 0843     		orrs	r0, r1
 1089 024e 0100     		movs	r1, r0
 1090 0250 4846     		mov	r0, r9
 1091 0252 0170     		strb	r1, [r0]
 598:pervasive_eink_hardware_driver.c ****                                         PV_EINK_BLACK2 : PV_EINK_NOTHING2);
 599:pervasive_eink_hardware_driver.c ****                 dataLineOdd[x]      |= ((tempByte & PV_EINK_ODD_MASK_C)  ?
 1092              		.loc 1 599 0 is_stmt 1 discriminator 4
 1093 0254 6007     		lsls	r0, r4, #29
 1094 0256 02D5     		bpl	.L105
 1095              		.loc 1 599 0 is_stmt 0
 1096 0258 0C20     		movs	r0, #12
 1097 025a 8346     		mov	fp, r0
 1098 025c 01E0     		b	.L66
 1099              	.L105:
 1100 025e 0420     		movs	r0, #4
 1101 0260 8346     		mov	fp, r0
 1102              	.L66:
 1103              		.loc 1 599 0 discriminator 4
 1104 0262 5846     		mov	r0, fp
 1105 0264 0843     		orrs	r0, r1
 1106 0266 0100     		movs	r1, r0
 1107 0268 4846     		mov	r0, r9
 1108 026a 0170     		strb	r1, [r0]
 600:pervasive_eink_hardware_driver.c ****                                         PV_EINK_BLACK1 : PV_EINK_NOTHING1);
 601:pervasive_eink_hardware_driver.c ****                 dataLineOdd[x]      |= ((tempByte & PV_EINK_ODD_MASK_D)  ?
 1109              		.loc 1 601 0 is_stmt 1 discriminator 4
 1110 026c E007     		lsls	r0, r4, #31
 1111 026e 02D5     		bpl	.L106
 1112              		.loc 1 601 0 is_stmt 0
 1113 0270 0320     		movs	r0, #3
 1114 0272 8346     		mov	fp, r0
 1115 0274 01E0     		b	.L67
 1116              	.L106:
 1117 0276 0120     		movs	r0, #1
 1118 0278 8346     		mov	fp, r0
 1119              	.L67:
 1120              		.loc 1 601 0 discriminator 4
 1121 027a 5846     		mov	r0, fp
 1122 027c 0843     		orrs	r0, r1
 1123 027e 0100     		movs	r1, r0
 1124 0280 4846     		mov	r0, r9
 1125 0282 0170     		strb	r1, [r0]
ARM GAS  C:\Users\bryan.lee\AppData\Local\Temp\ccAkWdHW.s 			page 45


 602:pervasive_eink_hardware_driver.c ****                                         PV_EINK_BLACK0 : PV_EINK_NOTHING0);
 603:pervasive_eink_hardware_driver.c ****                 dataLineEven[k]      = ((tempByte & PV_EINK_EVEN_MASK_A) ?
 1126              		.loc 1 603 0 is_stmt 1 discriminator 4
 1127 0284 9146     		mov	r9, r2
 1128 0286 E144     		add	r9, r9, ip
 1129 0288 61B2     		sxtb	r1, r4
 1130 028a 0029     		cmp	r1, #0
 1131 028c 01DA     		bge	.L107
 1132              		.loc 1 603 0 is_stmt 0
 1133 028e 0321     		movs	r1, #3
 1134 0290 00E0     		b	.L68
 1135              	.L107:
 1136 0292 0121     		movs	r1, #1
 1137              	.L68:
 1138              		.loc 1 603 0 discriminator 4
 1139 0294 4846     		mov	r0, r9
 1140 0296 0170     		strb	r1, [r0]
 604:pervasive_eink_hardware_driver.c ****                                         PV_EINK_BLACK0 : PV_EINK_NOTHING0);
 605:pervasive_eink_hardware_driver.c ****                 dataLineEven[k]     |= ((tempByte & PV_EINK_EVEN_MASK_B) ? 
 1141              		.loc 1 605 0 is_stmt 1 discriminator 4
 1142 0298 49B2     		sxtb	r1, r1
 1143 029a A006     		lsls	r0, r4, #26
 1144 029c 02D5     		bpl	.L108
 1145              		.loc 1 605 0 is_stmt 0
 1146 029e 0C20     		movs	r0, #12
 1147 02a0 8346     		mov	fp, r0
 1148 02a2 01E0     		b	.L69
 1149              	.L108:
 1150 02a4 0420     		movs	r0, #4
 1151 02a6 8346     		mov	fp, r0
 1152              	.L69:
 1153              		.loc 1 605 0 discriminator 4
 1154 02a8 5846     		mov	r0, fp
 1155 02aa 0843     		orrs	r0, r1
 1156 02ac 0100     		movs	r1, r0
 1157 02ae 4846     		mov	r0, r9
 1158 02b0 0170     		strb	r1, [r0]
 606:pervasive_eink_hardware_driver.c ****                                         PV_EINK_BLACK1 : PV_EINK_NOTHING1);
 607:pervasive_eink_hardware_driver.c ****                 dataLineEven[k]     |= ((tempByte & PV_EINK_EVEN_MASK_C) ? 
 1159              		.loc 1 607 0 is_stmt 1 discriminator 4
 1160 02b2 2007     		lsls	r0, r4, #28
 1161 02b4 02D5     		bpl	.L109
 1162              		.loc 1 607 0 is_stmt 0
 1163 02b6 3020     		movs	r0, #48
 1164 02b8 8346     		mov	fp, r0
 1165 02ba 01E0     		b	.L70
 1166              	.L109:
 1167 02bc 1020     		movs	r0, #16
 1168 02be 8346     		mov	fp, r0
 1169              	.L70:
 1170              		.loc 1 607 0 discriminator 4
 1171 02c0 5846     		mov	r0, fp
 1172 02c2 0843     		orrs	r0, r1
 1173 02c4 0100     		movs	r1, r0
 1174 02c6 4846     		mov	r0, r9
 1175 02c8 0170     		strb	r1, [r0]
 608:pervasive_eink_hardware_driver.c ****                                         PV_EINK_BLACK2 : PV_EINK_NOTHING2);
ARM GAS  C:\Users\bryan.lee\AppData\Local\Temp\ccAkWdHW.s 			page 46


 609:pervasive_eink_hardware_driver.c ****                 dataLineEven[k--]   |= ((tempByte & PV_EINK_EVEN_MASK_D) ? 
 1176              		.loc 1 609 0 is_stmt 1 discriminator 4
 1177 02ca 013A     		subs	r2, r2, #1
 1178              	.LVL98:
 1179 02cc 92B2     		uxth	r2, r2
 1180              	.LVL99:
 1181 02ce A007     		lsls	r0, r4, #30
 1182 02d0 03D5     		bpl	.L110
 1183              		.loc 1 609 0 is_stmt 0
 1184 02d2 4020     		movs	r0, #64
 1185 02d4 4042     		rsbs	r0, r0, #0
 1186 02d6 8346     		mov	fp, r0
 1187 02d8 01E0     		b	.L71
 1188              	.L110:
 1189 02da 4020     		movs	r0, #64
 1190 02dc 8346     		mov	fp, r0
 1191              	.L71:
 1192              		.loc 1 609 0 discriminator 4
 1193 02de 5846     		mov	r0, fp
 1194 02e0 0843     		orrs	r0, r1
 1195 02e2 0100     		movs	r1, r0
 1196 02e4 4846     		mov	r0, r9
 1197 02e6 0170     		strb	r1, [r0]
 610:pervasive_eink_hardware_driver.c ****                                         PV_EINK_BLACK3 : PV_EINK_NOTHING3);
 611:pervasive_eink_hardware_driver.c ****                 break;
 1198              		.loc 1 611 0 is_stmt 1 discriminator 4
 1199 02e8 68E0     		b	.L43
 1200              	.L47:
 612:pervasive_eink_hardware_driver.c ****             /* Stage 4: Calculate the Even and Odd bytes of new image 
 613:pervasive_eink_hardware_driver.c ****                data */
 614:pervasive_eink_hardware_driver.c ****             case PV_EINK_STAGE4:
 615:pervasive_eink_hardware_driver.c ****                 dataLineOdd[x]       = ((tempByte & PV_EINK_ODD_MASK_A)  ? 
 1201              		.loc 1 615 0
 1202 02ea 0199     		ldr	r1, [sp, #4]
 1203 02ec C918     		adds	r1, r1, r3
 1204 02ee 8B46     		mov	fp, r1
 1205 02f0 6106     		lsls	r1, r4, #25
 1206 02f2 01D5     		bpl	.L111
 1207 02f4 8021     		movs	r1, #128
 1208 02f6 00E0     		b	.L72
 1209              	.L111:
 1210 02f8 C021     		movs	r1, #192
 1211              	.L72:
 1212              		.loc 1 615 0 is_stmt 0 discriminator 4
 1213 02fa 5846     		mov	r0, fp
 1214 02fc 0170     		strb	r1, [r0]
 616:pervasive_eink_hardware_driver.c ****                                         PV_EINK_WHITE3 : PV_EINK_BLACK3);
 617:pervasive_eink_hardware_driver.c ****                 dataLineOdd[x]      |= ((tempByte & PV_EINK_ODD_MASK_B)  ?
 1215              		.loc 1 617 0 is_stmt 1 discriminator 4
 1216 02fe 49B2     		sxtb	r1, r1
 1217 0300 E006     		lsls	r0, r4, #27
 1218 0302 02D5     		bpl	.L112
 1219              		.loc 1 617 0 is_stmt 0
 1220 0304 2020     		movs	r0, #32
 1221 0306 8146     		mov	r9, r0
 1222 0308 01E0     		b	.L73
 1223              	.L112:
ARM GAS  C:\Users\bryan.lee\AppData\Local\Temp\ccAkWdHW.s 			page 47


 1224 030a 3020     		movs	r0, #48
 1225 030c 8146     		mov	r9, r0
 1226              	.L73:
 1227              		.loc 1 617 0 discriminator 4
 1228 030e 4846     		mov	r0, r9
 1229 0310 0843     		orrs	r0, r1
 1230 0312 0100     		movs	r1, r0
 1231 0314 5846     		mov	r0, fp
 1232 0316 0170     		strb	r1, [r0]
 618:pervasive_eink_hardware_driver.c ****                                         PV_EINK_WHITE2 : PV_EINK_BLACK2);
 619:pervasive_eink_hardware_driver.c ****                 dataLineOdd[x]      |= ((tempByte & PV_EINK_ODD_MASK_C)  ? 
 1233              		.loc 1 619 0 is_stmt 1 discriminator 4
 1234 0318 6007     		lsls	r0, r4, #29
 1235 031a 02D5     		bpl	.L113
 1236              		.loc 1 619 0 is_stmt 0
 1237 031c 0820     		movs	r0, #8
 1238 031e 8146     		mov	r9, r0
 1239 0320 01E0     		b	.L74
 1240              	.L113:
 1241 0322 0C20     		movs	r0, #12
 1242 0324 8146     		mov	r9, r0
 1243              	.L74:
 1244              		.loc 1 619 0 discriminator 4
 1245 0326 4846     		mov	r0, r9
 1246 0328 0843     		orrs	r0, r1
 1247 032a 0100     		movs	r1, r0
 1248 032c 5846     		mov	r0, fp
 1249 032e 0170     		strb	r1, [r0]
 620:pervasive_eink_hardware_driver.c ****                                         PV_EINK_WHITE1 : PV_EINK_BLACK1);
 621:pervasive_eink_hardware_driver.c ****                 dataLineOdd[x]      |= ((tempByte & PV_EINK_ODD_MASK_D)  ? 
 1250              		.loc 1 621 0 is_stmt 1 discriminator 4
 1251 0330 E007     		lsls	r0, r4, #31
 1252 0332 09D5     		bpl	.L114
 1253              		.loc 1 621 0 is_stmt 0
 1254 0334 0220     		movs	r0, #2
 1255 0336 8146     		mov	r9, r0
 1256 0338 08E0     		b	.L75
 1257              	.L120:
 1258 033a C046     		.align	2
 1259              	.L119:
 1260 033c FFFF0F10 		.word	269484031
 1261 0340 00000000 		.word	bulkDriverPacket
 1262 0344 00000000 		.word	.LANCHOR0
 1263              	.L114:
 1264 0348 0320     		movs	r0, #3
 1265 034a 8146     		mov	r9, r0
 1266              	.L75:
 1267              		.loc 1 621 0 discriminator 4
 1268 034c 4846     		mov	r0, r9
 1269 034e 0843     		orrs	r0, r1
 1270 0350 0100     		movs	r1, r0
 1271 0352 5846     		mov	r0, fp
 1272 0354 0170     		strb	r1, [r0]
 622:pervasive_eink_hardware_driver.c ****                                         PV_EINK_WHITE0 : PV_EINK_BLACK0);
 623:pervasive_eink_hardware_driver.c ****                 dataLineEven[k]     = ((tempByte & PV_EINK_EVEN_MASK_A)  ? 
 1273              		.loc 1 623 0 is_stmt 1 discriminator 4
 1274 0356 9146     		mov	r9, r2
ARM GAS  C:\Users\bryan.lee\AppData\Local\Temp\ccAkWdHW.s 			page 48


 1275 0358 E144     		add	r9, r9, ip
 1276 035a 61B2     		sxtb	r1, r4
 1277 035c 0029     		cmp	r1, #0
 1278 035e 01DA     		bge	.L115
 1279              		.loc 1 623 0 is_stmt 0
 1280 0360 0221     		movs	r1, #2
 1281 0362 00E0     		b	.L76
 1282              	.L115:
 1283 0364 0321     		movs	r1, #3
 1284              	.L76:
 1285              		.loc 1 623 0 discriminator 4
 1286 0366 4846     		mov	r0, r9
 1287 0368 0170     		strb	r1, [r0]
 624:pervasive_eink_hardware_driver.c ****                                         PV_EINK_WHITE0 : PV_EINK_BLACK0);
 625:pervasive_eink_hardware_driver.c ****                 dataLineEven[k]     |= ((tempByte & PV_EINK_EVEN_MASK_B) ? 
 1288              		.loc 1 625 0 is_stmt 1 discriminator 4
 1289 036a 49B2     		sxtb	r1, r1
 1290 036c A006     		lsls	r0, r4, #26
 1291 036e 02D5     		bpl	.L116
 1292              		.loc 1 625 0 is_stmt 0
 1293 0370 0820     		movs	r0, #8
 1294 0372 8346     		mov	fp, r0
 1295 0374 01E0     		b	.L77
 1296              	.L116:
 1297 0376 0C20     		movs	r0, #12
 1298 0378 8346     		mov	fp, r0
 1299              	.L77:
 1300              		.loc 1 625 0 discriminator 4
 1301 037a 5846     		mov	r0, fp
 1302 037c 0843     		orrs	r0, r1
 1303 037e 0100     		movs	r1, r0
 1304 0380 4846     		mov	r0, r9
 1305 0382 0170     		strb	r1, [r0]
 626:pervasive_eink_hardware_driver.c ****                                         PV_EINK_WHITE1 : PV_EINK_BLACK1);
 627:pervasive_eink_hardware_driver.c ****                 dataLineEven[k]     |= ((tempByte & PV_EINK_EVEN_MASK_C) ?
 1306              		.loc 1 627 0 is_stmt 1 discriminator 4
 1307 0384 2007     		lsls	r0, r4, #28
 1308 0386 02D5     		bpl	.L117
 1309              		.loc 1 627 0 is_stmt 0
 1310 0388 2020     		movs	r0, #32
 1311 038a 8346     		mov	fp, r0
 1312 038c 01E0     		b	.L78
 1313              	.L117:
 1314 038e 3020     		movs	r0, #48
 1315 0390 8346     		mov	fp, r0
 1316              	.L78:
 1317              		.loc 1 627 0 discriminator 4
 1318 0392 5846     		mov	r0, fp
 1319 0394 0843     		orrs	r0, r1
 1320 0396 0100     		movs	r1, r0
 1321 0398 4846     		mov	r0, r9
 1322 039a 0170     		strb	r1, [r0]
 628:pervasive_eink_hardware_driver.c ****                                         PV_EINK_WHITE2 : PV_EINK_BLACK2);
 629:pervasive_eink_hardware_driver.c ****                 dataLineEven[k--]   |= ((tempByte & PV_EINK_EVEN_MASK_D) ? 
 1323              		.loc 1 629 0 is_stmt 1 discriminator 4
 1324 039c 013A     		subs	r2, r2, #1
 1325              	.LVL100:
ARM GAS  C:\Users\bryan.lee\AppData\Local\Temp\ccAkWdHW.s 			page 49


 1326 039e 92B2     		uxth	r2, r2
 1327              	.LVL101:
 1328 03a0 A007     		lsls	r0, r4, #30
 1329 03a2 03D5     		bpl	.L118
 1330              		.loc 1 629 0 is_stmt 0
 1331 03a4 8020     		movs	r0, #128
 1332 03a6 4042     		rsbs	r0, r0, #0
 1333 03a8 8346     		mov	fp, r0
 1334 03aa 02E0     		b	.L79
 1335              	.L118:
 1336 03ac 4020     		movs	r0, #64
 1337 03ae 4042     		rsbs	r0, r0, #0
 1338 03b0 8346     		mov	fp, r0
 1339              	.L79:
 1340              		.loc 1 629 0 discriminator 4
 1341 03b2 5846     		mov	r0, fp
 1342 03b4 0843     		orrs	r0, r1
 1343 03b6 0100     		movs	r1, r0
 1344 03b8 4846     		mov	r0, r9
 1345 03ba 0170     		strb	r1, [r0]
 1346              	.L43:
 541:pervasive_eink_hardware_driver.c ****         {
 1347              		.loc 1 541 0 is_stmt 1 discriminator 2
 1348 03bc 0133     		adds	r3, r3, #1
 1349              	.LVL102:
 1350 03be 9BB2     		uxth	r3, r3
 1351              	.LVL103:
 1352              	.L41:
 541:pervasive_eink_hardware_driver.c ****         {
 1353              		.loc 1 541 0 is_stmt 0 discriminator 1
 1354 03c0 202B     		cmp	r3, #32
 1355 03c2 00D8     		bhi	.LCB1474
 1356 03c4 5BE6     		b	.L80	@long jump
 1357              	.LCB1474:
 1358              	.LVL104:
 630:pervasive_eink_hardware_driver.c ****                                         PV_EINK_WHITE3 : PV_EINK_BLACK3);
 631:pervasive_eink_hardware_driver.c ****                 break;
 632:pervasive_eink_hardware_driver.c ****             }
 633:pervasive_eink_hardware_driver.c ****         }
 634:pervasive_eink_hardware_driver.c ****         /* Move onto the next line */
 635:pervasive_eink_hardware_driver.c ****         scanlineNumber = PV_EINK_VERTICAL_SIZE - y;
 636:pervasive_eink_hardware_driver.c ****         scanlineNumber--;
 1359              		.loc 1 636 0 is_stmt 1 discriminator 2
 1360 03c6 AF23     		movs	r3, #175
 1361              	.LVL105:
 1362 03c8 4246     		mov	r2, r8
 1363              	.LVL106:
 1364 03ca 9B1A     		subs	r3, r3, r2
 1365 03cc 1BB2     		sxth	r3, r3
 1366              	.LVL107:
 637:pervasive_eink_hardware_driver.c ****         
 638:pervasive_eink_hardware_driver.c ****         /* Shift Scan byte according to the data line */
 639:pervasive_eink_hardware_driver.c ****         dataLineScan[(scanlineNumber >> PV_EINK_PIXEL_SIZE)] = scanTable
 1367              		.loc 1 639 0 discriminator 2
 1368 03ce 9A10     		asrs	r2, r3, #2
 640:pervasive_eink_hardware_driver.c ****                             [(scanlineNumber % PV_EINK_SCAN_TABLE_SIZE)];
 1369              		.loc 1 640 0 discriminator 2
ARM GAS  C:\Users\bryan.lee\AppData\Local\Temp\ccAkWdHW.s 			page 50


 1370 03d0 D917     		asrs	r1, r3, #31
 1371 03d2 890F     		lsrs	r1, r1, #30
 1372 03d4 5B18     		adds	r3, r3, r1
 1373              	.LVL108:
 1374 03d6 0320     		movs	r0, #3
 1375 03d8 0340     		ands	r3, r0
 1376 03da 5B1A     		subs	r3, r3, r1
 1377 03dc 1BB2     		sxth	r3, r3
 1378 03de 1849     		ldr	r1, .L121
 1379 03e0 CB18     		adds	r3, r1, r3
 1380 03e2 1B7A     		ldrb	r3, [r3, #8]
 639:pervasive_eink_hardware_driver.c ****                             [(scanlineNumber % PV_EINK_SCAN_TABLE_SIZE)];
 1381              		.loc 1 639 0 discriminator 2
 1382 03e4 5146     		mov	r1, r10
 1383 03e6 8B54     		strb	r3, [r1, r2]
 525:pervasive_eink_hardware_driver.c ****     {
 1384              		.loc 1 525 0 discriminator 2
 1385 03e8 4346     		mov	r3, r8
 1386 03ea 0133     		adds	r3, r3, #1
 1387 03ec 9BB2     		uxth	r3, r3
 1388 03ee 9846     		mov	r8, r3
 1389              	.LVL109:
 1390              	.L40:
 525:pervasive_eink_hardware_driver.c ****     {
 1391              		.loc 1 525 0 is_stmt 0 discriminator 1
 1392 03f0 4346     		mov	r3, r8
 1393 03f2 AF2B     		cmp	r3, #175
 1394 03f4 00D8     		bhi	.LCB1520
 1395 03f6 1EE6     		b	.L81	@long jump
 1396              	.LCB1520:
 1397              	.LVL110:
 1398              	.L84:
 641:pervasive_eink_hardware_driver.c ****             
 642:pervasive_eink_hardware_driver.c ****     }
 643:pervasive_eink_hardware_driver.c ****             
 644:pervasive_eink_hardware_driver.c ****     /* Perform the update operation until the total time of frames exceed 
 645:pervasive_eink_hardware_driver.c ****        stage time */
 646:pervasive_eink_hardware_driver.c ****     do
 647:pervasive_eink_hardware_driver.c ****     {
 648:pervasive_eink_hardware_driver.c ****         /* Perform a line by line update */
 649:pervasive_eink_hardware_driver.c ****         for (y = 0; y < PV_EINK_VERTICAL_SIZE; y++)
 1399              		.loc 1 649 0 is_stmt 1
 1400 03f8 0024     		movs	r4, #0
 1401 03fa 0FE0     		b	.L82
 1402              	.LVL111:
 1403              	.L83:
 650:pervasive_eink_hardware_driver.c ****         {
 651:pervasive_eink_hardware_driver.c ****                 /* Send the prepared data to the E-INK display */
 652:pervasive_eink_hardware_driver.c ****             Pv_EINK_SendData(PV_EINK_PIXEL_DATA_COMMAND_INDEX,
 653:pervasive_eink_hardware_driver.c ****                           (uint8_t*) &bulkDriverPacket[y].lineBuffer,
 1404              		.loc 1 653 0 discriminator 3
 1405 03fc E300     		lsls	r3, r4, #3
 1406 03fe 1B1B     		subs	r3, r3, r4
 1407 0400 1B01     		lsls	r3, r3, #4
 1408 0402 1B1B     		subs	r3, r3, r4
 1409 0404 0F49     		ldr	r1, .L121+4
 1410 0406 5918     		adds	r1, r3, r1
ARM GAS  C:\Users\bryan.lee\AppData\Local\Temp\ccAkWdHW.s 			page 51


 652:pervasive_eink_hardware_driver.c ****                           (uint8_t*) &bulkDriverPacket[y].lineBuffer,
 1411              		.loc 1 652 0 discriminator 3
 1412 0408 6F22     		movs	r2, #111
 1413 040a 0A20     		movs	r0, #10
 1414 040c FFF7FEFF 		bl	Pv_EINK_SendData
 1415              	.LVL112:
 654:pervasive_eink_hardware_driver.c ****                           PV_EINK_DATA_LINE_SIZE);
 655:pervasive_eink_hardware_driver.c ****                           
 656:pervasive_eink_hardware_driver.c ****             /* Turn on Output Enable to latch the frame */
 657:pervasive_eink_hardware_driver.c ****             Pv_EINK_SendByte(PV_EINK_ENABLE_OE_COMMAND_INDEX,
 1416              		.loc 1 657 0 discriminator 3
 1417 0410 0721     		movs	r1, #7
 1418 0412 0220     		movs	r0, #2
 1419 0414 FFF7FEFF 		bl	Pv_EINK_SendByte
 1420              	.LVL113:
 649:pervasive_eink_hardware_driver.c ****         {
 1421              		.loc 1 649 0 discriminator 3
 1422 0418 0134     		adds	r4, r4, #1
 1423              	.LVL114:
 1424 041a A4B2     		uxth	r4, r4
 1425              	.LVL115:
 1426              	.L82:
 649:pervasive_eink_hardware_driver.c ****         {
 1427              		.loc 1 649 0 is_stmt 0 discriminator 1
 1428 041c AF2C     		cmp	r4, #175
 1429 041e EDD9     		bls	.L83
 658:pervasive_eink_hardware_driver.c ****                           PV_EINK_ENABLE_OE_COMMAND_DATA);
 659:pervasive_eink_hardware_driver.c ****         }
 660:pervasive_eink_hardware_driver.c ****     
 661:pervasive_eink_hardware_driver.c ****     }
 662:pervasive_eink_hardware_driver.c ****     /* Loop until the total time of frames exceed stage time */
 663:pervasive_eink_hardware_driver.c ****     while (fullUpdateTime > Cy_EINK_GetTimeTick());
 1430              		.loc 1 663 0 is_stmt 1
 1431 0420 7C23     		movs	r3, #124
 1432 0422 094A     		ldr	r2, .L121+8
 1433 0424 D45A     		ldrh	r4, [r2, r3]
 1434              	.LVL116:
 1435 0426 FFF7FEFF 		bl	Cy_EINK_GetTimeTick
 1436              	.LVL117:
 1437 042a 8442     		cmp	r4, r0
 1438 042c E4D8     		bhi	.L84
 664:pervasive_eink_hardware_driver.c ****     
 665:pervasive_eink_hardware_driver.c ****     /* Stop the E-INK Timer */
 666:pervasive_eink_hardware_driver.c ****     Cy_EINK_TimerStop();
 1439              		.loc 1 666 0
 1440 042e FFF7FEFF 		bl	Cy_EINK_TimerStop
 1441              	.LVL118:
 667:pervasive_eink_hardware_driver.c **** }
 1442              		.loc 1 667 0
 1443 0432 03B0     		add	sp, sp, #12
 1444              		@ sp needed
 1445              	.LVL119:
 1446              	.LVL120:
 1447 0434 3CBC     		pop	{r2, r3, r4, r5}
 1448 0436 9046     		mov	r8, r2
 1449 0438 9946     		mov	r9, r3
 1450 043a A246     		mov	r10, r4
ARM GAS  C:\Users\bryan.lee\AppData\Local\Temp\ccAkWdHW.s 			page 52


 1451 043c AB46     		mov	fp, r5
 1452 043e F0BD     		pop	{r4, r5, r6, r7, pc}
 1453              	.L122:
 1454              		.align	2
 1455              	.L121:
 1456 0440 00000000 		.word	.LANCHOR1
 1457 0444 00000000 		.word	bulkDriverPacket
 1458 0448 00000000 		.word	.LANCHOR0
 1459              		.cfi_endproc
 1460              	.LFE459:
 1461              		.size	Pv_EINK_FullStageHandler, .-Pv_EINK_FullStageHandler
 1462              		.section	.text.Pv_EINK_PartialStageHandler,"ax",%progbits
 1463              		.align	2
 1464              		.global	Pv_EINK_PartialStageHandler
 1465              		.code	16
 1466              		.thumb_func
 1467              		.type	Pv_EINK_PartialStageHandler, %function
 1468              	Pv_EINK_PartialStageHandler:
 1469              	.LFB460:
 668:pervasive_eink_hardware_driver.c **** 
 669:pervasive_eink_hardware_driver.c **** /*******************************************************************************
 670:pervasive_eink_hardware_driver.c **** * Function Name:  void Pv_EINK_PartialStageHandler(pv_eink_frame_data_t* 
 671:pervasive_eink_hardware_driver.c ****                             previousImagePtr, pv_eink_frame_data_t* newImagePtr)
 672:pervasive_eink_hardware_driver.c **** ********************************************************************************
 673:pervasive_eink_hardware_driver.c **** *
 674:pervasive_eink_hardware_driver.c **** * Summary: The partial update driving stage for getting Odd and Even bytes, and
 675:pervasive_eink_hardware_driver.c **** * then writing the data from memory array to E-INK driver.
 676:pervasive_eink_hardware_driver.c **** *
 677:pervasive_eink_hardware_driver.c **** * Partial update is similar to the last stage of full update. If the new data byte
 678:pervasive_eink_hardware_driver.c **** * is same as previous data byte, send a "nothing" pixel, so that E-INK pixel won't
 679:pervasive_eink_hardware_driver.c **** * be altered. If the new data byte is different from the previous data byte, send
 680:pervasive_eink_hardware_driver.c **** * the new data byte.
 681:pervasive_eink_hardware_driver.c **** * For more details on the driving stages, please refer to the driver G2 document
 682:pervasive_eink_hardware_driver.c **** * Section 5.
 683:pervasive_eink_hardware_driver.c **** *
 684:pervasive_eink_hardware_driver.c **** * Parameters:
 685:pervasive_eink_hardware_driver.c **** * pv_eink_frame_data_t* previousImagePtr : The pointer of memory that contains 
 686:pervasive_eink_hardware_driver.c **** *                                    previous frame written to the E-INK display
 687:pervasive_eink_hardware_driver.c **** * pv_eink_frame_data_t* newImagePtr      : The pointer of memory that contains a 
 688:pervasive_eink_hardware_driver.c **** *                       new frame which needs to be written to the E-INK display
 689:pervasive_eink_hardware_driver.c **** *
 690:pervasive_eink_hardware_driver.c **** * Return:
 691:pervasive_eink_hardware_driver.c **** *  None
 692:pervasive_eink_hardware_driver.c **** *
 693:pervasive_eink_hardware_driver.c **** * Side Effects:
 694:pervasive_eink_hardware_driver.c **** *  This is a blocking function. CPU will be busy during the entire operation,
 695:pervasive_eink_hardware_driver.c **** *  which can be 1 to 2 seconds. 
 696:pervasive_eink_hardware_driver.c **** *******************************************************************************/
 697:pervasive_eink_hardware_driver.c **** void Pv_EINK_PartialStageHandler(pv_eink_frame_data_t* previousImagePtr, 
 698:pervasive_eink_hardware_driver.c ****                                  pv_eink_frame_data_t* newImagePtr)
 699:pervasive_eink_hardware_driver.c **** {
 1470              		.loc 1 699 0
 1471              		.cfi_startproc
 1472              		@ args = 0, pretend = 0, frame = 8
 1473              		@ frame_needed = 0, uses_anonymous_args = 0
 1474              	.LVL121:
 1475 0000 F0B5     		push	{r4, r5, r6, r7, lr}
ARM GAS  C:\Users\bryan.lee\AppData\Local\Temp\ccAkWdHW.s 			page 53


 1476              		.cfi_def_cfa_offset 20
 1477              		.cfi_offset 4, -20
 1478              		.cfi_offset 5, -16
 1479              		.cfi_offset 6, -12
 1480              		.cfi_offset 7, -8
 1481              		.cfi_offset 14, -4
 1482 0002 5F46     		mov	r7, fp
 1483 0004 5646     		mov	r6, r10
 1484 0006 4D46     		mov	r5, r9
 1485 0008 4446     		mov	r4, r8
 1486 000a F0B4     		push	{r4, r5, r6, r7}
 1487              		.cfi_def_cfa_offset 36
 1488              		.cfi_offset 8, -36
 1489              		.cfi_offset 9, -32
 1490              		.cfi_offset 10, -28
 1491              		.cfi_offset 11, -24
 1492 000c 83B0     		sub	sp, sp, #12
 1493              		.cfi_def_cfa_offset 48
 1494 000e 0700     		movs	r7, r0
 1495 0010 0D00     		movs	r5, r1
 1496              	.LVL122:
 700:pervasive_eink_hardware_driver.c ****     /* Counter variable for the horizontal pixel loop */
 701:pervasive_eink_hardware_driver.c ****     uint16_t    x;
 702:pervasive_eink_hardware_driver.c ****     /* Counter variable for the vertical pixel loop */
 703:pervasive_eink_hardware_driver.c ****     uint16_t    y;
 704:pervasive_eink_hardware_driver.c ****     /* Counter variable for the horizontal byte loop */
 705:pervasive_eink_hardware_driver.c ****     uint16_t    k;
 706:pervasive_eink_hardware_driver.c ****     
 707:pervasive_eink_hardware_driver.c ****     /* Temporary storage for image data bytes */
 708:pervasive_eink_hardware_driver.c ****     uint8_t     oldByte;
 709:pervasive_eink_hardware_driver.c ****     /* Temporary storage for image data bytes */
 710:pervasive_eink_hardware_driver.c ****     uint8_t     newByte;
 711:pervasive_eink_hardware_driver.c ****     
 712:pervasive_eink_hardware_driver.c ****     /* Variable for storing the line number under scan */
 713:pervasive_eink_hardware_driver.c ****     int16       scanlineNumber = 0;
 714:pervasive_eink_hardware_driver.c ****     
 715:pervasive_eink_hardware_driver.c ****     /* Re-initialize E-INK timer to ensure the same duration of each stage  */
 716:pervasive_eink_hardware_driver.c ****     Cy_EINK_TimerInit();
 1497              		.loc 1 716 0
 1498 0012 FFF7FEFF 		bl	Cy_EINK_TimerInit
 1499              	.LVL123:
 717:pervasive_eink_hardware_driver.c ****     
 718:pervasive_eink_hardware_driver.c ****     /* Vcom level adjust */
 719:pervasive_eink_hardware_driver.c ****     Pv_EINK_SendByte(PV_EINK_VCOM2_LEVEL_COMMAND_INDEX,
 1500              		.loc 1 719 0
 1501 0016 D221     		movs	r1, #210
 1502 0018 0920     		movs	r0, #9
 1503 001a FFF7FEFF 		bl	Pv_EINK_SendByte
 1504              	.LVL124:
 720:pervasive_eink_hardware_driver.c ****                      PV_EINK_VCOM2_LEVEL_COMMAND_DATA);
 721:pervasive_eink_hardware_driver.c ****      
 722:pervasive_eink_hardware_driver.c ****     /* Vertical pixel loop */
 723:pervasive_eink_hardware_driver.c ****     for (y = 0; y < PV_EINK_VERTICAL_SIZE; y++)
 1505              		.loc 1 723 0
 1506 001e 0023     		movs	r3, #0
 1507 0020 9A46     		mov	r10, r3
 1508 0022 BBE0     		b	.L124
ARM GAS  C:\Users\bryan.lee\AppData\Local\Temp\ccAkWdHW.s 			page 54


 1509              	.LVL125:
 1510              	.L135:
 724:pervasive_eink_hardware_driver.c ****     {
 725:pervasive_eink_hardware_driver.c ****         /* Clear the line buffer with all zeros */
 726:pervasive_eink_hardware_driver.c ****         memset(&bulkDriverPacket[y].lineBuffer, 0, 
 1511              		.loc 1 726 0
 1512 0024 5346     		mov	r3, r10
 1513 0026 DC00     		lsls	r4, r3, #3
 1514 0028 E41A     		subs	r4, r4, r3
 1515 002a 2401     		lsls	r4, r4, #4
 1516 002c E41A     		subs	r4, r4, r3
 1517 002e 7A4B     		ldr	r3, .L155
 1518 0030 9946     		mov	r9, r3
 1519 0032 E618     		adds	r6, r4, r3
 1520 0034 6F22     		movs	r2, #111
 1521 0036 0021     		movs	r1, #0
 1522 0038 3000     		movs	r0, r6
 1523 003a FFF7FEFF 		bl	memset
 1524              	.LVL126:
 727:pervasive_eink_hardware_driver.c ****                sizeof(bulkDriverPacket[y].lineBuffer)) ;
 728:pervasive_eink_hardware_driver.c **** 
 729:pervasive_eink_hardware_driver.c ****         /* Initialize the even data, odd data and scan data pointers */
 730:pervasive_eink_hardware_driver.c ****         dataLineEven = &bulkDriverPacket[y].lineDataBySize.even[0];
 1525              		.loc 1 730 0
 1526 003e 731C     		adds	r3, r6, #1
 1527 0040 9846     		mov	r8, r3
 1528 0042 764B     		ldr	r3, .L155+4
 1529 0044 4246     		mov	r2, r8
 1530 0046 1A67     		str	r2, [r3, #112]
 731:pervasive_eink_hardware_driver.c ****         dataLineOdd  = &bulkDriverPacket[y].lineDataBySize.odd[0];
 1531              		.loc 1 731 0
 1532 0048 2200     		movs	r2, r4
 1533 004a 4832     		adds	r2, r2, #72
 1534 004c 4A44     		add	r2, r2, r9
 1535 004e 0632     		adds	r2, r2, #6
 1536 0050 9446     		mov	ip, r2
 1537 0052 5A67     		str	r2, [r3, #116]
 732:pervasive_eink_hardware_driver.c ****         dataLineScan = &bulkDriverPacket[y].lineDataBySize.scan[0];
 1538              		.loc 1 732 0
 1539 0054 2034     		adds	r4, r4, #32
 1540 0056 4C44     		add	r4, r4, r9
 1541 0058 A21C     		adds	r2, r4, #2
 1542 005a 9146     		mov	r9, r2
 1543 005c 9A67     		str	r2, [r3, #120]
 1544              	.LVL127:
 733:pervasive_eink_hardware_driver.c **** 
 734:pervasive_eink_hardware_driver.c ****         /* Horizontal bytes initialization */
 735:pervasive_eink_hardware_driver.c ****         k = PV_EINK_HORIZONTAL_SIZE;
 736:pervasive_eink_hardware_driver.c ****         k--;
 1545              		.loc 1 736 0
 1546 005e 2024     		movs	r4, #32
 737:pervasive_eink_hardware_driver.c ****         
 738:pervasive_eink_hardware_driver.c ****         /* Horizontal pixel loop */
 739:pervasive_eink_hardware_driver.c ****         for (x = 0; x < PV_EINK_HORIZONTAL_SIZE; x++)
 1547              		.loc 1 739 0
 1548 0060 0021     		movs	r1, #0
 1549 0062 83E0     		b	.L125
ARM GAS  C:\Users\bryan.lee\AppData\Local\Temp\ccAkWdHW.s 			page 55


 1550              	.LVL128:
 1551              	.L134:
 740:pervasive_eink_hardware_driver.c ****         {
 741:pervasive_eink_hardware_driver.c ****             /* Fetch successive data bytes */
 742:pervasive_eink_hardware_driver.c ****             oldByte = *previousImagePtr++;
 1552              		.loc 1 742 0
 1553 0064 7B1C     		adds	r3, r7, #1
 1554 0066 0193     		str	r3, [sp, #4]
 1555              	.LVL129:
 1556 0068 3A78     		ldrb	r2, [r7]
 1557              	.LVL130:
 743:pervasive_eink_hardware_driver.c ****             newByte = *newImagePtr++;
 1558              		.loc 1 743 0
 1559 006a 6F1C     		adds	r7, r5, #1
 1560              	.LVL131:
 1561 006c 2D78     		ldrb	r5, [r5]
 1562              	.LVL132:
 744:pervasive_eink_hardware_driver.c ****             
 745:pervasive_eink_hardware_driver.c ****             /* Calculate the Even and Odd bytes for partial update stage. Also, 
 746:pervasive_eink_hardware_driver.c ****                if the new data byte is same as the previous data byte, store a 
 747:pervasive_eink_hardware_driver.c ****                "nothing" pixel, so that the E-INK pixel won't be altered.
 748:pervasive_eink_hardware_driver.c ****                If the new data byte is different from the previous data byte, 
 749:pervasive_eink_hardware_driver.c ****                store the new data byte */
 750:pervasive_eink_hardware_driver.c ****             dataLineOdd[x]       = ((oldByte ^ newByte) & PV_EINK_ODD_MASK_A)
 1563              		.loc 1 750 0
 1564 006e 6346     		mov	r3, ip
 1565              	.LVL133:
 1566 0070 5E18     		adds	r6, r3, r1
 1567 0072 6A40     		eors	r2, r5
 1568              	.LVL134:
 1569 0074 5306     		lsls	r3, r2, #25
 1570 0076 03D5     		bpl	.L139
 1571              		.loc 1 750 0 is_stmt 0 discriminator 1
 1572 0078 6B06     		lsls	r3, r5, #25
 1573 007a 03D5     		bpl	.L140
 1574              		.loc 1 750 0
 1575 007c 8023     		movs	r3, #128
 1576 007e 02E0     		b	.L126
 1577              	.L139:
 1578 0080 4023     		movs	r3, #64
 1579 0082 00E0     		b	.L126
 1580              	.L140:
 1581 0084 C023     		movs	r3, #192
 1582              	.L126:
 1583              		.loc 1 750 0 discriminator 8
 1584 0086 3370     		strb	r3, [r6]
 1585              	.LVL135:
 751:pervasive_eink_hardware_driver.c ****                                     ?((newByte & PV_EINK_ODD_MASK_A)
 752:pervasive_eink_hardware_driver.c ****                                     ? PV_EINK_WHITE3
 753:pervasive_eink_hardware_driver.c ****                                     : PV_EINK_BLACK3) : PV_EINK_NOTHING3;
 754:pervasive_eink_hardware_driver.c ****             dataLineOdd[x]      |= ((oldByte ^ newByte) & PV_EINK_ODD_MASK_B)
 1586              		.loc 1 754 0 is_stmt 1 discriminator 8
 1587 0088 5BB2     		sxtb	r3, r3
 1588 008a D006     		lsls	r0, r2, #27
 1589 008c 04D5     		bpl	.L141
 1590              		.loc 1 754 0 is_stmt 0 discriminator 1
 1591 008e E806     		lsls	r0, r5, #27
ARM GAS  C:\Users\bryan.lee\AppData\Local\Temp\ccAkWdHW.s 			page 56


 1592 0090 05D5     		bpl	.L142
 1593              		.loc 1 754 0
 1594 0092 2020     		movs	r0, #32
 1595 0094 8346     		mov	fp, r0
 1596 0096 04E0     		b	.L127
 1597              	.L141:
 1598 0098 1020     		movs	r0, #16
 1599 009a 8346     		mov	fp, r0
 1600 009c 01E0     		b	.L127
 1601              	.L142:
 1602 009e 3020     		movs	r0, #48
 1603 00a0 8346     		mov	fp, r0
 1604              	.L127:
 1605              		.loc 1 754 0 discriminator 8
 1606 00a2 5846     		mov	r0, fp
 1607 00a4 1843     		orrs	r0, r3
 1608 00a6 0300     		movs	r3, r0
 1609 00a8 3070     		strb	r0, [r6]
 755:pervasive_eink_hardware_driver.c ****                                     ?((newByte & PV_EINK_ODD_MASK_B) 
 756:pervasive_eink_hardware_driver.c ****                                     ? PV_EINK_WHITE2 
 757:pervasive_eink_hardware_driver.c ****                                     : PV_EINK_BLACK2) : PV_EINK_NOTHING2;
 758:pervasive_eink_hardware_driver.c ****             dataLineOdd[x]      |= ((oldByte ^ newByte) & PV_EINK_ODD_MASK_C)
 1610              		.loc 1 758 0 is_stmt 1 discriminator 8
 1611 00aa 5007     		lsls	r0, r2, #29
 1612 00ac 04D5     		bpl	.L143
 1613              		.loc 1 758 0 is_stmt 0 discriminator 1
 1614 00ae 6807     		lsls	r0, r5, #29
 1615 00b0 05D5     		bpl	.L144
 1616              		.loc 1 758 0
 1617 00b2 0820     		movs	r0, #8
 1618 00b4 8346     		mov	fp, r0
 1619 00b6 04E0     		b	.L128
 1620              	.L143:
 1621 00b8 0420     		movs	r0, #4
 1622 00ba 8346     		mov	fp, r0
 1623 00bc 01E0     		b	.L128
 1624              	.L144:
 1625 00be 0C20     		movs	r0, #12
 1626 00c0 8346     		mov	fp, r0
 1627              	.L128:
 1628              		.loc 1 758 0 discriminator 8
 1629 00c2 5846     		mov	r0, fp
 1630 00c4 1843     		orrs	r0, r3
 1631 00c6 0300     		movs	r3, r0
 1632 00c8 3070     		strb	r0, [r6]
 759:pervasive_eink_hardware_driver.c ****                                     ?((newByte & PV_EINK_ODD_MASK_C) 
 760:pervasive_eink_hardware_driver.c ****                                     ? PV_EINK_WHITE1
 761:pervasive_eink_hardware_driver.c ****                                     : PV_EINK_BLACK1) : PV_EINK_NOTHING1;
 762:pervasive_eink_hardware_driver.c ****             dataLineOdd[x]      |= ((oldByte ^ newByte) & PV_EINK_ODD_MASK_D)
 1633              		.loc 1 762 0 is_stmt 1 discriminator 8
 1634 00ca D007     		lsls	r0, r2, #31
 1635 00cc 04D5     		bpl	.L145
 1636              		.loc 1 762 0 is_stmt 0 discriminator 1
 1637 00ce E807     		lsls	r0, r5, #31
 1638 00d0 05D5     		bpl	.L146
 1639              		.loc 1 762 0
 1640 00d2 0220     		movs	r0, #2
ARM GAS  C:\Users\bryan.lee\AppData\Local\Temp\ccAkWdHW.s 			page 57


 1641 00d4 8346     		mov	fp, r0
 1642 00d6 04E0     		b	.L129
 1643              	.L145:
 1644 00d8 0120     		movs	r0, #1
 1645 00da 8346     		mov	fp, r0
 1646 00dc 01E0     		b	.L129
 1647              	.L146:
 1648 00de 0320     		movs	r0, #3
 1649 00e0 8346     		mov	fp, r0
 1650              	.L129:
 1651              		.loc 1 762 0 discriminator 8
 1652 00e2 5846     		mov	r0, fp
 1653 00e4 1843     		orrs	r0, r3
 1654 00e6 3070     		strb	r0, [r6]
 763:pervasive_eink_hardware_driver.c ****                                     ?((newByte & PV_EINK_ODD_MASK_D) 
 764:pervasive_eink_hardware_driver.c ****                                     ? PV_EINK_WHITE0 
 765:pervasive_eink_hardware_driver.c ****                                     : PV_EINK_BLACK0) : PV_EINK_NOTHING0;
 766:pervasive_eink_hardware_driver.c ****             dataLineEven[k]      = ((oldByte ^ newByte) & PV_EINK_EVEN_MASK_A)
 1655              		.loc 1 766 0 is_stmt 1 discriminator 8
 1656 00e8 4346     		mov	r3, r8
 1657 00ea 1E19     		adds	r6, r3, r4
 767:pervasive_eink_hardware_driver.c ****                                     ?((newByte & PV_EINK_EVEN_MASK_A) 
 1658              		.loc 1 767 0 discriminator 8
 1659 00ec 53B2     		sxtb	r3, r2
 766:pervasive_eink_hardware_driver.c ****                                     ?((newByte & PV_EINK_EVEN_MASK_A) 
 1660              		.loc 1 766 0 discriminator 8
 1661 00ee 002B     		cmp	r3, #0
 1662 00f0 04DA     		bge	.L147
 768:pervasive_eink_hardware_driver.c ****                                     ? PV_EINK_WHITE0
 1663              		.loc 1 768 0 discriminator 1
 1664 00f2 6BB2     		sxtb	r3, r5
 766:pervasive_eink_hardware_driver.c ****                                     ?((newByte & PV_EINK_EVEN_MASK_A) 
 1665              		.loc 1 766 0 discriminator 1
 1666 00f4 002B     		cmp	r3, #0
 1667 00f6 03DA     		bge	.L148
 766:pervasive_eink_hardware_driver.c ****                                     ?((newByte & PV_EINK_EVEN_MASK_A) 
 1668              		.loc 1 766 0 is_stmt 0
 1669 00f8 0223     		movs	r3, #2
 1670 00fa 02E0     		b	.L130
 1671              	.L147:
 1672 00fc 0123     		movs	r3, #1
 1673 00fe 00E0     		b	.L130
 1674              	.L148:
 1675 0100 0323     		movs	r3, #3
 1676              	.L130:
 766:pervasive_eink_hardware_driver.c ****                                     ?((newByte & PV_EINK_EVEN_MASK_A) 
 1677              		.loc 1 766 0 discriminator 8
 1678 0102 3370     		strb	r3, [r6]
 769:pervasive_eink_hardware_driver.c ****                                     : PV_EINK_BLACK0) : PV_EINK_NOTHING0;
 770:pervasive_eink_hardware_driver.c ****             dataLineEven[k]     |= ((oldByte ^ newByte) & PV_EINK_EVEN_MASK_B) 
 1679              		.loc 1 770 0 is_stmt 1 discriminator 8
 1680 0104 5BB2     		sxtb	r3, r3
 1681 0106 9006     		lsls	r0, r2, #26
 1682 0108 04D5     		bpl	.L149
 1683              		.loc 1 770 0 is_stmt 0 discriminator 1
 1684 010a A806     		lsls	r0, r5, #26
 1685 010c 05D5     		bpl	.L150
ARM GAS  C:\Users\bryan.lee\AppData\Local\Temp\ccAkWdHW.s 			page 58


 1686              		.loc 1 770 0
 1687 010e 0820     		movs	r0, #8
 1688 0110 8346     		mov	fp, r0
 1689 0112 04E0     		b	.L131
 1690              	.L149:
 1691 0114 0420     		movs	r0, #4
 1692 0116 8346     		mov	fp, r0
 1693 0118 01E0     		b	.L131
 1694              	.L150:
 1695 011a 0C20     		movs	r0, #12
 1696 011c 8346     		mov	fp, r0
 1697              	.L131:
 1698              		.loc 1 770 0 discriminator 8
 1699 011e 5846     		mov	r0, fp
 1700 0120 1843     		orrs	r0, r3
 1701 0122 0300     		movs	r3, r0
 1702 0124 3070     		strb	r0, [r6]
 771:pervasive_eink_hardware_driver.c ****                                     ?((newByte & PV_EINK_EVEN_MASK_B) 
 772:pervasive_eink_hardware_driver.c ****                                     ? PV_EINK_WHITE1
 773:pervasive_eink_hardware_driver.c ****                                     : PV_EINK_BLACK1) : PV_EINK_NOTHING1;
 774:pervasive_eink_hardware_driver.c ****             dataLineEven[k]     |= ((oldByte ^ newByte) & PV_EINK_EVEN_MASK_C)
 1703              		.loc 1 774 0 is_stmt 1 discriminator 8
 1704 0126 1007     		lsls	r0, r2, #28
 1705 0128 04D5     		bpl	.L151
 1706              		.loc 1 774 0 is_stmt 0 discriminator 1
 1707 012a 2807     		lsls	r0, r5, #28
 1708 012c 05D5     		bpl	.L152
 1709              		.loc 1 774 0
 1710 012e 2020     		movs	r0, #32
 1711 0130 8346     		mov	fp, r0
 1712 0132 04E0     		b	.L132
 1713              	.L151:
 1714 0134 1020     		movs	r0, #16
 1715 0136 8346     		mov	fp, r0
 1716 0138 01E0     		b	.L132
 1717              	.L152:
 1718 013a 3020     		movs	r0, #48
 1719 013c 8346     		mov	fp, r0
 1720              	.L132:
 1721              		.loc 1 774 0 discriminator 8
 1722 013e 5846     		mov	r0, fp
 1723 0140 1843     		orrs	r0, r3
 1724 0142 0300     		movs	r3, r0
 1725 0144 3070     		strb	r0, [r6]
 775:pervasive_eink_hardware_driver.c ****                                     ?((newByte & PV_EINK_EVEN_MASK_C) 
 776:pervasive_eink_hardware_driver.c ****                                     ? PV_EINK_WHITE2 
 777:pervasive_eink_hardware_driver.c ****                                     : PV_EINK_BLACK2) : PV_EINK_NOTHING2;
 778:pervasive_eink_hardware_driver.c ****             dataLineEven[k--]   |= ((oldByte ^ newByte) & PV_EINK_EVEN_MASK_D)
 1726              		.loc 1 778 0 is_stmt 1 discriminator 8
 1727 0146 013C     		subs	r4, r4, #1
 1728              	.LVL136:
 1729 0148 A4B2     		uxth	r4, r4
 1730              	.LVL137:
 1731 014a 9207     		lsls	r2, r2, #30
 1732 014c 04D5     		bpl	.L153
 1733              		.loc 1 778 0 is_stmt 0 discriminator 1
 1734 014e AA07     		lsls	r2, r5, #30
ARM GAS  C:\Users\bryan.lee\AppData\Local\Temp\ccAkWdHW.s 			page 59


 1735 0150 04D5     		bpl	.L154
 1736              		.loc 1 778 0
 1737 0152 8022     		movs	r2, #128
 1738 0154 5242     		rsbs	r2, r2, #0
 1739 0156 03E0     		b	.L133
 1740              	.L153:
 1741 0158 4022     		movs	r2, #64
 1742 015a 01E0     		b	.L133
 1743              	.L154:
 1744 015c 4022     		movs	r2, #64
 1745 015e 5242     		rsbs	r2, r2, #0
 1746              	.L133:
 1747              		.loc 1 778 0 discriminator 8
 1748 0160 1343     		orrs	r3, r2
 1749 0162 3370     		strb	r3, [r6]
 739:pervasive_eink_hardware_driver.c ****         {
 1750              		.loc 1 739 0 is_stmt 1 discriminator 8
 1751 0164 0131     		adds	r1, r1, #1
 1752              	.LVL138:
 1753 0166 89B2     		uxth	r1, r1
 1754              	.LVL139:
 743:pervasive_eink_hardware_driver.c ****             
 1755              		.loc 1 743 0 discriminator 8
 1756 0168 3D00     		movs	r5, r7
 1757              	.LVL140:
 742:pervasive_eink_hardware_driver.c ****             newByte = *newImagePtr++;
 1758              		.loc 1 742 0 discriminator 8
 1759 016a 019F     		ldr	r7, [sp, #4]
 1760              	.LVL141:
 1761              	.L125:
 739:pervasive_eink_hardware_driver.c ****         {
 1762              		.loc 1 739 0 discriminator 2
 1763 016c 2029     		cmp	r1, #32
 1764 016e 00D8     		bhi	.LCB1951
 1765 0170 78E7     		b	.L134	@long jump
 1766              	.LCB1951:
 1767              	.LVL142:
 779:pervasive_eink_hardware_driver.c ****                                     ?((newByte & PV_EINK_EVEN_MASK_D) 
 780:pervasive_eink_hardware_driver.c ****                                     ? PV_EINK_WHITE3 
 781:pervasive_eink_hardware_driver.c ****                                     : PV_EINK_BLACK3) : PV_EINK_NOTHING3;
 782:pervasive_eink_hardware_driver.c ****         }
 783:pervasive_eink_hardware_driver.c ****         /* Move onto the next line */
 784:pervasive_eink_hardware_driver.c ****         scanlineNumber = PV_EINK_VERTICAL_SIZE - y;
 785:pervasive_eink_hardware_driver.c ****         scanlineNumber--;
 1768              		.loc 1 785 0 discriminator 2
 1769 0172 AF23     		movs	r3, #175
 1770 0174 5246     		mov	r2, r10
 1771 0176 9B1A     		subs	r3, r3, r2
 1772 0178 1BB2     		sxth	r3, r3
 1773              	.LVL143:
 786:pervasive_eink_hardware_driver.c ****         
 787:pervasive_eink_hardware_driver.c ****         /* Shift Scan byte according to the data line */
 788:pervasive_eink_hardware_driver.c ****         dataLineScan[(scanlineNumber >> PV_EINK_PIXEL_SIZE)] = scanTable
 1774              		.loc 1 788 0 discriminator 2
 1775 017a 9910     		asrs	r1, r3, #2
 1776              	.LVL144:
 789:pervasive_eink_hardware_driver.c ****                             [(scanlineNumber % PV_EINK_SCAN_TABLE_SIZE)];
ARM GAS  C:\Users\bryan.lee\AppData\Local\Temp\ccAkWdHW.s 			page 60


 1777              		.loc 1 789 0 discriminator 2
 1778 017c DA17     		asrs	r2, r3, #31
 1779 017e 920F     		lsrs	r2, r2, #30
 1780 0180 9B18     		adds	r3, r3, r2
 1781              	.LVL145:
 1782 0182 0320     		movs	r0, #3
 1783 0184 0340     		ands	r3, r0
 1784 0186 9B1A     		subs	r3, r3, r2
 1785 0188 1BB2     		sxth	r3, r3
 1786 018a 254A     		ldr	r2, .L155+8
 1787 018c D318     		adds	r3, r2, r3
 1788 018e 1B7A     		ldrb	r3, [r3, #8]
 788:pervasive_eink_hardware_driver.c ****                             [(scanlineNumber % PV_EINK_SCAN_TABLE_SIZE)];
 1789              		.loc 1 788 0 discriminator 2
 1790 0190 4A46     		mov	r2, r9
 1791 0192 5354     		strb	r3, [r2, r1]
 723:pervasive_eink_hardware_driver.c ****     {
 1792              		.loc 1 723 0 discriminator 2
 1793 0194 5346     		mov	r3, r10
 1794 0196 5E1C     		adds	r6, r3, #1
 1795 0198 B3B2     		uxth	r3, r6
 1796 019a 9A46     		mov	r10, r3
 1797              	.LVL146:
 1798              	.L124:
 723:pervasive_eink_hardware_driver.c ****     {
 1799              		.loc 1 723 0 is_stmt 0 discriminator 1
 1800 019c 5346     		mov	r3, r10
 1801 019e AF2B     		cmp	r3, #175
 1802 01a0 00D8     		bhi	.LCB1995
 1803 01a2 3FE7     		b	.L135	@long jump
 1804              	.LCB1995:
 1805              	.LVL147:
 1806              	.L138:
 790:pervasive_eink_hardware_driver.c ****     }
 791:pervasive_eink_hardware_driver.c ****     
 792:pervasive_eink_hardware_driver.c ****     /* Perform the update operation until the total time of frames exceed stage
 793:pervasive_eink_hardware_driver.c ****        time */
 794:pervasive_eink_hardware_driver.c ****     do
 795:pervasive_eink_hardware_driver.c ****     {
 796:pervasive_eink_hardware_driver.c ****         /* Perform a line by line update */
 797:pervasive_eink_hardware_driver.c ****         for (y = 0; y < PV_EINK_VERTICAL_SIZE; y++)
 1807              		.loc 1 797 0 is_stmt 1
 1808 01a4 0024     		movs	r4, #0
 1809 01a6 21E0     		b	.L136
 1810              	.LVL148:
 1811              	.L137:
 798:pervasive_eink_hardware_driver.c ****         {
 799:pervasive_eink_hardware_driver.c ****             /* Send the prepared data to the E-INK display */
 800:pervasive_eink_hardware_driver.c ****             Pv_EINK_SendData(PV_EINK_PIXEL_DATA_COMMAND_INDEX,
 801:pervasive_eink_hardware_driver.c ****                             (uint8_t*) &bulkDriverPacket[y].lineBuffer,
 1812              		.loc 1 801 0 discriminator 3
 1813 01a8 E300     		lsls	r3, r4, #3
 1814 01aa 1B1B     		subs	r3, r3, r4
 1815 01ac 1B01     		lsls	r3, r3, #4
 1816 01ae 1B1B     		subs	r3, r3, r4
 1817 01b0 194D     		ldr	r5, .L155
 1818 01b2 5D19     		adds	r5, r3, r5
ARM GAS  C:\Users\bryan.lee\AppData\Local\Temp\ccAkWdHW.s 			page 61


 800:pervasive_eink_hardware_driver.c ****                             (uint8_t*) &bulkDriverPacket[y].lineBuffer,
 1819              		.loc 1 800 0 discriminator 3
 1820 01b4 6F22     		movs	r2, #111
 1821 01b6 2900     		movs	r1, r5
 1822 01b8 0A20     		movs	r0, #10
 1823 01ba FFF7FEFF 		bl	Pv_EINK_SendData
 1824              	.LVL149:
 802:pervasive_eink_hardware_driver.c ****                              PV_EINK_DATA_LINE_SIZE);
 803:pervasive_eink_hardware_driver.c ****             /* Turn on Output Enable to latch the frame */
 804:pervasive_eink_hardware_driver.c ****             Pv_EINK_SendByte(PV_EINK_ENABLE_OE_COMMAND_INDEX,
 1825              		.loc 1 804 0 discriminator 3
 1826 01be 0721     		movs	r1, #7
 1827 01c0 0220     		movs	r0, #2
 1828 01c2 FFF7FEFF 		bl	Pv_EINK_SendByte
 1829              	.LVL150:
 805:pervasive_eink_hardware_driver.c ****                              PV_EINK_ENABLE_OE_COMMAND_DATA);
 806:pervasive_eink_hardware_driver.c ****             
 807:pervasive_eink_hardware_driver.c ****             /* Calculate the current line under scan */
 808:pervasive_eink_hardware_driver.c ****             scanlineNumber = PV_EINK_VERTICAL_SIZE - y;
 809:pervasive_eink_hardware_driver.c ****             scanlineNumber--;
 1830              		.loc 1 809 0 discriminator 3
 1831 01c6 AF23     		movs	r3, #175
 1832 01c8 1B1B     		subs	r3, r3, r4
 1833 01ca 1BB2     		sxth	r3, r3
 1834              	.LVL151:
 810:pervasive_eink_hardware_driver.c ****             
 811:pervasive_eink_hardware_driver.c ****             /* Re-initialize the scan line (extra step for partial update) */
 812:pervasive_eink_hardware_driver.c ****             bulkDriverPacket[y].lineDataBySize.scan[(scanlineNumber 
 813:pervasive_eink_hardware_driver.c ****                                                      >> PV_EINK_PIXEL_SIZE)]
 1835              		.loc 1 813 0 discriminator 3
 1836 01cc 9B10     		asrs	r3, r3, #2
 1837              	.LVL152:
 814:pervasive_eink_hardware_driver.c ****                                                      = PV_EINK_SCAN_BYTE_INIT;
 1838              		.loc 1 814 0 discriminator 3
 1839 01ce EB18     		adds	r3, r5, r3
 1840 01d0 2233     		adds	r3, r3, #34
 1841 01d2 0022     		movs	r2, #0
 1842 01d4 1A70     		strb	r2, [r3]
 815:pervasive_eink_hardware_driver.c **** 
 816:pervasive_eink_hardware_driver.c ****             Pv_EINK_SendData(PV_EINK_PIXEL_DATA_COMMAND_INDEX,
 1843              		.loc 1 816 0 discriminator 3
 1844 01d6 6F32     		adds	r2, r2, #111
 1845 01d8 2900     		movs	r1, r5
 1846 01da 0A20     		movs	r0, #10
 1847 01dc FFF7FEFF 		bl	Pv_EINK_SendData
 1848              	.LVL153:
 817:pervasive_eink_hardware_driver.c ****                             (uint8_t*) &bulkDriverPacket[y].lineBuffer,
 818:pervasive_eink_hardware_driver.c ****                              PV_EINK_DATA_LINE_SIZE);
 819:pervasive_eink_hardware_driver.c ****             Pv_EINK_SendByte(PV_EINK_ENABLE_OE_COMMAND_INDEX,
 1849              		.loc 1 819 0 discriminator 3
 1850 01e0 0721     		movs	r1, #7
 1851 01e2 0220     		movs	r0, #2
 1852 01e4 FFF7FEFF 		bl	Pv_EINK_SendByte
 1853              	.LVL154:
 797:pervasive_eink_hardware_driver.c ****         {
 1854              		.loc 1 797 0 discriminator 3
 1855 01e8 0134     		adds	r4, r4, #1
ARM GAS  C:\Users\bryan.lee\AppData\Local\Temp\ccAkWdHW.s 			page 62


 1856              	.LVL155:
 1857 01ea A4B2     		uxth	r4, r4
 1858              	.LVL156:
 1859              	.L136:
 797:pervasive_eink_hardware_driver.c ****         {
 1860              		.loc 1 797 0 is_stmt 0 discriminator 1
 1861 01ec AF2C     		cmp	r4, #175
 1862 01ee DBD9     		bls	.L137
 820:pervasive_eink_hardware_driver.c ****                              PV_EINK_ENABLE_OE_COMMAND_DATA);
 821:pervasive_eink_hardware_driver.c ****         }
 822:pervasive_eink_hardware_driver.c ****     }
 823:pervasive_eink_hardware_driver.c ****     /* Loop until the total time of frames exceed stage time */
 824:pervasive_eink_hardware_driver.c ****     while (partialUpdateTime > Cy_EINK_GetTimeTick());
 1863              		.loc 1 824 0 is_stmt 1
 1864 01f0 7E23     		movs	r3, #126
 1865 01f2 0A4A     		ldr	r2, .L155+4
 1866 01f4 D45A     		ldrh	r4, [r2, r3]
 1867              	.LVL157:
 1868 01f6 FFF7FEFF 		bl	Cy_EINK_GetTimeTick
 1869              	.LVL158:
 1870 01fa 8442     		cmp	r4, r0
 1871 01fc D2D8     		bhi	.L138
 825:pervasive_eink_hardware_driver.c ****     
 826:pervasive_eink_hardware_driver.c ****     /* Stop system timer */
 827:pervasive_eink_hardware_driver.c ****     Cy_EINK_TimerStop();
 1872              		.loc 1 827 0
 1873 01fe FFF7FEFF 		bl	Cy_EINK_TimerStop
 1874              	.LVL159:
 828:pervasive_eink_hardware_driver.c ****     
 829:pervasive_eink_hardware_driver.c ****     /* Re-adjust Vcom level */
 830:pervasive_eink_hardware_driver.c ****     Pv_EINK_SendByte(PV_EINK_VCOM1_LEVEL_COMMAND_INDEX, 
 1875              		.loc 1 830 0
 1876 0202 C221     		movs	r1, #194
 1877 0204 0920     		movs	r0, #9
 1878 0206 FFF7FEFF 		bl	Pv_EINK_SendByte
 1879              	.LVL160:
 831:pervasive_eink_hardware_driver.c ****                      PV_EINK_VCOM1_LEVEL_COMMAND_DATA);
 832:pervasive_eink_hardware_driver.c **** }
 1880              		.loc 1 832 0
 1881 020a 03B0     		add	sp, sp, #12
 1882              		@ sp needed
 1883              	.LVL161:
 1884 020c 3CBC     		pop	{r2, r3, r4, r5}
 1885 020e 9046     		mov	r8, r2
 1886 0210 9946     		mov	r9, r3
 1887 0212 A246     		mov	r10, r4
 1888 0214 AB46     		mov	fp, r5
 1889 0216 F0BD     		pop	{r4, r5, r6, r7, pc}
 1890              	.L156:
 1891              		.align	2
 1892              	.L155:
 1893 0218 00000000 		.word	bulkDriverPacket
 1894 021c 00000000 		.word	.LANCHOR0
 1895 0220 00000000 		.word	.LANCHOR1
 1896              		.cfi_endproc
 1897              	.LFE460:
 1898              		.size	Pv_EINK_PartialStageHandler, .-Pv_EINK_PartialStageHandler
ARM GAS  C:\Users\bryan.lee\AppData\Local\Temp\ccAkWdHW.s 			page 63


 1899              		.section	.text.Pv_EINK_NothingFrame,"ax",%progbits
 1900              		.align	2
 1901              		.global	Pv_EINK_NothingFrame
 1902              		.code	16
 1903              		.thumb_func
 1904              		.type	Pv_EINK_NothingFrame, %function
 1905              	Pv_EINK_NothingFrame:
 1906              	.LFB461:
 833:pervasive_eink_hardware_driver.c **** 
 834:pervasive_eink_hardware_driver.c **** /*******************************************************************************
 835:pervasive_eink_hardware_driver.c **** * Function Name:  void Pv_EINK_NothingFrame(void)
 836:pervasive_eink_hardware_driver.c **** ********************************************************************************
 837:pervasive_eink_hardware_driver.c **** *
 838:pervasive_eink_hardware_driver.c **** * Summary: Write a "Nothing Frame" to driver. For a "Nothing Frame",
 839:pervasive_eink_hardware_driver.c **** * all pixel data D(x,y) are "01".
 840:pervasive_eink_hardware_driver.c **** * For more details, please refer to the driver G2 document Section 6.
 841:pervasive_eink_hardware_driver.c **** *
 842:pervasive_eink_hardware_driver.c **** * Parameters:
 843:pervasive_eink_hardware_driver.c **** *  None
 844:pervasive_eink_hardware_driver.c **** *
 845:pervasive_eink_hardware_driver.c **** * Return:
 846:pervasive_eink_hardware_driver.c **** *  None
 847:pervasive_eink_hardware_driver.c **** *
 848:pervasive_eink_hardware_driver.c **** * Side Effects:
 849:pervasive_eink_hardware_driver.c **** *  None
 850:pervasive_eink_hardware_driver.c **** *******************************************************************************/
 851:pervasive_eink_hardware_driver.c **** void Pv_EINK_NothingFrame(void)
 852:pervasive_eink_hardware_driver.c **** {
 1907              		.loc 1 852 0
 1908              		.cfi_startproc
 1909              		@ args = 0, pretend = 0, frame = 0
 1910              		@ frame_needed = 0, uses_anonymous_args = 0
 1911 0000 70B5     		push	{r4, r5, r6, lr}
 1912              		.cfi_def_cfa_offset 16
 1913              		.cfi_offset 4, -16
 1914              		.cfi_offset 5, -12
 1915              		.cfi_offset 6, -8
 1916              		.cfi_offset 14, -4
 1917              	.LVL162:
 853:pervasive_eink_hardware_driver.c ****     /* Counter variable for data line bytes */
 854:pervasive_eink_hardware_driver.c ****     uint16_t    byteCounter;
 855:pervasive_eink_hardware_driver.c ****     
 856:pervasive_eink_hardware_driver.c ****     /* Set all Even and Odd data bytes as "Nothing" bytes */
 857:pervasive_eink_hardware_driver.c ****     for (byteCounter = 0; byteCounter < PV_EINK_HORIZONTAL_SIZE; byteCounter++)
 1918              		.loc 1 857 0
 1919 0002 0023     		movs	r3, #0
 1920 0004 07E0     		b	.L158
 1921              	.LVL163:
 1922              	.L159:
 858:pervasive_eink_hardware_driver.c ****     {
 859:pervasive_eink_hardware_driver.c ****         dataLineEven[byteCounter] = PV_EINK_NOTHING;
 1923              		.loc 1 859 0 discriminator 3
 1924 0006 1349     		ldr	r1, .L162
 1925 0008 5522     		movs	r2, #85
 1926 000a 086F     		ldr	r0, [r1, #112]
 1927 000c C254     		strb	r2, [r0, r3]
 860:pervasive_eink_hardware_driver.c ****         dataLineOdd[byteCounter] = PV_EINK_NOTHING;
ARM GAS  C:\Users\bryan.lee\AppData\Local\Temp\ccAkWdHW.s 			page 64


 1928              		.loc 1 860 0 discriminator 3
 1929 000e 496F     		ldr	r1, [r1, #116]
 1930 0010 CA54     		strb	r2, [r1, r3]
 857:pervasive_eink_hardware_driver.c ****     {
 1931              		.loc 1 857 0 discriminator 3
 1932 0012 0133     		adds	r3, r3, #1
 1933              	.LVL164:
 1934 0014 9BB2     		uxth	r3, r3
 1935              	.LVL165:
 1936              	.L158:
 857:pervasive_eink_hardware_driver.c ****     {
 1937              		.loc 1 857 0 is_stmt 0 discriminator 1
 1938 0016 202B     		cmp	r3, #32
 1939 0018 F5D9     		bls	.L159
 1940 001a 0024     		movs	r4, #0
 1941 001c 17E0     		b	.L160
 1942              	.LVL166:
 1943              	.L161:
 861:pervasive_eink_hardware_driver.c ****     }
 862:pervasive_eink_hardware_driver.c ****     /* Send the same horizontal data for all vertical lines */
 863:pervasive_eink_hardware_driver.c ****     for (byteCounter = 0; byteCounter < PV_EINK_VERTICAL_SIZE; byteCounter++)
 864:pervasive_eink_hardware_driver.c ****     {
 865:pervasive_eink_hardware_driver.c ****         /* Scan byte shift per data line */
 866:pervasive_eink_hardware_driver.c ****         dataLineScan[(byteCounter >> PV_EINK_PIXEL_SIZE)] = scanTable
 1944              		.loc 1 866 0 is_stmt 1 discriminator 3
 1945 001e A508     		lsrs	r5, r4, #2
 1946 0020 0C4E     		ldr	r6, .L162
 867:pervasive_eink_hardware_driver.c ****                             [(byteCounter % PV_EINK_SCAN_TABLE_SIZE)];
 1947              		.loc 1 867 0 discriminator 3
 1948 0022 0323     		movs	r3, #3
 1949 0024 2340     		ands	r3, r4
 1950 0026 0C4A     		ldr	r2, .L162+4
 1951 0028 D318     		adds	r3, r2, r3
 1952 002a 1B7A     		ldrb	r3, [r3, #8]
 866:pervasive_eink_hardware_driver.c ****                             [(byteCounter % PV_EINK_SCAN_TABLE_SIZE)];
 1953              		.loc 1 866 0 discriminator 3
 1954 002c B26F     		ldr	r2, [r6, #120]
 1955 002e 5355     		strb	r3, [r2, r5]
 868:pervasive_eink_hardware_driver.c ****         
 869:pervasive_eink_hardware_driver.c ****         /* Send the prepared data to the E-INK display */
 870:pervasive_eink_hardware_driver.c ****         Pv_EINK_SendData(PV_EINK_PIXEL_DATA_COMMAND_INDEX,
 1956              		.loc 1 870 0 discriminator 3
 1957 0030 6F22     		movs	r2, #111
 1958 0032 3100     		movs	r1, r6
 1959 0034 0A20     		movs	r0, #10
 1960 0036 FFF7FEFF 		bl	Pv_EINK_SendData
 1961              	.LVL167:
 871:pervasive_eink_hardware_driver.c ****                         (uint8_t*) &driverPacket.lineBuffer,
 872:pervasive_eink_hardware_driver.c ****                          PV_EINK_DATA_LINE_SIZE);
 873:pervasive_eink_hardware_driver.c ****         /* Turn on Output Enable to latch the frame */
 874:pervasive_eink_hardware_driver.c ****         Pv_EINK_SendByte(PV_EINK_ENABLE_OE_COMMAND_INDEX, 
 1962              		.loc 1 874 0 discriminator 3
 1963 003a 0721     		movs	r1, #7
 1964 003c 0220     		movs	r0, #2
 1965 003e FFF7FEFF 		bl	Pv_EINK_SendByte
 1966              	.LVL168:
 875:pervasive_eink_hardware_driver.c ****                          PV_EINK_ENABLE_OE_COMMAND_DATA);
ARM GAS  C:\Users\bryan.lee\AppData\Local\Temp\ccAkWdHW.s 			page 65


 876:pervasive_eink_hardware_driver.c ****         
 877:pervasive_eink_hardware_driver.c ****         /* Initialize the next scan byte */
 878:pervasive_eink_hardware_driver.c ****         dataLineScan[(byteCounter >> PV_EINK_PIXEL_SIZE)] = 0u;
 1967              		.loc 1 878 0 discriminator 3
 1968 0042 B36F     		ldr	r3, [r6, #120]
 1969 0044 5D19     		adds	r5, r3, r5
 1970 0046 0023     		movs	r3, #0
 1971 0048 2B70     		strb	r3, [r5]
 863:pervasive_eink_hardware_driver.c ****     {
 1972              		.loc 1 863 0 discriminator 3
 1973 004a 0134     		adds	r4, r4, #1
 1974              	.LVL169:
 1975 004c A4B2     		uxth	r4, r4
 1976              	.LVL170:
 1977              	.L160:
 863:pervasive_eink_hardware_driver.c ****     {
 1978              		.loc 1 863 0 is_stmt 0 discriminator 1
 1979 004e AF2C     		cmp	r4, #175
 1980 0050 E5D9     		bls	.L161
 879:pervasive_eink_hardware_driver.c ****     }
 880:pervasive_eink_hardware_driver.c **** }
 1981              		.loc 1 880 0 is_stmt 1
 1982              		@ sp needed
 1983              	.LVL171:
 1984 0052 70BD     		pop	{r4, r5, r6, pc}
 1985              	.L163:
 1986              		.align	2
 1987              	.L162:
 1988 0054 00000000 		.word	.LANCHOR0
 1989 0058 00000000 		.word	.LANCHOR1
 1990              		.cfi_endproc
 1991              	.LFE461:
 1992              		.size	Pv_EINK_NothingFrame, .-Pv_EINK_NothingFrame
 1993              		.section	.text.Pv_EINK_DummyLine,"ax",%progbits
 1994              		.align	2
 1995              		.global	Pv_EINK_DummyLine
 1996              		.code	16
 1997              		.thumb_func
 1998              		.type	Pv_EINK_DummyLine, %function
 1999              	Pv_EINK_DummyLine:
 2000              	.LFB462:
 881:pervasive_eink_hardware_driver.c **** 
 882:pervasive_eink_hardware_driver.c **** /*******************************************************************************
 883:pervasive_eink_hardware_driver.c **** * Function Name:  void Pv_EINK_DummyLine(void)
 884:pervasive_eink_hardware_driver.c **** ********************************************************************************
 885:pervasive_eink_hardware_driver.c **** *
 886:pervasive_eink_hardware_driver.c **** * Summary: Write a "Dummy Line" to driver. For a "Dummy Line" , all pixel data
 887:pervasive_eink_hardware_driver.c **** * are "00". For more details, please refer to the driver G2 document Section 6.
 888:pervasive_eink_hardware_driver.c **** *
 889:pervasive_eink_hardware_driver.c **** * Parameters:
 890:pervasive_eink_hardware_driver.c **** *  None
 891:pervasive_eink_hardware_driver.c **** *
 892:pervasive_eink_hardware_driver.c **** * Return:
 893:pervasive_eink_hardware_driver.c **** *  None
 894:pervasive_eink_hardware_driver.c **** *
 895:pervasive_eink_hardware_driver.c **** * Side Effects:
 896:pervasive_eink_hardware_driver.c **** *  None
ARM GAS  C:\Users\bryan.lee\AppData\Local\Temp\ccAkWdHW.s 			page 66


 897:pervasive_eink_hardware_driver.c **** *******************************************************************************/
 898:pervasive_eink_hardware_driver.c **** void Pv_EINK_DummyLine(void)
 899:pervasive_eink_hardware_driver.c **** {
 2001              		.loc 1 899 0
 2002              		.cfi_startproc
 2003              		@ args = 0, pretend = 0, frame = 0
 2004              		@ frame_needed = 0, uses_anonymous_args = 0
 2005 0000 10B5     		push	{r4, lr}
 2006              		.cfi_def_cfa_offset 8
 2007              		.cfi_offset 4, -8
 2008              		.cfi_offset 14, -4
 2009              	.LVL172:
 900:pervasive_eink_hardware_driver.c ****     /* Counter variable for data line bytes */
 901:pervasive_eink_hardware_driver.c ****     uint8_t byteCounter;
 902:pervasive_eink_hardware_driver.c ****     
 903:pervasive_eink_hardware_driver.c ****     /* Create a data line containing dummy bytes */
 904:pervasive_eink_hardware_driver.c ****     for (byteCounter = 0; byteCounter < (PV_EINK_VERTICAL_SIZE 
 2010              		.loc 1 904 0
 2011 0002 0023     		movs	r3, #0
 2012 0004 04E0     		b	.L165
 2013              	.LVL173:
 2014              	.L166:
 905:pervasive_eink_hardware_driver.c ****                                         / CY_EINK_BYTE_SIZE);
 906:pervasive_eink_hardware_driver.c ****          byteCounter++)
 907:pervasive_eink_hardware_driver.c ****     {
 908:pervasive_eink_hardware_driver.c ****         driverPacket.lineBuffer[byteCounter] = PV_EINK_DUMMY_BYTE;
 2015              		.loc 1 908 0
 2016 0006 0021     		movs	r1, #0
 2017 0008 094A     		ldr	r2, .L167
 2018 000a D154     		strb	r1, [r2, r3]
 906:pervasive_eink_hardware_driver.c ****     {
 2019              		.loc 1 906 0
 2020 000c 0133     		adds	r3, r3, #1
 2021              	.LVL174:
 2022 000e DBB2     		uxtb	r3, r3
 2023              	.LVL175:
 2024              	.L165:
 904:pervasive_eink_hardware_driver.c ****                                         / CY_EINK_BYTE_SIZE);
 2025              		.loc 1 904 0 discriminator 1
 2026 0010 152B     		cmp	r3, #21
 2027 0012 F8D9     		bls	.L166
 909:pervasive_eink_hardware_driver.c ****     }
 910:pervasive_eink_hardware_driver.c ****     
 911:pervasive_eink_hardware_driver.c ****     /* Set charge pump voltage level to reduce voltage shift */
 912:pervasive_eink_hardware_driver.c ****     Pv_EINK_SendByte(PV_EINK_PWR2_SETTING_COMMAND_INDEX, 
 2028              		.loc 1 912 0
 2029 0014 0021     		movs	r1, #0
 2030 0016 0420     		movs	r0, #4
 2031 0018 FFF7FEFF 		bl	Pv_EINK_SendByte
 2032              	.LVL176:
 913:pervasive_eink_hardware_driver.c ****                      PV_EINK_VOLTAGE_LEVEL);
 914:pervasive_eink_hardware_driver.c ****     /* Send the prepared data to the E-INK display */
 915:pervasive_eink_hardware_driver.c ****     Pv_EINK_SendData(PV_EINK_PIXEL_DATA_COMMAND_INDEX,
 2033              		.loc 1 915 0
 2034 001c 6F22     		movs	r2, #111
 2035 001e 0449     		ldr	r1, .L167
 2036 0020 0A20     		movs	r0, #10
ARM GAS  C:\Users\bryan.lee\AppData\Local\Temp\ccAkWdHW.s 			page 67


 2037 0022 FFF7FEFF 		bl	Pv_EINK_SendData
 2038              	.LVL177:
 916:pervasive_eink_hardware_driver.c ****                     (uint8_t*) &driverPacket.lineBuffer, 
 917:pervasive_eink_hardware_driver.c ****                      PV_EINK_DATA_LINE_SIZE);
 918:pervasive_eink_hardware_driver.c ****     /* Turn on Output Enable to latch the frame */
 919:pervasive_eink_hardware_driver.c ****     Pv_EINK_SendByte(PV_EINK_ENABLE_OE_COMMAND_INDEX, 
 2039              		.loc 1 919 0
 2040 0026 0721     		movs	r1, #7
 2041 0028 0220     		movs	r0, #2
 2042 002a FFF7FEFF 		bl	Pv_EINK_SendByte
 2043              	.LVL178:
 920:pervasive_eink_hardware_driver.c ****                      PV_EINK_ENABLE_OE_COMMAND_DATA);
 921:pervasive_eink_hardware_driver.c **** }
 2044              		.loc 1 921 0
 2045              		@ sp needed
 2046 002e 10BD     		pop	{r4, pc}
 2047              	.L168:
 2048              		.align	2
 2049              	.L167:
 2050 0030 00000000 		.word	.LANCHOR0
 2051              		.cfi_endproc
 2052              	.LFE462:
 2053              		.size	Pv_EINK_DummyLine, .-Pv_EINK_DummyLine
 2054              		.section	.text.Pv_EINK_HardwarePowerOn,"ax",%progbits
 2055              		.align	2
 2056              		.global	Pv_EINK_HardwarePowerOn
 2057              		.code	16
 2058              		.thumb_func
 2059              		.type	Pv_EINK_HardwarePowerOn, %function
 2060              	Pv_EINK_HardwarePowerOn:
 2061              	.LFB463:
 922:pervasive_eink_hardware_driver.c **** 
 923:pervasive_eink_hardware_driver.c **** /*******************************************************************************
 924:pervasive_eink_hardware_driver.c **** * Function Name: pv_eink_status_t Pv_EINK_HardwarePowerOn()
 925:pervasive_eink_hardware_driver.c **** ********************************************************************************
 926:pervasive_eink_hardware_driver.c **** *
 927:pervasive_eink_hardware_driver.c **** * Summary: Power on E-INK Driver. For detailed flow and description, please refer
 928:pervasive_eink_hardware_driver.c **** * to the driver G2 document Section 3.
 929:pervasive_eink_hardware_driver.c **** *
 930:pervasive_eink_hardware_driver.c **** * Parameters:
 931:pervasive_eink_hardware_driver.c **** *  None
 932:pervasive_eink_hardware_driver.c **** *
 933:pervasive_eink_hardware_driver.c **** * Return:
 934:pervasive_eink_hardware_driver.c **** *  pv_eink_status_t: Status of the power on operation
 935:pervasive_eink_hardware_driver.c **** *
 936:pervasive_eink_hardware_driver.c **** * Side Effects:
 937:pervasive_eink_hardware_driver.c **** *  None
 938:pervasive_eink_hardware_driver.c **** *******************************************************************************/
 939:pervasive_eink_hardware_driver.c **** pv_eink_status_t Pv_EINK_HardwarePowerOn(void)
 940:pervasive_eink_hardware_driver.c **** {
 2062              		.loc 1 940 0
 2063              		.cfi_startproc
 2064              		@ args = 0, pretend = 0, frame = 0
 2065              		@ frame_needed = 0, uses_anonymous_args = 0
 2066 0000 70B5     		push	{r4, r5, r6, lr}
 2067              		.cfi_def_cfa_offset 16
 2068              		.cfi_offset 4, -16
ARM GAS  C:\Users\bryan.lee\AppData\Local\Temp\ccAkWdHW.s 			page 68


 2069              		.cfi_offset 5, -12
 2070              		.cfi_offset 6, -8
 2071              		.cfi_offset 14, -4
 2072              	.LVL179:
 2073              	.LBB86:
 2074              	.LBB87:
 2075              		.loc 2 753 0
 2076 0002 0E4C     		ldr	r4, .L170
 2077 0004 1023     		movs	r3, #16
 2078 0006 A360     		str	r3, [r4, #8]
 2079              	.LVL180:
 2080              	.LBE87:
 2081              	.LBE86:
 941:pervasive_eink_hardware_driver.c ****     /* Enable the load switch connected to E-INK display's Vcc, and wait till
 942:pervasive_eink_hardware_driver.c ****     the voltage ramps up to the level required for proper operation of E-INK */
 943:pervasive_eink_hardware_driver.c ****     CY_EINK_TurnOnVcc;
 944:pervasive_eink_hardware_driver.c ****     CY_EINK_Delay(PV_EINK_PWR_DELAY);
 2082              		.loc 1 944 0
 2083 0008 1420     		movs	r0, #20
 2084 000a FFF7FEFF 		bl	Cy_SysLib_Delay
 2085              	.LVL181:
 945:pervasive_eink_hardware_driver.c ****     
 946:pervasive_eink_hardware_driver.c ****     /* Attach PSoC's SPI hardware to E-INK driver */
 947:pervasive_eink_hardware_driver.c ****     Cy_EINK_AttachSPI();
 2086              		.loc 1 947 0
 2087 000e FFF7FEFF 		bl	Cy_EINK_AttachSPI
 2088              	.LVL182:
 2089              	.LBB88:
 2090              	.LBB89:
 2091              		.loc 2 753 0
 2092 0012 0822     		movs	r2, #8
 2093 0014 0A4B     		ldr	r3, .L170+4
 2094 0016 9A60     		str	r2, [r3, #8]
 2095              	.LVL183:
 2096              	.LBE89:
 2097              	.LBE88:
 2098              	.LBB90:
 2099              	.LBB91:
 2100 0018 4023     		movs	r3, #64
 2101 001a A360     		str	r3, [r4, #8]
 2102              	.LVL184:
 2103              	.LBE91:
 2104              	.LBE90:
 2105              	.LBB92:
 2106              	.LBB93:
 2107 001c 0425     		movs	r5, #4
 2108 001e A560     		str	r5, [r4, #8]
 2109              	.LVL185:
 2110              	.LBE93:
 2111              	.LBE92:
 948:pervasive_eink_hardware_driver.c ****     /* Push the chip select, and border pins to HIGH */
 949:pervasive_eink_hardware_driver.c ****     CY_EINK_CsHigh;
 950:pervasive_eink_hardware_driver.c ****     CY_EINK_BorderHigh;
 951:pervasive_eink_hardware_driver.c ****     
 952:pervasive_eink_hardware_driver.c ****     /* Create two pulses on the reset line to properly reset the E-INK driver */
 953:pervasive_eink_hardware_driver.c ****     CY_EINK_RstHigh;
 954:pervasive_eink_hardware_driver.c ****     CY_EINK_Delay(PV_EINK_PIN_DELAY);
ARM GAS  C:\Users\bryan.lee\AppData\Local\Temp\ccAkWdHW.s 			page 69


 2112              		.loc 1 954 0
 2113 0020 0A20     		movs	r0, #10
 2114 0022 FFF7FEFF 		bl	Cy_SysLib_Delay
 2115              	.LVL186:
 2116              	.LBB94:
 2117              	.LBB95:
 749:Generated_Source\PSoC6\pdl\drivers/peripheral/gpio/cy_gpio.h ****     }
 2118              		.loc 2 749 0
 2119 0026 6560     		str	r5, [r4, #4]
