ARM GAS  C:\Users\bryan.lee\AppData\Local\Temp\ccoB5YNO.s 			page 1


   1              		.syntax unified
   2              		.cpu cortex-m0plus
   3              		.fpu softvfp
   4              		.eabi_attribute 20, 1
   5              		.eabi_attribute 21, 1
   6              		.eabi_attribute 23, 3
   7              		.eabi_attribute 24, 1
   8              		.eabi_attribute 25, 1
   9              		.eabi_attribute 26, 1
  10              		.eabi_attribute 30, 1
  11              		.eabi_attribute 34, 0
  12              		.eabi_attribute 18, 4
  13              		.thumb
  14              		.syntax unified
  15              		.file	"screen.c"
  16              		.text
  17              	.Ltext0:
  18              		.cfi_sections	.debug_frame
  19              		.section	.text.NoScreenChange,"ax",%progbits
  20              		.align	2
  21              		.global	NoScreenChange
  22              		.code	16
  23              		.thumb_func
  24              		.type	NoScreenChange, %function
  25              	NoScreenChange:
  26              	.LFB456:
  27              		.file 1 "screen.c"
   1:screen.c      **** /******************************************************************************
   2:screen.c      **** * File Name: screen.c
   3:screen.c      **** *
   4:screen.c      **** * Version: 1.10
   5:screen.c      **** *
   6:screen.c      **** * Description: This file contains the functions used to update the screen 
   7:screen.c      **** *              according to a touch input.
   8:screen.c      **** *
   9:screen.c      **** * Related Document: CE218133_EINK_CapSense.pdf
  10:screen.c      **** *
  11:screen.c      **** * Hardware Dependency: CY8CKIT-062-BLE PSoC 6 BLE Pioneer Kit
  12:screen.c      **** *                      CY8CKIT-028-EPD E-INK Display Shield
  13:screen.c      **** *
  14:screen.c      **** *******************************************************************************
  15:screen.c      **** * Copyright (2017), Cypress Semiconductor Corporation. All rights reserved.
  16:screen.c      **** *******************************************************************************
  17:screen.c      **** * This software, including source code, documentation and related materials
  18:screen.c      **** * (“Software”), is owned by Cypress Semiconductor Corporation or one of its
  19:screen.c      **** * subsidiaries (“Cypress”) and is protected by and subject to worldwide patent
  20:screen.c      **** * protection (United States and foreign), United States copyright laws and
  21:screen.c      **** * international treaty provisions. Therefore, you may use this Software only
  22:screen.c      **** * as provided in the license agreement accompanying the software package from
  23:screen.c      **** * which you obtained this Software (“EULA”).
  24:screen.c      **** *
  25:screen.c      **** * If no EULA applies, Cypress hereby grants you a personal, nonexclusive,
  26:screen.c      **** * non-transferable license to copy, modify, and compile the Software source
  27:screen.c      **** * code solely for use in connection with Cypress’s integrated circuit products.
  28:screen.c      **** * Any reproduction, modification, translation, compilation, or representation
  29:screen.c      **** * of this Software except as specified above is prohibited without the express
  30:screen.c      **** * written permission of Cypress.
ARM GAS  C:\Users\bryan.lee\AppData\Local\Temp\ccoB5YNO.s 			page 2


  31:screen.c      **** *
  32:screen.c      **** * Disclaimer: THIS SOFTWARE IS PROVIDED AS-IS, WITH NO WARRANTY OF ANY KIND, 
  33:screen.c      **** * EXPRESS OR IMPLIED, INCLUDING, BUT NOT LIMITED TO, NONINFRINGEMENT, IMPLIED 
  34:screen.c      **** * WARRANTIES OF MERCHANTABILITY AND FITNESS FOR A PARTICULAR PURPOSE. Cypress 
  35:screen.c      **** * reserves the right to make changes to the Software without notice. Cypress 
  36:screen.c      **** * does not assume any liability arising out of the application or use of the 
  37:screen.c      **** * Software or any product or circuit described in the Software. Cypress does 
  38:screen.c      **** * not authorize its products for use in any products where a malfunction or 
  39:screen.c      **** * failure of the Cypress product may reasonably be expected to result in 
  40:screen.c      **** * significant property damage, injury or death (“High Risk Product”). By 
  41:screen.c      **** * including Cypress’s product in a High Risk Product, the manufacturer of such 
  42:screen.c      **** * system or application assumes all risk of such use and in doing so agrees to 
  43:screen.c      **** * indemnify Cypress against all liability.
  44:screen.c      **** *******************************************************************************/
  45:screen.c      **** /******************************************************************************
  46:screen.c      **** * This file contains the functions used to update the screen according to a
  47:screen.c      **** * touch input.
  48:screen.c      **** *******************************************************************************/
  49:screen.c      **** 
  50:screen.c      **** /* Header file includes */
  51:screen.c      **** #include <project.h>
  52:screen.c      **** #include "screen.h"
  53:screen.c      **** #include "screen_contents.h"
  54:screen.c      **** #include "display.h"
  55:screen.c      **** 
  56:screen.c      **** /* Time in mS during which the logo will be displayed during startup */
  57:screen.c      **** #define LOGO_DELAY                      (uint16_t) (3000u)
  58:screen.c      **** 
  59:screen.c      **** /* Start and maximum indexes of the main menu items */
  60:screen.c      **** #define MAIN_MENU_INDEX_START           (uint8_t) (0x00u)
  61:screen.c      **** #define MAIN_MENU_MAX_INDEX             (NUMBER_OF_MAIN_MENU_ITEMS - 1)
  62:screen.c      **** 
  63:screen.c      **** /* Start page number of the text pages */
  64:screen.c      **** #define TEXT_PAGE_INDEX_START           (uint8_t) (0x00u)
  65:screen.c      **** 
  66:screen.c      **** /* Number of screen types consisting of the main menu and text pages */
  67:screen.c      **** #define NUMBER_OF_SCREEN_TYPES          (uint8_t) (0x02u)
  68:screen.c      **** 
  69:screen.c      **** /* Enumerated data-type for the screen type, consists of main menu and the
  70:screen.c      ****    text page */
  71:screen.c      **** typedef enum
  72:screen.c      **** {
  73:screen.c      ****     MAIN_MENU   = 0x00u,
  74:screen.c      ****     TEXT_PAGE   = 0x01u
  75:screen.c      **** }   screen_type_t;
  76:screen.c      **** 
  77:screen.c      **** /* Datatype for the screen information */
  78:screen.c      **** typedef struct
  79:screen.c      **** {
  80:screen.c      ****     screen_type_t   screen;
  81:screen.c      ****     uint8_t         menuItem;
  82:screen.c      ****     uint8_t         textPage;
  83:screen.c      **** }   screen_t;
  84:screen.c      **** 
  85:screen.c      **** /* Variable that stores the details of the current screen */
  86:screen.c      **** screen_t  currentScreen =
  87:screen.c      **** {
ARM GAS  C:\Users\bryan.lee\AppData\Local\Temp\ccoB5YNO.s 			page 3


  88:screen.c      ****     .screen     = MAIN_MENU,
  89:screen.c      ****     .menuItem   = MAIN_MENU_INDEX_START,
  90:screen.c      ****     .textPage   = TEXT_PAGE_INDEX_START
  91:screen.c      **** };
  92:screen.c      **** 
  93:screen.c      **** /*******************************************************************************
  94:screen.c      **** * Function Name: void InitScreen(void)
  95:screen.c      **** ********************************************************************************
  96:screen.c      **** *
  97:screen.c      **** * Summary:
  98:screen.c      **** *  Initializes the display and clears the screen
  99:screen.c      **** *
 100:screen.c      **** * Parameters:
 101:screen.c      **** *  None
 102:screen.c      **** *
 103:screen.c      **** * Return:
 104:screen.c      **** *  None
 105:screen.c      **** *
 106:screen.c      **** * Side Effects:
 107:screen.c      **** *  None
 108:screen.c      **** *
 109:screen.c      **** *******************************************************************************/
 110:screen.c      **** void InitScreen(void)
 111:screen.c      **** {
 112:screen.c      ****     /* Initialize the display hardware and clear to screen to white */
 113:screen.c      ****     InitDisplay();
 114:screen.c      **** }
 115:screen.c      **** 
 116:screen.c      **** /*******************************************************************************
 117:screen.c      **** * Function Name: void ShowStartupScreen(void)
 118:screen.c      **** ********************************************************************************
 119:screen.c      **** *
 120:screen.c      **** * Summary:
 121:screen.c      **** *  Shows the Cypress logo for a certain period of time and then transitions to
 122:screen.c      **** *  the default main menu screen
 123:screen.c      **** *
 124:screen.c      **** * Parameters:
 125:screen.c      **** *  None
 126:screen.c      **** *
 127:screen.c      **** * Return:
 128:screen.c      **** *  None
 129:screen.c      **** *
 130:screen.c      **** * Side Effects:
 131:screen.c      **** *  None
 132:screen.c      **** *
 133:screen.c      **** *******************************************************************************/
 134:screen.c      **** void ShowStartupScreen(void)
 135:screen.c      **** {
 136:screen.c      ****     /* Show the logo */
 137:screen.c      ****     DisplayImage((image*) logo);
 138:screen.c      **** 
 139:screen.c      ****     /* Keep the logo on for a specific time*/
 140:screen.c      ****     Cy_SysLib_Delay(LOGO_DELAY);
 141:screen.c      **** 
 142:screen.c      ****     /* Show the default main menu image*/
 143:screen.c      ****     DisplayImage((image*) mainMenuImage[MAIN_MENU_INDEX_START]);
 144:screen.c      **** }
ARM GAS  C:\Users\bryan.lee\AppData\Local\Temp\ccoB5YNO.s 			page 4


 145:screen.c      **** 
 146:screen.c      **** /*******************************************************************************
 147:screen.c      **** * Function Name: void NoScreenChange(void)
 148:screen.c      **** ********************************************************************************
 149:screen.c      **** *
 150:screen.c      **** * Summary:
 151:screen.c      **** *  Null function that is called by the "ScreenUpdatePointer" function pointer when 
 152:screen.c      **** *  no screen change is required
 153:screen.c      **** *
 154:screen.c      **** * Parameters:
 155:screen.c      **** *  None
 156:screen.c      **** *
 157:screen.c      **** * Return:
 158:screen.c      **** *  None
 159:screen.c      **** *
 160:screen.c      **** * Side Effects:
 161:screen.c      **** *  None
 162:screen.c      **** *
 163:screen.c      **** *******************************************************************************/
 164:screen.c      **** void NoScreenChange(void)
 165:screen.c      **** {
  28              		.loc 1 165 0
  29              		.cfi_startproc
  30              		@ args = 0, pretend = 0, frame = 0
  31              		@ frame_needed = 0, uses_anonymous_args = 0
  32              		@ link register save eliminated.
 166:screen.c      **** }
  33              		.loc 1 166 0
  34              		@ sp needed
  35 0000 7047     		bx	lr
  36              		.cfi_endproc
  37              	.LFE456:
  38              		.size	NoScreenChange, .-NoScreenChange
  39 0002 C046     		.section	.text.BackToMainMenu,"ax",%progbits
  40              		.align	2
  41              		.global	BackToMainMenu
  42              		.code	16
  43              		.thumb_func
  44              		.type	BackToMainMenu, %function
  45              	BackToMainMenu:
  46              	.LFB458:
 167:screen.c      **** 
 168:screen.c      **** /*******************************************************************************
 169:screen.c      **** * Function Name: void GoToTextPage(void)
 170:screen.c      **** ********************************************************************************
 171:screen.c      **** *
 172:screen.c      **** * Summary:
 173:screen.c      **** *  Performs transition from the main menu to the text page
 174:screen.c      **** *
 175:screen.c      **** * Parameters:
 176:screen.c      **** *  None
 177:screen.c      **** *
 178:screen.c      **** * Return:
 179:screen.c      **** *  None
 180:screen.c      **** *
 181:screen.c      **** * Side Effects:
 182:screen.c      **** *  None
ARM GAS  C:\Users\bryan.lee\AppData\Local\Temp\ccoB5YNO.s 			page 5


 183:screen.c      **** *
 184:screen.c      **** *******************************************************************************/
 185:screen.c      **** void GoToTextPage(void)
 186:screen.c      **** {
 187:screen.c      ****     /* Variable that stores the index of the character array, which in turn 
 188:screen.c      ****        stores the current text page as a string */
 189:screen.c      ****     uint8_t currentPageIndex;
 190:screen.c      ****     
 191:screen.c      ****     /* Change the current screen type to text page */
 192:screen.c      ****     currentScreen.screen = TEXT_PAGE;
 193:screen.c      **** 
 194:screen.c      ****     /* Re-initialize the text page index to point to the start page */
 195:screen.c      ****     currentScreen.textPage = TEXT_PAGE_INDEX_START;
 196:screen.c      ****     
 197:screen.c      ****     /* Access the index array and fetch the index of the character array that 
 198:screen.c      ****       stores the current text page as a string */
 199:screen.c      ****     currentPageIndex = textPageIndex[currentScreen.menuItem]
 200:screen.c      ****                                     [currentScreen.textPage];
 201:screen.c      ****     
 202:screen.c      ****     /* Check if the fetched index is valid */
 203:screen.c      ****     if (currentPageIndex != INVALID_PAGE_INDEX)
 204:screen.c      ****     {
 205:screen.c      ****         /* Display the text page with background image */
 206:screen.c      ****         DisplayImageAndText((char*) textPage[currentPageIndex],
 207:screen.c      ****                             (image*) textPageBackground);
 208:screen.c      ****     }
 209:screen.c      **** }
 210:screen.c      **** 
 211:screen.c      **** /*******************************************************************************
 212:screen.c      **** * Function Name: void BackToMainMenu(void)
 213:screen.c      **** ********************************************************************************
 214:screen.c      **** *
 215:screen.c      **** * Summary:
 216:screen.c      **** *  Returns to the main menu from a text page
 217:screen.c      **** *
 218:screen.c      **** * Parameters:
 219:screen.c      **** *  None
 220:screen.c      **** *
 221:screen.c      **** * Return:
 222:screen.c      **** *  None
 223:screen.c      **** *
 224:screen.c      **** * Side Effects:
 225:screen.c      **** *  None
 226:screen.c      **** *
 227:screen.c      **** *******************************************************************************/
 228:screen.c      **** void BackToMainMenu(void)
 229:screen.c      **** {
  47              		.loc 1 229 0
  48              		.cfi_startproc
  49              		@ args = 0, pretend = 0, frame = 0
  50              		@ frame_needed = 0, uses_anonymous_args = 0
  51 0000 10B5     		push	{r4, lr}
  52              		.cfi_def_cfa_offset 8
  53              		.cfi_offset 4, -8
  54              		.cfi_offset 14, -4
 230:screen.c      ****     /* Change the current screen type to main menu */
 231:screen.c      ****     currentScreen.screen = MAIN_MENU;
ARM GAS  C:\Users\bryan.lee\AppData\Local\Temp\ccoB5YNO.s 			page 6


  55              		.loc 1 231 0
  56 0002 054B     		ldr	r3, .L3
  57 0004 0022     		movs	r2, #0
  58 0006 1A70     		strb	r2, [r3]
 232:screen.c      ****     
 233:screen.c      ****     /* Display the current main menu image */
 234:screen.c      ****     DisplayImage((image*) mainMenuImage[currentScreen.menuItem]);
  59              		.loc 1 234 0
  60 0008 5878     		ldrb	r0, [r3, #1]
  61 000a 044B     		ldr	r3, .L3+4
  62 000c 5843     		muls	r0, r3
  63 000e 044B     		ldr	r3, .L3+8
  64 0010 C018     		adds	r0, r0, r3
  65 0012 FFF7FEFF 		bl	DisplayImage
  66              	.LVL0:
 235:screen.c      **** }
  67              		.loc 1 235 0
  68              		@ sp needed
  69 0016 10BD     		pop	{r4, pc}
  70              	.L4:
  71              		.align	2
  72              	.L3:
  73 0018 00000000 		.word	.LANCHOR0
  74 001c B0160000 		.word	5808
  75 0020 00000000 		.word	mainMenuImage
  76              		.cfi_endproc
  77              	.LFE458:
  78              		.size	BackToMainMenu, .-BackToMainMenu
  79              		.section	.text.MoveArrowUp,"ax",%progbits
  80              		.align	2
  81              		.global	MoveArrowUp
  82              		.code	16
  83              		.thumb_func
  84              		.type	MoveArrowUp, %function
  85              	MoveArrowUp:
  86              	.LFB459:
 236:screen.c      **** 
 237:screen.c      **** /*******************************************************************************
 238:screen.c      **** * Function Name: void MoveArrowUp(void)
 239:screen.c      **** ********************************************************************************
 240:screen.c      **** *
 241:screen.c      **** * Summary:
 242:screen.c      **** *  Moves the selection arrow of the main menu upwards
 243:screen.c      **** *
 244:screen.c      **** * Parameters:
 245:screen.c      **** *  None
 246:screen.c      **** *
 247:screen.c      **** * Return:
 248:screen.c      **** *  None
 249:screen.c      **** *
 250:screen.c      **** * Side Effects:
 251:screen.c      **** *  None
 252:screen.c      **** *
 253:screen.c      **** *******************************************************************************/
 254:screen.c      **** void MoveArrowUp(void)
 255:screen.c      **** {
  87              		.loc 1 255 0
ARM GAS  C:\Users\bryan.lee\AppData\Local\Temp\ccoB5YNO.s 			page 7


  88              		.cfi_startproc
  89              		@ args = 0, pretend = 0, frame = 0
  90              		@ frame_needed = 0, uses_anonymous_args = 0
  91 0000 10B5     		push	{r4, lr}
  92              		.cfi_def_cfa_offset 8
  93              		.cfi_offset 4, -8
  94              		.cfi_offset 14, -4
 256:screen.c      ****     
 257:screen.c      ****     /* If the beginning of the main menu is reached, then move the arrow to the
 258:screen.c      ****        final item of the main menu by selecting the maximum index */
 259:screen.c      ****     if (currentScreen.menuItem == MAIN_MENU_INDEX_START)
  95              		.loc 1 259 0
  96 0002 0A4B     		ldr	r3, .L8
  97 0004 5B78     		ldrb	r3, [r3, #1]
  98 0006 002B     		cmp	r3, #0
  99 0008 03D1     		bne	.L6
 260:screen.c      ****     {
 261:screen.c      ****         currentScreen.menuItem = MAIN_MENU_MAX_INDEX;
 100              		.loc 1 261 0
 101 000a 0322     		movs	r2, #3
 102 000c 074B     		ldr	r3, .L8
 103 000e 5A70     		strb	r2, [r3, #1]
 104 0010 02E0     		b	.L7
 105              	.L6:
 262:screen.c      ****     }
 263:screen.c      ****     /* Otherwise, decrement the index to move the arrow up */
 264:screen.c      ****     else
 265:screen.c      ****     {
 266:screen.c      ****         currentScreen.menuItem--;
 106              		.loc 1 266 0
 107 0012 013B     		subs	r3, r3, #1
 108 0014 054A     		ldr	r2, .L8
 109 0016 5370     		strb	r3, [r2, #1]
 110              	.L7:
 267:screen.c      ****     }
 268:screen.c      ****     
 269:screen.c      ****     /* Display the current main menu image */
 270:screen.c      ****     DisplayImage((image*) mainMenuImage[currentScreen.menuItem]);
 111              		.loc 1 270 0
 112 0018 044B     		ldr	r3, .L8
 113 001a 5878     		ldrb	r0, [r3, #1]
 114 001c 044B     		ldr	r3, .L8+4
 115 001e 5843     		muls	r0, r3
 116 0020 044B     		ldr	r3, .L8+8
 117 0022 C018     		adds	r0, r0, r3
 118 0024 FFF7FEFF 		bl	DisplayImage
 119              	.LVL1:
 271:screen.c      **** }
 120              		.loc 1 271 0
 121              		@ sp needed
 122 0028 10BD     		pop	{r4, pc}
 123              	.L9:
 124 002a C046     		.align	2
 125              	.L8:
 126 002c 00000000 		.word	.LANCHOR0
 127 0030 B0160000 		.word	5808
 128 0034 00000000 		.word	mainMenuImage
ARM GAS  C:\Users\bryan.lee\AppData\Local\Temp\ccoB5YNO.s 			page 8


 129              		.cfi_endproc
 130              	.LFE459:
 131              		.size	MoveArrowUp, .-MoveArrowUp
 132              		.section	.text.MoveArrowDown,"ax",%progbits
 133              		.align	2
 134              		.global	MoveArrowDown
 135              		.code	16
 136              		.thumb_func
 137              		.type	MoveArrowDown, %function
 138              	MoveArrowDown:
 139              	.LFB460:
 272:screen.c      **** 
 273:screen.c      **** /*******************************************************************************
 274:screen.c      **** * Function Name: void MoveArrowDown(void)
 275:screen.c      **** ********************************************************************************
 276:screen.c      **** *
 277:screen.c      **** * Summary:
 278:screen.c      **** *  Moves the selection arrow of the main menu downwards
 279:screen.c      **** *
 280:screen.c      **** * Parameters:
 281:screen.c      **** *  None
 282:screen.c      **** *
 283:screen.c      **** * Return:
 284:screen.c      **** *  None
 285:screen.c      **** *
 286:screen.c      **** * Side Effects:
 287:screen.c      **** *  None
 288:screen.c      **** *
 289:screen.c      **** *******************************************************************************/
 290:screen.c      **** void MoveArrowDown(void)
 291:screen.c      **** {
 140              		.loc 1 291 0
 141              		.cfi_startproc
 142              		@ args = 0, pretend = 0, frame = 0
 143              		@ frame_needed = 0, uses_anonymous_args = 0
 144 0000 10B5     		push	{r4, lr}
 145              		.cfi_def_cfa_offset 8
 146              		.cfi_offset 4, -8
 147              		.cfi_offset 14, -4
 292:screen.c      ****     
 293:screen.c      ****     /* If the final item of the main menu is reached, then move the arrow to the
 294:screen.c      ****        beginning of the main menu by selecting the starting index */
 295:screen.c      ****     if (currentScreen.menuItem >= MAIN_MENU_MAX_INDEX)
 148              		.loc 1 295 0
 149 0002 0A4B     		ldr	r3, .L13
 150 0004 5B78     		ldrb	r3, [r3, #1]
 151 0006 022B     		cmp	r3, #2
 152 0008 03D9     		bls	.L11
 296:screen.c      ****     {
 297:screen.c      ****         currentScreen.menuItem = MAIN_MENU_INDEX_START;
 153              		.loc 1 297 0
 154 000a 0022     		movs	r2, #0
 155 000c 074B     		ldr	r3, .L13
 156 000e 5A70     		strb	r2, [r3, #1]
 157 0010 02E0     		b	.L12
 158              	.L11:
 298:screen.c      ****     }
ARM GAS  C:\Users\bryan.lee\AppData\Local\Temp\ccoB5YNO.s 			page 9


 299:screen.c      ****     /* Otherwise, increment the index to move the arrow down */
 300:screen.c      ****     else
 301:screen.c      ****     {
 302:screen.c      ****         currentScreen.menuItem++;
 159              		.loc 1 302 0
 160 0012 0133     		adds	r3, r3, #1
 161 0014 054A     		ldr	r2, .L13
 162 0016 5370     		strb	r3, [r2, #1]
 163              	.L12:
 303:screen.c      ****     }
 304:screen.c      ****     
 305:screen.c      ****     /* Display the current main menu image */
 306:screen.c      ****     DisplayImage((image*) mainMenuImage[currentScreen.menuItem]);
 164              		.loc 1 306 0
 165 0018 044B     		ldr	r3, .L13
 166 001a 5878     		ldrb	r0, [r3, #1]
 167 001c 044B     		ldr	r3, .L13+4
 168 001e 5843     		muls	r0, r3
 169 0020 044B     		ldr	r3, .L13+8
 170 0022 C018     		adds	r0, r0, r3
 171 0024 FFF7FEFF 		bl	DisplayImage
 172              	.LVL2:
 307:screen.c      **** }
 173              		.loc 1 307 0
 174              		@ sp needed
 175 0028 10BD     		pop	{r4, pc}
 176              	.L14:
 177 002a C046     		.align	2
 178              	.L13:
 179 002c 00000000 		.word	.LANCHOR0
 180 0030 B0160000 		.word	5808
 181 0034 00000000 		.word	mainMenuImage
 182              		.cfi_endproc
 183              	.LFE460:
 184              		.size	MoveArrowDown, .-MoveArrowDown
 185              		.section	.text.GoToTextPage,"ax",%progbits
 186              		.align	2
 187              		.global	GoToTextPage
 188              		.code	16
 189              		.thumb_func
 190              		.type	GoToTextPage, %function
 191              	GoToTextPage:
 192              	.LFB457:
 186:screen.c      ****     /* Variable that stores the index of the character array, which in turn 
 193              		.loc 1 186 0
 194              		.cfi_startproc
 195              		@ args = 0, pretend = 0, frame = 0
 196              		@ frame_needed = 0, uses_anonymous_args = 0
 197 0000 10B5     		push	{r4, lr}
 198              		.cfi_def_cfa_offset 8
 199              		.cfi_offset 4, -8
 200              		.cfi_offset 14, -4
 192:screen.c      **** 
 201              		.loc 1 192 0
 202 0002 0A4B     		ldr	r3, .L17
 203 0004 0122     		movs	r2, #1
 204 0006 1A70     		strb	r2, [r3]
ARM GAS  C:\Users\bryan.lee\AppData\Local\Temp\ccoB5YNO.s 			page 10


 195:screen.c      ****     
 205              		.loc 1 195 0
 206 0008 0022     		movs	r2, #0
 207 000a 9A70     		strb	r2, [r3, #2]
 199:screen.c      ****                                     [currentScreen.textPage];
 208              		.loc 1 199 0
 209 000c 5B78     		ldrb	r3, [r3, #1]
 210 000e DB00     		lsls	r3, r3, #3
 211 0010 074A     		ldr	r2, .L17+4
 212 0012 985C     		ldrb	r0, [r3, r2]
 213              	.LVL3:
 203:screen.c      ****     {
 214              		.loc 1 203 0
 215 0014 FF28     		cmp	r0, #255
 216 0016 07D0     		beq	.L15
 206:screen.c      ****                             (image*) textPageBackground);
 217              		.loc 1 206 0
 218 0018 8E23     		movs	r3, #142
 219 001a FF33     		adds	r3, r3, #255
 220 001c 5843     		muls	r0, r3
 221              	.LVL4:
 222 001e 054B     		ldr	r3, .L17+8
 223 0020 C018     		adds	r0, r0, r3
 224 0022 0549     		ldr	r1, .L17+12
 225 0024 FFF7FEFF 		bl	DisplayImageAndText
 226              	.LVL5:
 227              	.L15:
 209:screen.c      **** 
 228              		.loc 1 209 0
 229              		@ sp needed
 230 0028 10BD     		pop	{r4, pc}
 231              	.L18:
 232 002a C046     		.align	2
 233              	.L17:
 234 002c 00000000 		.word	.LANCHOR0
 235 0030 00000000 		.word	textPageIndex
 236 0034 00000000 		.word	textPage
 237 0038 00000000 		.word	textPageBackground
 238              		.cfi_endproc
 239              	.LFE457:
 240              		.size	GoToTextPage, .-GoToTextPage
 241              		.section	.text.PreviousTextPage,"ax",%progbits
 242              		.align	2
 243              		.global	PreviousTextPage
 244              		.code	16
 245              		.thumb_func
 246              		.type	PreviousTextPage, %function
 247              	PreviousTextPage:
 248              	.LFB461:
 308:screen.c      **** 
 309:screen.c      **** /*******************************************************************************
 310:screen.c      **** * Function Name: void PreviousTextPage(void)
 311:screen.c      **** ********************************************************************************
 312:screen.c      **** *
 313:screen.c      **** * Summary:
 314:screen.c      **** *  Performs the transition to the previous text page
 315:screen.c      **** *
ARM GAS  C:\Users\bryan.lee\AppData\Local\Temp\ccoB5YNO.s 			page 11


 316:screen.c      **** * Parameters:
 317:screen.c      **** *  None
 318:screen.c      **** *
 319:screen.c      **** * Return:
 320:screen.c      **** *  None
 321:screen.c      **** *
 322:screen.c      **** * Side Effects:
 323:screen.c      **** *  None
 324:screen.c      **** *
 325:screen.c      **** *******************************************************************************/
 326:screen.c      **** void PreviousTextPage(void)
 327:screen.c      **** {
 249              		.loc 1 327 0
 250              		.cfi_startproc
 251              		@ args = 0, pretend = 0, frame = 0
 252              		@ frame_needed = 0, uses_anonymous_args = 0
 253 0000 10B5     		push	{r4, lr}
 254              		.cfi_def_cfa_offset 8
 255              		.cfi_offset 4, -8
 256              		.cfi_offset 14, -4
 328:screen.c      ****     
 329:screen.c      ****     /* Variable that stores the index of the character array, which in turn 
 330:screen.c      ****        stores the current text page as a string */
 331:screen.c      ****     uint8_t currentPageIndex;
 332:screen.c      ****     
 333:screen.c      ****     /* If the start page is reached, then go to the final page by selecting the 
 334:screen.c      ****        maximum index of the text pages */
 335:screen.c      ****     if (currentScreen.textPage == TEXT_PAGE_INDEX_START)
 257              		.loc 1 335 0
 258 0002 0F4B     		ldr	r3, .L23
 259 0004 9B78     		ldrb	r3, [r3, #2]
 260 0006 002B     		cmp	r3, #0
 261 0008 05D1     		bne	.L20
 336:screen.c      ****     {
 337:screen.c      ****         currentScreen.textPage = maxTextPageIndexes[currentScreen.menuItem];
 262              		.loc 1 337 0
 263 000a 0D4B     		ldr	r3, .L23
 264 000c 5A78     		ldrb	r2, [r3, #1]
 265 000e 0D49     		ldr	r1, .L23+4
 266 0010 8A5C     		ldrb	r2, [r1, r2]
 267 0012 9A70     		strb	r2, [r3, #2]
 268 0014 02E0     		b	.L21
 269              	.L20:
 338:screen.c      ****     }
 339:screen.c      ****     /* Otherwise, select the previous page by decrementing the index */
 340:screen.c      ****     else
 341:screen.c      ****     {
 342:screen.c      ****         currentScreen.textPage--;
 270              		.loc 1 342 0
 271 0016 013B     		subs	r3, r3, #1
 272 0018 094A     		ldr	r2, .L23
 273 001a 9370     		strb	r3, [r2, #2]
 274              	.L21:
 343:screen.c      ****     }
 344:screen.c      **** 
 345:screen.c      ****     /* Access the index array and fetch the index of the character array that
 346:screen.c      ****         stores the current text page as a string */
ARM GAS  C:\Users\bryan.lee\AppData\Local\Temp\ccoB5YNO.s 			page 12


 347:screen.c      ****     currentPageIndex = textPageIndex[currentScreen.menuItem]
 275              		.loc 1 347 0
 276 001c 084A     		ldr	r2, .L23
 277 001e 5378     		ldrb	r3, [r2, #1]
 348:screen.c      ****                                     [currentScreen.textPage];
 278              		.loc 1 348 0
 279 0020 9278     		ldrb	r2, [r2, #2]
 347:screen.c      ****                                     [currentScreen.textPage];
 280              		.loc 1 347 0
 281 0022 DB00     		lsls	r3, r3, #3
 282 0024 0849     		ldr	r1, .L23+8
 283 0026 CB18     		adds	r3, r1, r3
 284 0028 985C     		ldrb	r0, [r3, r2]
 285              	.LVL6:
 349:screen.c      ****     
 350:screen.c      ****     /* Check if the fetched index is valid */
 351:screen.c      ****     if (currentPageIndex != INVALID_PAGE_INDEX)
 286              		.loc 1 351 0
 287 002a FF28     		cmp	r0, #255
 288 002c 07D0     		beq	.L19
 352:screen.c      ****     {
 353:screen.c      ****         /* Display the text page with background image */
 354:screen.c      ****         DisplayImageAndText((char*) textPage[currentPageIndex],
 289              		.loc 1 354 0
 290 002e 8E23     		movs	r3, #142
 291 0030 FF33     		adds	r3, r3, #255
 292 0032 5843     		muls	r0, r3
 293              	.LVL7:
 294 0034 054B     		ldr	r3, .L23+12
 295 0036 C018     		adds	r0, r0, r3
 296 0038 0549     		ldr	r1, .L23+16
 297              	.LVL8:
 298 003a FFF7FEFF 		bl	DisplayImageAndText
 299              	.LVL9:
 300              	.L19:
 355:screen.c      ****                             (image*) textPageBackground);
 356:screen.c      ****     }
 357:screen.c      **** }
 301              		.loc 1 357 0
 302              		@ sp needed
 303 003e 10BD     		pop	{r4, pc}
 304              	.L24:
 305              		.align	2
 306              	.L23:
 307 0040 00000000 		.word	.LANCHOR0
 308 0044 00000000 		.word	maxTextPageIndexes
 309 0048 00000000 		.word	textPageIndex
 310 004c 00000000 		.word	textPage
 311 0050 00000000 		.word	textPageBackground
 312              		.cfi_endproc
 313              	.LFE461:
 314              		.size	PreviousTextPage, .-PreviousTextPage
 315              		.section	.text.NextTextPage,"ax",%progbits
 316              		.align	2
 317              		.global	NextTextPage
 318              		.code	16
 319              		.thumb_func
ARM GAS  C:\Users\bryan.lee\AppData\Local\Temp\ccoB5YNO.s 			page 13


 320              		.type	NextTextPage, %function
 321              	NextTextPage:
 322              	.LFB462:
 358:screen.c      **** 
 359:screen.c      **** /*******************************************************************************
 360:screen.c      **** * Function Name: void NextTextPage(void)
 361:screen.c      **** ********************************************************************************
 362:screen.c      **** *
 363:screen.c      **** * Summary:
 364:screen.c      **** *  Performs the transition to the next text page
 365:screen.c      **** *
 366:screen.c      **** * Parameters:
 367:screen.c      **** *  None
 368:screen.c      **** *
 369:screen.c      **** * Return:
 370:screen.c      **** *  None
 371:screen.c      **** *
 372:screen.c      **** * Side Effects:
 373:screen.c      **** *  None
 374:screen.c      **** *
 375:screen.c      **** *******************************************************************************/
 376:screen.c      **** void NextTextPage(void)
 377:screen.c      **** {
 323              		.loc 1 377 0
 324              		.cfi_startproc
 325              		@ args = 0, pretend = 0, frame = 0
 326              		@ frame_needed = 0, uses_anonymous_args = 0
 327 0000 10B5     		push	{r4, lr}
 328              		.cfi_def_cfa_offset 8
 329              		.cfi_offset 4, -8
 330              		.cfi_offset 14, -4
 378:screen.c      ****     /* Variable that stores the index of the character array, which in turn 
 379:screen.c      ****        stores the current text page as a string */
 380:screen.c      ****     uint8_t currentPageIndex;
 381:screen.c      ****     
 382:screen.c      ****     /* If the final page is reached, then go to the start page by selecting 
 383:screen.c      ****        the starting index of the text pages */
 384:screen.c      ****     if (currentScreen.textPage >= maxTextPageIndexes[currentScreen.menuItem])
 331              		.loc 1 384 0
 332 0002 0F4B     		ldr	r3, .L29
 333 0004 9A78     		ldrb	r2, [r3, #2]
 334 0006 5B78     		ldrb	r3, [r3, #1]
 335 0008 0E49     		ldr	r1, .L29+4
 336 000a C95C     		ldrb	r1, [r1, r3]
 337 000c 8A42     		cmp	r2, r1
 338 000e 03D3     		bcc	.L26
 385:screen.c      ****     {
 386:screen.c      ****         currentScreen.textPage = TEXT_PAGE_INDEX_START;
 339              		.loc 1 386 0
 340 0010 0021     		movs	r1, #0
 341 0012 0B4A     		ldr	r2, .L29
 342 0014 9170     		strb	r1, [r2, #2]
 343 0016 02E0     		b	.L27
 344              	.L26:
 387:screen.c      ****     }
 388:screen.c      ****      /* Otherwise, select the next page by incrementing the index */
 389:screen.c      ****     else
ARM GAS  C:\Users\bryan.lee\AppData\Local\Temp\ccoB5YNO.s 			page 14


 390:screen.c      ****     {
 391:screen.c      ****         currentScreen.textPage++;
 345              		.loc 1 391 0
 346 0018 0132     		adds	r2, r2, #1
 347 001a 0949     		ldr	r1, .L29
 348 001c 8A70     		strb	r2, [r1, #2]
 349              	.L27:
 392:screen.c      ****     }
 393:screen.c      **** 
 394:screen.c      ****     /* Access the index array and fetch the index of the character array that
 395:screen.c      ****         stores the current text page as a string */
 396:screen.c      ****     currentPageIndex = textPageIndex[currentScreen.menuItem]
 397:screen.c      ****                                     [currentScreen.textPage];
 350              		.loc 1 397 0
 351 001e 084A     		ldr	r2, .L29
 352 0020 9278     		ldrb	r2, [r2, #2]
 396:screen.c      ****                                     [currentScreen.textPage];
 353              		.loc 1 396 0
 354 0022 DB00     		lsls	r3, r3, #3
 355 0024 0849     		ldr	r1, .L29+8
 356 0026 CB18     		adds	r3, r1, r3
 357 0028 985C     		ldrb	r0, [r3, r2]
 358              	.LVL10:
 398:screen.c      ****     
 399:screen.c      ****     /* Check if the fetched index is valid */
 400:screen.c      ****     if (currentPageIndex != INVALID_PAGE_INDEX)
 359              		.loc 1 400 0
 360 002a FF28     		cmp	r0, #255
 361 002c 07D0     		beq	.L25
 401:screen.c      ****     {
 402:screen.c      ****         /* Display the text page with background image */
 403:screen.c      ****         DisplayImageAndText((char*) textPage[currentPageIndex],
 362              		.loc 1 403 0
 363 002e 8E23     		movs	r3, #142
 364 0030 FF33     		adds	r3, r3, #255
 365 0032 5843     		muls	r0, r3
 366              	.LVL11:
 367 0034 054B     		ldr	r3, .L29+12
 368 0036 C018     		adds	r0, r0, r3
 369 0038 0549     		ldr	r1, .L29+16
 370              	.LVL12:
 371 003a FFF7FEFF 		bl	DisplayImageAndText
 372              	.LVL13:
 373              	.L25:
 404:screen.c      ****                             (image*) textPageBackground);
 405:screen.c      ****     }
 406:screen.c      **** }
 374              		.loc 1 406 0
 375              		@ sp needed
 376 003e 10BD     		pop	{r4, pc}
 377              	.L30:
 378              		.align	2
 379              	.L29:
 380 0040 00000000 		.word	.LANCHOR0
 381 0044 00000000 		.word	maxTextPageIndexes
 382 0048 00000000 		.word	textPageIndex
 383 004c 00000000 		.word	textPage
ARM GAS  C:\Users\bryan.lee\AppData\Local\Temp\ccoB5YNO.s 			page 15


 384 0050 00000000 		.word	textPageBackground
 385              		.cfi_endproc
 386              	.LFE462:
 387              		.size	NextTextPage, .-NextTextPage
 388              		.section	.text.InitScreen,"ax",%progbits
 389              		.align	2
 390              		.global	InitScreen
 391              		.code	16
 392              		.thumb_func
 393              		.type	InitScreen, %function
 394              	InitScreen:
 395              	.LFB454:
 111:screen.c      ****     /* Initialize the display hardware and clear to screen to white */
 396              		.loc 1 111 0
 397              		.cfi_startproc
 398              		@ args = 0, pretend = 0, frame = 0
 399              		@ frame_needed = 0, uses_anonymous_args = 0
 400 0000 10B5     		push	{r4, lr}
 401              		.cfi_def_cfa_offset 8
 402              		.cfi_offset 4, -8
 403              		.cfi_offset 14, -4
 113:screen.c      **** }
 404              		.loc 1 113 0
 405 0002 FFF7FEFF 		bl	InitDisplay
 406              	.LVL14:
 114:screen.c      **** 
 407              		.loc 1 114 0
 408              		@ sp needed
 409 0006 10BD     		pop	{r4, pc}
 410              		.cfi_endproc
 411              	.LFE454:
 412              		.size	InitScreen, .-InitScreen
 413              		.section	.text.ShowStartupScreen,"ax",%progbits
 414              		.align	2
 415              		.global	ShowStartupScreen
 416              		.code	16
 417              		.thumb_func
 418              		.type	ShowStartupScreen, %function
 419              	ShowStartupScreen:
 420              	.LFB455:
 135:screen.c      ****     /* Show the logo */
 421              		.loc 1 135 0
 422              		.cfi_startproc
 423              		@ args = 0, pretend = 0, frame = 0
 424              		@ frame_needed = 0, uses_anonymous_args = 0
 425 0000 10B5     		push	{r4, lr}
 426              		.cfi_def_cfa_offset 8
 427              		.cfi_offset 4, -8
 428              		.cfi_offset 14, -4
 137:screen.c      **** 
 429              		.loc 1 137 0
 430 0002 0548     		ldr	r0, .L33
 431 0004 FFF7FEFF 		bl	DisplayImage
 432              	.LVL15:
 140:screen.c      **** 
 433              		.loc 1 140 0
 434 0008 0448     		ldr	r0, .L33+4
ARM GAS  C:\Users\bryan.lee\AppData\Local\Temp\ccoB5YNO.s 			page 16


 435 000a FFF7FEFF 		bl	Cy_SysLib_Delay
 436              	.LVL16:
 143:screen.c      **** }
 437              		.loc 1 143 0
 438 000e 0448     		ldr	r0, .L33+8
 439 0010 FFF7FEFF 		bl	DisplayImage
 440              	.LVL17:
 144:screen.c      **** 
 441              		.loc 1 144 0
 442              		@ sp needed
 443 0014 10BD     		pop	{r4, pc}
 444              	.L34:
 445 0016 C046     		.align	2
 446              	.L33:
 447 0018 00000000 		.word	logo
 448 001c B80B0000 		.word	3000
 449 0020 00000000 		.word	mainMenuImage
 450              		.cfi_endproc
 451              	.LFE455:
 452              		.size	ShowStartupScreen, .-ShowStartupScreen
 453              		.section	.text.UpdateScreen,"ax",%progbits
 454              		.align	2
 455              		.global	UpdateScreen
 456              		.code	16
 457              		.thumb_func
 458              		.type	UpdateScreen, %function
 459              	UpdateScreen:
 460              	.LFB463:
 407:screen.c      **** 
 408:screen.c      **** /*******************************************************************************
 409:screen.c      **** * Function Name: void UpdateScreen (touch_data_t touchInfo)
 410:screen.c      **** ********************************************************************************
 411:screen.c      **** *
 412:screen.c      **** * Summary:
 413:screen.c      **** *  Updates the screen according to the touch_data_t input
 414:screen.c      **** *
 415:screen.c      **** * Parameters:
 416:screen.c      **** *  touch_data_t :  slider swipe / button touched / no touch
 417:screen.c      **** *
 418:screen.c      **** * Return:
 419:screen.c      **** *  None
 420:screen.c      **** *
 421:screen.c      **** * Side Effects:
 422:screen.c      **** *  None
 423:screen.c      **** *
 424:screen.c      **** *******************************************************************************/
 425:screen.c      **** void UpdateScreen(touch_data_t touchInfo)
 426:screen.c      **** {
 461              		.loc 1 426 0
 462              		.cfi_startproc
 463              		@ args = 0, pretend = 0, frame = 8
 464              		@ frame_needed = 0, uses_anonymous_args = 0
 465 0000 00B5     		push	{lr}
 466              		.cfi_def_cfa_offset 4
 467              		.cfi_offset 14, -4
 468 0002 83B0     		sub	sp, sp, #12
 469              		.cfi_def_cfa_offset 16
ARM GAS  C:\Users\bryan.lee\AppData\Local\Temp\ccoB5YNO.s 			page 17


 470 0004 01AB     		add	r3, sp, #4
 471 0006 1880     		strh	r0, [r3]
 427:screen.c      ****     /* Function pointer that selects a screen update function based on the 
 428:screen.c      ****       current screen type and the touch input:
 429:screen.c      ****     ________________________________________________________
 430:screen.c      ****     |                               |                       |
 431:screen.c      ****     |          Parameters           |   Selected Function   |
 432:screen.c      ****     |_______________________________|_______________________|
 433:screen.c      ****     |                               |                       |
 434:screen.c      ****     |   [MAIN_MENU][NO_TOUCH])      |   NoScreenChange      |
 435:screen.c      ****     |   [MAIN_MENU][SELECT_BUTTON]) |   GoToTextPage        |
 436:screen.c      ****     |   [MAIN_MENU][BACK_BUTTON])   |   NoScreenChange      |
 437:screen.c      ****     |   [MAIN_MENU][SLIDER_LEFT])   |   MoveArrowUp         |
 438:screen.c      ****     |   [MAIN_MENU][SLIDER_RIGHT])  |   MoveArrowDown       |
 439:screen.c      ****     |                               |                       |
 440:screen.c      ****     |   [TEXT_PAGE][NO_TOUCH])      |   NoScreenChange      |
 441:screen.c      ****     |   [TEXT_PAGE][SELECT_BUTTON]) |   NoScreenChange      |
 442:screen.c      ****     |   [TEXT_PAGE][BACK_BUTTON])   |   BackToMainMenu      |
 443:screen.c      ****     |   [TEXT_PAGE][SLIDER_LEFT])   |   PreviousTextPage    |
 444:screen.c      ****     |   [TEXT_PAGE][SLIDER_RIGHT])  |   NextTextPage        |
 445:screen.c      ****     |_______________________________|_______________________|*/
 446:screen.c      ****     static void (*ScreenUpdatePointer[NUMBER_OF_SCREEN_TYPES]
 447:screen.c      ****                                      [NUMBER_OF_TOUCH_TYPES]) (void) =
 448:screen.c      ****     {
 449:screen.c      ****         { NoScreenChange, GoToTextPage, NoScreenChange, MoveArrowUp, MoveArrowDown },
 450:screen.c      ****         { NoScreenChange, NoScreenChange, BackToMainMenu, PreviousTextPage, NextTextPage }
 451:screen.c      ****     };
 452:screen.c      **** 
 453:screen.c      ****     /* Flag used to determine when this function is called for the first time */
 454:screen.c      ****     bool static firstTime = true;
 455:screen.c      ****     
 456:screen.c      ****     /* If this function  is called for the first time, show the startup screen,
 457:screen.c      ****        and then clear the firstTime flag */
 458:screen.c      ****     if (firstTime)
 472              		.loc 1 458 0
 473 0008 0F4B     		ldr	r3, .L39
 474 000a 1B78     		ldrb	r3, [r3]
 475 000c 002B     		cmp	r3, #0
 476 000e 05D0     		beq	.L36
 459:screen.c      ****     {
 460:screen.c      ****         ShowStartupScreen();
 477              		.loc 1 460 0
 478 0010 FFF7FEFF 		bl	ShowStartupScreen
 479              	.LVL18:
 461:screen.c      ****         firstTime = false;
 480              		.loc 1 461 0
 481 0014 0022     		movs	r2, #0
 482 0016 0C4B     		ldr	r3, .L39
 483 0018 1A70     		strb	r2, [r3]
 484 001a 12E0     		b	.L35
 485              	.L36:
 462:screen.c      ****     }
 463:screen.c      ****     else
 464:screen.c      ****     {
 465:screen.c      ****         /* Enter sleep mode if CapSense is busy with a scan. CapSense interrupt 
 466:screen.c      ****            will automatically wake up the system */
 467:screen.c      ****         if (touchInfo.scanBusy == true)
ARM GAS  C:\Users\bryan.lee\AppData\Local\Temp\ccoB5YNO.s 			page 18


 486              		.loc 1 467 0
 487 001c 01AB     		add	r3, sp, #4
 488 001e 5B78     		ldrb	r3, [r3, #1]
 489 0020 002B     		cmp	r3, #0
 490 0022 03D0     		beq	.L38
 468:screen.c      ****         {
 469:screen.c      ****             Cy_SysPm_Sleep(CY_SYSPM_WAIT_FOR_INTERRUPT);
 491              		.loc 1 469 0
 492 0024 0020     		movs	r0, #0
 493 0026 FFF7FEFF 		bl	Cy_SysPm_Sleep
 494              	.LVL19:
 495 002a 0AE0     		b	.L35
 496              	.L38:
 470:screen.c      ****         }
 471:screen.c      ****         /* Otherwise, call the function pointer that selects a screen update function
 472:screen.c      ****         according to the touch input */     
 473:screen.c      ****         else
 474:screen.c      ****         { 
 475:screen.c      ****             /* See the function pointer definition for details */
 476:screen.c      ****             (*ScreenUpdatePointer[currentScreen.screen][touchInfo.touchType])();
 497              		.loc 1 476 0
 498 002c 074B     		ldr	r3, .L39+4
 499 002e 1B78     		ldrb	r3, [r3]
 500 0030 01AA     		add	r2, sp, #4
 501 0032 1278     		ldrb	r2, [r2]
 502 0034 9900     		lsls	r1, r3, #2
 503 0036 CB18     		adds	r3, r1, r3
 504 0038 9B18     		adds	r3, r3, r2
 505 003a 9B00     		lsls	r3, r3, #2
 506 003c 044A     		ldr	r2, .L39+8
 507 003e 9B58     		ldr	r3, [r3, r2]
 508 0040 9847     		blx	r3
 509              	.LVL20:
 510              	.L35:
 477:screen.c      ****         }
 478:screen.c      ****     }
 479:screen.c      **** }
 511              		.loc 1 479 0
 512 0042 03B0     		add	sp, sp, #12
 513              		@ sp needed
 514 0044 00BD     		pop	{pc}
 515              	.L40:
 516 0046 C046     		.align	2
 517              	.L39:
 518 0048 00000000 		.word	.LANCHOR1
 519 004c 00000000 		.word	.LANCHOR0
 520 0050 00000000 		.word	.LANCHOR2
 521              		.cfi_endproc
 522              	.LFE463:
 523              		.size	UpdateScreen, .-UpdateScreen
 524              		.global	currentScreen
 525              		.section	.rodata
 526              		.align	2
 527              		.set	.LANCHOR2,. + 0
 528              		.type	ScreenUpdatePointer.15469, %object
 529              		.size	ScreenUpdatePointer.15469, 40
 530              	ScreenUpdatePointer.15469:
ARM GAS  C:\Users\bryan.lee\AppData\Local\Temp\ccoB5YNO.s 			page 19


 531 0000 00000000 		.word	NoScreenChange
 532 0004 00000000 		.word	GoToTextPage
 533 0008 00000000 		.word	NoScreenChange
 534 000c 00000000 		.word	MoveArrowUp
 535 0010 00000000 		.word	MoveArrowDown
 536 0014 00000000 		.word	NoScreenChange
 537 0018 00000000 		.word	NoScreenChange
 538 001c 00000000 		.word	BackToMainMenu
 539 0020 00000000 		.word	PreviousTextPage
 540 0024 00000000 		.word	NextTextPage
 541              		.data
 542              		.set	.LANCHOR1,. + 0
 543              		.type	firstTime.15470, %object
 544              		.size	firstTime.15470, 1
 545              	firstTime.15470:
 546 0000 01       		.byte	1
 547              		.bss
 548              		.align	2
 549              		.set	.LANCHOR0,. + 0
 550              		.type	currentScreen, %object
 551              		.size	currentScreen, 3
 552              	currentScreen:
 553 0000 000000   		.space	3
 554              		.text
 555              	.Letext0:
 556              		.file 2 "c:\\program files (x86)\\cypress\\psoc creator\\4.2\\psoc creator\\import\\gnu\\arm\\5.4.
 557              		.file 3 "c:\\program files (x86)\\cypress\\psoc creator\\4.2\\psoc creator\\import\\gnu\\arm\\5.4.
 558              		.file 4 "Generated_Source\\PSoC6\\pdl\\drivers/peripheral/syslib/cy_syslib.h"
 559              		.file 5 "Generated_Source\\PSoC6\\pdl\\drivers/peripheral/tcpwm/cy_tcpwm_counter.h"
 560              		.file 6 "Generated_Source\\PSoC6\\pdl\\drivers/peripheral/scb/cy_scb_spi.h"
 561              		.file 7 "Generated_Source\\PSoC6\\pdl\\drivers/peripheral/syspm/cy_syspm.h"
 562              		.file 8 "touch.h"
 563              		.file 9 "pervasive_eink_hardware_driver.h"
 564              		.file 10 "cy_eink_library.h"
 565              		.file 11 "display.h"
 566              		.file 12 "Generated_Source\\PSoC6/CY_EINK_Timer.h"
 567              		.file 13 "Generated_Source\\PSoC6/CY_EINK_SPIM.h"
 568              		.file 14 "screen_contents.h"