ARM GAS  C:\Users\bryan.lee\AppData\Local\Temp\ccORQ7ao.s 			page 1


   1              		.syntax unified
   2              		.cpu cortex-m0
   3              		.fpu softvfp
   4              		.eabi_attribute 20, 1
   5              		.eabi_attribute 21, 1
   6              		.eabi_attribute 23, 3
   7              		.eabi_attribute 24, 1
   8              		.eabi_attribute 25, 1
   9              		.eabi_attribute 26, 1
  10              		.eabi_attribute 30, 1
  11              		.eabi_attribute 34, 0
  12              		.eabi_attribute 18, 4
  13              		.thumb
  14              		.syntax unified
  15              		.file	"BLE_1_bas.c"
  16              		.text
  17              	.Ltext0:
  18              		.cfi_sections	.debug_frame
  19              		.section	.text.CyBle_BasInit,"ax",%progbits
  20              		.align	2
  21              		.global	CyBle_BasInit
  22              		.code	16
  23              		.thumb_func
  24              		.type	CyBle_BasInit, %function
  25              	CyBle_BasInit:
  26              	.LFB2:
  27              		.file 1 "Generated_Source\\PSoC4\\BLE_1_bas.c"
   1:Generated_Source\PSoC4/BLE_1_bas.c **** /***************************************************************************//**
   2:Generated_Source\PSoC4/BLE_1_bas.c **** * \file CYBLE_bas.c
   3:Generated_Source\PSoC4/BLE_1_bas.c **** * \version 3.50
   4:Generated_Source\PSoC4/BLE_1_bas.c **** * 
   5:Generated_Source\PSoC4/BLE_1_bas.c **** * \brief
   6:Generated_Source\PSoC4/BLE_1_bas.c **** *  Contains the source code for BLE Battery Service.
   7:Generated_Source\PSoC4/BLE_1_bas.c **** * 
   8:Generated_Source\PSoC4/BLE_1_bas.c **** ********************************************************************************
   9:Generated_Source\PSoC4/BLE_1_bas.c **** * \copyright
  10:Generated_Source\PSoC4/BLE_1_bas.c **** * Copyright 2014-2018, Cypress Semiconductor Corporation.  All rights reserved.
  11:Generated_Source\PSoC4/BLE_1_bas.c **** * You may use this file only in accordance with the license, terms, conditions,
  12:Generated_Source\PSoC4/BLE_1_bas.c **** * disclaimers, and limitations in the end user license agreement accompanying
  13:Generated_Source\PSoC4/BLE_1_bas.c **** * the software package with which this file was provided.
  14:Generated_Source\PSoC4/BLE_1_bas.c **** *******************************************************************************/
  15:Generated_Source\PSoC4/BLE_1_bas.c **** 
  16:Generated_Source\PSoC4/BLE_1_bas.c **** 
  17:Generated_Source\PSoC4/BLE_1_bas.c **** #include "BLE_1_eventHandler.h"
  18:Generated_Source\PSoC4/BLE_1_bas.c **** 
  19:Generated_Source\PSoC4/BLE_1_bas.c **** static CYBLE_CALLBACK_T CyBle_BasApplCallback = NULL;
  20:Generated_Source\PSoC4/BLE_1_bas.c **** 
  21:Generated_Source\PSoC4/BLE_1_bas.c **** #ifdef CYBLE_BAS_SERVER
  22:Generated_Source\PSoC4/BLE_1_bas.c **** 
  23:Generated_Source\PSoC4/BLE_1_bas.c **** const CYBLE_BASS_T cyBle_bass[0x01u] = {
  24:Generated_Source\PSoC4/BLE_1_bas.c ****     {
  25:Generated_Source\PSoC4/BLE_1_bas.c ****         0x0013u, /* Handle of the BAS service */ 
  26:Generated_Source\PSoC4/BLE_1_bas.c ****         0x0015u, /* Handle of the Battery Level characteristic */ 
  27:Generated_Source\PSoC4/BLE_1_bas.c ****         0x0016u, /* Handle of the Characteristic Presentation Format descriptor */ 
  28:Generated_Source\PSoC4/BLE_1_bas.c ****         0x0017u, /* Handle of the Client Characteristic Configuration descriptor */ 
  29:Generated_Source\PSoC4/BLE_1_bas.c ****     },
  30:Generated_Source\PSoC4/BLE_1_bas.c **** };
ARM GAS  C:\Users\bryan.lee\AppData\Local\Temp\ccORQ7ao.s 			page 2


  31:Generated_Source\PSoC4/BLE_1_bas.c **** 
  32:Generated_Source\PSoC4/BLE_1_bas.c **** 
  33:Generated_Source\PSoC4/BLE_1_bas.c **** #endif /* CYBLE_BAS_SERVER */
  34:Generated_Source\PSoC4/BLE_1_bas.c **** 
  35:Generated_Source\PSoC4/BLE_1_bas.c **** #ifdef CYBLE_BAS_CLIENT
  36:Generated_Source\PSoC4/BLE_1_bas.c **** 
  37:Generated_Source\PSoC4/BLE_1_bas.c **** CYBLE_BASC_T cyBle_basc[CYBLE_BASC_SERVICE_COUNT];
  38:Generated_Source\PSoC4/BLE_1_bas.c **** static CYBLE_GATT_DB_ATTR_HANDLE_T cyBle_bascReqHandle;
  39:Generated_Source\PSoC4/BLE_1_bas.c **** 
  40:Generated_Source\PSoC4/BLE_1_bas.c **** #endif /* (CYBLE_BAS_CLIENT) */
  41:Generated_Source\PSoC4/BLE_1_bas.c **** 
  42:Generated_Source\PSoC4/BLE_1_bas.c **** 
  43:Generated_Source\PSoC4/BLE_1_bas.c **** /******************************************************************************
  44:Generated_Source\PSoC4/BLE_1_bas.c **** * Function Name: CyBle_BasInit
  45:Generated_Source\PSoC4/BLE_1_bas.c **** ***************************************************************************//**
  46:Generated_Source\PSoC4/BLE_1_bas.c **** * 
  47:Generated_Source\PSoC4/BLE_1_bas.c **** *  This function initializes the BAS Service.
  48:Generated_Source\PSoC4/BLE_1_bas.c **** *
  49:Generated_Source\PSoC4/BLE_1_bas.c **** ******************************************************************************/
  50:Generated_Source\PSoC4/BLE_1_bas.c **** void CyBle_BasInit(void)
  51:Generated_Source\PSoC4/BLE_1_bas.c **** {
  28              		.loc 1 51 0
  29              		.cfi_startproc
  30              		@ args = 0, pretend = 0, frame = 0
  31              		@ frame_needed = 0, uses_anonymous_args = 0
  32              		@ link register save eliminated.
  52:Generated_Source\PSoC4/BLE_1_bas.c **** 
  53:Generated_Source\PSoC4/BLE_1_bas.c **** #ifdef CYBLE_BAS_CLIENT
  54:Generated_Source\PSoC4/BLE_1_bas.c **** 
  55:Generated_Source\PSoC4/BLE_1_bas.c ****     uint8 locServIndex;
  56:Generated_Source\PSoC4/BLE_1_bas.c ****     for(locServIndex = 0u; locServIndex < CYBLE_BASC_SERVICE_COUNT; locServIndex++)
  57:Generated_Source\PSoC4/BLE_1_bas.c ****     {
  58:Generated_Source\PSoC4/BLE_1_bas.c ****         if(cyBle_serverInfo[CYBLE_SRVI_BAS + locServIndex].range.startHandle == CYBLE_GATT_INVALID_
  59:Generated_Source\PSoC4/BLE_1_bas.c ****         {
  60:Generated_Source\PSoC4/BLE_1_bas.c ****             (void)memset(&cyBle_basc[locServIndex], 0, sizeof(cyBle_basc[locServIndex]));
  61:Generated_Source\PSoC4/BLE_1_bas.c ****         }
  62:Generated_Source\PSoC4/BLE_1_bas.c ****     }
  63:Generated_Source\PSoC4/BLE_1_bas.c ****     cyBle_bascReqHandle = CYBLE_GATT_INVALID_ATTR_HANDLE_VALUE;
  64:Generated_Source\PSoC4/BLE_1_bas.c **** 
  65:Generated_Source\PSoC4/BLE_1_bas.c **** #endif /* CYBLE_BAS_CLIENT */
  66:Generated_Source\PSoC4/BLE_1_bas.c **** }
  33              		.loc 1 66 0
  34              		@ sp needed
  35 0000 7047     		bx	lr
  36              		.cfi_endproc
  37              	.LFE2:
  38              		.size	CyBle_BasInit, .-CyBle_BasInit
  39 0002 C046     		.section	.text.CyBle_BasRegisterAttrCallback,"ax",%progbits
  40              		.align	2
  41              		.global	CyBle_BasRegisterAttrCallback
  42              		.code	16
  43              		.thumb_func
  44              		.type	CyBle_BasRegisterAttrCallback, %function
  45              	CyBle_BasRegisterAttrCallback:
  46              	.LFB3:
  67:Generated_Source\PSoC4/BLE_1_bas.c **** 
  68:Generated_Source\PSoC4/BLE_1_bas.c **** 
ARM GAS  C:\Users\bryan.lee\AppData\Local\Temp\ccORQ7ao.s 			page 3


  69:Generated_Source\PSoC4/BLE_1_bas.c **** /******************************************************************************
  70:Generated_Source\PSoC4/BLE_1_bas.c **** * Function Name: CyBle_BasRegisterAttrCallback
  71:Generated_Source\PSoC4/BLE_1_bas.c **** ***************************************************************************//**
  72:Generated_Source\PSoC4/BLE_1_bas.c **** * 
  73:Generated_Source\PSoC4/BLE_1_bas.c **** *  Registers a callback function for service specific attribute operations.
  74:Generated_Source\PSoC4/BLE_1_bas.c **** *  Service specific write requests from peer device will not be handled with
  75:Generated_Source\PSoC4/BLE_1_bas.c **** *  unregistered callback function.
  76:Generated_Source\PSoC4/BLE_1_bas.c **** * 
  77:Generated_Source\PSoC4/BLE_1_bas.c **** *  \param callbackFunc: An application layer event callback function to receive 
  78:Generated_Source\PSoC4/BLE_1_bas.c **** *                    battery service events from the BLE Component. The
  79:Generated_Source\PSoC4/BLE_1_bas.c **** *                    definition of CYBLE_CALLBACK_T for Battery Service is,\n                 
  80:Generated_Source\PSoC4/BLE_1_bas.c **** *                    typedef void (* CYBLE_CALLBACK_T) (uint32 eventCode, 
  81:Generated_Source\PSoC4/BLE_1_bas.c **** *                                                         void *eventParam)                        
  82:Generated_Source\PSoC4/BLE_1_bas.c **** *                    * eventCode indicates the event that triggered this 
  83:Generated_Source\PSoC4/BLE_1_bas.c **** *                       callback (e.g. CYBLE_EVT_BASS_NOTIFICATION_ENABLED)
  84:Generated_Source\PSoC4/BLE_1_bas.c **** *                    * eventParam contains the parameters corresponding to the
  85:Generated_Source\PSoC4/BLE_1_bas.c **** *                       current event (e.g., pointer to CYBLE_BAS_CHAR_VALUE_T
  86:Generated_Source\PSoC4/BLE_1_bas.c **** *                       structure that contains details of the characteristic 
  87:Generated_Source\PSoC4/BLE_1_bas.c **** *                       for which notification enabled event was triggered)
  88:Generated_Source\PSoC4/BLE_1_bas.c **** * 
  89:Generated_Source\PSoC4/BLE_1_bas.c **** * \sideeffect The *eventParams in the callback function should not be used 
  90:Generated_Source\PSoC4/BLE_1_bas.c **** *                by the application once the callback function execution is 
  91:Generated_Source\PSoC4/BLE_1_bas.c **** *                finished. Otherwise this data may become corrupted.
  92:Generated_Source\PSoC4/BLE_1_bas.c **** * 
  93:Generated_Source\PSoC4/BLE_1_bas.c **** ******************************************************************************/
  94:Generated_Source\PSoC4/BLE_1_bas.c **** void CyBle_BasRegisterAttrCallback(CYBLE_CALLBACK_T callbackFunc)
  95:Generated_Source\PSoC4/BLE_1_bas.c **** {
  47              		.loc 1 95 0
  48              		.cfi_startproc
  49              		@ args = 0, pretend = 0, frame = 0
  50              		@ frame_needed = 0, uses_anonymous_args = 0
  51              		@ link register save eliminated.
  52              	.LVL0:
  96:Generated_Source\PSoC4/BLE_1_bas.c ****     CyBle_BasApplCallback = callbackFunc;
  53              		.loc 1 96 0
  54 0000 014B     		ldr	r3, .L3
  55 0002 1860     		str	r0, [r3]
  97:Generated_Source\PSoC4/BLE_1_bas.c **** }
  56              		.loc 1 97 0
  57              		@ sp needed
  58 0004 7047     		bx	lr
  59              	.L4:
  60 0006 C046     		.align	2
  61              	.L3:
  62 0008 00000000 		.word	.LANCHOR0
  63              		.cfi_endproc
  64              	.LFE3:
  65              		.size	CyBle_BasRegisterAttrCallback, .-CyBle_BasRegisterAttrCallback
  66              		.section	.text.CyBle_BassSetCharacteristicValue,"ax",%progbits
  67              		.align	2
  68              		.global	CyBle_BassSetCharacteristicValue
  69              		.code	16
  70              		.thumb_func
  71              		.type	CyBle_BassSetCharacteristicValue, %function
  72              	CyBle_BassSetCharacteristicValue:
  73              	.LFB4:
  98:Generated_Source\PSoC4/BLE_1_bas.c **** 
ARM GAS  C:\Users\bryan.lee\AppData\Local\Temp\ccORQ7ao.s 			page 4


  99:Generated_Source\PSoC4/BLE_1_bas.c **** #ifdef CYBLE_BAS_SERVER
 100:Generated_Source\PSoC4/BLE_1_bas.c **** 
 101:Generated_Source\PSoC4/BLE_1_bas.c **** 
 102:Generated_Source\PSoC4/BLE_1_bas.c **** /******************************************************************************
 103:Generated_Source\PSoC4/BLE_1_bas.c **** * Function Name: CyBle_BassSetCharacteristicValue
 104:Generated_Source\PSoC4/BLE_1_bas.c **** ***************************************************************************//**
 105:Generated_Source\PSoC4/BLE_1_bas.c **** * 
 106:Generated_Source\PSoC4/BLE_1_bas.c **** *  Sets a characteristic value of the service in the local database.
 107:Generated_Source\PSoC4/BLE_1_bas.c **** * 
 108:Generated_Source\PSoC4/BLE_1_bas.c **** *  \param serviceIndex: The index of the service instance.
 109:Generated_Source\PSoC4/BLE_1_bas.c **** *  \param charIndex:    The index of the service characteristic of type 
 110:Generated_Source\PSoC4/BLE_1_bas.c **** *                       CYBLE_BAS_CHAR_INDEX_T.
 111:Generated_Source\PSoC4/BLE_1_bas.c **** *  \param attrSize:     The size of the characteristic value attribute. A 
 112:Generated_Source\PSoC4/BLE_1_bas.c **** *                       battery level characteristic has 1 byte length.
 113:Generated_Source\PSoC4/BLE_1_bas.c **** *  \param attrValue:    The pointer to the characteristic value data that 
 114:Generated_Source\PSoC4/BLE_1_bas.c **** *                       should be stored to the GATT database.
 115:Generated_Source\PSoC4/BLE_1_bas.c **** * 
 116:Generated_Source\PSoC4/BLE_1_bas.c **** * \return
 117:Generated_Source\PSoC4/BLE_1_bas.c **** *  Return value is of type CYBLE_API_RESULT_T.
 118:Generated_Source\PSoC4/BLE_1_bas.c **** *  * CYBLE_ERROR_OK - The request handled successfully.
 119:Generated_Source\PSoC4/BLE_1_bas.c **** *  * CYBLE_ERROR_INVALID_PARAMETER - Validation of the input parameter failed.
 120:Generated_Source\PSoC4/BLE_1_bas.c **** *
 121:Generated_Source\PSoC4/BLE_1_bas.c **** ******************************************************************************/
 122:Generated_Source\PSoC4/BLE_1_bas.c **** CYBLE_API_RESULT_T CyBle_BassSetCharacteristicValue(uint8 serviceIndex, CYBLE_BAS_CHAR_INDEX_T char
 123:Generated_Source\PSoC4/BLE_1_bas.c ****     uint8 attrSize, uint8 *attrValue)
 124:Generated_Source\PSoC4/BLE_1_bas.c **** {
  74              		.loc 1 124 0
  75              		.cfi_startproc
  76              		@ args = 0, pretend = 0, frame = 16
  77              		@ frame_needed = 0, uses_anonymous_args = 0
  78              	.LVL1:
  79 0000 00B5     		push	{lr}
  80              		.cfi_def_cfa_offset 4
  81              		.cfi_offset 14, -4
  82 0002 85B0     		sub	sp, sp, #20
  83              		.cfi_def_cfa_offset 24
  84              	.LVL2:
 125:Generated_Source\PSoC4/BLE_1_bas.c ****     CYBLE_API_RESULT_T apiResult = CYBLE_ERROR_OK;
 126:Generated_Source\PSoC4/BLE_1_bas.c ****     CYBLE_GATT_HANDLE_VALUE_PAIR_T locHandleValuePair;
 127:Generated_Source\PSoC4/BLE_1_bas.c **** 
 128:Generated_Source\PSoC4/BLE_1_bas.c ****     if((serviceIndex >= CYBLE_BASS_SERVICE_COUNT) || (charIndex >= CYBLE_BAS_CHAR_COUNT) ||
  85              		.loc 1 128 0
  86 0004 0028     		cmp	r0, #0
  87 0006 16D1     		bne	.L7
  88              		.loc 1 128 0 is_stmt 0 discriminator 1
  89 0008 0029     		cmp	r1, #0
  90 000a 16D1     		bne	.L8
  91              		.loc 1 128 0 discriminator 2
  92 000c 012A     		cmp	r2, #1
  93 000e 16D1     		bne	.L9
 129:Generated_Source\PSoC4/BLE_1_bas.c ****        (attrSize != CYBLE_BAS_BATTERY_LEVEL_LEN) || (*attrValue > CYBLE_BAS_MAX_BATTERY_LEVEL_VALUE
  94              		.loc 1 129 0 is_stmt 1
  95 0010 1978     		ldrb	r1, [r3]
  96              	.LVL3:
  97 0012 6429     		cmp	r1, #100
  98 0014 15D8     		bhi	.L10
 130:Generated_Source\PSoC4/BLE_1_bas.c ****     {
ARM GAS  C:\Users\bryan.lee\AppData\Local\Temp\ccORQ7ao.s 			page 5


 131:Generated_Source\PSoC4/BLE_1_bas.c ****         apiResult = CYBLE_ERROR_INVALID_PARAMETER;
 132:Generated_Source\PSoC4/BLE_1_bas.c ****     }
 133:Generated_Source\PSoC4/BLE_1_bas.c ****     else
 134:Generated_Source\PSoC4/BLE_1_bas.c ****     {
 135:Generated_Source\PSoC4/BLE_1_bas.c ****         /* Store data in database */
 136:Generated_Source\PSoC4/BLE_1_bas.c ****         locHandleValuePair.attrHandle = cyBle_bass[serviceIndex].batteryLevelHandle;
  99              		.loc 1 136 0
 100 0016 C000     		lsls	r0, r0, #3
 101              	.LVL4:
 102 0018 0C49     		ldr	r1, .L12
 103 001a 0818     		adds	r0, r1, r0
 104 001c 4188     		ldrh	r1, [r0, #2]
 105 001e 01A8     		add	r0, sp, #4
 106 0020 0181     		strh	r1, [r0, #8]
 137:Generated_Source\PSoC4/BLE_1_bas.c ****         locHandleValuePair.value.len = attrSize;
 107              		.loc 1 137 0
 108 0022 8280     		strh	r2, [r0, #4]
 138:Generated_Source\PSoC4/BLE_1_bas.c ****         locHandleValuePair.value.val = attrValue;
 109              		.loc 1 138 0
 110 0024 0193     		str	r3, [sp, #4]
 139:Generated_Source\PSoC4/BLE_1_bas.c ****         if(CYBLE_GATT_ERR_NONE !=
 140:Generated_Source\PSoC4/BLE_1_bas.c ****             CyBle_GattsWriteAttributeValue(&locHandleValuePair, 0u, NULL, CYBLE_GATT_DB_LOCALLY_INI
 111              		.loc 1 140 0
 112 0026 0023     		movs	r3, #0
 113              	.LVL5:
 114 0028 0022     		movs	r2, #0
 115              	.LVL6:
 116 002a 0021     		movs	r1, #0
 117 002c FFF7FEFF 		bl	CyBle_GattsWriteAttributeValue
 118              	.LVL7:
 139:Generated_Source\PSoC4/BLE_1_bas.c ****         if(CYBLE_GATT_ERR_NONE !=
 119              		.loc 1 139 0
 120 0030 0028     		cmp	r0, #0
 121 0032 08D1     		bne	.L11
 122 0034 08E0     		b	.L6
 123              	.LVL8:
 124              	.L7:
 131:Generated_Source\PSoC4/BLE_1_bas.c ****     }
 125              		.loc 1 131 0
 126 0036 0120     		movs	r0, #1
 127              	.LVL9:
 128 0038 06E0     		b	.L6
 129              	.LVL10:
 130              	.L8:
 131 003a 0120     		movs	r0, #1
 132              	.LVL11:
 133 003c 04E0     		b	.L6
 134              	.LVL12:
 135              	.L9:
 136 003e 0120     		movs	r0, #1
 137              	.LVL13:
 138 0040 02E0     		b	.L6
 139              	.LVL14:
 140              	.L10:
 141 0042 0120     		movs	r0, #1
 142              	.LVL15:
 143 0044 00E0     		b	.L6
ARM GAS  C:\Users\bryan.lee\AppData\Local\Temp\ccORQ7ao.s 			page 6


 144              	.LVL16:
 145              	.L11:
 141:Generated_Source\PSoC4/BLE_1_bas.c ****         {
 142:Generated_Source\PSoC4/BLE_1_bas.c ****             apiResult = CYBLE_ERROR_INVALID_PARAMETER;
 146              		.loc 1 142 0
 147 0046 0120     		movs	r0, #1
 148              	.L6:
 149              	.LVL17:
 143:Generated_Source\PSoC4/BLE_1_bas.c ****         }
 144:Generated_Source\PSoC4/BLE_1_bas.c ****     }
 145:Generated_Source\PSoC4/BLE_1_bas.c ****     return (apiResult);
 146:Generated_Source\PSoC4/BLE_1_bas.c **** }
 150              		.loc 1 146 0
 151 0048 05B0     		add	sp, sp, #20
 152              		@ sp needed
 153 004a 00BD     		pop	{pc}
 154              	.L13:
 155              		.align	2
 156              	.L12:
 157 004c 00000000 		.word	.LANCHOR1
 158              		.cfi_endproc
 159              	.LFE4:
 160              		.size	CyBle_BassSetCharacteristicValue, .-CyBle_BassSetCharacteristicValue
 161              		.section	.text.CyBle_BassGetCharacteristicValue,"ax",%progbits
 162              		.align	2
 163              		.global	CyBle_BassGetCharacteristicValue
 164              		.code	16
 165              		.thumb_func
 166              		.type	CyBle_BassGetCharacteristicValue, %function
 167              	CyBle_BassGetCharacteristicValue:
 168              	.LFB5:
 147:Generated_Source\PSoC4/BLE_1_bas.c **** 
 148:Generated_Source\PSoC4/BLE_1_bas.c **** 
 149:Generated_Source\PSoC4/BLE_1_bas.c **** /******************************************************************************
 150:Generated_Source\PSoC4/BLE_1_bas.c **** * Function Name: CyBle_BassGetCharacteristicValue
 151:Generated_Source\PSoC4/BLE_1_bas.c **** ***************************************************************************//**
 152:Generated_Source\PSoC4/BLE_1_bas.c **** * 
 153:Generated_Source\PSoC4/BLE_1_bas.c **** *  Gets a characteristic value of the Battery service, which is identified by 
 154:Generated_Source\PSoC4/BLE_1_bas.c **** *  charIndex.
 155:Generated_Source\PSoC4/BLE_1_bas.c **** * 
 156:Generated_Source\PSoC4/BLE_1_bas.c **** *  \param serviceIndex: The index of the service instance. e.g. If two Battery 
 157:Generated_Source\PSoC4/BLE_1_bas.c **** *                       Services are supported in your design, then first 
 158:Generated_Source\PSoC4/BLE_1_bas.c **** *                       service will be identified by serviceIndex of 0 and the
 159:Generated_Source\PSoC4/BLE_1_bas.c **** *                       second by serviceIndex of 1.
 160:Generated_Source\PSoC4/BLE_1_bas.c **** *  \param charIndex:    The index of a service characteristic of type 
 161:Generated_Source\PSoC4/BLE_1_bas.c **** *                       CYBLE_BAS_CHAR_INDEX_T.
 162:Generated_Source\PSoC4/BLE_1_bas.c **** *  \param attrSize:     The size of the characteristic value attribute. A 
 163:Generated_Source\PSoC4/BLE_1_bas.c **** *                       battery level characteristic has a 1 byte length.
 164:Generated_Source\PSoC4/BLE_1_bas.c **** *  \param attrValue:    The pointer to the location where characteristic value 
 165:Generated_Source\PSoC4/BLE_1_bas.c **** *                       data should be stored.
 166:Generated_Source\PSoC4/BLE_1_bas.c **** * 
 167:Generated_Source\PSoC4/BLE_1_bas.c **** * \return
 168:Generated_Source\PSoC4/BLE_1_bas.c **** *  Return value is of type CYBLE_API_RESULT_T.
 169:Generated_Source\PSoC4/BLE_1_bas.c **** *  * CYBLE_ERROR_OK - The request handled successfully.
 170:Generated_Source\PSoC4/BLE_1_bas.c **** *  * CYBLE_ERROR_INVALID_PARAMETER - Validation of the input parameter failed.
 171:Generated_Source\PSoC4/BLE_1_bas.c **** *
 172:Generated_Source\PSoC4/BLE_1_bas.c **** ******************************************************************************/
ARM GAS  C:\Users\bryan.lee\AppData\Local\Temp\ccORQ7ao.s 			page 7


 173:Generated_Source\PSoC4/BLE_1_bas.c **** CYBLE_API_RESULT_T CyBle_BassGetCharacteristicValue(uint8 serviceIndex, CYBLE_BAS_CHAR_INDEX_T char
 174:Generated_Source\PSoC4/BLE_1_bas.c ****     uint8 attrSize, uint8 *attrValue)
 175:Generated_Source\PSoC4/BLE_1_bas.c **** {
 169              		.loc 1 175 0
 170              		.cfi_startproc
 171              		@ args = 0, pretend = 0, frame = 16
 172              		@ frame_needed = 0, uses_anonymous_args = 0
 173              	.LVL18:
 174 0000 00B5     		push	{lr}
 175              		.cfi_def_cfa_offset 4
 176              		.cfi_offset 14, -4
 177 0002 85B0     		sub	sp, sp, #20
 178              		.cfi_def_cfa_offset 24
 179              	.LVL19:
 176:Generated_Source\PSoC4/BLE_1_bas.c ****     CYBLE_API_RESULT_T apiResult = CYBLE_ERROR_OK;
 177:Generated_Source\PSoC4/BLE_1_bas.c ****     CYBLE_GATT_HANDLE_VALUE_PAIR_T locHandleValuePair;
 178:Generated_Source\PSoC4/BLE_1_bas.c **** 
 179:Generated_Source\PSoC4/BLE_1_bas.c ****     if((serviceIndex >= CYBLE_BASS_SERVICE_COUNT) || (charIndex >= CYBLE_BAS_CHAR_COUNT) ||
 180              		.loc 1 179 0
 181 0004 0028     		cmp	r0, #0
 182 0006 12D1     		bne	.L16
 183              		.loc 1 179 0 is_stmt 0 discriminator 1
 184 0008 0029     		cmp	r1, #0
 185 000a 12D1     		bne	.L17
 186              		.loc 1 179 0 discriminator 2
 187 000c 012A     		cmp	r2, #1
 188 000e 12D1     		bne	.L18
 180:Generated_Source\PSoC4/BLE_1_bas.c ****        (attrSize != CYBLE_BAS_BATTERY_LEVEL_LEN) )
 181:Generated_Source\PSoC4/BLE_1_bas.c ****     {
 182:Generated_Source\PSoC4/BLE_1_bas.c ****         apiResult = CYBLE_ERROR_INVALID_PARAMETER;
 183:Generated_Source\PSoC4/BLE_1_bas.c ****     }
 184:Generated_Source\PSoC4/BLE_1_bas.c ****     else
 185:Generated_Source\PSoC4/BLE_1_bas.c ****     {
 186:Generated_Source\PSoC4/BLE_1_bas.c ****         /* Read characteristic value from database */
 187:Generated_Source\PSoC4/BLE_1_bas.c ****         locHandleValuePair.attrHandle = cyBle_bass[serviceIndex].batteryLevelHandle;
 189              		.loc 1 187 0 is_stmt 1
 190 0010 C000     		lsls	r0, r0, #3
 191              	.LVL20:
 192 0012 0B49     		ldr	r1, .L20
 193              	.LVL21:
 194 0014 0818     		adds	r0, r1, r0
 195 0016 4188     		ldrh	r1, [r0, #2]
 196 0018 01A8     		add	r0, sp, #4
 197 001a 0181     		strh	r1, [r0, #8]
 188:Generated_Source\PSoC4/BLE_1_bas.c ****         locHandleValuePair.value.len = attrSize;
 198              		.loc 1 188 0
 199 001c 8280     		strh	r2, [r0, #4]
 189:Generated_Source\PSoC4/BLE_1_bas.c ****         locHandleValuePair.value.val = attrValue;
 200              		.loc 1 189 0
 201 001e 0193     		str	r3, [sp, #4]
 190:Generated_Source\PSoC4/BLE_1_bas.c ****         if(CYBLE_GATT_ERR_NONE !=
 191:Generated_Source\PSoC4/BLE_1_bas.c ****             CyBle_GattsReadAttributeValue(&locHandleValuePair, NULL, CYBLE_GATT_DB_LOCALLY_INITIATE
 202              		.loc 1 191 0
 203 0020 0022     		movs	r2, #0
 204              	.LVL22:
 205 0022 0021     		movs	r1, #0
 206 0024 FFF7FEFF 		bl	CyBle_GattsReadAttributeValue
ARM GAS  C:\Users\bryan.lee\AppData\Local\Temp\ccORQ7ao.s 			page 8


 207              	.LVL23:
 190:Generated_Source\PSoC4/BLE_1_bas.c ****         if(CYBLE_GATT_ERR_NONE !=
 208              		.loc 1 190 0
 209 0028 0028     		cmp	r0, #0
 210 002a 06D1     		bne	.L19
 211 002c 06E0     		b	.L15
 212              	.LVL24:
 213              	.L16:
 182:Generated_Source\PSoC4/BLE_1_bas.c ****     }
 214              		.loc 1 182 0
 215 002e 0120     		movs	r0, #1
 216              	.LVL25:
 217 0030 04E0     		b	.L15
 218              	.LVL26:
 219              	.L17:
 220 0032 0120     		movs	r0, #1
 221              	.LVL27:
 222 0034 02E0     		b	.L15
 223              	.LVL28:
 224              	.L18:
 225 0036 0120     		movs	r0, #1
 226              	.LVL29:
 227 0038 00E0     		b	.L15
 228              	.LVL30:
 229              	.L19:
 192:Generated_Source\PSoC4/BLE_1_bas.c ****         {
 193:Generated_Source\PSoC4/BLE_1_bas.c ****             apiResult = CYBLE_ERROR_INVALID_PARAMETER;
 230              		.loc 1 193 0
 231 003a 0120     		movs	r0, #1
 232              	.L15:
 233              	.LVL31:
 194:Generated_Source\PSoC4/BLE_1_bas.c ****         }
 195:Generated_Source\PSoC4/BLE_1_bas.c ****     }
 196:Generated_Source\PSoC4/BLE_1_bas.c ****     return (apiResult);
 197:Generated_Source\PSoC4/BLE_1_bas.c **** }
 234              		.loc 1 197 0
 235 003c 05B0     		add	sp, sp, #20
 236              		@ sp needed
 237 003e 00BD     		pop	{pc}
 238              	.L21:
 239              		.align	2
 240              	.L20:
 241 0040 00000000 		.word	.LANCHOR1
 242              		.cfi_endproc
 243              	.LFE5:
 244              		.size	CyBle_BassGetCharacteristicValue, .-CyBle_BassGetCharacteristicValue
 245              		.section	.text.CyBle_BassGetCharacteristicDescriptor,"ax",%progbits
 246              		.align	2
 247              		.global	CyBle_BassGetCharacteristicDescriptor
 248              		.code	16
 249              		.thumb_func
 250              		.type	CyBle_BassGetCharacteristicDescriptor, %function
 251              	CyBle_BassGetCharacteristicDescriptor:
 252              	.LFB6:
 198:Generated_Source\PSoC4/BLE_1_bas.c **** 
 199:Generated_Source\PSoC4/BLE_1_bas.c **** 
 200:Generated_Source\PSoC4/BLE_1_bas.c **** /******************************************************************************
ARM GAS  C:\Users\bryan.lee\AppData\Local\Temp\ccORQ7ao.s 			page 9


 201:Generated_Source\PSoC4/BLE_1_bas.c **** * Function Name: CyBle_BassGetCharacteristicDescriptor
 202:Generated_Source\PSoC4/BLE_1_bas.c **** ***************************************************************************//**
 203:Generated_Source\PSoC4/BLE_1_bas.c **** * 
 204:Generated_Source\PSoC4/BLE_1_bas.c **** *  Gets a characteristic descriptor of a specified characteristic of the 
 205:Generated_Source\PSoC4/BLE_1_bas.c **** *   Battery service from the local GATT database.
 206:Generated_Source\PSoC4/BLE_1_bas.c **** * 
 207:Generated_Source\PSoC4/BLE_1_bas.c **** *  \param serviceIndex: The index of the service instance. e.g. If two Battery 
 208:Generated_Source\PSoC4/BLE_1_bas.c **** *                       Services are supported in your design, then first 
 209:Generated_Source\PSoC4/BLE_1_bas.c **** *                       service will be identified by serviceIndex of 0 and the
 210:Generated_Source\PSoC4/BLE_1_bas.c **** *                       second by serviceIndex of 1.
 211:Generated_Source\PSoC4/BLE_1_bas.c **** *  \param charIndex:    The index of a service characteristic of type 
 212:Generated_Source\PSoC4/BLE_1_bas.c **** *                       CYBLE_BAS_CHAR_INDEX_T.
 213:Generated_Source\PSoC4/BLE_1_bas.c **** *  \param descrIndex:   The index of a service characteristic descriptor of
 214:Generated_Source\PSoC4/BLE_1_bas.c **** *                       type CYBLE_BAS_DESCR_INDEX_T.
 215:Generated_Source\PSoC4/BLE_1_bas.c **** *  \param attrSize:     The size of the characteristic descriptor attribute.
 216:Generated_Source\PSoC4/BLE_1_bas.c **** *  \param attrValue:    The pointer to the location where characteristic  
 217:Generated_Source\PSoC4/BLE_1_bas.c **** *                       descriptor value data should be stored.
 218:Generated_Source\PSoC4/BLE_1_bas.c **** * 
 219:Generated_Source\PSoC4/BLE_1_bas.c **** * \return
 220:Generated_Source\PSoC4/BLE_1_bas.c **** *  Return value is of type CYBLE_API_RESULT_T.
 221:Generated_Source\PSoC4/BLE_1_bas.c **** *  * CYBLE_ERROR_OK - The request handled successfully.
 222:Generated_Source\PSoC4/BLE_1_bas.c **** *  * CYBLE_ERROR_INVALID_PARAMETER - Validation of the input parameter failed.
 223:Generated_Source\PSoC4/BLE_1_bas.c **** *
 224:Generated_Source\PSoC4/BLE_1_bas.c **** ******************************************************************************/
 225:Generated_Source\PSoC4/BLE_1_bas.c **** CYBLE_API_RESULT_T CyBle_BassGetCharacteristicDescriptor(uint8 serviceIndex, CYBLE_BAS_CHAR_INDEX_T
 226:Generated_Source\PSoC4/BLE_1_bas.c ****     CYBLE_BAS_DESCR_INDEX_T descrIndex, uint8 attrSize, uint8 *attrValue)
 227:Generated_Source\PSoC4/BLE_1_bas.c **** {
 253              		.loc 1 227 0
 254              		.cfi_startproc
 255              		@ args = 4, pretend = 0, frame = 16
 256              		@ frame_needed = 0, uses_anonymous_args = 0
 257              	.LVL32:
 258 0000 00B5     		push	{lr}
 259              		.cfi_def_cfa_offset 4
 260              		.cfi_offset 14, -4
 261 0002 85B0     		sub	sp, sp, #20
 262              		.cfi_def_cfa_offset 24
 263              	.LVL33:
 228:Generated_Source\PSoC4/BLE_1_bas.c ****     CYBLE_API_RESULT_T apiResult = CYBLE_ERROR_OK;
 229:Generated_Source\PSoC4/BLE_1_bas.c ****     CYBLE_GATT_HANDLE_VALUE_PAIR_T locHandleValuePair;
 230:Generated_Source\PSoC4/BLE_1_bas.c **** 
 231:Generated_Source\PSoC4/BLE_1_bas.c ****     if((serviceIndex >= CYBLE_BASS_SERVICE_COUNT) || (charIndex >= CYBLE_BAS_CHAR_COUNT) ||
 264              		.loc 1 231 0
 265 0004 0028     		cmp	r0, #0
 266 0006 1AD1     		bne	.L26
 267              		.loc 1 231 0 is_stmt 0 discriminator 1
 268 0008 0029     		cmp	r1, #0
 269 000a 1AD1     		bne	.L27
 270              		.loc 1 231 0 discriminator 2
 271 000c 012A     		cmp	r2, #1
 272 000e 1AD8     		bhi	.L28
 232:Generated_Source\PSoC4/BLE_1_bas.c ****        (descrIndex >= CYBLE_BAS_DESCR_COUNT))
 233:Generated_Source\PSoC4/BLE_1_bas.c ****     {
 234:Generated_Source\PSoC4/BLE_1_bas.c ****         apiResult = CYBLE_ERROR_INVALID_PARAMETER;
 235:Generated_Source\PSoC4/BLE_1_bas.c ****     }
 236:Generated_Source\PSoC4/BLE_1_bas.c ****     else
 237:Generated_Source\PSoC4/BLE_1_bas.c ****     {
ARM GAS  C:\Users\bryan.lee\AppData\Local\Temp\ccORQ7ao.s 			page 10


 238:Generated_Source\PSoC4/BLE_1_bas.c ****         /* Get data from database */
 239:Generated_Source\PSoC4/BLE_1_bas.c ****         if(descrIndex == CYBLE_BAS_BATTERY_LEVEL_CCCD)
 273              		.loc 1 239 0 is_stmt 1
 274 0010 002A     		cmp	r2, #0
 275 0012 03D1     		bne	.L24
 240:Generated_Source\PSoC4/BLE_1_bas.c ****         {
 241:Generated_Source\PSoC4/BLE_1_bas.c ****             locHandleValuePair.attrHandle = cyBle_bass[serviceIndex].cccdHandle;
 276              		.loc 1 241 0
 277 0014 1731     		adds	r1, r1, #23
 278              	.LVL34:
 279 0016 01AA     		add	r2, sp, #4
 280              	.LVL35:
 281 0018 1181     		strh	r1, [r2, #8]
 282 001a 05E0     		b	.L25
 283              	.LVL36:
 284              	.L24:
 242:Generated_Source\PSoC4/BLE_1_bas.c ****         }
 243:Generated_Source\PSoC4/BLE_1_bas.c ****         else
 244:Generated_Source\PSoC4/BLE_1_bas.c ****         {
 245:Generated_Source\PSoC4/BLE_1_bas.c ****             locHandleValuePair.attrHandle = cyBle_bass[serviceIndex].cpfdHandle;
 285              		.loc 1 245 0
 286 001c C000     		lsls	r0, r0, #3
 287              	.LVL37:
 288 001e 0C4A     		ldr	r2, .L30
 289              	.LVL38:
 290 0020 1018     		adds	r0, r2, r0
 291 0022 8188     		ldrh	r1, [r0, #4]
 292              	.LVL39:
 293 0024 01AA     		add	r2, sp, #4
 294 0026 1181     		strh	r1, [r2, #8]
 295              	.L25:
 246:Generated_Source\PSoC4/BLE_1_bas.c ****         }
 247:Generated_Source\PSoC4/BLE_1_bas.c ****         locHandleValuePair.value.len = attrSize;
 296              		.loc 1 247 0
 297 0028 01A8     		add	r0, sp, #4
 298 002a 8380     		strh	r3, [r0, #4]
 248:Generated_Source\PSoC4/BLE_1_bas.c ****         locHandleValuePair.value.val = attrValue;
 299              		.loc 1 248 0
 300 002c 069B     		ldr	r3, [sp, #24]
 301              	.LVL40:
 302 002e 0193     		str	r3, [sp, #4]
 249:Generated_Source\PSoC4/BLE_1_bas.c ****         if(CYBLE_GATT_ERR_NONE !=
 250:Generated_Source\PSoC4/BLE_1_bas.c ****             CyBle_GattsReadAttributeValue(&locHandleValuePair, NULL, CYBLE_GATT_DB_LOCALLY_INITIATE
 303              		.loc 1 250 0
 304 0030 0022     		movs	r2, #0
 305 0032 0021     		movs	r1, #0
 306 0034 FFF7FEFF 		bl	CyBle_GattsReadAttributeValue
 307              	.LVL41:
 249:Generated_Source\PSoC4/BLE_1_bas.c ****         if(CYBLE_GATT_ERR_NONE !=
 308              		.loc 1 249 0
 309 0038 0028     		cmp	r0, #0
 310 003a 06D1     		bne	.L29
 311 003c 06E0     		b	.L23
 312              	.LVL42:
 313              	.L26:
 234:Generated_Source\PSoC4/BLE_1_bas.c ****     }
 314              		.loc 1 234 0
ARM GAS  C:\Users\bryan.lee\AppData\Local\Temp\ccORQ7ao.s 			page 11


 315 003e 0120     		movs	r0, #1
 316              	.LVL43:
 317 0040 04E0     		b	.L23
 318              	.LVL44:
 319              	.L27:
 320 0042 0120     		movs	r0, #1
 321              	.LVL45:
 322 0044 02E0     		b	.L23
 323              	.LVL46:
 324              	.L28:
 325 0046 0120     		movs	r0, #1
 326              	.LVL47:
 327 0048 00E0     		b	.L23
 328              	.LVL48:
 329              	.L29:
 251:Generated_Source\PSoC4/BLE_1_bas.c ****         {
 252:Generated_Source\PSoC4/BLE_1_bas.c ****             apiResult = CYBLE_ERROR_INVALID_PARAMETER;
 330              		.loc 1 252 0
 331 004a 0120     		movs	r0, #1
 332              	.L23:
 333              	.LVL49:
 253:Generated_Source\PSoC4/BLE_1_bas.c ****         }
 254:Generated_Source\PSoC4/BLE_1_bas.c ****     }
 255:Generated_Source\PSoC4/BLE_1_bas.c ****     return (apiResult);
 256:Generated_Source\PSoC4/BLE_1_bas.c **** }
 334              		.loc 1 256 0
 335 004c 05B0     		add	sp, sp, #20
 336              		@ sp needed
 337 004e 00BD     		pop	{pc}
 338              	.L31:
 339              		.align	2
 340              	.L30:
 341 0050 00000000 		.word	.LANCHOR1
 342              		.cfi_endproc
 343              	.LFE6:
 344              		.size	CyBle_BassGetCharacteristicDescriptor, .-CyBle_BassGetCharacteristicDescriptor
 345              		.section	.text.CyBle_BassWriteEventHandler,"ax",%progbits
 346              		.align	2
 347              		.global	CyBle_BassWriteEventHandler
 348              		.code	16
 349              		.thumb_func
 350              		.type	CyBle_BassWriteEventHandler, %function
 351              	CyBle_BassWriteEventHandler:
 352              	.LFB7:
 257:Generated_Source\PSoC4/BLE_1_bas.c **** 
 258:Generated_Source\PSoC4/BLE_1_bas.c **** 
 259:Generated_Source\PSoC4/BLE_1_bas.c **** /******************************************************************************
 260:Generated_Source\PSoC4/BLE_1_bas.c **** * Function Name: CyBle_BassWriteEventHandler
 261:Generated_Source\PSoC4/BLE_1_bas.c **** ***************************************************************************//**
 262:Generated_Source\PSoC4/BLE_1_bas.c **** * 
 263:Generated_Source\PSoC4/BLE_1_bas.c **** *  Handles the Write Request Event for Battery service.
 264:Generated_Source\PSoC4/BLE_1_bas.c **** * 
 265:Generated_Source\PSoC4/BLE_1_bas.c **** *  \param void *eventParam: The pointer to the data structure specified by the
 266:Generated_Source\PSoC4/BLE_1_bas.c **** *                           event.
 267:Generated_Source\PSoC4/BLE_1_bas.c **** * 
 268:Generated_Source\PSoC4/BLE_1_bas.c **** * \return
 269:Generated_Source\PSoC4/BLE_1_bas.c **** *  Return value is of type CYBLE_GATT_ERR_CODE_T.
ARM GAS  C:\Users\bryan.lee\AppData\Local\Temp\ccORQ7ao.s 			page 12


 270:Generated_Source\PSoC4/BLE_1_bas.c **** *   * CYBLE_GATT_ERR_NONE - Write request is handled successfully.
 271:Generated_Source\PSoC4/BLE_1_bas.c **** *   * CYBLE_GATT_ERR_REQUEST_NOT_SUPPORTED - Notification isn't supported.
 272:Generated_Source\PSoC4/BLE_1_bas.c **** *   * CYBLE_GATT_ERR_UNLIKELY_ERROR - Internal error while writing attribute
 273:Generated_Source\PSoC4/BLE_1_bas.c **** *                                     value.
 274:Generated_Source\PSoC4/BLE_1_bas.c **** * 
 275:Generated_Source\PSoC4/BLE_1_bas.c **** ******************************************************************************/
 276:Generated_Source\PSoC4/BLE_1_bas.c **** CYBLE_GATT_ERR_CODE_T CyBle_BassWriteEventHandler(CYBLE_GATTS_WRITE_REQ_PARAM_T *eventParam)
 277:Generated_Source\PSoC4/BLE_1_bas.c **** {
 353              		.loc 1 277 0
 354              		.cfi_startproc
 355              		@ args = 0, pretend = 0, frame = 8
 356              		@ frame_needed = 0, uses_anonymous_args = 0
 357              	.LVL50:
 358 0000 30B5     		push	{r4, r5, lr}
 359              		.cfi_def_cfa_offset 12
 360              		.cfi_offset 4, -12
 361              		.cfi_offset 5, -8
 362              		.cfi_offset 14, -4
 363 0002 83B0     		sub	sp, sp, #12
 364              		.cfi_def_cfa_offset 24
 365 0004 0500     		movs	r5, r0
 366              	.LVL51:
 278:Generated_Source\PSoC4/BLE_1_bas.c ****     uint8 locServIndex = 0u;
 279:Generated_Source\PSoC4/BLE_1_bas.c ****     CYBLE_BAS_CHAR_VALUE_T locCharIndex;
 280:Generated_Source\PSoC4/BLE_1_bas.c ****     CYBLE_GATT_ERR_CODE_T gattErr = CYBLE_GATT_ERR_NONE;
 281:Generated_Source\PSoC4/BLE_1_bas.c **** 
 282:Generated_Source\PSoC4/BLE_1_bas.c ****     if(NULL != CyBle_BasApplCallback)
 367              		.loc 1 282 0
 368 0006 224B     		ldr	r3, .L40
 369 0008 1B68     		ldr	r3, [r3]
 370 000a 002B     		cmp	r3, #0
 371 000c 3AD0     		beq	.L37
 283:Generated_Source\PSoC4/BLE_1_bas.c ****     {
 284:Generated_Source\PSoC4/BLE_1_bas.c ****         do
 285:Generated_Source\PSoC4/BLE_1_bas.c ****         {
 286:Generated_Source\PSoC4/BLE_1_bas.c ****             /* Client Characteristic Configuration descriptor write request */
 287:Generated_Source\PSoC4/BLE_1_bas.c ****             if(eventParam->handleValPair.attrHandle == cyBle_bass[locServIndex].cccdHandle)
 372              		.loc 1 287 0
 373 000e 8389     		ldrh	r3, [r0, #12]
 374 0010 172B     		cmp	r3, #23
 375 0012 39D1     		bne	.L38
 288:Generated_Source\PSoC4/BLE_1_bas.c ****             {
 289:Generated_Source\PSoC4/BLE_1_bas.c ****                 /* Verify that optional notification property is enabled for Battery Level characte
 290:Generated_Source\PSoC4/BLE_1_bas.c ****                 if(CYBLE_IS_NOTIFICATION_SUPPORTED(cyBle_bass[locServIndex].batteryLevelHandle))
 376              		.loc 1 290 0
 377 0014 7E33     		adds	r3, r3, #126
 378 0016 FF33     		adds	r3, r3, #255
 379 0018 1E4A     		ldr	r2, .L40+4
 380 001a D358     		ldr	r3, [r2, r3]
 381 001c DB02     		lsls	r3, r3, #11
 382 001e 2AD5     		bpl	.L39
 291:Generated_Source\PSoC4/BLE_1_bas.c ****                 {
 292:Generated_Source\PSoC4/BLE_1_bas.c ****                     gattErr = CyBle_GattsWriteAttributeValue(&eventParam->handleValPair, 0u, 
 383              		.loc 1 292 0
 384 0020 0430     		adds	r0, r0, #4
 385              	.LVL52:
 386 0022 4023     		movs	r3, #64
ARM GAS  C:\Users\bryan.lee\AppData\Local\Temp\ccORQ7ao.s 			page 13


 387 0024 2A00     		movs	r2, r5
 388 0026 0021     		movs	r1, #0
 389 0028 FFF7FEFF 		bl	CyBle_GattsWriteAttributeValue
 390              	.LVL53:
 391 002c 041E     		subs	r4, r0, #0
 392              	.LVL54:
 293:Generated_Source\PSoC4/BLE_1_bas.c ****                         &eventParam->connHandle, CYBLE_GATT_DB_PEER_INITIATED);
 294:Generated_Source\PSoC4/BLE_1_bas.c ****                     if(gattErr == CYBLE_GATT_ERR_NONE)
 393              		.loc 1 294 0
 394 002e 23D1     		bne	.L34
 295:Generated_Source\PSoC4/BLE_1_bas.c ****                     {
 296:Generated_Source\PSoC4/BLE_1_bas.c ****                         locCharIndex.connHandle = eventParam->connHandle;
 395              		.loc 1 296 0
 396 0030 2B88     		ldrh	r3, [r5]
 397 0032 6A46     		mov	r2, sp
 398 0034 1380     		strh	r3, [r2]
 297:Generated_Source\PSoC4/BLE_1_bas.c ****                         locCharIndex.serviceIndex = locServIndex;
 399              		.loc 1 297 0
 400 0036 0023     		movs	r3, #0
 401 0038 9370     		strb	r3, [r2, #2]
 298:Generated_Source\PSoC4/BLE_1_bas.c ****                         locCharIndex.charIndex = CYBLE_BAS_BATTERY_LEVEL;
 402              		.loc 1 298 0
 403 003a D370     		strb	r3, [r2, #3]
 299:Generated_Source\PSoC4/BLE_1_bas.c ****                         locCharIndex.value = NULL;
 404              		.loc 1 299 0
 405 003c 0193     		str	r3, [sp, #4]
 300:Generated_Source\PSoC4/BLE_1_bas.c ****                         
 301:Generated_Source\PSoC4/BLE_1_bas.c ****                         if(CYBLE_IS_NOTIFICATION_ENABLED_IN_PTR(eventParam->handleValPair.value.val
 406              		.loc 1 301 0
 407 003e 6868     		ldr	r0, [r5, #4]
 408              	.LVL55:
 409 0040 FFF7FEFF 		bl	CyBle_Get16ByPtr
 410              	.LVL56:
 411 0044 C307     		lsls	r3, r0, #31
 412 0046 06D5     		bpl	.L35
 302:Generated_Source\PSoC4/BLE_1_bas.c ****                         {
 303:Generated_Source\PSoC4/BLE_1_bas.c ****                             CyBle_BasApplCallback((uint32)CYBLE_EVT_BASS_NOTIFICATION_ENABLED, &loc
 413              		.loc 1 303 0
 414 0048 114B     		ldr	r3, .L40
 415 004a 1B68     		ldr	r3, [r3]
 416 004c 6946     		mov	r1, sp
 417 004e 3220     		movs	r0, #50
 418 0050 FF30     		adds	r0, r0, #255
 419 0052 9847     		blx	r3
 420              	.LVL57:
 421 0054 05E0     		b	.L36
 422              	.L35:
 304:Generated_Source\PSoC4/BLE_1_bas.c ****                         }
 305:Generated_Source\PSoC4/BLE_1_bas.c ****                         else
 306:Generated_Source\PSoC4/BLE_1_bas.c ****                         {
 307:Generated_Source\PSoC4/BLE_1_bas.c ****                             CyBle_BasApplCallback((uint32)CYBLE_EVT_BASS_NOTIFICATION_DISABLED, &lo
 423              		.loc 1 307 0
 424 0056 0E4B     		ldr	r3, .L40
 425 0058 1B68     		ldr	r3, [r3]
 426 005a 6946     		mov	r1, sp
 427 005c 9920     		movs	r0, #153
 428 005e 4000     		lsls	r0, r0, #1
ARM GAS  C:\Users\bryan.lee\AppData\Local\Temp\ccORQ7ao.s 			page 14


 429 0060 9847     		blx	r3
 430              	.LVL58:
 431              	.L36:
 308:Generated_Source\PSoC4/BLE_1_bas.c ****                         }
 309:Generated_Source\PSoC4/BLE_1_bas.c ****                     #if((CYBLE_GAP_ROLE_PERIPHERAL || CYBLE_GAP_ROLE_CENTRAL) && \
 310:Generated_Source\PSoC4/BLE_1_bas.c ****                         (CYBLE_BONDING_REQUIREMENT == CYBLE_BONDING_YES))
 311:Generated_Source\PSoC4/BLE_1_bas.c ****                         /* Set flag to store bonding data to flash */
 312:Generated_Source\PSoC4/BLE_1_bas.c ****                         if(cyBle_peerBonding == CYBLE_GAP_BONDING)
 432              		.loc 1 312 0
 433 0062 0D4B     		ldr	r3, .L40+8
 434 0064 1B78     		ldrb	r3, [r3]
 435 0066 012B     		cmp	r3, #1
 436 0068 06D1     		bne	.L34
 313:Generated_Source\PSoC4/BLE_1_bas.c ****                         {
 314:Generated_Source\PSoC4/BLE_1_bas.c ****                             cyBle_pendingFlashWrite |= CYBLE_PENDING_CCCD_FLASH_WRITE_BIT;
 437              		.loc 1 314 0
 438 006a 0C4A     		ldr	r2, .L40+12
 439 006c 1178     		ldrb	r1, [r2]
 440 006e 0223     		movs	r3, #2
 441 0070 0B43     		orrs	r3, r1
 442 0072 1370     		strb	r3, [r2]
 443 0074 00E0     		b	.L34
 444              	.LVL59:
 445              	.L39:
 315:Generated_Source\PSoC4/BLE_1_bas.c ****                         }
 316:Generated_Source\PSoC4/BLE_1_bas.c ****                     #endif /* (CYBLE_BONDING_REQUIREMENT == CYBLE_BONDING_YES) */
 317:Generated_Source\PSoC4/BLE_1_bas.c ****                     }
 318:Generated_Source\PSoC4/BLE_1_bas.c ****                 }
 319:Generated_Source\PSoC4/BLE_1_bas.c ****                 else
 320:Generated_Source\PSoC4/BLE_1_bas.c ****                 {
 321:Generated_Source\PSoC4/BLE_1_bas.c ****                     gattErr = CYBLE_GATT_ERR_REQUEST_NOT_SUPPORTED;
 446              		.loc 1 321 0
 447 0076 0624     		movs	r4, #6
 448              	.LVL60:
 449              	.L34:
 322:Generated_Source\PSoC4/BLE_1_bas.c ****                 }
 323:Generated_Source\PSoC4/BLE_1_bas.c ****                 cyBle_eventHandlerFlag &= (uint8)~CYBLE_CALLBACK;
 450              		.loc 1 323 0
 451 0078 094A     		ldr	r2, .L40+16
 452 007a 1378     		ldrb	r3, [r2]
 453 007c 0121     		movs	r1, #1
 454 007e 8B43     		bics	r3, r1
 455 0080 1370     		strb	r3, [r2]
 324:Generated_Source\PSoC4/BLE_1_bas.c ****                 break;
 456              		.loc 1 324 0
 457 0082 02E0     		b	.L33
 458              	.LVL61:
 459              	.L37:
 280:Generated_Source\PSoC4/BLE_1_bas.c **** 
 460              		.loc 1 280 0
 461 0084 0024     		movs	r4, #0
 462 0086 00E0     		b	.L33
 463              	.L38:
 464 0088 0024     		movs	r4, #0
 465              	.LVL62:
 466              	.L33:
 325:Generated_Source\PSoC4/BLE_1_bas.c ****             }
ARM GAS  C:\Users\bryan.lee\AppData\Local\Temp\ccORQ7ao.s 			page 15


 326:Generated_Source\PSoC4/BLE_1_bas.c ****         locServIndex++;
 327:Generated_Source\PSoC4/BLE_1_bas.c ****         }while(locServIndex < CYBLE_BASS_SERVICE_COUNT);
 328:Generated_Source\PSoC4/BLE_1_bas.c ****     }
 329:Generated_Source\PSoC4/BLE_1_bas.c ****     return (gattErr);
 330:Generated_Source\PSoC4/BLE_1_bas.c **** }
 467              		.loc 1 330 0
 468 008a 2000     		movs	r0, r4
 469 008c 03B0     		add	sp, sp, #12
 470              		@ sp needed
 471              	.LVL63:
 472              	.LVL64:
 473 008e 30BD     		pop	{r4, r5, pc}
 474              	.L41:
 475              		.align	2
 476              	.L40:
 477 0090 00000000 		.word	.LANCHOR0
 478 0094 00000000 		.word	cyBle_gattDB
 479 0098 00000000 		.word	cyBle_peerBonding
 480 009c 00000000 		.word	cyBle_pendingFlashWrite
 481 00a0 00000000 		.word	cyBle_eventHandlerFlag
 482              		.cfi_endproc
 483              	.LFE7:
 484              		.size	CyBle_BassWriteEventHandler, .-CyBle_BassWriteEventHandler
 485              		.section	.text.CyBle_BassSendNotification,"ax",%progbits
 486              		.align	2
 487              		.global	CyBle_BassSendNotification
 488              		.code	16
 489              		.thumb_func
 490              		.type	CyBle_BassSendNotification, %function
 491              	CyBle_BassSendNotification:
 492              	.LFB8:
 331:Generated_Source\PSoC4/BLE_1_bas.c **** 
 332:Generated_Source\PSoC4/BLE_1_bas.c **** 
 333:Generated_Source\PSoC4/BLE_1_bas.c **** /******************************************************************************
 334:Generated_Source\PSoC4/BLE_1_bas.c **** * Function Name: CyBle_BassSendNotification
 335:Generated_Source\PSoC4/BLE_1_bas.c **** ***************************************************************************//**
 336:Generated_Source\PSoC4/BLE_1_bas.c **** * 
 337:Generated_Source\PSoC4/BLE_1_bas.c **** *  This function updates the value of the Battery Level characteristic in the 
 338:Generated_Source\PSoC4/BLE_1_bas.c **** *  GATT database. If the client has configured a notification on the Battery
 339:Generated_Source\PSoC4/BLE_1_bas.c **** *  Level characteristic, the function additionally sends this value using a 
 340:Generated_Source\PSoC4/BLE_1_bas.c **** *  GATT Notification message.
 341:Generated_Source\PSoC4/BLE_1_bas.c **** *
 342:Generated_Source\PSoC4/BLE_1_bas.c **** *  On enabling notification successfully for a service characteristic it sends 
 343:Generated_Source\PSoC4/BLE_1_bas.c **** *  out a 'Handle Value Notification' which results in 
 344:Generated_Source\PSoC4/BLE_1_bas.c **** *  CYBLE_EVT_BASC_NOTIFICATION event at the GATT Client's end.
 345:Generated_Source\PSoC4/BLE_1_bas.c **** * 
 346:Generated_Source\PSoC4/BLE_1_bas.c **** *  \param connHandle:   The BLE peer device connection handle
 347:Generated_Source\PSoC4/BLE_1_bas.c **** *  \param serviceIndex: The index of the service instance. e.g. If two Battery 
 348:Generated_Source\PSoC4/BLE_1_bas.c **** *                       Services are supported in your design, then first 
 349:Generated_Source\PSoC4/BLE_1_bas.c **** *                       service will be identified by serviceIndex of 0 and the
 350:Generated_Source\PSoC4/BLE_1_bas.c **** *                       second by serviceIndex of 1.
 351:Generated_Source\PSoC4/BLE_1_bas.c **** *  \param charIndex:    The index of a service characteristic of type 
 352:Generated_Source\PSoC4/BLE_1_bas.c **** *                       CYBLE_BAS_CHAR_INDEX_T.
 353:Generated_Source\PSoC4/BLE_1_bas.c **** *  \param attrSize:     The size of the characteristic value attribute. A 
 354:Generated_Source\PSoC4/BLE_1_bas.c **** *                       battery level characteristic has 1 byte length.
 355:Generated_Source\PSoC4/BLE_1_bas.c **** *  \param attrValue:    The pointer to the characteristic value data that 
 356:Generated_Source\PSoC4/BLE_1_bas.c **** *                       should be sent to the Client device.
ARM GAS  C:\Users\bryan.lee\AppData\Local\Temp\ccORQ7ao.s 			page 16


 357:Generated_Source\PSoC4/BLE_1_bas.c **** * 
 358:Generated_Source\PSoC4/BLE_1_bas.c **** * \return
 359:Generated_Source\PSoC4/BLE_1_bas.c **** *  Return value is of type CYBLE_API_RESULT_T.
 360:Generated_Source\PSoC4/BLE_1_bas.c **** *   * CYBLE_ERROR_OK - The request handled successfully
 361:Generated_Source\PSoC4/BLE_1_bas.c **** *   * CYBLE_ERROR_INVALID_PARAMETER - Validation of the input parameter failed
 362:Generated_Source\PSoC4/BLE_1_bas.c **** *   * CYBLE_ERROR_INVALID_OPERATION - This operation is not permitted
 363:Generated_Source\PSoC4/BLE_1_bas.c **** *   * CYBLE_ERROR_INVALID_STATE - Connection with the client is not established
 364:Generated_Source\PSoC4/BLE_1_bas.c **** *   * CYBLE_ERROR_MEMORY_ALLOCATION_FAILED - Memory allocation failed. 
 365:Generated_Source\PSoC4/BLE_1_bas.c **** *   * CYBLE_ERROR_NTF_DISABLED - Notification is not enabled by the client.
 366:Generated_Source\PSoC4/BLE_1_bas.c **** * 
 367:Generated_Source\PSoC4/BLE_1_bas.c **** ******************************************************************************/
 368:Generated_Source\PSoC4/BLE_1_bas.c **** CYBLE_API_RESULT_T CyBle_BassSendNotification(CYBLE_CONN_HANDLE_T connHandle,
 369:Generated_Source\PSoC4/BLE_1_bas.c ****     uint8 serviceIndex, CYBLE_BAS_CHAR_INDEX_T charIndex, uint8 attrSize, uint8 *attrValue)
 370:Generated_Source\PSoC4/BLE_1_bas.c **** {
 493              		.loc 1 370 0
 494              		.cfi_startproc
 495              		@ args = 4, pretend = 0, frame = 24
 496              		@ frame_needed = 0, uses_anonymous_args = 0
 497              	.LVL65:
 498 0000 30B5     		push	{r4, r5, lr}
 499              		.cfi_def_cfa_offset 12
 500              		.cfi_offset 4, -12
 501              		.cfi_offset 5, -8
 502              		.cfi_offset 14, -4
 503 0002 87B0     		sub	sp, sp, #28
 504              		.cfi_def_cfa_offset 40
 505 0004 01AC     		add	r4, sp, #4
 506 0006 2080     		strh	r0, [r4]
 507 0008 0C00     		movs	r4, r1
 508 000a 1100     		movs	r1, r2
 509              	.LVL66:
 510 000c 1D00     		movs	r5, r3
 371:Generated_Source\PSoC4/BLE_1_bas.c ****     CYBLE_API_RESULT_T apiResult;
 372:Generated_Source\PSoC4/BLE_1_bas.c **** 
 373:Generated_Source\PSoC4/BLE_1_bas.c ****     /* Store new data in database */
 374:Generated_Source\PSoC4/BLE_1_bas.c ****     apiResult = CyBle_BassSetCharacteristicValue(serviceIndex, charIndex, attrSize, attrValue);
 511              		.loc 1 374 0
 512 000e 0A9B     		ldr	r3, [sp, #40]
 513              	.LVL67:
 514 0010 2A00     		movs	r2, r5
 515              	.LVL68:
 516 0012 2000     		movs	r0, r4
 517 0014 FFF7FEFF 		bl	CyBle_BassSetCharacteristicValue
 518              	.LVL69:
 375:Generated_Source\PSoC4/BLE_1_bas.c ****     
 376:Generated_Source\PSoC4/BLE_1_bas.c ****     if(apiResult == CYBLE_ERROR_OK)  
 519              		.loc 1 376 0
 520 0018 0028     		cmp	r0, #0
 521 001a 1ED1     		bne	.L43
 377:Generated_Source\PSoC4/BLE_1_bas.c ****     {
 378:Generated_Source\PSoC4/BLE_1_bas.c ****         /* Send Notification if it is enabled and connected */
 379:Generated_Source\PSoC4/BLE_1_bas.c ****         if(CYBLE_STATE_CONNECTED != CyBle_GetState())
 522              		.loc 1 379 0
 523 001c 104B     		ldr	r3, .L46
 524 001e 1B78     		ldrb	r3, [r3]
 525 0020 022B     		cmp	r3, #2
 526 0022 15D1     		bne	.L44
ARM GAS  C:\Users\bryan.lee\AppData\Local\Temp\ccORQ7ao.s 			page 17


 380:Generated_Source\PSoC4/BLE_1_bas.c ****         {
 381:Generated_Source\PSoC4/BLE_1_bas.c ****             apiResult = CYBLE_ERROR_INVALID_STATE;
 382:Generated_Source\PSoC4/BLE_1_bas.c ****         }
 383:Generated_Source\PSoC4/BLE_1_bas.c ****         else if((cyBle_bass[serviceIndex].cccdHandle == CYBLE_GATT_INVALID_ATTR_HANDLE_VALUE)
 384:Generated_Source\PSoC4/BLE_1_bas.c ****             || (!CYBLE_IS_NOTIFICATION_ENABLED(cyBle_bass[serviceIndex].cccdHandle)))
 527              		.loc 1 384 0
 528 0024 C733     		adds	r3, r3, #199
 529 0026 FF33     		adds	r3, r3, #255
 530 0028 0E4A     		ldr	r2, .L46+4
 531 002a D358     		ldr	r3, [r2, r3]
 532 002c 5868     		ldr	r0, [r3, #4]
 533              	.LVL70:
 534 002e FFF7FEFF 		bl	CyBle_Get16ByPtr
 535              	.LVL71:
 536 0032 C307     		lsls	r3, r0, #31
 537 0034 0FD5     		bpl	.L45
 538              	.LBB2:
 385:Generated_Source\PSoC4/BLE_1_bas.c ****         {
 386:Generated_Source\PSoC4/BLE_1_bas.c ****             apiResult = CYBLE_ERROR_NTF_DISABLED;
 387:Generated_Source\PSoC4/BLE_1_bas.c ****         }
 388:Generated_Source\PSoC4/BLE_1_bas.c ****         else
 389:Generated_Source\PSoC4/BLE_1_bas.c ****         {
 390:Generated_Source\PSoC4/BLE_1_bas.c ****             CYBLE_GATTS_HANDLE_VALUE_NTF_T ntfReqParam;
 391:Generated_Source\PSoC4/BLE_1_bas.c ****             
 392:Generated_Source\PSoC4/BLE_1_bas.c ****             /* Fill all fields of write request structure ... */
 393:Generated_Source\PSoC4/BLE_1_bas.c ****             ntfReqParam.attrHandle = cyBle_bass[serviceIndex].batteryLevelHandle;
 539              		.loc 1 393 0
 540 0036 E400     		lsls	r4, r4, #3
 541 0038 0B4B     		ldr	r3, .L46+8
 542 003a 1C19     		adds	r4, r3, r4
 543 003c 6388     		ldrh	r3, [r4, #2]
 544 003e 03A9     		add	r1, sp, #12
 545 0040 0B81     		strh	r3, [r1, #8]
 394:Generated_Source\PSoC4/BLE_1_bas.c ****             ntfReqParam.value.val = attrValue;
 546              		.loc 1 394 0
 547 0042 0A9B     		ldr	r3, [sp, #40]
 548 0044 0393     		str	r3, [sp, #12]
 395:Generated_Source\PSoC4/BLE_1_bas.c ****             ntfReqParam.value.len = attrSize;
 549              		.loc 1 395 0
 550 0046 8D80     		strh	r5, [r1, #4]
 396:Generated_Source\PSoC4/BLE_1_bas.c ****             
 397:Generated_Source\PSoC4/BLE_1_bas.c ****             /* Send notification to client using previously filled structure */
 398:Generated_Source\PSoC4/BLE_1_bas.c ****             apiResult = CyBle_GattsNotification(connHandle, &ntfReqParam);
 551              		.loc 1 398 0
 552 0048 0198     		ldr	r0, [sp, #4]
 553 004a FFF7FEFF 		bl	CyBle_GattsNotification
 554              	.LVL72:
 555 004e 04E0     		b	.L43
 556              	.L44:
 557              	.LBE2:
 381:Generated_Source\PSoC4/BLE_1_bas.c ****         }
 558              		.loc 1 381 0
 559 0050 0420     		movs	r0, #4
 560              	.LVL73:
 561 0052 FF30     		adds	r0, r0, #255
 562 0054 01E0     		b	.L43
 563              	.L45:
ARM GAS  C:\Users\bryan.lee\AppData\Local\Temp\ccORQ7ao.s 			page 18


 386:Generated_Source\PSoC4/BLE_1_bas.c ****         }
 564              		.loc 1 386 0
 565 0056 8020     		movs	r0, #128
 566 0058 4000     		lsls	r0, r0, #1
 567              	.L43:
 568              	.LVL74:
 399:Generated_Source\PSoC4/BLE_1_bas.c ****         }
 400:Generated_Source\PSoC4/BLE_1_bas.c ****     }
 401:Generated_Source\PSoC4/BLE_1_bas.c ****     
 402:Generated_Source\PSoC4/BLE_1_bas.c ****     return (apiResult);
 403:Generated_Source\PSoC4/BLE_1_bas.c **** }
 569              		.loc 1 403 0
 570 005a 07B0     		add	sp, sp, #28
 571              		@ sp needed
 572 005c 30BD     		pop	{r4, r5, pc}
 573              	.L47:
 574 005e C046     		.align	2
 575              	.L46:
 576 0060 00000000 		.word	cyBle_state
 577 0064 00000000 		.word	cyBle_gattDB
 578 0068 00000000 		.word	.LANCHOR1
 579              		.cfi_endproc
 580              	.LFE8:
 581              		.size	CyBle_BassSendNotification, .-CyBle_BassSendNotification
 582              		.global	cyBle_bass
 583              		.section	.rodata
 584              		.align	2
 585              		.set	.LANCHOR1,. + 0
 586              		.type	cyBle_bass, %object
 587              		.size	cyBle_bass, 8
 588              	cyBle_bass:
 589 0000 1300     		.short	19
 590 0002 1500     		.short	21
 591 0004 1600     		.short	22
 592 0006 1700     		.short	23
 593              		.bss
 594              		.align	2
 595              		.set	.LANCHOR0,. + 0
 596              		.type	CyBle_BasApplCallback, %object
 597              		.size	CyBle_BasApplCallback, 4
 598              	CyBle_BasApplCallback:
 599 0000 00000000 		.space	4
 600              		.text
 601              	.Letext0:
 602              		.file 2 "Generated_Source\\PSoC4\\cytypes.h"
 603              		.file 3 "Generated_Source\\PSoC4\\BLE_1_Stack.h"
 604              		.file 4 "Generated_Source\\PSoC4\\BLE_1_StackGatt.h"
 605              		.file 5 "Generated_Source\\PSoC4\\BLE_1_StackGattServer.h"
 606              		.file 6 "Generated_Source\\PSoC4\\BLE_1_StackGattDb.h"
 607              		.file 7 "Generated_Source\\PSoC4\\BLE_1.h"
 608              		.file 8 "Generated_Source\\PSoC4\\BLE_1_bas.h"
 609              		.file 9 "Generated_Source\\PSoC4\\BLE_1_eventHandler.h"
 610              		.file 10 "Generated_Source\\PSoC4\\BLE_1_gatt.h"