ARM GAS  C:\Users\bryan.lee\AppData\Local\Temp\ccr09y8E.s 			page 1


   1              		.syntax unified
   2              		.cpu cortex-m3
   3              		.fpu softvfp
   4              		.eabi_attribute 20, 1
   5              		.eabi_attribute 21, 1
   6              		.eabi_attribute 23, 3
   7              		.eabi_attribute 24, 1
   8              		.eabi_attribute 25, 1
   9              		.eabi_attribute 26, 1
  10              		.eabi_attribute 30, 6
  11              		.eabi_attribute 34, 1
  12              		.eabi_attribute 18, 4
  13              		.thumb
  14              		.syntax unified
  15              		.file	"main.c"
  16              		.text
  17              	.Ltext0:
  18              		.cfi_sections	.debug_frame
  19              		.syntax unified
  20              		.global _printf_float
  21              		.thumb
  22              		.syntax unified
  23              		.global	parity
  24              		.section	.rodata
  25              		.align	2
  26              	.LC0:
  27 0000 4E6F6E65 		.ascii	"None\000"
  27      00
  28 0005 000000   		.align	2
  29              	.LC1:
  30 0008 4F646400 		.ascii	"Odd\000"
  31              		.align	2
  32              	.LC2:
  33 000c 4576656E 		.ascii	"Even\000"
  33      00
  34 0011 000000   		.align	2
  35              	.LC3:
  36 0014 4D61726B 		.ascii	"Mark\000"
  36      00
  37 0019 000000   		.align	2
  38              	.LC4:
  39 001c 53706163 		.ascii	"Space\000"
  39      6500
  40              		.data
  41              		.align	2
  42              		.type	parity, %object
  43              		.size	parity, 20
  44              	parity:
  45 0000 00000000 		.word	.LC0
  46 0004 08000000 		.word	.LC1
  47 0008 0C000000 		.word	.LC2
  48 000c 14000000 		.word	.LC3
  49 0010 1C000000 		.word	.LC4
  50              		.global	stop
  51              		.section	.rodata
  52 0022 0000     		.align	2
  53              	.LC5:
ARM GAS  C:\Users\bryan.lee\AppData\Local\Temp\ccr09y8E.s 			page 2


  54 0024 3100     		.ascii	"1\000"
  55 0026 0000     		.align	2
  56              	.LC6:
  57 0028 312E3500 		.ascii	"1.5\000"
  58              		.align	2
  59              	.LC7:
  60 002c 3200     		.ascii	"2\000"
  61              		.data
  62              		.align	2
  63              		.type	stop, %object
  64              		.size	stop, 12
  65              	stop:
  66 0014 24000000 		.word	.LC5
  67 0018 28000000 		.word	.LC6
  68 001c 2C000000 		.word	.LC7
  69              		.section	.rodata
  70 002e 0000     		.align	2
  71              	.LC8:
  72 0030 20202020 		.ascii	"    EQF1296 DUT!\000"
  72      45514631 
  72      32393620 
  72      44555421 
  72      00
  73 0041 000000   		.align	2
  74              	.LC9:
  75 0044 506C6561 		.ascii	"Please choose the channel (0-7) \012\015\000"
  75      73652063 
  75      686F6F73 
  75      65207468 
  75      65206368 
  76 0067 00       		.align	2
  77              	.LC10:
  78 0068 496E7075 		.ascii	"Input Error\000"
  78      74204572 
  78      726F7200 
  79              		.align	2
  80              	.LC11:
  81 0074 496E7075 		.ascii	"Input Error, (%d) \012\015\000"
  81      74204572 
  81      726F722C 
  81      20282564 
  81      29200A0D 
  82 0089 000000   		.align	2
  83              	.LC12:
  84 008c 54686520 		.ascii	"The ADC_0 channel(%d) is: 0x%4x \012\015\012\015\000"
  84      4144435F 
  84      30206368 
  84      616E6E65 
  84      6C282564 
  85 00b1 000000   		.align	2
  86              	.LC13:
  87 00b4 54686520 		.ascii	"The ADC_1 channel(%d) is: 0x%4x \012\015\012\015\000"
  87      4144435F 
  87      31206368 
  87      616E6E65 
  87      6C282564 
  88 00d9 000000   		.align	2
ARM GAS  C:\Users\bryan.lee\AppData\Local\Temp\ccr09y8E.s 			page 3


  89              	.LC14:
  90 00dc 307800   		.ascii	"0x\000"
  91 00df 00       		.align	2
  92              	.LC15:
  93 00e0 656E6400 		.ascii	"end\000"
  94              		.section	.text.main,"ax",%progbits
  95              		.align	2
  96              		.global	main
  97              		.thumb
  98              		.thumb_func
  99              		.type	main, %function
 100              	main:
 101              	.LFB64:
 102              		.file 1 "main.c"
   1:main.c        **** /*******************************************************************************
   2:main.c        **** * File Name: main.c
   3:main.c        **** *
   4:main.c        **** * Version: 1.0
   5:main.c        **** *
   6:main.c        **** * Description:
   7:main.c        **** *   Enumerates as a Virtual Com port.  Receives data from hyper terminal, then 
   8:main.c        **** *   send received data backward. LCD shows the Line settings.
   9:main.c        **** *   
  10:main.c        **** *  To test project:
  11:main.c        **** *   1. Build the project and program the hex file on to the target device.
  12:main.c        **** *   2. Select 3.3V in SW3 and plug-in power to the CY8CKIT-001
  13:main.c        **** *   3. Connect USB cable from the computer to the CY8CKIT-001.
  14:main.c        **** *   4. Select the USB_UART.inf file from the project directory, as the driver 
  15:main.c        **** *      for this example once Windows asks for it.
  16:main.c        **** *   5. Open "Device Manager" and note the COM port number for "Example Project"
  17:main.c        **** *      device.
  18:main.c        **** *   6. Open "HyperTerminal" application and make new connection to noted COM port
  19:main.c        **** *   7. Type the message, observe echo data received.
  20:main.c        **** *
  21:main.c        **** * Related Document:
  22:main.c        **** *  Universal Serial Bus Specification Revision 2.0 
  23:main.c        **** *  Universal Serial Bus Class Definitions for Communications Devices 
  24:main.c        **** *  Revision 1.2
  25:main.c        **** *
  26:main.c        **** ********************************************************************************
  27:main.c        **** * Copyright 2012, Cypress Semiconductor Corporation. All rights reserved.
  28:main.c        **** * This software is owned by Cypress Semiconductor Corporation and is protected
  29:main.c        **** * by and subject to worldwide patent and copyright laws and treaties.
  30:main.c        **** * Therefore, you may use this software only as provided in the license agreement
  31:main.c        **** * accompanying the software package from which you obtained this software.
  32:main.c        **** * CYPRESS AND ITS SUPPLIERS MAKE NO WARRANTY OF ANY KIND, EXPRESS OR IMPLIED,
  33:main.c        **** * WITH REGARD TO THIS SOFTWARE, INCLUDING, BUT NOT LIMITED TO, NONINFRINGEMENT,
  34:main.c        **** * IMPLIED WARRANTIES OF MERCHANTABILITY AND FITNESS FOR A PARTICULAR PURPOSE.
  35:main.c        **** *******************************************************************************/
  36:main.c        **** 
  37:main.c        **** #include <device.h>
  38:main.c        **** #include "stdio.h"
  39:main.c        **** 
  40:main.c        **** #if defined (__GNUC__)
  41:main.c        ****     /* Add an explicit reference to the floating point printf library */
  42:main.c        ****     /* to allow the usage of floating point conversion specifiers. */
  43:main.c        ****     /* This is not linked in by default with the newlib-nano library. */
ARM GAS  C:\Users\bryan.lee\AppData\Local\Temp\ccr09y8E.s 			page 4


  44:main.c        ****     asm (".global _printf_float");
  45:main.c        **** #endif
  46:main.c        **** 
  47:main.c        **** /* The size of the buffer is equal to maximum packet size of the 
  48:main.c        **** *  IN and OUT bulk endpoints. 
  49:main.c        **** */
  50:main.c        **** #define BUFFER_LEN  64u
  51:main.c        **** 
  52:main.c        **** #define RD_BUFFER_LEN           (64u)
  53:main.c        **** #define WR_BUFFER_LEN           (64u)
  54:main.c        **** #define MUX_SIZE                (4u)
  55:main.c        **** 
  56:main.c        **** /* ASCII value of decimal zero is 48 */
  57:main.c        **** #define ASCII_DECIMAL_ZERO      (48u)
  58:main.c        **** 
  59:main.c        **** /* Any value above 0x07 is an illegal input for mux channel selection */
  60:main.c        **** #define ERROR_MASK              (0xF8u)
  61:main.c        **** 
  62:main.c        **** /* Function that encapsulates the process of writing text strings to USBUART */
  63:main.c        **** void PrintToUSBUART(char8 * outText);
  64:main.c        **** 
  65:main.c        **** char8 *parity[] = { "None", "Odd", "Even", "Mark", "Space" };
  66:main.c        **** char8 *stop[] = { "1", "1.5", "2" };
  67:main.c        **** 
  68:main.c        **** int main()
  69:main.c        **** {
 103              		.loc 1 69 0
 104              		.cfi_startproc
 105              		@ args = 0, pretend = 0, frame = 136
 106              		@ frame_needed = 1, uses_anonymous_args = 0
 107 0000 80B5     		push	{r7, lr}
 108              		.cfi_def_cfa_offset 8
 109              		.cfi_offset 7, -8
 110              		.cfi_offset 14, -4
 111 0002 A2B0     		sub	sp, sp, #136
 112              		.cfi_def_cfa_offset 144
 113 0004 00AF     		add	r7, sp, #0
 114              		.cfi_def_cfa_register 7
  70:main.c        ****     /* adcReading holds the converted 16-bit data from the ADC */
  71:main.c        ****     uint16 adcReading = 0u;
 115              		.loc 1 71 0
 116 0006 0023     		movs	r3, #0
 117 0008 A7F88630 		strh	r3, [r7, #134]	@ movhi
  72:main.c        ****     uint8 rdBuffer[RD_BUFFER_LEN];
  73:main.c        ****     uint8 wrBuffer[WR_BUFFER_LEN];
  74:main.c        ****     uint8 rdValue;
  75:main.c        ****     uint8 temp;
  76:main.c        **** 
  77:main.c        ****     /* Enable Global interrupts - used for USB communication */
  78:main.c        ****     CyGlobalIntEnable;
 118              		.loc 1 78 0
 119              		.syntax unified
 120              	@ 78 "main.c" 1
 121 000c 62B6     		CPSIE   i
 122              	@ 0 "" 2
  79:main.c        **** 
  80:main.c        ****     SPIM_Start();
ARM GAS  C:\Users\bryan.lee\AppData\Local\Temp\ccr09y8E.s 			page 5


 123              		.loc 1 80 0
 124              		.thumb
 125              		.syntax unified
 126 000e FFF7FEFF 		bl	SPIM_Start
  81:main.c        ****     USBUART_1_Start(0u, USBUART_1_3V_OPERATION);
 127              		.loc 1 81 0
 128 0012 0021     		movs	r1, #0
 129 0014 0020     		movs	r0, #0
 130 0016 FFF7FEFF 		bl	USBUART_1_Start
  82:main.c        ****     LCD_Char_Start();
 131              		.loc 1 82 0
 132 001a FFF7FEFF 		bl	LCD_Char_Start
  83:main.c        ****     LCD_Char_Init();
 133              		.loc 1 83 0
 134 001e FFF7FEFF 		bl	LCD_Char_Init
  84:main.c        ****     LCD_Char_ClearDisplay();
 135              		.loc 1 84 0
 136 0022 0120     		movs	r0, #1
 137 0024 FFF7FEFF 		bl	LCD_Char_WriteControl
  85:main.c        ****     LCD_Char_PrintString("    EQF1296 DUT!");
 138              		.loc 1 85 0
 139 0028 5C48     		ldr	r0, .L10
 140 002a FFF7FEFF 		bl	LCD_Char_PrintString
  86:main.c        ****     SPIM_Start();
 141              		.loc 1 86 0
 142 002e FFF7FEFF 		bl	SPIM_Start
  87:main.c        ****     ADC_SAR_0_Start();
 143              		.loc 1 87 0
 144 0032 FFF7FEFF 		bl	ADC_SAR_0_Start
  88:main.c        ****     ADC_SAR_1_Start();
 145              		.loc 1 88 0
 146 0036 FFF7FEFF 		bl	ADC_SAR_1_Start
  89:main.c        ****     PWM_Load_Start();
 147              		.loc 1 89 0
 148 003a FFF7FEFF 		bl	PWM_Load_Start
  90:main.c        **** 
  91:main.c        ****     /* When implementing a <=4 channel mux, the Analog sequencing Mux is faster
  92:main.c        ****      * on an average than the Analog Hardware mux. However, additional code is
  93:main.c        ****      * required to select channels non-sequentially.
  94:main.c        ****      */
  95:main.c        ****     AMux_0_Start();
 149              		.loc 1 95 0
 150 003e FFF7FEFF 		bl	AMux_0_Start
  96:main.c        ****     AMux_1_Start();
 151              		.loc 1 96 0
 152 0042 FFF7FEFF 		bl	AMux_1_Start
  97:main.c        **** 
  98:main.c        ****     /* Wait for Device to enumerate */
  99:main.c        ****     while(!USBUART_1_GetConfiguration());
 153              		.loc 1 99 0
 154 0046 00BF     		nop
 155              	.L2:
 156              		.loc 1 99 0 is_stmt 0 discriminator 1
 157 0048 FFF7FEFF 		bl	USBUART_1_GetConfiguration
 158 004c 0346     		mov	r3, r0
 159 004e 002B     		cmp	r3, #0
 160 0050 FAD0     		beq	.L2
ARM GAS  C:\Users\bryan.lee\AppData\Local\Temp\ccr09y8E.s 			page 6


 100:main.c        **** 
 101:main.c        ****     /* Enumeration is complete, enable OUT endpoint for received data from Host */
 102:main.c        ****     USBUART_1_CDC_Init();
 161              		.loc 1 102 0 is_stmt 1
 162 0052 FFF7FEFF 		bl	USBUART_1_CDC_Init
 163              	.L9:
 103:main.c        **** 
 104:main.c        ****     for(;;)
 105:main.c        ****     {
 106:main.c        ****         PWM_Load_WriteCompare(25);
 164              		.loc 1 106 0
 165 0056 1920     		movs	r0, #25
 166 0058 FFF7FEFF 		bl	PWM_Load_WriteCompare
 107:main.c        ****         pin_12v_enable_Write(1);        
 167              		.loc 1 107 0
 168 005c 0120     		movs	r0, #1
 169 005e FFF7FEFF 		bl	pin_12v_enable_Write
 108:main.c        ****         PrintToUSBUART("Please choose the channel (0-7) \n\r");
 170              		.loc 1 108 0
 171 0062 4F48     		ldr	r0, .L10+4
 172 0064 FFF7FEFF 		bl	PrintToUSBUART
 109:main.c        **** 
 110:main.c        ****         /* Wait for input data from PC */
 111:main.c        ****         while(USBUART_1_DataIsReady() == 0u);
 173              		.loc 1 111 0
 174 0068 00BF     		nop
 175              	.L3:
 176              		.loc 1 111 0 is_stmt 0 discriminator 1
 177 006a FFF7FEFF 		bl	USBUART_1_DataIsReady
 178 006e 0346     		mov	r3, r0
 179 0070 002B     		cmp	r3, #0
 180 0072 FAD0     		beq	.L3
 112:main.c        ****         USBUART_1_GetAll(rdBuffer);
 181              		.loc 1 112 0 is_stmt 1
 182 0074 07F14403 		add	r3, r7, #68
 183 0078 1846     		mov	r0, r3
 184 007a FFF7FEFF 		bl	USBUART_1_GetAll
 113:main.c        **** 
 114:main.c        ****         /* Convert ASCII value in rdBuffer to numerical value:
 115:main.c        ****          * Note that ASCII 48, 49,...,57 (decimal) corresponds to 0,1,...,9
 116:main.c        ****          */
 117:main.c        ****         rdValue = rdBuffer[0] - ASCII_DECIMAL_ZERO;
 185              		.loc 1 117 0
 186 007e 97F84430 		ldrb	r3, [r7, #68]	@ zero_extendqisi2
 187 0082 303B     		subs	r3, r3, #48
 188 0084 87F88530 		strb	r3, [r7, #133]
 118:main.c        **** 
 119:main.c        ****         /* If the value read is not a number in the range [0,7] */
 120:main.c        ****         if(rdValue & ERROR_MASK)
 189              		.loc 1 120 0
 190 0088 97F88530 		ldrb	r3, [r7, #133]	@ zero_extendqisi2
 191 008c 03F0F803 		and	r3, r3, #248
 192 0090 002B     		cmp	r3, #0
 193 0092 15D0     		beq	.L4
 121:main.c        ****         {
 122:main.c        ****             LCD_Char_ClearDisplay();
 194              		.loc 1 122 0
ARM GAS  C:\Users\bryan.lee\AppData\Local\Temp\ccr09y8E.s 			page 7


 195 0094 0120     		movs	r0, #1
 196 0096 FFF7FEFF 		bl	LCD_Char_WriteControl
 123:main.c        ****             LCD_Char_PrintString("Input Error");
 197              		.loc 1 123 0
 198 009a 4248     		ldr	r0, .L10+8
 199 009c FFF7FEFF 		bl	LCD_Char_PrintString
 124:main.c        ****             sprintf((char *)wrBuffer, "Input Error, (%d) \n\r",(int)(rdValue));
 200              		.loc 1 124 0
 201 00a0 97F88520 		ldrb	r2, [r7, #133]	@ zero_extendqisi2
 202 00a4 3B1D     		adds	r3, r7, #4
 203 00a6 4049     		ldr	r1, .L10+12
 204 00a8 1846     		mov	r0, r3
 205 00aa FFF7FEFF 		bl	sprintf
 125:main.c        ****             PrintToUSBUART((char8 *)wrBuffer);
 206              		.loc 1 125 0
 207 00ae 3B1D     		adds	r3, r7, #4
 208 00b0 1846     		mov	r0, r3
 209 00b2 FFF7FEFF 		bl	PrintToUSBUART
 126:main.c        ****             CyDelay(1000);
 210              		.loc 1 126 0
 211 00b6 4FF47A70 		mov	r0, #1000
 212 00ba FFF7FEFF 		bl	CyDelay
 213 00be 35E0     		b	.L5
 214              	.L4:
 127:main.c        ****         }
 128:main.c        **** 
 129:main.c        ****         else /* The input from user is valid */
 130:main.c        ****         {
 131:main.c        ****             /* If this input is in the range [0,3], use mux0 */
 132:main.c        ****             if(!(rdValue/MUX_SIZE))
 215              		.loc 1 132 0
 216 00c0 97F88530 		ldrb	r3, [r7, #133]	@ zero_extendqisi2
 217 00c4 032B     		cmp	r3, #3
 218 00c6 14D8     		bhi	.L6
 133:main.c        ****             {
 134:main.c        ****                 AMux_0_FastSelect(rdValue);
 219              		.loc 1 134 0
 220 00c8 97F88530 		ldrb	r3, [r7, #133]	@ zero_extendqisi2
 221 00cc 1846     		mov	r0, r3
 222 00ce FFF7FEFF 		bl	AMux_0_FastSelect
 135:main.c        **** 
 136:main.c        ****                 /* Initiate a single conversion of input data (ADC is in triggered
 137:main.c        ****                  * mode).
 138:main.c        ****                  */
 139:main.c        ****                 ADC_SAR_0_StartConvert();
 223              		.loc 1 139 0
 224 00d2 FFF7FEFF 		bl	ADC_SAR_0_StartConvert
 140:main.c        ****                 //ADC_SAR_0_IsEndConversion(ADC_SAR_0_WAIT_FOR_RESULT);
 141:main.c        ****                 adcReading = ADC_SAR_0_GetResult16();
 225              		.loc 1 141 0
 226 00d6 FFF7FEFF 		bl	ADC_SAR_0_GetResult16
 227 00da 0346     		mov	r3, r0
 228 00dc A7F88630 		strh	r3, [r7, #134]	@ movhi
 142:main.c        **** 
 143:main.c        ****                 sprintf((char *)wrBuffer, "The ADC_0 channel(%d) is: 0x%4x \n\r\n\r",
 229              		.loc 1 143 0
 230 00e0 97F88520 		ldrb	r2, [r7, #133]	@ zero_extendqisi2
ARM GAS  C:\Users\bryan.lee\AppData\Local\Temp\ccr09y8E.s 			page 8


 231 00e4 B7F88630 		ldrh	r3, [r7, #134]
 232 00e8 381D     		adds	r0, r7, #4
 233 00ea 3049     		ldr	r1, .L10+16
 234 00ec FFF7FEFF 		bl	sprintf
 235 00f0 18E0     		b	.L7
 236              	.L6:
 144:main.c        ****                                                             (int)rdValue, adcReading);
 145:main.c        ****             }
 146:main.c        **** 
 147:main.c        ****             else
 148:main.c        ****             {
 149:main.c        ****                 /* If rdValue is between [4,7], scale down to [0,3] */
 150:main.c        ****                 AMux_1_FastSelect(rdValue % MUX_SIZE);
 237              		.loc 1 150 0
 238 00f2 97F88530 		ldrb	r3, [r7, #133]
 239 00f6 03F00303 		and	r3, r3, #3
 240 00fa DBB2     		uxtb	r3, r3
 241 00fc 1846     		mov	r0, r3
 242 00fe FFF7FEFF 		bl	AMux_1_FastSelect
 151:main.c        **** 
 152:main.c        ****                 ADC_SAR_1_StartConvert();
 243              		.loc 1 152 0
 244 0102 FFF7FEFF 		bl	ADC_SAR_1_StartConvert
 153:main.c        ****                 //ADC_SAR_1_IsEndConversion(ADC_SAR_1_WAIT_FOR_RESULT);
 154:main.c        ****                 adcReading = ADC_SAR_1_GetResult16();
 245              		.loc 1 154 0
 246 0106 FFF7FEFF 		bl	ADC_SAR_1_GetResult16
 247 010a 0346     		mov	r3, r0
 248 010c A7F88630 		strh	r3, [r7, #134]	@ movhi
 155:main.c        **** 
 156:main.c        ****                 sprintf((char *)wrBuffer, "The ADC_1 channel(%d) is: 0x%4x \n\r\n\r",
 157:main.c        ****                                                 (int)(rdValue % MUX_SIZE), adcReading);
 249              		.loc 1 157 0
 250 0110 97F88530 		ldrb	r3, [r7, #133]	@ zero_extendqisi2
 156:main.c        ****                                                 (int)(rdValue % MUX_SIZE), adcReading);
 251              		.loc 1 156 0
 252 0114 03F00302 		and	r2, r3, #3
 253 0118 B7F88630 		ldrh	r3, [r7, #134]
 254 011c 381D     		adds	r0, r7, #4
 255 011e 2449     		ldr	r1, .L10+20
 256 0120 FFF7FEFF 		bl	sprintf
 257              	.L7:
 158:main.c        ****             }
 159:main.c        **** 
 160:main.c        ****             PrintToUSBUART((char8 *)wrBuffer);
 258              		.loc 1 160 0
 259 0124 3B1D     		adds	r3, r7, #4
 260 0126 1846     		mov	r0, r3
 261 0128 FFF7FEFF 		bl	PrintToUSBUART
 262              	.L5:
 161:main.c        ****         }
 162:main.c        **** 
 163:main.c        ****         /* For verification purposes, display the adcReading on the LCD*/
 164:main.c        ****         LCD_Char_ClearDisplay();
 263              		.loc 1 164 0
 264 012c 0120     		movs	r0, #1
 265 012e FFF7FEFF 		bl	LCD_Char_WriteControl
ARM GAS  C:\Users\bryan.lee\AppData\Local\Temp\ccr09y8E.s 			page 9


 165:main.c        ****         LCD_Char_PrintString("0x");
 266              		.loc 1 165 0
 267 0132 2048     		ldr	r0, .L10+24
 268 0134 FFF7FEFF 		bl	LCD_Char_PrintString
 166:main.c        ****         LCD_Char_PrintInt16(adcReading);
 269              		.loc 1 166 0
 270 0138 B7F88630 		ldrh	r3, [r7, #134]
 271 013c 1846     		mov	r0, r3
 272 013e FFF7FEFF 		bl	LCD_Char_PrintInt16
 167:main.c        ****         LCD_Char_Position(1,0);
 273              		.loc 1 167 0
 274 0142 0021     		movs	r1, #0
 275 0144 0120     		movs	r0, #1
 276 0146 FFF7FEFF 		bl	LCD_Char_Position
 168:main.c        ****         LCD_Char_PrintInt8(rdValue);
 277              		.loc 1 168 0
 278 014a 97F88530 		ldrb	r3, [r7, #133]	@ zero_extendqisi2
 279 014e 1846     		mov	r0, r3
 280 0150 FFF7FEFF 		bl	LCD_Char_PrintInt8
 169:main.c        ****         LCD_Char_Position(2,0);
 281              		.loc 1 169 0
 282 0154 0021     		movs	r1, #0
 283 0156 0220     		movs	r0, #2
 284 0158 FFF7FEFF 		bl	LCD_Char_Position
 170:main.c        ****         LCD_Char_PrintInt8(rdBuffer[0]);
 285              		.loc 1 170 0
 286 015c 97F84430 		ldrb	r3, [r7, #68]	@ zero_extendqisi2
 287 0160 1846     		mov	r0, r3
 288 0162 FFF7FEFF 		bl	LCD_Char_PrintInt8
 171:main.c        ****         LCD_Char_Position(3,0);
 289              		.loc 1 171 0
 290 0166 0021     		movs	r1, #0
 291 0168 0320     		movs	r0, #3
 292 016a FFF7FEFF 		bl	LCD_Char_Position
 172:main.c        ****         LCD_Char_PrintString("end");
 293              		.loc 1 172 0
 294 016e 1248     		ldr	r0, .L10+28
 295 0170 FFF7FEFF 		bl	LCD_Char_PrintString
 173:main.c        ****         
 174:main.c        **** 
 175:main.c        ****         /* Clear the transmit buffer before next reading (good practice) */
 176:main.c        ****         SPIM_ClearTxBuffer();
 296              		.loc 1 176 0
 297 0174 FFF7FEFF 		bl	SPIM_ClearTxBuffer
 177:main.c        **** 
 178:main.c        ****         temp = SPIM_ReadTxStatus();
 298              		.loc 1 178 0
 299 0178 FFF7FEFF 		bl	SPIM_ReadTxStatus
 300 017c 0346     		mov	r3, r0
 301 017e 87F88430 		strb	r3, [r7, #132]
 179:main.c        **** 
 180:main.c        ****         /* Ensure that previous SPI read is done, or SPI is idle before sending data */
 181:main.c        ****         if((temp & (SPIM_STS_SPI_DONE | SPIM_STS_SPI_IDLE)))
 302              		.loc 1 181 0
 303 0182 97F88430 		ldrb	r3, [r7, #132]	@ zero_extendqisi2
 304 0186 03F01103 		and	r3, r3, #17
 305 018a 002B     		cmp	r3, #0
ARM GAS  C:\Users\bryan.lee\AppData\Local\Temp\ccr09y8E.s 			page 10


 306 018c 3FF463AF 		beq	.L9
 182:main.c        ****         {
 183:main.c        ****             SPIM_WriteTxData(adcReading);
 307              		.loc 1 183 0
 308 0190 B7F88630 		ldrh	r3, [r7, #134]
 309 0194 1846     		mov	r0, r3
 310 0196 FFF7FEFF 		bl	SPIM_WriteTxData
 184:main.c        ****         }
 185:main.c        **** 
 186:main.c        ****     }  /* End of forever loop */
 311              		.loc 1 186 0
 312 019a 5CE7     		b	.L9
 313              	.L11:
 314              		.align	2
 315              	.L10:
 316 019c 30000000 		.word	.LC8
 317 01a0 44000000 		.word	.LC9
 318 01a4 68000000 		.word	.LC10
 319 01a8 74000000 		.word	.LC11
 320 01ac 8C000000 		.word	.LC12
 321 01b0 B4000000 		.word	.LC13
 322 01b4 DC000000 		.word	.LC14
 323 01b8 E0000000 		.word	.LC15
 324              		.cfi_endproc
 325              	.LFE64:
 326              		.size	main, .-main
 327              		.section	.text.PrintToUSBUART,"ax",%progbits
 328              		.align	2
 329              		.global	PrintToUSBUART
 330              		.thumb
 331              		.thumb_func
 332              		.type	PrintToUSBUART, %function
 333              	PrintToUSBUART:
 334              	.LFB65:
 187:main.c        **** }  /* End of main */
 188:main.c        **** 
 189:main.c        **** 
 190:main.c        **** /*******************************************************************************
 191:main.c        **** * Function Name: PrintToUSBUART
 192:main.c        **** ********************************************************************************
 193:main.c        **** *
 194:main.c        **** * Summary:
 195:main.c        **** *  The input string passed to the function is printed to the USBUART
 196:main.c        **** *  interface when the CDC device is ready.
 197:main.c        **** *
 198:main.c        **** * Parameters:
 199:main.c        **** *  Text to be printed to USBUART as a string.
 200:main.c        **** *
 201:main.c        **** * Return:
 202:main.c        **** *  None.
 203:main.c        **** *
 204:main.c        **** *******************************************************************************/
 205:main.c        **** 
 206:main.c        **** void PrintToUSBUART(char8 * outText)
 207:main.c        **** {
 335              		.loc 1 207 0
 336              		.cfi_startproc
ARM GAS  C:\Users\bryan.lee\AppData\Local\Temp\ccr09y8E.s 			page 11


 337              		@ args = 0, pretend = 0, frame = 8
 338              		@ frame_needed = 1, uses_anonymous_args = 0
 339 0000 80B5     		push	{r7, lr}
 340              		.cfi_def_cfa_offset 8
 341              		.cfi_offset 7, -8
 342              		.cfi_offset 14, -4
 343 0002 82B0     		sub	sp, sp, #8
 344              		.cfi_def_cfa_offset 16
 345 0004 00AF     		add	r7, sp, #0
 346              		.cfi_def_cfa_register 7
 347 0006 7860     		str	r0, [r7, #4]
 208:main.c        ****     /* Wait till the CDC device is ready before sending data */
 209:main.c        ****     while(USBUART_1_CDCIsReady() == 0u);
 348              		.loc 1 209 0
 349 0008 00BF     		nop
 350              	.L13:
 351              		.loc 1 209 0 is_stmt 0 discriminator 1
 352 000a FFF7FEFF 		bl	USBUART_1_CDCIsReady
 353 000e 0346     		mov	r3, r0
 354 0010 002B     		cmp	r3, #0
 355 0012 FAD0     		beq	.L13
 210:main.c        ****     /* Send strlen number of characters of wrBuffer to USBUART */
 211:main.c        ****     USBUART_1_PutData((uint8 *)outText, strlen(outText));
 356              		.loc 1 211 0 is_stmt 1
 357 0014 7868     		ldr	r0, [r7, #4]
 358 0016 FFF7FEFF 		bl	strlen
 359 001a 0346     		mov	r3, r0
 360 001c 9BB2     		uxth	r3, r3
 361 001e 1946     		mov	r1, r3
 362 0020 7868     		ldr	r0, [r7, #4]
 363 0022 FFF7FEFF 		bl	USBUART_1_PutData
 212:main.c        **** }
 364              		.loc 1 212 0
 365 0026 00BF     		nop
 366 0028 0837     		adds	r7, r7, #8
 367              		.cfi_def_cfa_offset 8
 368 002a BD46     		mov	sp, r7
 369              		.cfi_def_cfa_register 13
 370              		@ sp needed
 371 002c 80BD     		pop	{r7, pc}
 372              		.cfi_endproc
 373              	.LFE65:
 374              		.size	PrintToUSBUART, .-PrintToUSBUART
 375              		.text
 376              	.Letext0:
 377              		.file 2 "c:\\program files (x86)\\cypress\\psoc creator\\4.3\\psoc creator\\import\\gnu\\arm\\5.4.
 378              		.file 3 "c:\\program files (x86)\\cypress\\psoc creator\\4.3\\psoc creator\\import\\gnu\\arm\\5.4.
 379              		.file 4 "Generated_Source\\PSoC5/cytypes.h"
 380              		.file 5 "Generated_Source\\PSoC5/core_cm3.h"