ARM GAS  C:\Users\bryan.lee\AppData\Local\Temp\cc3Mn7NL.s 			page 1


   1              		.syntax unified
   2              		.cpu cortex-m3
   3              		.fpu softvfp
   4              		.eabi_attribute 20, 1
   5              		.eabi_attribute 21, 1
   6              		.eabi_attribute 23, 3
   7              		.eabi_attribute 24, 1
   8              		.eabi_attribute 25, 1
   9              		.eabi_attribute 26, 1
  10              		.eabi_attribute 30, 6
  11              		.eabi_attribute 34, 1
  12              		.eabi_attribute 18, 4
  13              		.thumb
  14              		.file	"cyfitter_cfg.c"
  15              		.text
  16              	.Ltext0:
  17              		.cfi_sections	.debug_frame
  18              		.section	.text.CYMEMZERO,"ax",%progbits
  19              		.align	2
  20              		.thumb
  21              		.thumb_func
  22              		.type	CYMEMZERO, %function
  23              	CYMEMZERO:
  24              	.LFB0:
  25              		.file 1 "Generated_Source\\PSoC5\\cyfitter_cfg.c"
   1:Generated_Source\PSoC5/cyfitter_cfg.c **** /*******************************************************************************
   2:Generated_Source\PSoC5/cyfitter_cfg.c **** * File Name: cyfitter_cfg.c
   3:Generated_Source\PSoC5/cyfitter_cfg.c **** * 
   4:Generated_Source\PSoC5/cyfitter_cfg.c **** * PSoC Creator  4.0 Update 1
   5:Generated_Source\PSoC5/cyfitter_cfg.c **** *
   6:Generated_Source\PSoC5/cyfitter_cfg.c **** * Description:
   7:Generated_Source\PSoC5/cyfitter_cfg.c **** * This file contains device initialization code.
   8:Generated_Source\PSoC5/cyfitter_cfg.c **** * Except for the user defined sections in CyClockStartupError(), this file should not be modified.
   9:Generated_Source\PSoC5/cyfitter_cfg.c **** * This file is automatically generated by PSoC Creator.
  10:Generated_Source\PSoC5/cyfitter_cfg.c **** *
  11:Generated_Source\PSoC5/cyfitter_cfg.c **** ********************************************************************************
  12:Generated_Source\PSoC5/cyfitter_cfg.c **** * Copyright (c) 2007-2016 Cypress Semiconductor.  All rights reserved.
  13:Generated_Source\PSoC5/cyfitter_cfg.c **** * You may use this file only in accordance with the license, terms, conditions, 
  14:Generated_Source\PSoC5/cyfitter_cfg.c **** * disclaimers, and limitations in the end user license agreement accompanying 
  15:Generated_Source\PSoC5/cyfitter_cfg.c **** * the software package with which this file was provided.
  16:Generated_Source\PSoC5/cyfitter_cfg.c **** ********************************************************************************/
  17:Generated_Source\PSoC5/cyfitter_cfg.c **** 
  18:Generated_Source\PSoC5/cyfitter_cfg.c **** #include <string.h>
  19:Generated_Source\PSoC5/cyfitter_cfg.c **** #include "cytypes.h"
  20:Generated_Source\PSoC5/cyfitter_cfg.c **** #include "cydevice_trm.h"
  21:Generated_Source\PSoC5/cyfitter_cfg.c **** #include "cyfitter.h"
  22:Generated_Source\PSoC5/cyfitter_cfg.c **** #include "CyLib.h"
  23:Generated_Source\PSoC5/cyfitter_cfg.c **** #include "cyfitter_cfg.h"
  24:Generated_Source\PSoC5/cyfitter_cfg.c **** 
  25:Generated_Source\PSoC5/cyfitter_cfg.c **** #define CY_NEED_CYCLOCKSTARTUPERROR 1
  26:Generated_Source\PSoC5/cyfitter_cfg.c **** 
  27:Generated_Source\PSoC5/cyfitter_cfg.c **** 
  28:Generated_Source\PSoC5/cyfitter_cfg.c **** #if defined(__GNUC__) || defined(__ARMCC_VERSION)
  29:Generated_Source\PSoC5/cyfitter_cfg.c ****     #define CYPACKED 
  30:Generated_Source\PSoC5/cyfitter_cfg.c ****     #define CYPACKED_ATTR __attribute__ ((packed))
  31:Generated_Source\PSoC5/cyfitter_cfg.c ****     #define CYALIGNED __attribute__ ((aligned))
  32:Generated_Source\PSoC5/cyfitter_cfg.c ****     #define CY_CFG_UNUSED __attribute__ ((unused))
ARM GAS  C:\Users\bryan.lee\AppData\Local\Temp\cc3Mn7NL.s 			page 2


  33:Generated_Source\PSoC5/cyfitter_cfg.c ****     #ifndef CY_CFG_SECTION
  34:Generated_Source\PSoC5/cyfitter_cfg.c ****         #define CY_CFG_SECTION __attribute__ ((section(".psocinit")))
  35:Generated_Source\PSoC5/cyfitter_cfg.c ****     #endif
  36:Generated_Source\PSoC5/cyfitter_cfg.c ****     
  37:Generated_Source\PSoC5/cyfitter_cfg.c ****     #if defined(__ARMCC_VERSION)
  38:Generated_Source\PSoC5/cyfitter_cfg.c ****         #define CY_CFG_MEMORY_BARRIER() __memory_changed()
  39:Generated_Source\PSoC5/cyfitter_cfg.c ****     #else
  40:Generated_Source\PSoC5/cyfitter_cfg.c ****         #define CY_CFG_MEMORY_BARRIER() __sync_synchronize()
  41:Generated_Source\PSoC5/cyfitter_cfg.c ****     #endif
  42:Generated_Source\PSoC5/cyfitter_cfg.c ****     
  43:Generated_Source\PSoC5/cyfitter_cfg.c **** #elif defined(__ICCARM__)
  44:Generated_Source\PSoC5/cyfitter_cfg.c ****     #include <intrinsics.h>
  45:Generated_Source\PSoC5/cyfitter_cfg.c **** 
  46:Generated_Source\PSoC5/cyfitter_cfg.c ****     #define CYPACKED __packed
  47:Generated_Source\PSoC5/cyfitter_cfg.c ****     #define CYPACKED_ATTR 
  48:Generated_Source\PSoC5/cyfitter_cfg.c ****     #define CYALIGNED _Pragma("data_alignment=4")
  49:Generated_Source\PSoC5/cyfitter_cfg.c ****     #define CY_CFG_UNUSED _Pragma("diag_suppress=Pe177")
  50:Generated_Source\PSoC5/cyfitter_cfg.c ****     #define CY_CFG_SECTION _Pragma("location=\".psocinit\"")
  51:Generated_Source\PSoC5/cyfitter_cfg.c ****     
  52:Generated_Source\PSoC5/cyfitter_cfg.c ****     #define CY_CFG_MEMORY_BARRIER() __DMB()
  53:Generated_Source\PSoC5/cyfitter_cfg.c ****     
  54:Generated_Source\PSoC5/cyfitter_cfg.c **** #else
  55:Generated_Source\PSoC5/cyfitter_cfg.c ****     #error Unsupported toolchain
  56:Generated_Source\PSoC5/cyfitter_cfg.c **** #endif
  57:Generated_Source\PSoC5/cyfitter_cfg.c **** 
  58:Generated_Source\PSoC5/cyfitter_cfg.c **** 
  59:Generated_Source\PSoC5/cyfitter_cfg.c **** CY_CFG_UNUSED
  60:Generated_Source\PSoC5/cyfitter_cfg.c **** static void CYMEMZERO(void *s, size_t n);
  61:Generated_Source\PSoC5/cyfitter_cfg.c **** CY_CFG_UNUSED
  62:Generated_Source\PSoC5/cyfitter_cfg.c **** static void CYMEMZERO(void *s, size_t n)
  63:Generated_Source\PSoC5/cyfitter_cfg.c **** {
  26              		.loc 1 63 0
  27              		.cfi_startproc
  28              		@ args = 0, pretend = 0, frame = 8
  29              		@ frame_needed = 1, uses_anonymous_args = 0
  30 0000 80B5     		push	{r7, lr}
  31              		.cfi_def_cfa_offset 8
  32              		.cfi_offset 7, -8
  33              		.cfi_offset 14, -4
  34 0002 82B0     		sub	sp, sp, #8
  35              		.cfi_def_cfa_offset 16
  36 0004 00AF     		add	r7, sp, #0
  37              		.cfi_def_cfa_register 7
  38 0006 7860     		str	r0, [r7, #4]
  39 0008 3960     		str	r1, [r7]
  64:Generated_Source\PSoC5/cyfitter_cfg.c **** 	(void)memset(s, 0, n);
  40              		.loc 1 64 0
  41 000a 7868     		ldr	r0, [r7, #4]
  42 000c 0021     		movs	r1, #0
  43 000e 3A68     		ldr	r2, [r7]
  44 0010 FFF7FEFF 		bl	memset
  65:Generated_Source\PSoC5/cyfitter_cfg.c **** }
  45              		.loc 1 65 0
  46 0014 0837     		adds	r7, r7, #8
  47              		.cfi_def_cfa_offset 8
  48 0016 BD46     		mov	sp, r7
  49              		.cfi_def_cfa_register 13
ARM GAS  C:\Users\bryan.lee\AppData\Local\Temp\cc3Mn7NL.s 			page 3


  50              		@ sp needed
  51 0018 80BD     		pop	{r7, pc}
  52              		.cfi_endproc
  53              	.LFE0:
  54              		.size	CYMEMZERO, .-CYMEMZERO
  55 001a 00BF     		.section	.text.CYCONFIGCPY,"ax",%progbits
  56              		.align	2
  57              		.thumb
  58              		.thumb_func
  59              		.type	CYCONFIGCPY, %function
  60              	CYCONFIGCPY:
  61              	.LFB1:
  66:Generated_Source\PSoC5/cyfitter_cfg.c **** CY_CFG_UNUSED
  67:Generated_Source\PSoC5/cyfitter_cfg.c **** static void CYCONFIGCPY(void *dest, const void *src, size_t n);
  68:Generated_Source\PSoC5/cyfitter_cfg.c **** CY_CFG_UNUSED
  69:Generated_Source\PSoC5/cyfitter_cfg.c **** static void CYCONFIGCPY(void *dest, const void *src, size_t n)
  70:Generated_Source\PSoC5/cyfitter_cfg.c **** {
  62              		.loc 1 70 0
  63              		.cfi_startproc
  64              		@ args = 0, pretend = 0, frame = 16
  65              		@ frame_needed = 1, uses_anonymous_args = 0
  66 0000 80B5     		push	{r7, lr}
  67              		.cfi_def_cfa_offset 8
  68              		.cfi_offset 7, -8
  69              		.cfi_offset 14, -4
  70 0002 84B0     		sub	sp, sp, #16
  71              		.cfi_def_cfa_offset 24
  72 0004 00AF     		add	r7, sp, #0
  73              		.cfi_def_cfa_register 7
  74 0006 F860     		str	r0, [r7, #12]
  75 0008 B960     		str	r1, [r7, #8]
  76 000a 7A60     		str	r2, [r7, #4]
  71:Generated_Source\PSoC5/cyfitter_cfg.c **** 	(void)memcpy(dest, src, n);
  77              		.loc 1 71 0
  78 000c F868     		ldr	r0, [r7, #12]
  79 000e B968     		ldr	r1, [r7, #8]
  80 0010 7A68     		ldr	r2, [r7, #4]
  81 0012 FFF7FEFF 		bl	memcpy
  72:Generated_Source\PSoC5/cyfitter_cfg.c **** }
  82              		.loc 1 72 0
  83 0016 1037     		adds	r7, r7, #16
  84              		.cfi_def_cfa_offset 8
  85 0018 BD46     		mov	sp, r7
  86              		.cfi_def_cfa_register 13
  87              		@ sp needed
  88 001a 80BD     		pop	{r7, pc}
  89              		.cfi_endproc
  90              	.LFE1:
  91              		.size	CYCONFIGCPY, .-CYCONFIGCPY
  92              		.section	.text.CYCONFIGCPYCODE,"ax",%progbits
  93              		.align	2
  94              		.thumb
  95              		.thumb_func
  96              		.type	CYCONFIGCPYCODE, %function
  97              	CYCONFIGCPYCODE:
  98              	.LFB2:
  73:Generated_Source\PSoC5/cyfitter_cfg.c **** CY_CFG_UNUSED
ARM GAS  C:\Users\bryan.lee\AppData\Local\Temp\cc3Mn7NL.s 			page 4


  74:Generated_Source\PSoC5/cyfitter_cfg.c **** static void CYCONFIGCPYCODE(void *dest, const void *src, size_t n);
  75:Generated_Source\PSoC5/cyfitter_cfg.c **** CY_CFG_UNUSED
  76:Generated_Source\PSoC5/cyfitter_cfg.c **** static void CYCONFIGCPYCODE(void *dest, const void *src, size_t n)
  77:Generated_Source\PSoC5/cyfitter_cfg.c **** {
  99              		.loc 1 77 0
 100              		.cfi_startproc
 101              		@ args = 0, pretend = 0, frame = 16
 102              		@ frame_needed = 1, uses_anonymous_args = 0
 103 0000 80B5     		push	{r7, lr}
 104              		.cfi_def_cfa_offset 8
 105              		.cfi_offset 7, -8
 106              		.cfi_offset 14, -4
 107 0002 84B0     		sub	sp, sp, #16
 108              		.cfi_def_cfa_offset 24
 109 0004 00AF     		add	r7, sp, #0
 110              		.cfi_def_cfa_register 7
 111 0006 F860     		str	r0, [r7, #12]
 112 0008 B960     		str	r1, [r7, #8]
 113 000a 7A60     		str	r2, [r7, #4]
  78:Generated_Source\PSoC5/cyfitter_cfg.c **** 	(void)memcpy(dest, src, n);
 114              		.loc 1 78 0
 115 000c F868     		ldr	r0, [r7, #12]
 116 000e B968     		ldr	r1, [r7, #8]
 117 0010 7A68     		ldr	r2, [r7, #4]
 118 0012 FFF7FEFF 		bl	memcpy
  79:Generated_Source\PSoC5/cyfitter_cfg.c **** }
 119              		.loc 1 79 0
 120 0016 1037     		adds	r7, r7, #16
 121              		.cfi_def_cfa_offset 8
 122 0018 BD46     		mov	sp, r7
 123              		.cfi_def_cfa_register 13
 124              		@ sp needed
 125 001a 80BD     		pop	{r7, pc}
 126              		.cfi_endproc
 127              	.LFE2:
 128              		.size	CYCONFIGCPYCODE, .-CYCONFIGCPYCODE
 129              		.section	.text.CyClockStartupError,"ax",%progbits
 130              		.align	2
 131              		.thumb
 132              		.thumb_func
 133              		.type	CyClockStartupError, %function
 134              	CyClockStartupError:
 135              	.LFB3:
  80:Generated_Source\PSoC5/cyfitter_cfg.c **** 
  81:Generated_Source\PSoC5/cyfitter_cfg.c **** 
  82:Generated_Source\PSoC5/cyfitter_cfg.c **** 
  83:Generated_Source\PSoC5/cyfitter_cfg.c **** 
  84:Generated_Source\PSoC5/cyfitter_cfg.c **** /* Clock startup error codes                                                   */
  85:Generated_Source\PSoC5/cyfitter_cfg.c **** #define CYCLOCKSTART_NO_ERROR    0u
  86:Generated_Source\PSoC5/cyfitter_cfg.c **** #define CYCLOCKSTART_XTAL_ERROR  1u
  87:Generated_Source\PSoC5/cyfitter_cfg.c **** #define CYCLOCKSTART_32KHZ_ERROR 2u
  88:Generated_Source\PSoC5/cyfitter_cfg.c **** #define CYCLOCKSTART_PLL_ERROR   3u
  89:Generated_Source\PSoC5/cyfitter_cfg.c **** 
  90:Generated_Source\PSoC5/cyfitter_cfg.c **** 
  91:Generated_Source\PSoC5/cyfitter_cfg.c **** #ifdef CY_NEED_CYCLOCKSTARTUPERROR
  92:Generated_Source\PSoC5/cyfitter_cfg.c **** /*******************************************************************************
  93:Generated_Source\PSoC5/cyfitter_cfg.c **** * Function Name: CyClockStartupError
ARM GAS  C:\Users\bryan.lee\AppData\Local\Temp\cc3Mn7NL.s 			page 5


  94:Generated_Source\PSoC5/cyfitter_cfg.c **** ********************************************************************************
  95:Generated_Source\PSoC5/cyfitter_cfg.c **** * Summary:
  96:Generated_Source\PSoC5/cyfitter_cfg.c **** *  If an error is encountered during clock configuration (crystal startup error,
  97:Generated_Source\PSoC5/cyfitter_cfg.c **** *  PLL lock error, etc.), the system will end up here.  Unless reimplemented by
  98:Generated_Source\PSoC5/cyfitter_cfg.c **** *  the customer, this function will stop in an infinite loop.
  99:Generated_Source\PSoC5/cyfitter_cfg.c **** *
 100:Generated_Source\PSoC5/cyfitter_cfg.c **** * Parameters:
 101:Generated_Source\PSoC5/cyfitter_cfg.c **** *   void
 102:Generated_Source\PSoC5/cyfitter_cfg.c **** *
 103:Generated_Source\PSoC5/cyfitter_cfg.c **** * Return:
 104:Generated_Source\PSoC5/cyfitter_cfg.c **** *   void
 105:Generated_Source\PSoC5/cyfitter_cfg.c **** *
 106:Generated_Source\PSoC5/cyfitter_cfg.c **** *******************************************************************************/
 107:Generated_Source\PSoC5/cyfitter_cfg.c **** CY_CFG_UNUSED
 108:Generated_Source\PSoC5/cyfitter_cfg.c **** static void CyClockStartupError(uint8 errorCode);
 109:Generated_Source\PSoC5/cyfitter_cfg.c **** CY_CFG_UNUSED
 110:Generated_Source\PSoC5/cyfitter_cfg.c **** static void CyClockStartupError(uint8 errorCode)
 111:Generated_Source\PSoC5/cyfitter_cfg.c **** {
 136              		.loc 1 111 0
 137              		.cfi_startproc
 138              		@ args = 0, pretend = 0, frame = 8
 139              		@ frame_needed = 1, uses_anonymous_args = 0
 140              		@ link register save eliminated.
 141 0000 80B4     		push	{r7}
 142              		.cfi_def_cfa_offset 4
 143              		.cfi_offset 7, -4
 144 0002 83B0     		sub	sp, sp, #12
 145              		.cfi_def_cfa_offset 16
 146 0004 00AF     		add	r7, sp, #0
 147              		.cfi_def_cfa_register 7
 148 0006 0346     		mov	r3, r0
 149 0008 FB71     		strb	r3, [r7, #7]
 150              	.L5:
 112:Generated_Source\PSoC5/cyfitter_cfg.c ****     /* To remove the compiler warning if errorCode not used.                */
 113:Generated_Source\PSoC5/cyfitter_cfg.c ****     errorCode = errorCode;
 114:Generated_Source\PSoC5/cyfitter_cfg.c **** 
 115:Generated_Source\PSoC5/cyfitter_cfg.c ****     /* If we have a clock startup error (bad MHz crystal, PLL lock, etc.),  */
 116:Generated_Source\PSoC5/cyfitter_cfg.c ****     /* we will end up here to allow the customer to implement something to  */
 117:Generated_Source\PSoC5/cyfitter_cfg.c ****     /* deal with the clock condition.                                       */
 118:Generated_Source\PSoC5/cyfitter_cfg.c **** 
 119:Generated_Source\PSoC5/cyfitter_cfg.c **** #ifdef CY_CFG_CLOCK_STARTUP_ERROR_CALLBACK
 120:Generated_Source\PSoC5/cyfitter_cfg.c **** 	CY_CFG_Clock_Startup_ErrorCallback();
 121:Generated_Source\PSoC5/cyfitter_cfg.c **** #else
 122:Generated_Source\PSoC5/cyfitter_cfg.c **** 	/*  If not using CY_CFG_CLOCK_STARTUP_ERROR_CALLBACK, place your clock startup code here. */
 123:Generated_Source\PSoC5/cyfitter_cfg.c ****     /* `#START CyClockStartupError` */
 124:Generated_Source\PSoC5/cyfitter_cfg.c **** 
 125:Generated_Source\PSoC5/cyfitter_cfg.c ****     /* If we have a clock startup error (bad MHz crystal, PLL lock, etc.),  */
 126:Generated_Source\PSoC5/cyfitter_cfg.c ****     /* we will end up here to allow the customer to implement something to  */
 127:Generated_Source\PSoC5/cyfitter_cfg.c ****     /* deal with the clock condition.                                       */
 128:Generated_Source\PSoC5/cyfitter_cfg.c **** 
 129:Generated_Source\PSoC5/cyfitter_cfg.c ****     /* `#END` */
 130:Generated_Source\PSoC5/cyfitter_cfg.c **** 
 131:Generated_Source\PSoC5/cyfitter_cfg.c ****     /* If nothing else, stop here since the clocks have not started         */
 132:Generated_Source\PSoC5/cyfitter_cfg.c ****     /* correctly.                                                           */
 133:Generated_Source\PSoC5/cyfitter_cfg.c ****     while(1) {}
 151              		.loc 1 133 0 discriminator 1
 152 000a FEE7     		b	.L5
ARM GAS  C:\Users\bryan.lee\AppData\Local\Temp\cc3Mn7NL.s 			page 6


 153              		.cfi_endproc
 154              	.LFE3:
 155              		.size	CyClockStartupError, .-CyClockStartupError
 156              		.section	.text.cfg_write_bytes32,"ax",%progbits
 157              		.align	2
 158              		.thumb
 159              		.thumb_func
 160              		.type	cfg_write_bytes32, %function
 161              	cfg_write_bytes32:
 162              	.LFB4:
 134:Generated_Source\PSoC5/cyfitter_cfg.c **** #endif /* CY_CFG_CLOCK_STARTUP_ERROR_CALLBACK */ 
 135:Generated_Source\PSoC5/cyfitter_cfg.c **** }
 136:Generated_Source\PSoC5/cyfitter_cfg.c **** #endif
 137:Generated_Source\PSoC5/cyfitter_cfg.c **** 
 138:Generated_Source\PSoC5/cyfitter_cfg.c **** #define CY_CFG_BASE_ADDR_COUNT 18u
 139:Generated_Source\PSoC5/cyfitter_cfg.c **** CYPACKED typedef struct
 140:Generated_Source\PSoC5/cyfitter_cfg.c **** {
 141:Generated_Source\PSoC5/cyfitter_cfg.c **** 	uint8 offset;
 142:Generated_Source\PSoC5/cyfitter_cfg.c **** 	uint8 value;
 143:Generated_Source\PSoC5/cyfitter_cfg.c **** } CYPACKED_ATTR cy_cfg_addrvalue_t;
 144:Generated_Source\PSoC5/cyfitter_cfg.c **** 
 145:Generated_Source\PSoC5/cyfitter_cfg.c **** #define cy_cfg_addr_table ((const uint32 CYFAR *)0x48000000u)
 146:Generated_Source\PSoC5/cyfitter_cfg.c **** #define cy_cfg_data_table ((const cy_cfg_addrvalue_t CYFAR *)0x48000048u)
 147:Generated_Source\PSoC5/cyfitter_cfg.c **** 
 148:Generated_Source\PSoC5/cyfitter_cfg.c **** /* IOPINS0_0 Address: CYREG_PRT0_DM0 Size (bytes): 8 */
 149:Generated_Source\PSoC5/cyfitter_cfg.c **** #define BS_IOPINS0_0_VAL ((const uint8 CYFAR *)0x48000138u)
 150:Generated_Source\PSoC5/cyfitter_cfg.c **** 
 151:Generated_Source\PSoC5/cyfitter_cfg.c **** /* IOPINS0_1 Address: CYREG_PRT1_DM0 Size (bytes): 8 */
 152:Generated_Source\PSoC5/cyfitter_cfg.c **** #define BS_IOPINS0_1_VAL ((const uint8 CYFAR *)0x48000140u)
 153:Generated_Source\PSoC5/cyfitter_cfg.c **** 
 154:Generated_Source\PSoC5/cyfitter_cfg.c **** /* IOPINS0_2 Address: CYREG_PRT2_DM0 Size (bytes): 8 */
 155:Generated_Source\PSoC5/cyfitter_cfg.c **** #define BS_IOPINS0_2_VAL ((const uint8 CYFAR *)0x48000148u)
 156:Generated_Source\PSoC5/cyfitter_cfg.c **** 
 157:Generated_Source\PSoC5/cyfitter_cfg.c **** /* IOPINS0_6 Address: CYREG_PRT6_DM0 Size (bytes): 8 */
 158:Generated_Source\PSoC5/cyfitter_cfg.c **** #define BS_IOPINS0_6_VAL ((const uint8 CYFAR *)0x48000150u)
 159:Generated_Source\PSoC5/cyfitter_cfg.c **** 
 160:Generated_Source\PSoC5/cyfitter_cfg.c **** /* CYDEV_CLKDIST_ACFG0_CFG0 Address: CYREG_CLKDIST_ACFG0_CFG0 Size (bytes): 4 */
 161:Generated_Source\PSoC5/cyfitter_cfg.c **** #define BS_CYDEV_CLKDIST_ACFG0_CFG0_VAL ((const uint8 CYFAR *)0x48000158u)
 162:Generated_Source\PSoC5/cyfitter_cfg.c **** 
 163:Generated_Source\PSoC5/cyfitter_cfg.c **** 
 164:Generated_Source\PSoC5/cyfitter_cfg.c **** /*******************************************************************************
 165:Generated_Source\PSoC5/cyfitter_cfg.c **** * Function Name: cfg_write_bytes32
 166:Generated_Source\PSoC5/cyfitter_cfg.c **** ********************************************************************************
 167:Generated_Source\PSoC5/cyfitter_cfg.c **** * Summary:
 168:Generated_Source\PSoC5/cyfitter_cfg.c **** *  This function is used for setting up the chip configuration areas that
 169:Generated_Source\PSoC5/cyfitter_cfg.c **** *  contain relatively sparse data.
 170:Generated_Source\PSoC5/cyfitter_cfg.c **** *
 171:Generated_Source\PSoC5/cyfitter_cfg.c **** * Parameters:
 172:Generated_Source\PSoC5/cyfitter_cfg.c **** *   void
 173:Generated_Source\PSoC5/cyfitter_cfg.c **** *
 174:Generated_Source\PSoC5/cyfitter_cfg.c **** * Return:
 175:Generated_Source\PSoC5/cyfitter_cfg.c **** *   void
 176:Generated_Source\PSoC5/cyfitter_cfg.c **** *
 177:Generated_Source\PSoC5/cyfitter_cfg.c **** *******************************************************************************/
 178:Generated_Source\PSoC5/cyfitter_cfg.c **** static void cfg_write_bytes32(const uint32 addr_table[], const cy_cfg_addrvalue_t data_table[]);
 179:Generated_Source\PSoC5/cyfitter_cfg.c **** static void cfg_write_bytes32(const uint32 addr_table[], const cy_cfg_addrvalue_t data_table[])
 180:Generated_Source\PSoC5/cyfitter_cfg.c **** {
ARM GAS  C:\Users\bryan.lee\AppData\Local\Temp\cc3Mn7NL.s 			page 7


 163              		.loc 1 180 0
 164              		.cfi_startproc
 165              		@ args = 0, pretend = 0, frame = 24
 166              		@ frame_needed = 1, uses_anonymous_args = 0
 167              		@ link register save eliminated.
 168 0000 80B4     		push	{r7}
 169              		.cfi_def_cfa_offset 4
 170              		.cfi_offset 7, -4
 171 0002 87B0     		sub	sp, sp, #28
 172              		.cfi_def_cfa_offset 32
 173 0004 00AF     		add	r7, sp, #0
 174              		.cfi_def_cfa_register 7
 175 0006 7860     		str	r0, [r7, #4]
 176 0008 3960     		str	r1, [r7]
 181:Generated_Source\PSoC5/cyfitter_cfg.c **** 	/* For 32-bit little-endian architectures */
 182:Generated_Source\PSoC5/cyfitter_cfg.c **** 	uint32 i, j = 0u;
 177              		.loc 1 182 0
 178 000a 0023     		movs	r3, #0
 179 000c 3B61     		str	r3, [r7, #16]
 183:Generated_Source\PSoC5/cyfitter_cfg.c **** 	for (i = 0u; i < CY_CFG_BASE_ADDR_COUNT; i++)
 180              		.loc 1 183 0
 181 000e 0023     		movs	r3, #0
 182 0010 7B61     		str	r3, [r7, #20]
 183 0012 27E0     		b	.L7
 184              	.L10:
 185              	.LBB2:
 184:Generated_Source\PSoC5/cyfitter_cfg.c **** 	{
 185:Generated_Source\PSoC5/cyfitter_cfg.c **** 		uint32 baseAddr = addr_table[i];
 186              		.loc 1 185 0
 187 0014 7B69     		ldr	r3, [r7, #20]
 188 0016 9B00     		lsls	r3, r3, #2
 189 0018 7A68     		ldr	r2, [r7, #4]
 190 001a 1344     		add	r3, r3, r2
 191 001c 1B68     		ldr	r3, [r3]
 192 001e BB60     		str	r3, [r7, #8]
 186:Generated_Source\PSoC5/cyfitter_cfg.c **** 		uint8 count = (uint8)baseAddr;
 193              		.loc 1 186 0
 194 0020 BB68     		ldr	r3, [r7, #8]
 195 0022 FB73     		strb	r3, [r7, #15]
 187:Generated_Source\PSoC5/cyfitter_cfg.c **** 		baseAddr &= 0xFFFFFF00u;
 196              		.loc 1 187 0
 197 0024 BB68     		ldr	r3, [r7, #8]
 198 0026 23F0FF03 		bic	r3, r3, #255
 199 002a BB60     		str	r3, [r7, #8]
 188:Generated_Source\PSoC5/cyfitter_cfg.c **** 		while (count != 0u)
 200              		.loc 1 188 0
 201 002c 14E0     		b	.L8
 202              	.L9:
 189:Generated_Source\PSoC5/cyfitter_cfg.c **** 		{
 190:Generated_Source\PSoC5/cyfitter_cfg.c **** 			CY_SET_XTND_REG8((void CYFAR *)(baseAddr + data_table[j].offset), data_table[j].value);
 203              		.loc 1 190 0
 204 002e 3B69     		ldr	r3, [r7, #16]
 205 0030 5B00     		lsls	r3, r3, #1
 206 0032 3A68     		ldr	r2, [r7]
 207 0034 1344     		add	r3, r3, r2
 208 0036 1B78     		ldrb	r3, [r3]	@ zero_extendqisi2
 209 0038 1A46     		mov	r2, r3
ARM GAS  C:\Users\bryan.lee\AppData\Local\Temp\cc3Mn7NL.s 			page 8


 210 003a BB68     		ldr	r3, [r7, #8]
 211 003c 1344     		add	r3, r3, r2
 212 003e 1946     		mov	r1, r3
 213 0040 3B69     		ldr	r3, [r7, #16]
 214 0042 5B00     		lsls	r3, r3, #1
 215 0044 3A68     		ldr	r2, [r7]
 216 0046 1344     		add	r3, r3, r2
 217 0048 5B78     		ldrb	r3, [r3, #1]	@ zero_extendqisi2
 218 004a 0B70     		strb	r3, [r1]
 191:Generated_Source\PSoC5/cyfitter_cfg.c **** 			j++;
 219              		.loc 1 191 0
 220 004c 3B69     		ldr	r3, [r7, #16]
 221 004e 0133     		adds	r3, r3, #1
 222 0050 3B61     		str	r3, [r7, #16]
 192:Generated_Source\PSoC5/cyfitter_cfg.c **** 			count--;
 223              		.loc 1 192 0
 224 0052 FB7B     		ldrb	r3, [r7, #15]	@ zero_extendqisi2
 225 0054 013B     		subs	r3, r3, #1
 226 0056 FB73     		strb	r3, [r7, #15]
 227              	.L8:
 188:Generated_Source\PSoC5/cyfitter_cfg.c **** 		{
 228              		.loc 1 188 0
 229 0058 FB7B     		ldrb	r3, [r7, #15]	@ zero_extendqisi2
 230 005a 002B     		cmp	r3, #0
 231 005c E7D1     		bne	.L9
 232              	.LBE2:
 183:Generated_Source\PSoC5/cyfitter_cfg.c **** 	{
 233              		.loc 1 183 0 discriminator 2
 234 005e 7B69     		ldr	r3, [r7, #20]
 235 0060 0133     		adds	r3, r3, #1
 236 0062 7B61     		str	r3, [r7, #20]
 237              	.L7:
 183:Generated_Source\PSoC5/cyfitter_cfg.c **** 	{
 238              		.loc 1 183 0 is_stmt 0 discriminator 1
 239 0064 7B69     		ldr	r3, [r7, #20]
 240 0066 112B     		cmp	r3, #17
 241 0068 D4D9     		bls	.L10
 193:Generated_Source\PSoC5/cyfitter_cfg.c **** 		}
 194:Generated_Source\PSoC5/cyfitter_cfg.c **** 	}
 195:Generated_Source\PSoC5/cyfitter_cfg.c **** }
 242              		.loc 1 195 0 is_stmt 1
 243 006a 1C37     		adds	r7, r7, #28
 244              		.cfi_def_cfa_offset 4
 245 006c BD46     		mov	sp, r7
 246              		.cfi_def_cfa_register 13
 247              		@ sp needed
 248 006e 5DF8047B 		ldr	r7, [sp], #4
 249              		.cfi_restore 7
 250              		.cfi_def_cfa_offset 0
 251 0072 7047     		bx	lr
 252              		.cfi_endproc
 253              	.LFE4:
 254              		.size	cfg_write_bytes32, .-cfg_write_bytes32
 255              		.section	.text.ClockSetup,"ax",%progbits
 256              		.align	2
 257              		.thumb
 258              		.thumb_func
ARM GAS  C:\Users\bryan.lee\AppData\Local\Temp\cc3Mn7NL.s 			page 9


 259              		.type	ClockSetup, %function
 260              	ClockSetup:
 261              	.LFB5:
 196:Generated_Source\PSoC5/cyfitter_cfg.c **** 
 197:Generated_Source\PSoC5/cyfitter_cfg.c **** /*******************************************************************************
 198:Generated_Source\PSoC5/cyfitter_cfg.c **** * Function Name: ClockSetup
 199:Generated_Source\PSoC5/cyfitter_cfg.c **** ********************************************************************************
 200:Generated_Source\PSoC5/cyfitter_cfg.c **** *
 201:Generated_Source\PSoC5/cyfitter_cfg.c **** * Summary:
 202:Generated_Source\PSoC5/cyfitter_cfg.c **** *  Performs the initialization of all of the clocks in the device based on the
 203:Generated_Source\PSoC5/cyfitter_cfg.c **** *  settings in the Clock tab of the DWR.  This includes enabling the requested
 204:Generated_Source\PSoC5/cyfitter_cfg.c **** *  clocks and setting the necessary dividers to produce the desired frequency. 
 205:Generated_Source\PSoC5/cyfitter_cfg.c **** *
 206:Generated_Source\PSoC5/cyfitter_cfg.c **** * Parameters:
 207:Generated_Source\PSoC5/cyfitter_cfg.c **** *  void
 208:Generated_Source\PSoC5/cyfitter_cfg.c **** *
 209:Generated_Source\PSoC5/cyfitter_cfg.c **** * Return:
 210:Generated_Source\PSoC5/cyfitter_cfg.c **** *  void
 211:Generated_Source\PSoC5/cyfitter_cfg.c **** *
 212:Generated_Source\PSoC5/cyfitter_cfg.c **** *******************************************************************************/
 213:Generated_Source\PSoC5/cyfitter_cfg.c **** static void ClockSetup(void);
 214:Generated_Source\PSoC5/cyfitter_cfg.c **** static void ClockSetup(void)
 215:Generated_Source\PSoC5/cyfitter_cfg.c **** {
 262              		.loc 1 215 0
 263              		.cfi_startproc
 264              		@ args = 0, pretend = 0, frame = 8
 265              		@ frame_needed = 1, uses_anonymous_args = 0
 266 0000 80B5     		push	{r7, lr}
 267              		.cfi_def_cfa_offset 8
 268              		.cfi_offset 7, -8
 269              		.cfi_offset 14, -4
 270 0002 82B0     		sub	sp, sp, #8
 271              		.cfi_def_cfa_offset 16
 272 0004 00AF     		add	r7, sp, #0
 273              		.cfi_def_cfa_register 7
 216:Generated_Source\PSoC5/cyfitter_cfg.c **** 	uint8 x32TrHold;
 217:Generated_Source\PSoC5/cyfitter_cfg.c **** 	uint32 timeout;
 218:Generated_Source\PSoC5/cyfitter_cfg.c **** 	uint8 pllLock;
 219:Generated_Source\PSoC5/cyfitter_cfg.c **** 
 220:Generated_Source\PSoC5/cyfitter_cfg.c **** 	x32TrHold = CY_GET_XTND_REG8((void CYFAR *)CYREG_X32_TR);
 274              		.loc 1 220 0
 275 0006 524B     		ldr	r3, .L19
 276 0008 1B78     		ldrb	r3, [r3]
 277 000a BB70     		strb	r3, [r7, #2]
 221:Generated_Source\PSoC5/cyfitter_cfg.c **** 
 222:Generated_Source\PSoC5/cyfitter_cfg.c **** 	/* Configure Digital Clocks based on settings from Clock DWR */
 223:Generated_Source\PSoC5/cyfitter_cfg.c **** 	CY_SET_XTND_REG16((void CYFAR *)(CYREG_CLKDIST_DCFG0_CFG0), 0x0000u);
 278              		.loc 1 223 0
 279 000c 514B     		ldr	r3, .L19+4
 280 000e 0022     		movs	r2, #0
 281 0010 1A80     		strh	r2, [r3]	@ movhi
 224:Generated_Source\PSoC5/cyfitter_cfg.c **** 	CY_SET_XTND_REG8((void CYFAR *)(CYREG_CLKDIST_DCFG0_CFG0 + 0x2u), 0x1Du);
 282              		.loc 1 224 0
 283 0012 514B     		ldr	r3, .L19+8
 284 0014 1D22     		movs	r2, #29
 285 0016 1A70     		strb	r2, [r3]
 225:Generated_Source\PSoC5/cyfitter_cfg.c **** 	CY_SET_XTND_REG16((void CYFAR *)(CYREG_CLKDIST_DCFG1_CFG0), 0x0000u);
ARM GAS  C:\Users\bryan.lee\AppData\Local\Temp\cc3Mn7NL.s 			page 10


 286              		.loc 1 225 0
 287 0018 504B     		ldr	r3, .L19+12
 288 001a 0022     		movs	r2, #0
 289 001c 1A80     		strh	r2, [r3]	@ movhi
 226:Generated_Source\PSoC5/cyfitter_cfg.c **** 	CY_SET_XTND_REG8((void CYFAR *)(CYREG_CLKDIST_DCFG1_CFG0 + 0x2u), 0x50u);
 290              		.loc 1 226 0
 291 001e 504B     		ldr	r3, .L19+16
 292 0020 5022     		movs	r2, #80
 293 0022 1A70     		strb	r2, [r3]
 227:Generated_Source\PSoC5/cyfitter_cfg.c **** 
 228:Generated_Source\PSoC5/cyfitter_cfg.c **** 	/* Configure Analog Clocks based on settings from Clock DWR */
 229:Generated_Source\PSoC5/cyfitter_cfg.c **** 	CYCONFIGCPY((void CYFAR *)(CYREG_CLKDIST_ACFG0_CFG0), (const void CYFAR *)(BS_CYDEV_CLKDIST_ACFG0_
 294              		.loc 1 229 0
 295 0024 4F48     		ldr	r0, .L19+20
 296 0026 5049     		ldr	r1, .L19+24
 297 0028 0422     		movs	r2, #4
 298 002a FFF7FEFF 		bl	CYCONFIGCPY
 230:Generated_Source\PSoC5/cyfitter_cfg.c **** 
 231:Generated_Source\PSoC5/cyfitter_cfg.c **** 	/* Configure ILO based on settings from Clock DWR */
 232:Generated_Source\PSoC5/cyfitter_cfg.c **** 	CY_SET_XTND_REG8((void CYFAR *)(CYREG_SLOWCLK_ILO_CR0), 0x02u);
 299              		.loc 1 232 0
 300 002e 4F4B     		ldr	r3, .L19+28
 301 0030 0222     		movs	r2, #2
 302 0032 1A70     		strb	r2, [r3]
 233:Generated_Source\PSoC5/cyfitter_cfg.c **** 	CY_SET_XTND_REG8((void CYFAR *)(CYREG_CLKDIST_CR), 0x08u);
 303              		.loc 1 233 0
 304 0034 4FF04023 		mov	r3, #1073758208
 305 0038 0822     		movs	r2, #8
 306 003a 1A70     		strb	r2, [r3]
 234:Generated_Source\PSoC5/cyfitter_cfg.c **** 
 235:Generated_Source\PSoC5/cyfitter_cfg.c **** 	/* Configure XTAL 32kHz based on settings from Clock DWR */
 236:Generated_Source\PSoC5/cyfitter_cfg.c **** 	CY_SET_XTND_REG8((void CYFAR *)(CYREG_SLOWCLK_X32_TST), 0xF3u);
 307              		.loc 1 236 0
 308 003c 4C4B     		ldr	r3, .L19+32
 309 003e F322     		movs	r2, #243
 310 0040 1A70     		strb	r2, [r3]
 237:Generated_Source\PSoC5/cyfitter_cfg.c **** 	CY_SET_XTND_REG8((void CYFAR *)(CYREG_X32_TR), 0x03u);
 311              		.loc 1 237 0
 312 0042 434B     		ldr	r3, .L19
 313 0044 0322     		movs	r2, #3
 314 0046 1A70     		strb	r2, [r3]
 238:Generated_Source\PSoC5/cyfitter_cfg.c **** 	CY_SET_XTND_REG8((void CYFAR *)(CYREG_SLOWCLK_X32_CFG), 0x84u);
 315              		.loc 1 238 0
 316 0048 4A4B     		ldr	r3, .L19+36
 317 004a 8422     		movs	r2, #132
 318 004c 1A70     		strb	r2, [r3]
 239:Generated_Source\PSoC5/cyfitter_cfg.c **** 	CY_SET_XTND_REG8((void CYFAR *)(CYREG_SLOWCLK_X32_CR), 0x05u);
 319              		.loc 1 239 0
 320 004e 4A4B     		ldr	r3, .L19+40
 321 0050 0522     		movs	r2, #5
 322 0052 1A70     		strb	r2, [r3]
 240:Generated_Source\PSoC5/cyfitter_cfg.c **** 	/* Wait up to 1000000us for the XTAL 32kHz to lock */
 241:Generated_Source\PSoC5/cyfitter_cfg.c **** 	for (timeout = 1000000u / 10u; (timeout > 0u) && ((CY_GET_XTND_REG8((void CYFAR *)CYREG_SLOWCLK_X3
 323              		.loc 1 241 0
 324 0054 494B     		ldr	r3, .L19+44
 325 0056 7B60     		str	r3, [r7, #4]
 326 0058 06E0     		b	.L12
ARM GAS  C:\Users\bryan.lee\AppData\Local\Temp\cc3Mn7NL.s 			page 11


 327              	.L14:
 242:Generated_Source\PSoC5/cyfitter_cfg.c **** 	{ 
 243:Generated_Source\PSoC5/cyfitter_cfg.c **** 		
 244:Generated_Source\PSoC5/cyfitter_cfg.c **** 		CyDelayCycles(10u * 48u); /* Delay 10us based on 48MHz clock */
 328              		.loc 1 244 0 discriminator 4
 329 005a 4FF4F070 		mov	r0, #480
 330 005e FFF7FEFF 		bl	CyDelayCycles
 241:Generated_Source\PSoC5/cyfitter_cfg.c **** 	{ 
 331              		.loc 1 241 0 discriminator 4
 332 0062 7B68     		ldr	r3, [r7, #4]
 333 0064 013B     		subs	r3, r3, #1
 334 0066 7B60     		str	r3, [r7, #4]
 335              	.L12:
 241:Generated_Source\PSoC5/cyfitter_cfg.c **** 	{ 
 336              		.loc 1 241 0 is_stmt 0 discriminator 1
 337 0068 7B68     		ldr	r3, [r7, #4]
 338 006a 002B     		cmp	r3, #0
 339 006c 06D0     		beq	.L13
 241:Generated_Source\PSoC5/cyfitter_cfg.c **** 	{ 
 340              		.loc 1 241 0 discriminator 3
 341 006e 424B     		ldr	r3, .L19+40
 342 0070 1B78     		ldrb	r3, [r3]
 343 0072 DBB2     		uxtb	r3, r3
 344 0074 03F02003 		and	r3, r3, #32
 345 0078 002B     		cmp	r3, #0
 346 007a EED0     		beq	.L14
 347              	.L13:
 245:Generated_Source\PSoC5/cyfitter_cfg.c **** 	}
 246:Generated_Source\PSoC5/cyfitter_cfg.c **** 	CY_SET_XTND_REG8((void CYFAR *)(CYREG_X32_TR), (x32TrHold));
 348              		.loc 1 246 0 is_stmt 1
 349 007c 344A     		ldr	r2, .L19
 350 007e BB78     		ldrb	r3, [r7, #2]
 351 0080 1370     		strb	r3, [r2]
 247:Generated_Source\PSoC5/cyfitter_cfg.c **** 
 248:Generated_Source\PSoC5/cyfitter_cfg.c **** 	/* Configure IMO based on settings from Clock DWR */
 249:Generated_Source\PSoC5/cyfitter_cfg.c **** 	CY_SET_XTND_REG8((void CYFAR *)(CYREG_FASTCLK_IMO_CR), 0x03u);
 352              		.loc 1 249 0
 353 0082 3F4B     		ldr	r3, .L19+48
 354 0084 0322     		movs	r2, #3
 355 0086 1A70     		strb	r2, [r3]
 250:Generated_Source\PSoC5/cyfitter_cfg.c **** 	CY_SET_XTND_REG8((void CYFAR *)(CYREG_IMO_TR1), (CY_GET_XTND_REG8((void CYFAR *)CYREG_FLSHID_CUST_
 356              		.loc 1 250 0
 357 0088 3E4B     		ldr	r3, .L19+52
 358 008a 3F4A     		ldr	r2, .L19+56
 359 008c 1278     		ldrb	r2, [r2]
 360 008e D2B2     		uxtb	r2, r2
 361 0090 1A70     		strb	r2, [r3]
 251:Generated_Source\PSoC5/cyfitter_cfg.c **** 
 252:Generated_Source\PSoC5/cyfitter_cfg.c **** 	/* Configure PLL based on settings from Clock DWR */
 253:Generated_Source\PSoC5/cyfitter_cfg.c **** 	CY_SET_XTND_REG16((void CYFAR *)(CYREG_FASTCLK_PLL_P), 0x0008u);
 362              		.loc 1 253 0
 363 0092 3E4B     		ldr	r3, .L19+60
 364 0094 0822     		movs	r2, #8
 365 0096 1A80     		strh	r2, [r3]	@ movhi
 254:Generated_Source\PSoC5/cyfitter_cfg.c **** 	CY_SET_XTND_REG16((void CYFAR *)(CYREG_FASTCLK_PLL_CFG0), 0x1251u);
 366              		.loc 1 254 0
 367 0098 3D4B     		ldr	r3, .L19+64
ARM GAS  C:\Users\bryan.lee\AppData\Local\Temp\cc3Mn7NL.s 			page 12


 368 009a 41F25122 		movw	r2, #4689
 369 009e 1A80     		strh	r2, [r3]	@ movhi
 255:Generated_Source\PSoC5/cyfitter_cfg.c **** 	/* Wait up to 250us for the PLL to lock */
 256:Generated_Source\PSoC5/cyfitter_cfg.c **** 	pllLock = 0u;
 370              		.loc 1 256 0
 371 00a0 0023     		movs	r3, #0
 372 00a2 FB70     		strb	r3, [r7, #3]
 257:Generated_Source\PSoC5/cyfitter_cfg.c **** 	for (timeout = 250u / 10u; (timeout > 0u) && (pllLock != 0x03u); timeout--)
 373              		.loc 1 257 0
 374 00a4 1923     		movs	r3, #25
 375 00a6 7B60     		str	r3, [r7, #4]
 376 00a8 14E0     		b	.L15
 377              	.L17:
 258:Generated_Source\PSoC5/cyfitter_cfg.c **** 	{ 
 259:Generated_Source\PSoC5/cyfitter_cfg.c **** 		pllLock = 0x03u & ((uint8)((uint8)pllLock << 1) | ((CY_GET_XTND_REG8((void CYFAR *)CYREG_FASTCLK_
 378              		.loc 1 259 0 discriminator 4
 379 00aa FB78     		ldrb	r3, [r7, #3]
 380 00ac 5B00     		lsls	r3, r3, #1
 381 00ae DAB2     		uxtb	r2, r3
 382 00b0 384B     		ldr	r3, .L19+68
 383 00b2 1B78     		ldrb	r3, [r3]
 384 00b4 DBB2     		uxtb	r3, r3
 385 00b6 03F00103 		and	r3, r3, #1
 386 00ba DBB2     		uxtb	r3, r3
 387 00bc 1343     		orrs	r3, r3, r2
 388 00be DBB2     		uxtb	r3, r3
 389 00c0 03F00303 		and	r3, r3, #3
 390 00c4 FB70     		strb	r3, [r7, #3]
 260:Generated_Source\PSoC5/cyfitter_cfg.c **** 		CyDelayCycles(10u * 48u); /* Delay 10us based on 48MHz clock */
 391              		.loc 1 260 0 discriminator 4
 392 00c6 4FF4F070 		mov	r0, #480
 393 00ca FFF7FEFF 		bl	CyDelayCycles
 257:Generated_Source\PSoC5/cyfitter_cfg.c **** 	for (timeout = 250u / 10u; (timeout > 0u) && (pllLock != 0x03u); timeout--)
 394              		.loc 1 257 0 discriminator 4
 395 00ce 7B68     		ldr	r3, [r7, #4]
 396 00d0 013B     		subs	r3, r3, #1
 397 00d2 7B60     		str	r3, [r7, #4]
 398              	.L15:
 257:Generated_Source\PSoC5/cyfitter_cfg.c **** 	for (timeout = 250u / 10u; (timeout > 0u) && (pllLock != 0x03u); timeout--)
 399              		.loc 1 257 0 is_stmt 0 discriminator 1
 400 00d4 7B68     		ldr	r3, [r7, #4]
 401 00d6 002B     		cmp	r3, #0
 402 00d8 02D0     		beq	.L16
 257:Generated_Source\PSoC5/cyfitter_cfg.c **** 	for (timeout = 250u / 10u; (timeout > 0u) && (pllLock != 0x03u); timeout--)
 403              		.loc 1 257 0 discriminator 3
 404 00da FB78     		ldrb	r3, [r7, #3]	@ zero_extendqisi2
 405 00dc 032B     		cmp	r3, #3
 406 00de E4D1     		bne	.L17
 407              	.L16:
 261:Generated_Source\PSoC5/cyfitter_cfg.c **** 	}
 262:Generated_Source\PSoC5/cyfitter_cfg.c **** 	/* If we ran out of time the PLL didn't lock so go to the error function */
 263:Generated_Source\PSoC5/cyfitter_cfg.c **** 	if (timeout == 0u)
 408              		.loc 1 263 0 is_stmt 1
 409 00e0 7B68     		ldr	r3, [r7, #4]
 410 00e2 002B     		cmp	r3, #0
 411 00e4 02D1     		bne	.L18
 264:Generated_Source\PSoC5/cyfitter_cfg.c **** 	{
ARM GAS  C:\Users\bryan.lee\AppData\Local\Temp\cc3Mn7NL.s 			page 13


 265:Generated_Source\PSoC5/cyfitter_cfg.c **** 		CyClockStartupError(CYCLOCKSTART_PLL_ERROR);
 412              		.loc 1 265 0
 413 00e6 0320     		movs	r0, #3
 414 00e8 FFF7FEFF 		bl	CyClockStartupError
 415              	.L18:
 266:Generated_Source\PSoC5/cyfitter_cfg.c **** 	}
 267:Generated_Source\PSoC5/cyfitter_cfg.c **** 
 268:Generated_Source\PSoC5/cyfitter_cfg.c **** 	/* Configure Bus/Master Clock based on settings from Clock DWR */
 269:Generated_Source\PSoC5/cyfitter_cfg.c **** 	CY_SET_XTND_REG16((void CYFAR *)(CYREG_CLKDIST_MSTR0), 0x0100u);
 416              		.loc 1 269 0
 417 00ec 2A4B     		ldr	r3, .L19+72
 418 00ee 4FF48072 		mov	r2, #256
 419 00f2 1A80     		strh	r2, [r3]	@ movhi
 270:Generated_Source\PSoC5/cyfitter_cfg.c **** 	CY_SET_XTND_REG8((void CYFAR *)(CYREG_CLKDIST_MSTR0), 0x07u);
 420              		.loc 1 270 0
 421 00f4 284B     		ldr	r3, .L19+72
 422 00f6 0722     		movs	r2, #7
 423 00f8 1A70     		strb	r2, [r3]
 271:Generated_Source\PSoC5/cyfitter_cfg.c **** 	CY_SET_XTND_REG8((void CYFAR *)(CYREG_CLKDIST_BCFG0), 0x00u);
 424              		.loc 1 271 0
 425 00fa 284B     		ldr	r3, .L19+76
 426 00fc 0022     		movs	r2, #0
 427 00fe 1A70     		strb	r2, [r3]
 272:Generated_Source\PSoC5/cyfitter_cfg.c **** 	CY_SET_XTND_REG8((void CYFAR *)(CYREG_CLKDIST_BCFG2), 0x48u);
 428              		.loc 1 272 0
 429 0100 274B     		ldr	r3, .L19+80
 430 0102 4822     		movs	r2, #72
 431 0104 1A70     		strb	r2, [r3]
 273:Generated_Source\PSoC5/cyfitter_cfg.c **** 	CY_SET_XTND_REG8((void CYFAR *)(CYREG_CLKDIST_MSTR0), 0x00u);
 432              		.loc 1 273 0
 433 0106 244B     		ldr	r3, .L19+72
 434 0108 0022     		movs	r2, #0
 435 010a 1A70     		strb	r2, [r3]
 274:Generated_Source\PSoC5/cyfitter_cfg.c **** 	CY_SET_XTND_REG8((void CYFAR *)(CYREG_CLKDIST_LD), 0x02u);
 436              		.loc 1 274 0
 437 010c 254B     		ldr	r3, .L19+84
 438 010e 0222     		movs	r2, #2
 439 0110 1A70     		strb	r2, [r3]
 275:Generated_Source\PSoC5/cyfitter_cfg.c **** 	CY_SET_XTND_REG8((void CYFAR *)(CYREG_CLKDIST_DLY1), 0x04u);
 440              		.loc 1 275 0
 441 0112 254B     		ldr	r3, .L19+88
 442 0114 0422     		movs	r2, #4
 443 0116 1A70     		strb	r2, [r3]
 276:Generated_Source\PSoC5/cyfitter_cfg.c **** 
 277:Generated_Source\PSoC5/cyfitter_cfg.c **** 	CY_SET_XTND_REG8((void CYFAR *)(CYREG_PM_ACT_CFG2), ((CY_GET_XTND_REG8((void CYFAR *)CYREG_PM_ACT_
 444              		.loc 1 277 0
 445 0118 244A     		ldr	r2, .L19+92
 446 011a 244B     		ldr	r3, .L19+92
 447 011c 1B78     		ldrb	r3, [r3]
 448 011e DBB2     		uxtb	r3, r3
 449 0120 43F00303 		orr	r3, r3, #3
 450 0124 DBB2     		uxtb	r3, r3
 451 0126 1370     		strb	r3, [r2]
 278:Generated_Source\PSoC5/cyfitter_cfg.c **** 	CY_SET_XTND_REG8((void CYFAR *)(CYREG_PM_ACT_CFG1), ((CY_GET_XTND_REG8((void CYFAR *)CYREG_PM_ACT_
 452              		.loc 1 278 0
 453 0128 214A     		ldr	r2, .L19+96
 454 012a 214B     		ldr	r3, .L19+96
ARM GAS  C:\Users\bryan.lee\AppData\Local\Temp\cc3Mn7NL.s 			page 14


 455 012c 1B78     		ldrb	r3, [r3]
 456 012e DBB2     		uxtb	r3, r3
 457 0130 43F00103 		orr	r3, r3, #1
 458 0134 DBB2     		uxtb	r3, r3
 459 0136 1370     		strb	r3, [r2]
 279:Generated_Source\PSoC5/cyfitter_cfg.c **** 	CY_SET_XTND_REG8((void CYFAR *)(CYREG_PM_ACT_CFG0), ((CY_GET_XTND_REG8((void CYFAR *)CYREG_PM_ACT_
 460              		.loc 1 279 0
 461 0138 1E4A     		ldr	r2, .L19+100
 462 013a 1E4B     		ldr	r3, .L19+100
 463 013c 1B78     		ldrb	r3, [r3]
 464 013e DBB2     		uxtb	r3, r3
 465 0140 63F07F03 		orn	r3, r3, #127
 466 0144 DBB2     		uxtb	r3, r3
 467 0146 1370     		strb	r3, [r2]
 280:Generated_Source\PSoC5/cyfitter_cfg.c **** }
 468              		.loc 1 280 0
 469 0148 0837     		adds	r7, r7, #8
 470              		.cfi_def_cfa_offset 8
 471 014a BD46     		mov	sp, r7
 472              		.cfi_def_cfa_register 13
 473              		@ sp needed
 474 014c 80BD     		pop	{r7, pc}
 475              	.L20:
 476 014e 00BF     		.align	2
 477              	.L19:
 478 0150 98460040 		.word	1073759896
 479 0154 80400040 		.word	1073758336
 480 0158 82400040 		.word	1073758338
 481 015c 84400040 		.word	1073758340
 482 0160 86400040 		.word	1073758342
 483 0164 00410040 		.word	1073758464
 484 0168 58010048 		.word	1207959896
 485 016c 00430040 		.word	1073758976
 486 0170 0A430040 		.word	1073758986
 487 0174 09430040 		.word	1073758985
 488 0178 08430040 		.word	1073758984
 489 017c A0860100 		.word	100000
 490 0180 00420040 		.word	1073758720
 491 0184 A1460040 		.word	1073759905
 492 0188 08010049 		.word	1224737032
 493 018c 22420040 		.word	1073758754
 494 0190 20420040 		.word	1073758752
 495 0194 25420040 		.word	1073758757
 496 0198 04400040 		.word	1073758212
 497 019c 06400040 		.word	1073758214
 498 01a0 08400040 		.word	1073758216
 499 01a4 01400040 		.word	1073758209
 500 01a8 0B400040 		.word	1073758219
 501 01ac A2430040 		.word	1073759138
 502 01b0 A1430040 		.word	1073759137
 503 01b4 A0430040 		.word	1073759136
 504              		.cfi_endproc
 505              	.LFE5:
 506              		.size	ClockSetup, .-ClockSetup
 507              		.section	.text.AnalogSetDefault,"ax",%progbits
 508              		.align	2
 509              		.thumb
ARM GAS  C:\Users\bryan.lee\AppData\Local\Temp\cc3Mn7NL.s 			page 15


 510              		.thumb_func
 511              		.type	AnalogSetDefault, %function
 512              	AnalogSetDefault:
 513              	.LFB6:
 281:Generated_Source\PSoC5/cyfitter_cfg.c **** 
 282:Generated_Source\PSoC5/cyfitter_cfg.c **** 
 283:Generated_Source\PSoC5/cyfitter_cfg.c **** /* Analog API Functions */
 284:Generated_Source\PSoC5/cyfitter_cfg.c **** 
 285:Generated_Source\PSoC5/cyfitter_cfg.c **** 
 286:Generated_Source\PSoC5/cyfitter_cfg.c **** /*******************************************************************************
 287:Generated_Source\PSoC5/cyfitter_cfg.c **** * Function Name: AnalogSetDefault
 288:Generated_Source\PSoC5/cyfitter_cfg.c **** ********************************************************************************
 289:Generated_Source\PSoC5/cyfitter_cfg.c **** *
 290:Generated_Source\PSoC5/cyfitter_cfg.c **** * Summary:
 291:Generated_Source\PSoC5/cyfitter_cfg.c **** *  Sets up the analog portions of the chip to default values based on chip
 292:Generated_Source\PSoC5/cyfitter_cfg.c **** *  configuration options from the project.
 293:Generated_Source\PSoC5/cyfitter_cfg.c **** *
 294:Generated_Source\PSoC5/cyfitter_cfg.c **** * Parameters:
 295:Generated_Source\PSoC5/cyfitter_cfg.c **** *  void
 296:Generated_Source\PSoC5/cyfitter_cfg.c **** *
 297:Generated_Source\PSoC5/cyfitter_cfg.c **** * Return:
 298:Generated_Source\PSoC5/cyfitter_cfg.c **** *  void
 299:Generated_Source\PSoC5/cyfitter_cfg.c **** *
 300:Generated_Source\PSoC5/cyfitter_cfg.c **** *******************************************************************************/
 301:Generated_Source\PSoC5/cyfitter_cfg.c **** static void AnalogSetDefault(void);
 302:Generated_Source\PSoC5/cyfitter_cfg.c **** static void AnalogSetDefault(void)
 303:Generated_Source\PSoC5/cyfitter_cfg.c **** {
 514              		.loc 1 303 0
 515              		.cfi_startproc
 516              		@ args = 0, pretend = 0, frame = 8
 517              		@ frame_needed = 1, uses_anonymous_args = 0
 518              		@ link register save eliminated.
 519 0000 80B4     		push	{r7}
 520              		.cfi_def_cfa_offset 4
 521              		.cfi_offset 7, -4
 522 0002 83B0     		sub	sp, sp, #12
 523              		.cfi_def_cfa_offset 16
 524 0004 00AF     		add	r7, sp, #0
 525              		.cfi_def_cfa_register 7
 304:Generated_Source\PSoC5/cyfitter_cfg.c **** 	uint8 bg_xover_inl_trim = CY_GET_XTND_REG8((void CYFAR *)(CYREG_FLSHID_MFG_CFG_BG_XOVER_INL_TRIM +
 526              		.loc 1 304 0
 527 0006 0E4B     		ldr	r3, .L22
 528 0008 1B78     		ldrb	r3, [r3]
 529 000a FB71     		strb	r3, [r7, #7]
 305:Generated_Source\PSoC5/cyfitter_cfg.c **** 	CY_SET_XTND_REG8((void CYFAR *)(CYREG_BG_DFT0), (bg_xover_inl_trim & 0x07u));
 530              		.loc 1 305 0
 531 000c 0D4A     		ldr	r2, .L22+4
 532 000e FB79     		ldrb	r3, [r7, #7]
 533 0010 03F00703 		and	r3, r3, #7
 534 0014 DBB2     		uxtb	r3, r3
 535 0016 1370     		strb	r3, [r2]
 306:Generated_Source\PSoC5/cyfitter_cfg.c **** 	CY_SET_XTND_REG8((void CYFAR *)(CYREG_BG_DFT1), ((bg_xover_inl_trim >> 4) & 0x0Fu));
 536              		.loc 1 306 0
 537 0018 0B4A     		ldr	r2, .L22+8
 538 001a FB79     		ldrb	r3, [r7, #7]	@ zero_extendqisi2
 539 001c 1B09     		lsrs	r3, r3, #4
 540 001e DBB2     		uxtb	r3, r3
ARM GAS  C:\Users\bryan.lee\AppData\Local\Temp\cc3Mn7NL.s 			page 16


 541 0020 1370     		strb	r3, [r2]
 307:Generated_Source\PSoC5/cyfitter_cfg.c **** 	CY_SET_XTND_REG8((void CYFAR *)CYREG_PRT6_AG, 0x20u);
 542              		.loc 1 307 0
 543 0022 0A4B     		ldr	r3, .L22+12
 544 0024 2022     		movs	r2, #32
 545 0026 1A70     		strb	r2, [r3]
 308:Generated_Source\PSoC5/cyfitter_cfg.c **** 	CY_SET_XTND_REG8((void CYFAR *)CYREG_DSM0_SW0, 0x02u);
 546              		.loc 1 308 0
 547 0028 094B     		ldr	r3, .L22+16
 548 002a 0222     		movs	r2, #2
 549 002c 1A70     		strb	r2, [r3]
 309:Generated_Source\PSoC5/cyfitter_cfg.c **** 	CY_SET_XTND_REG8((void CYFAR *)CYREG_PUMP_CR0, 0x44u);
 550              		.loc 1 309 0
 551 002e 094B     		ldr	r3, .L22+20
 552 0030 4422     		movs	r2, #68
 553 0032 1A70     		strb	r2, [r3]
 310:Generated_Source\PSoC5/cyfitter_cfg.c **** }
 554              		.loc 1 310 0
 555 0034 0C37     		adds	r7, r7, #12
 556              		.cfi_def_cfa_offset 4
 557 0036 BD46     		mov	sp, r7
 558              		.cfi_def_cfa_register 13
 559              		@ sp needed
 560 0038 5DF8047B 		ldr	r7, [sp], #4
 561              		.cfi_restore 7
 562              		.cfi_def_cfa_offset 0
 563 003c 7047     		bx	lr
 564              	.L23:
 565 003e 00BF     		.align	2
 566              	.L22:
 567 0040 CF010049 		.word	1224737231
 568 0044 6E580040 		.word	1073764462
 569 0048 6F580040 		.word	1073764463
 570 004c 6D510040 		.word	1073762669
 571 0050 005B0040 		.word	1073765120
 572 0054 76580040 		.word	1073764470
 573              		.cfi_endproc
 574              	.LFE6:
 575              		.size	AnalogSetDefault, .-AnalogSetDefault
 576              		.section	.text.SetAnalogRoutingPumps,"ax",%progbits
 577              		.align	2
 578              		.global	SetAnalogRoutingPumps
 579              		.thumb
 580              		.thumb_func
 581              		.type	SetAnalogRoutingPumps, %function
 582              	SetAnalogRoutingPumps:
 583              	.LFB7:
 311:Generated_Source\PSoC5/cyfitter_cfg.c **** 
 312:Generated_Source\PSoC5/cyfitter_cfg.c **** 
 313:Generated_Source\PSoC5/cyfitter_cfg.c **** /*******************************************************************************
 314:Generated_Source\PSoC5/cyfitter_cfg.c **** * Function Name: SetAnalogRoutingPumps
 315:Generated_Source\PSoC5/cyfitter_cfg.c **** ********************************************************************************
 316:Generated_Source\PSoC5/cyfitter_cfg.c **** *
 317:Generated_Source\PSoC5/cyfitter_cfg.c **** * Summary:
 318:Generated_Source\PSoC5/cyfitter_cfg.c **** * Enables or disables the analog pumps feeding analog routing switches.
 319:Generated_Source\PSoC5/cyfitter_cfg.c **** * Intended to be called at startup, based on the Vdda system configuration;
 320:Generated_Source\PSoC5/cyfitter_cfg.c **** * may be called during operation when the user informs us that the Vdda voltage
ARM GAS  C:\Users\bryan.lee\AppData\Local\Temp\cc3Mn7NL.s 			page 17


 321:Generated_Source\PSoC5/cyfitter_cfg.c **** * crossed the pump threshold.
 322:Generated_Source\PSoC5/cyfitter_cfg.c **** *
 323:Generated_Source\PSoC5/cyfitter_cfg.c **** * Parameters:
 324:Generated_Source\PSoC5/cyfitter_cfg.c **** *  enabled - 1 to enable the pumps, 0 to disable the pumps
 325:Generated_Source\PSoC5/cyfitter_cfg.c **** *
 326:Generated_Source\PSoC5/cyfitter_cfg.c **** * Return:
 327:Generated_Source\PSoC5/cyfitter_cfg.c **** *  void
 328:Generated_Source\PSoC5/cyfitter_cfg.c **** *
 329:Generated_Source\PSoC5/cyfitter_cfg.c **** *******************************************************************************/
 330:Generated_Source\PSoC5/cyfitter_cfg.c **** void SetAnalogRoutingPumps(uint8 enabled)
 331:Generated_Source\PSoC5/cyfitter_cfg.c **** {
 584              		.loc 1 331 0
 585              		.cfi_startproc
 586              		@ args = 0, pretend = 0, frame = 16
 587              		@ frame_needed = 1, uses_anonymous_args = 0
 588              		@ link register save eliminated.
 589 0000 80B4     		push	{r7}
 590              		.cfi_def_cfa_offset 4
 591              		.cfi_offset 7, -4
 592 0002 85B0     		sub	sp, sp, #20
 593              		.cfi_def_cfa_offset 24
 594 0004 00AF     		add	r7, sp, #0
 595              		.cfi_def_cfa_register 7
 596 0006 0346     		mov	r3, r0
 597 0008 FB71     		strb	r3, [r7, #7]
 332:Generated_Source\PSoC5/cyfitter_cfg.c **** 	uint8 regValue = CY_GET_XTND_REG8((void CYFAR *)CYREG_PUMP_CR0);
 598              		.loc 1 332 0
 599 000a 0B4B     		ldr	r3, .L27
 600 000c 1B78     		ldrb	r3, [r3]
 601 000e FB73     		strb	r3, [r7, #15]
 333:Generated_Source\PSoC5/cyfitter_cfg.c **** 	if (enabled != 0u)
 602              		.loc 1 333 0
 603 0010 FB79     		ldrb	r3, [r7, #7]	@ zero_extendqisi2
 604 0012 002B     		cmp	r3, #0
 605 0014 04D0     		beq	.L25
 334:Generated_Source\PSoC5/cyfitter_cfg.c **** 	{
 335:Generated_Source\PSoC5/cyfitter_cfg.c **** 		regValue |= 0x22u;
 606              		.loc 1 335 0
 607 0016 FB7B     		ldrb	r3, [r7, #15]
 608 0018 43F02203 		orr	r3, r3, #34
 609 001c FB73     		strb	r3, [r7, #15]
 610 001e 03E0     		b	.L26
 611              	.L25:
 336:Generated_Source\PSoC5/cyfitter_cfg.c **** 	}
 337:Generated_Source\PSoC5/cyfitter_cfg.c **** 	else
 338:Generated_Source\PSoC5/cyfitter_cfg.c **** 	{
 339:Generated_Source\PSoC5/cyfitter_cfg.c **** 		regValue &= (uint8)~0x22u;
 612              		.loc 1 339 0
 613 0020 FB7B     		ldrb	r3, [r7, #15]
 614 0022 23F02203 		bic	r3, r3, #34
 615 0026 FB73     		strb	r3, [r7, #15]
 616              	.L26:
 340:Generated_Source\PSoC5/cyfitter_cfg.c **** 	}
 341:Generated_Source\PSoC5/cyfitter_cfg.c **** 	CY_SET_XTND_REG8((void CYFAR *)CYREG_PUMP_CR0, regValue);
 617              		.loc 1 341 0
 618 0028 034A     		ldr	r2, .L27
 619 002a FB7B     		ldrb	r3, [r7, #15]
ARM GAS  C:\Users\bryan.lee\AppData\Local\Temp\cc3Mn7NL.s 			page 18


 620 002c 1370     		strb	r3, [r2]
 342:Generated_Source\PSoC5/cyfitter_cfg.c **** }
 621              		.loc 1 342 0
 622 002e 1437     		adds	r7, r7, #20
 623              		.cfi_def_cfa_offset 4
 624 0030 BD46     		mov	sp, r7
 625              		.cfi_def_cfa_register 13
 626              		@ sp needed
 627 0032 5DF8047B 		ldr	r7, [sp], #4
 628              		.cfi_restore 7
 629              		.cfi_def_cfa_offset 0
 630 0036 7047     		bx	lr
 631              	.L28:
 632              		.align	2
 633              	.L27:
 634 0038 76580040 		.word	1073764470
 635              		.cfi_endproc
 636              	.LFE7:
 637              		.size	SetAnalogRoutingPumps, .-SetAnalogRoutingPumps
 638              		.global	ADC_DelSig_1_AMux__addrTable
 639              		.section	.rodata
 640              		.align	2
 641              		.type	ADC_DelSig_1_AMux__addrTable, %object
 642              		.size	ADC_DelSig_1_AMux__addrTable, 8
 643              	ADC_DelSig_1_AMux__addrTable:
 644 0000 035B0040 		.word	1073765123
 645 0004 24430040 		.word	1073759012
 646              		.global	ADC_DelSig_1_AMux__maskTable
 647              		.align	2
 648              		.type	ADC_DelSig_1_AMux__maskTable, %object
 649              		.size	ADC_DelSig_1_AMux__maskTable, 2
 650              	ADC_DelSig_1_AMux__maskTable:
 651 0008 40       		.byte	64
 652 0009 00       		.byte	0
 653              		.section	.text.ADC_DelSig_1_AMux_Set,"ax",%progbits
 654              		.align	2
 655              		.global	ADC_DelSig_1_AMux_Set
 656              		.thumb
 657              		.thumb_func
 658              		.type	ADC_DelSig_1_AMux_Set, %function
 659              	ADC_DelSig_1_AMux_Set:
 660              	.LFB8:
 343:Generated_Source\PSoC5/cyfitter_cfg.c **** 
 344:Generated_Source\PSoC5/cyfitter_cfg.c **** #define CY_AMUX_UNUSED CYREG_BOOST_SR
 345:Generated_Source\PSoC5/cyfitter_cfg.c **** /* This is an implementation detail of the AMux. Code that depends on it may be
 346:Generated_Source\PSoC5/cyfitter_cfg.c ****    incompatible with other versions of PSoC Creator. */
 347:Generated_Source\PSoC5/cyfitter_cfg.c **** uint8 CYXDATA * const CYCODE ADC_DelSig_1_AMux__addrTable[2] = {
 348:Generated_Source\PSoC5/cyfitter_cfg.c **** 	(uint8 CYXDATA *)CYREG_DSM0_SW3, 
 349:Generated_Source\PSoC5/cyfitter_cfg.c **** 	(uint8 CYXDATA *)CY_AMUX_UNUSED, 
 350:Generated_Source\PSoC5/cyfitter_cfg.c **** };
 351:Generated_Source\PSoC5/cyfitter_cfg.c **** 
 352:Generated_Source\PSoC5/cyfitter_cfg.c **** /* This is an implementation detail of the AMux. Code that depends on it may be
 353:Generated_Source\PSoC5/cyfitter_cfg.c ****    incompatible with other versions of PSoC Creator. */
 354:Generated_Source\PSoC5/cyfitter_cfg.c **** const uint8 CYCODE ADC_DelSig_1_AMux__maskTable[2] = {
 355:Generated_Source\PSoC5/cyfitter_cfg.c **** 	0x40u, 
 356:Generated_Source\PSoC5/cyfitter_cfg.c **** 	0x00u, 
 357:Generated_Source\PSoC5/cyfitter_cfg.c **** };
ARM GAS  C:\Users\bryan.lee\AppData\Local\Temp\cc3Mn7NL.s 			page 19


 358:Generated_Source\PSoC5/cyfitter_cfg.c **** 
 359:Generated_Source\PSoC5/cyfitter_cfg.c **** /*******************************************************************************
 360:Generated_Source\PSoC5/cyfitter_cfg.c **** * Function Name: ADC_DelSig_1_AMux_Set
 361:Generated_Source\PSoC5/cyfitter_cfg.c **** ********************************************************************************
 362:Generated_Source\PSoC5/cyfitter_cfg.c **** * Summary:
 363:Generated_Source\PSoC5/cyfitter_cfg.c **** *  This function is used to set a particular channel as active on the AMux.
 364:Generated_Source\PSoC5/cyfitter_cfg.c **** *
 365:Generated_Source\PSoC5/cyfitter_cfg.c **** * Parameters:  
 366:Generated_Source\PSoC5/cyfitter_cfg.c **** *   channel - The mux channel input to set as active
 367:Generated_Source\PSoC5/cyfitter_cfg.c **** *
 368:Generated_Source\PSoC5/cyfitter_cfg.c **** * Return:
 369:Generated_Source\PSoC5/cyfitter_cfg.c **** *   void
 370:Generated_Source\PSoC5/cyfitter_cfg.c **** *
 371:Generated_Source\PSoC5/cyfitter_cfg.c **** *******************************************************************************/
 372:Generated_Source\PSoC5/cyfitter_cfg.c **** void ADC_DelSig_1_AMux_Set(uint8 channel)
 373:Generated_Source\PSoC5/cyfitter_cfg.c **** {
 661              		.loc 1 373 0
 662              		.cfi_startproc
 663              		@ args = 0, pretend = 0, frame = 8
 664              		@ frame_needed = 1, uses_anonymous_args = 0
 665              		@ link register save eliminated.
 666 0000 80B4     		push	{r7}
 667              		.cfi_def_cfa_offset 4
 668              		.cfi_offset 7, -4
 669 0002 83B0     		sub	sp, sp, #12
 670              		.cfi_def_cfa_offset 16
 671 0004 00AF     		add	r7, sp, #0
 672              		.cfi_def_cfa_register 7
 673 0006 0346     		mov	r3, r0
 674 0008 FB71     		strb	r3, [r7, #7]
 374:Generated_Source\PSoC5/cyfitter_cfg.c **** 	if (channel < 2)
 675              		.loc 1 374 0
 676 000a FB79     		ldrb	r3, [r7, #7]	@ zero_extendqisi2
 677 000c 012B     		cmp	r3, #1
 678 000e 0ED8     		bhi	.L29
 375:Generated_Source\PSoC5/cyfitter_cfg.c **** 	{
 376:Generated_Source\PSoC5/cyfitter_cfg.c **** 		*ADC_DelSig_1_AMux__addrTable[channel] |= ADC_DelSig_1_AMux__maskTable[channel];
 679              		.loc 1 376 0
 680 0010 FB79     		ldrb	r3, [r7, #7]	@ zero_extendqisi2
 681 0012 094A     		ldr	r2, .L31
 682 0014 52F82330 		ldr	r3, [r2, r3, lsl #2]
 683 0018 FA79     		ldrb	r2, [r7, #7]	@ zero_extendqisi2
 684 001a 0749     		ldr	r1, .L31
 685 001c 51F82220 		ldr	r2, [r1, r2, lsl #2]
 686 0020 1178     		ldrb	r1, [r2]	@ zero_extendqisi2
 687 0022 FA79     		ldrb	r2, [r7, #7]	@ zero_extendqisi2
 688 0024 0548     		ldr	r0, .L31+4
 689 0026 825C     		ldrb	r2, [r0, r2]	@ zero_extendqisi2
 690 0028 0A43     		orrs	r2, r2, r1
 691 002a D2B2     		uxtb	r2, r2
 692 002c 1A70     		strb	r2, [r3]
 693              	.L29:
 377:Generated_Source\PSoC5/cyfitter_cfg.c **** 	}
 378:Generated_Source\PSoC5/cyfitter_cfg.c **** }
 694              		.loc 1 378 0
 695 002e 0C37     		adds	r7, r7, #12
 696              		.cfi_def_cfa_offset 4
ARM GAS  C:\Users\bryan.lee\AppData\Local\Temp\cc3Mn7NL.s 			page 20


 697 0030 BD46     		mov	sp, r7
 698              		.cfi_def_cfa_register 13
 699              		@ sp needed
 700 0032 5DF8047B 		ldr	r7, [sp], #4
 701              		.cfi_restore 7
 702              		.cfi_def_cfa_offset 0
 703 0036 7047     		bx	lr
 704              	.L32:
 705              		.align	2
 706              	.L31:
 707 0038 00000000 		.word	ADC_DelSig_1_AMux__addrTable
 708 003c 00000000 		.word	ADC_DelSig_1_AMux__maskTable
 709              		.cfi_endproc
 710              	.LFE8:
 711              		.size	ADC_DelSig_1_AMux_Set, .-ADC_DelSig_1_AMux_Set
 712              		.section	.text.ADC_DelSig_1_AMux_Unset,"ax",%progbits
 713              		.align	2
 714              		.global	ADC_DelSig_1_AMux_Unset
 715              		.thumb
 716              		.thumb_func
 717              		.type	ADC_DelSig_1_AMux_Unset, %function
 718              	ADC_DelSig_1_AMux_Unset:
 719              	.LFB9:
 379:Generated_Source\PSoC5/cyfitter_cfg.c **** 
 380:Generated_Source\PSoC5/cyfitter_cfg.c **** /*******************************************************************************
 381:Generated_Source\PSoC5/cyfitter_cfg.c **** * Function Name: ADC_DelSig_1_AMux_Unset
 382:Generated_Source\PSoC5/cyfitter_cfg.c **** ********************************************************************************
 383:Generated_Source\PSoC5/cyfitter_cfg.c **** * Summary:
 384:Generated_Source\PSoC5/cyfitter_cfg.c **** *  This function is used to clear a particular channel from being active on the
 385:Generated_Source\PSoC5/cyfitter_cfg.c **** *  AMux.
 386:Generated_Source\PSoC5/cyfitter_cfg.c **** *
 387:Generated_Source\PSoC5/cyfitter_cfg.c **** * Parameters:  
 388:Generated_Source\PSoC5/cyfitter_cfg.c **** *   channel - The mux channel input to mark inactive
 389:Generated_Source\PSoC5/cyfitter_cfg.c **** *
 390:Generated_Source\PSoC5/cyfitter_cfg.c **** * Return:
 391:Generated_Source\PSoC5/cyfitter_cfg.c **** *   void
 392:Generated_Source\PSoC5/cyfitter_cfg.c **** *
 393:Generated_Source\PSoC5/cyfitter_cfg.c **** *******************************************************************************/
 394:Generated_Source\PSoC5/cyfitter_cfg.c **** void ADC_DelSig_1_AMux_Unset(uint8 channel)
 395:Generated_Source\PSoC5/cyfitter_cfg.c **** {
 720              		.loc 1 395 0
 721              		.cfi_startproc
 722              		@ args = 0, pretend = 0, frame = 8
 723              		@ frame_needed = 1, uses_anonymous_args = 0
 724              		@ link register save eliminated.
 725 0000 80B4     		push	{r7}
 726              		.cfi_def_cfa_offset 4
 727              		.cfi_offset 7, -4
 728 0002 83B0     		sub	sp, sp, #12
 729              		.cfi_def_cfa_offset 16
 730 0004 00AF     		add	r7, sp, #0
 731              		.cfi_def_cfa_register 7
 732 0006 0346     		mov	r3, r0
 733 0008 FB71     		strb	r3, [r7, #7]
 396:Generated_Source\PSoC5/cyfitter_cfg.c **** 	if (channel < 2)
 734              		.loc 1 396 0
 735 000a FB79     		ldrb	r3, [r7, #7]	@ zero_extendqisi2
ARM GAS  C:\Users\bryan.lee\AppData\Local\Temp\cc3Mn7NL.s 			page 21


 736 000c 012B     		cmp	r3, #1
 737 000e 10D8     		bhi	.L33
 397:Generated_Source\PSoC5/cyfitter_cfg.c **** 	{
 398:Generated_Source\PSoC5/cyfitter_cfg.c **** 		*ADC_DelSig_1_AMux__addrTable[channel] &= (uint8)~ADC_DelSig_1_AMux__maskTable[channel];
 738              		.loc 1 398 0
 739 0010 FB79     		ldrb	r3, [r7, #7]	@ zero_extendqisi2
 740 0012 0A4A     		ldr	r2, .L35
 741 0014 52F82330 		ldr	r3, [r2, r3, lsl #2]
 742 0018 FA79     		ldrb	r2, [r7, #7]	@ zero_extendqisi2
 743 001a 0849     		ldr	r1, .L35
 744 001c 51F82220 		ldr	r2, [r1, r2, lsl #2]
 745 0020 1178     		ldrb	r1, [r2]	@ zero_extendqisi2
 746 0022 FA79     		ldrb	r2, [r7, #7]	@ zero_extendqisi2
 747 0024 0648     		ldr	r0, .L35+4
 748 0026 825C     		ldrb	r2, [r0, r2]	@ zero_extendqisi2
 749 0028 D243     		mvns	r2, r2
 750 002a D2B2     		uxtb	r2, r2
 751 002c 0A40     		ands	r2, r2, r1
 752 002e D2B2     		uxtb	r2, r2
 753 0030 1A70     		strb	r2, [r3]
 754              	.L33:
 399:Generated_Source\PSoC5/cyfitter_cfg.c **** 	}
 400:Generated_Source\PSoC5/cyfitter_cfg.c **** }
 755              		.loc 1 400 0
 756 0032 0C37     		adds	r7, r7, #12
 757              		.cfi_def_cfa_offset 4
 758 0034 BD46     		mov	sp, r7
 759              		.cfi_def_cfa_register 13
 760              		@ sp needed
 761 0036 5DF8047B 		ldr	r7, [sp], #4
 762              		.cfi_restore 7
 763              		.cfi_def_cfa_offset 0
 764 003a 7047     		bx	lr
 765              	.L36:
 766              		.align	2
 767              	.L35:
 768 003c 00000000 		.word	ADC_DelSig_1_AMux__addrTable
 769 0040 00000000 		.word	ADC_DelSig_1_AMux__maskTable
 770              		.cfi_endproc
 771              	.LFE9:
 772              		.size	ADC_DelSig_1_AMux_Unset, .-ADC_DelSig_1_AMux_Unset
 773              		.section	.text.cyfitter_cfg,"ax",%progbits
 774              		.align	2
 775              		.global	cyfitter_cfg
 776              		.thumb
 777              		.thumb_func
 778              		.type	cyfitter_cfg, %function
 779              	cyfitter_cfg:
 780              	.LFB10:
 401:Generated_Source\PSoC5/cyfitter_cfg.c **** 
 402:Generated_Source\PSoC5/cyfitter_cfg.c **** 
 403:Generated_Source\PSoC5/cyfitter_cfg.c **** 
 404:Generated_Source\PSoC5/cyfitter_cfg.c **** /*******************************************************************************
 405:Generated_Source\PSoC5/cyfitter_cfg.c **** * Function Name: cyfitter_cfg
 406:Generated_Source\PSoC5/cyfitter_cfg.c **** ********************************************************************************
 407:Generated_Source\PSoC5/cyfitter_cfg.c **** * Summary:
 408:Generated_Source\PSoC5/cyfitter_cfg.c **** *  This function is called by the start-up code for the selected device. It
ARM GAS  C:\Users\bryan.lee\AppData\Local\Temp\cc3Mn7NL.s 			page 22


 409:Generated_Source\PSoC5/cyfitter_cfg.c **** *  performs all of the necessary device configuration based on the design
 410:Generated_Source\PSoC5/cyfitter_cfg.c **** *  settings.  This includes settings from the Design Wide Resources (DWR) such
 411:Generated_Source\PSoC5/cyfitter_cfg.c **** *  as Clocks and Pins as well as any component configuration that is necessary.
 412:Generated_Source\PSoC5/cyfitter_cfg.c **** *
 413:Generated_Source\PSoC5/cyfitter_cfg.c **** * Parameters:  
 414:Generated_Source\PSoC5/cyfitter_cfg.c **** *   void
 415:Generated_Source\PSoC5/cyfitter_cfg.c **** *
 416:Generated_Source\PSoC5/cyfitter_cfg.c **** * Return:
 417:Generated_Source\PSoC5/cyfitter_cfg.c **** *   void
 418:Generated_Source\PSoC5/cyfitter_cfg.c **** *
 419:Generated_Source\PSoC5/cyfitter_cfg.c **** *******************************************************************************/
 420:Generated_Source\PSoC5/cyfitter_cfg.c **** 
 421:Generated_Source\PSoC5/cyfitter_cfg.c **** void cyfitter_cfg(void)
 422:Generated_Source\PSoC5/cyfitter_cfg.c **** {
 781              		.loc 1 422 0
 782              		.cfi_startproc
 783              		@ args = 0, pretend = 0, frame = 8
 784              		@ frame_needed = 1, uses_anonymous_args = 0
 785 0000 80B5     		push	{r7, lr}
 786              		.cfi_def_cfa_offset 8
 787              		.cfi_offset 7, -8
 788              		.cfi_offset 14, -4
 789 0002 82B0     		sub	sp, sp, #8
 790              		.cfi_def_cfa_offset 16
 791 0004 00AF     		add	r7, sp, #0
 792              		.cfi_def_cfa_register 7
 423:Generated_Source\PSoC5/cyfitter_cfg.c **** #ifdef CYGlobalIntDisable
 424:Generated_Source\PSoC5/cyfitter_cfg.c **** 	/* Disable interrupts by default. Let user enable if/when they want. */
 425:Generated_Source\PSoC5/cyfitter_cfg.c **** 	CYGlobalIntDisable
 793              		.loc 1 425 0
 794              	@ 425 "Generated_Source\PSoC5\cyfitter_cfg.c" 1
 795 0006 72B6     		CPSID   i
 796              	@ 0 "" 2
 426:Generated_Source\PSoC5/cyfitter_cfg.c **** #endif
 427:Generated_Source\PSoC5/cyfitter_cfg.c **** 
 428:Generated_Source\PSoC5/cyfitter_cfg.c **** 	/* Enable/Disable Debug functionality based on settings from System DWR */
 429:Generated_Source\PSoC5/cyfitter_cfg.c **** 	CY_SET_XTND_REG8((void CYFAR *)CYREG_MLOGIC_DEBUG, (CY_GET_XTND_REG8((void CYFAR *)CYREG_MLOGIC_DE
 797              		.loc 1 429 0
 798              		.thumb
 799 0008 3D4A     		ldr	r2, .L40
 800 000a 3D4B     		ldr	r3, .L40
 801 000c 1B78     		ldrb	r3, [r3]
 802 000e DBB2     		uxtb	r3, r3
 803 0010 43F00403 		orr	r3, r3, #4
 804 0014 DBB2     		uxtb	r3, r3
 805 0016 1370     		strb	r3, [r2]
 806              	.LBB3:
 430:Generated_Source\PSoC5/cyfitter_cfg.c **** 
 431:Generated_Source\PSoC5/cyfitter_cfg.c **** 	{
 432:Generated_Source\PSoC5/cyfitter_cfg.c **** 
 433:Generated_Source\PSoC5/cyfitter_cfg.c **** 		CYPACKED typedef struct {
 434:Generated_Source\PSoC5/cyfitter_cfg.c **** 			void CYFAR *address;
 435:Generated_Source\PSoC5/cyfitter_cfg.c **** 			uint16 size;
 436:Generated_Source\PSoC5/cyfitter_cfg.c **** 		} CYPACKED_ATTR cfg_memset_t;
 437:Generated_Source\PSoC5/cyfitter_cfg.c **** 
 438:Generated_Source\PSoC5/cyfitter_cfg.c **** 		static const cfg_memset_t CYCODE cfg_memset_list [] = {
 439:Generated_Source\PSoC5/cyfitter_cfg.c **** 			/* address, size */
ARM GAS  C:\Users\bryan.lee\AppData\Local\Temp\cc3Mn7NL.s 			page 23


 440:Generated_Source\PSoC5/cyfitter_cfg.c **** 			{(void CYFAR *)(CYREG_PRT3_DR), 48u},
 441:Generated_Source\PSoC5/cyfitter_cfg.c **** 			{(void CYFAR *)(CYREG_PRT12_DR), 16u},
 442:Generated_Source\PSoC5/cyfitter_cfg.c **** 			{(void CYFAR *)(CYREG_PRT15_DR), 16u},
 443:Generated_Source\PSoC5/cyfitter_cfg.c **** 			{(void CYFAR *)(CYDEV_UCFG_B0_P0_U0_BASE), 4096u},
 444:Generated_Source\PSoC5/cyfitter_cfg.c **** 			{(void CYFAR *)(CYDEV_UCFG_B1_P2_U0_BASE), 2048u},
 445:Generated_Source\PSoC5/cyfitter_cfg.c **** 			{(void CYFAR *)(CYDEV_UCFG_DSI0_BASE), 2560u},
 446:Generated_Source\PSoC5/cyfitter_cfg.c **** 			{(void CYFAR *)(CYDEV_UCFG_DSI12_BASE), 512u},
 447:Generated_Source\PSoC5/cyfitter_cfg.c **** 			{(void CYFAR *)(CYREG_BCTL0_MDCLK_EN), 32u},
 448:Generated_Source\PSoC5/cyfitter_cfg.c **** 		};
 449:Generated_Source\PSoC5/cyfitter_cfg.c **** 
 450:Generated_Source\PSoC5/cyfitter_cfg.c **** 		uint8 CYDATA i;
 451:Generated_Source\PSoC5/cyfitter_cfg.c **** 
 452:Generated_Source\PSoC5/cyfitter_cfg.c **** 		/* Zero out critical memory blocks before beginning configuration */
 453:Generated_Source\PSoC5/cyfitter_cfg.c **** 		for (i = 0u; i < (sizeof(cfg_memset_list)/sizeof(cfg_memset_list[0])); i++)
 807              		.loc 1 453 0
 808 0018 0023     		movs	r3, #0
 809 001a FB71     		strb	r3, [r7, #7]
 810 001c 13E0     		b	.L38
 811              	.L39:
 812              	.LBB4:
 454:Generated_Source\PSoC5/cyfitter_cfg.c **** 		{
 455:Generated_Source\PSoC5/cyfitter_cfg.c **** 			const cfg_memset_t CYCODE * CYDATA ms = &cfg_memset_list[i];
 813              		.loc 1 455 0 discriminator 3
 814 001e FA79     		ldrb	r2, [r7, #7]	@ zero_extendqisi2
 815 0020 1346     		mov	r3, r2
 816 0022 5B00     		lsls	r3, r3, #1
 817 0024 1344     		add	r3, r3, r2
 818 0026 5B00     		lsls	r3, r3, #1
 819 0028 364A     		ldr	r2, .L40+4
 820 002a 1344     		add	r3, r3, r2
 821 002c 3B60     		str	r3, [r7]
 456:Generated_Source\PSoC5/cyfitter_cfg.c **** 			CYMEMZERO(ms->address, (size_t)(uint32)(ms->size));
 822              		.loc 1 456 0 discriminator 3
 823 002e 3B68     		ldr	r3, [r7]
 824 0030 1A68     		ldr	r2, [r3]	@ unaligned
 825 0032 3B68     		ldr	r3, [r7]
 826 0034 9B88     		ldrh	r3, [r3, #4]	@ unaligned
 827 0036 9BB2     		uxth	r3, r3
 828 0038 1046     		mov	r0, r2
 829 003a 1946     		mov	r1, r3
 830 003c FFF7FEFF 		bl	CYMEMZERO
 831              	.LBE4:
 453:Generated_Source\PSoC5/cyfitter_cfg.c **** 		{
 832              		.loc 1 453 0 discriminator 3
 833 0040 FB79     		ldrb	r3, [r7, #7]	@ zero_extendqisi2
 834 0042 0133     		adds	r3, r3, #1
 835 0044 FB71     		strb	r3, [r7, #7]
 836              	.L38:
 453:Generated_Source\PSoC5/cyfitter_cfg.c **** 		{
 837              		.loc 1 453 0 is_stmt 0 discriminator 1
 838 0046 FB79     		ldrb	r3, [r7, #7]	@ zero_extendqisi2
 839 0048 072B     		cmp	r3, #7
 840 004a E8D9     		bls	.L39
 457:Generated_Source\PSoC5/cyfitter_cfg.c **** 		}
 458:Generated_Source\PSoC5/cyfitter_cfg.c **** 
 459:Generated_Source\PSoC5/cyfitter_cfg.c **** 		cfg_write_bytes32(cy_cfg_addr_table, cy_cfg_data_table);
 841              		.loc 1 459 0 is_stmt 1
ARM GAS  C:\Users\bryan.lee\AppData\Local\Temp\cc3Mn7NL.s 			page 24


 842 004c 4FF09040 		mov	r0, #1207959552
 843 0050 2D49     		ldr	r1, .L40+8
 844 0052 FFF7FEFF 		bl	cfg_write_bytes32
 460:Generated_Source\PSoC5/cyfitter_cfg.c **** 
 461:Generated_Source\PSoC5/cyfitter_cfg.c **** 		/* Perform normal device configuration. Order is not critical for these items. */
 462:Generated_Source\PSoC5/cyfitter_cfg.c **** 		CY_SET_XTND_REG8((void CYFAR *)(CYREG_DSM0_CR3), 0x0Au);
 845              		.loc 1 462 0
 846 0056 2D4B     		ldr	r3, .L40+12
 847 0058 0A22     		movs	r2, #10
 848 005a 1A70     		strb	r2, [r3]
 463:Generated_Source\PSoC5/cyfitter_cfg.c **** 
 464:Generated_Source\PSoC5/cyfitter_cfg.c **** 		/* Enable digital routing */
 465:Generated_Source\PSoC5/cyfitter_cfg.c **** 		CY_SET_XTND_REG8((void CYFAR *)CYREG_BCTL0_BANK_CTL, CY_GET_XTND_REG8((void CYFAR *)CYREG_BCTL0_B
 849              		.loc 1 465 0
 850 005c 2C4A     		ldr	r2, .L40+16
 851 005e 2C4B     		ldr	r3, .L40+16
 852 0060 1B78     		ldrb	r3, [r3]
 853 0062 DBB2     		uxtb	r3, r3
 854 0064 43F00203 		orr	r3, r3, #2
 855 0068 DBB2     		uxtb	r3, r3
 856 006a 1370     		strb	r3, [r2]
 466:Generated_Source\PSoC5/cyfitter_cfg.c **** 		CY_SET_XTND_REG8((void CYFAR *)CYREG_BCTL1_BANK_CTL, CY_GET_XTND_REG8((void CYFAR *)CYREG_BCTL1_B
 857              		.loc 1 466 0
 858 006c 294A     		ldr	r2, .L40+20
 859 006e 294B     		ldr	r3, .L40+20
 860 0070 1B78     		ldrb	r3, [r3]
 861 0072 DBB2     		uxtb	r3, r3
 862 0074 43F00203 		orr	r3, r3, #2
 863 0078 DBB2     		uxtb	r3, r3
 864 007a 1370     		strb	r3, [r2]
 467:Generated_Source\PSoC5/cyfitter_cfg.c **** 
 468:Generated_Source\PSoC5/cyfitter_cfg.c **** 		/* Enable UDB array */
 469:Generated_Source\PSoC5/cyfitter_cfg.c **** 		CY_SET_XTND_REG8((void CYFAR *)CYREG_PM_ACT_CFG0, CY_GET_XTND_REG8((void CYFAR *)CYREG_PM_ACT_CFG
 865              		.loc 1 469 0
 866 007c 264A     		ldr	r2, .L40+24
 867 007e 264B     		ldr	r3, .L40+24
 868 0080 1B78     		ldrb	r3, [r3]
 869 0082 DBB2     		uxtb	r3, r3
 870 0084 43F04003 		orr	r3, r3, #64
 871 0088 DBB2     		uxtb	r3, r3
 872 008a 1370     		strb	r3, [r2]
 470:Generated_Source\PSoC5/cyfitter_cfg.c **** 		CY_SET_XTND_REG8((void CYFAR *)CYREG_PM_AVAIL_CR2, CY_GET_XTND_REG8((void CYFAR *)CYREG_PM_AVAIL_
 873              		.loc 1 470 0
 874 008c 234A     		ldr	r2, .L40+28
 875 008e 234B     		ldr	r3, .L40+28
 876 0090 1B78     		ldrb	r3, [r3]
 877 0092 DBB2     		uxtb	r3, r3
 878 0094 43F01003 		orr	r3, r3, #16
 879 0098 DBB2     		uxtb	r3, r3
 880 009a 1370     		strb	r3, [r2]
 881              	.LBE3:
 471:Generated_Source\PSoC5/cyfitter_cfg.c **** 	}
 472:Generated_Source\PSoC5/cyfitter_cfg.c **** 
 473:Generated_Source\PSoC5/cyfitter_cfg.c **** 
 474:Generated_Source\PSoC5/cyfitter_cfg.c **** 	/* Perform second pass device configuration. These items must be configured in specific order afte
 475:Generated_Source\PSoC5/cyfitter_cfg.c **** 	CYCONFIGCPY((void CYFAR *)(CYREG_PRT0_DM0), (const void CYFAR *)(BS_IOPINS0_0_VAL), 8u);
 882              		.loc 1 475 0
ARM GAS  C:\Users\bryan.lee\AppData\Local\Temp\cc3Mn7NL.s 			page 25


 883 009c 2048     		ldr	r0, .L40+32
 884 009e 2149     		ldr	r1, .L40+36
 885 00a0 0822     		movs	r2, #8
 886 00a2 FFF7FEFF 		bl	CYCONFIGCPY
 476:Generated_Source\PSoC5/cyfitter_cfg.c **** 	CYCONFIGCPY((void CYFAR *)(CYREG_PRT1_DM0), (const void CYFAR *)(BS_IOPINS0_1_VAL), 8u);
 887              		.loc 1 476 0
 888 00a6 2048     		ldr	r0, .L40+40
 889 00a8 2049     		ldr	r1, .L40+44
 890 00aa 0822     		movs	r2, #8
 891 00ac FFF7FEFF 		bl	CYCONFIGCPY
 477:Generated_Source\PSoC5/cyfitter_cfg.c **** 	CYCONFIGCPY((void CYFAR *)(CYREG_PRT2_DM0), (const void CYFAR *)(BS_IOPINS0_2_VAL), 8u);
 892              		.loc 1 477 0
 893 00b0 1F48     		ldr	r0, .L40+48
 894 00b2 2049     		ldr	r1, .L40+52
 895 00b4 0822     		movs	r2, #8
 896 00b6 FFF7FEFF 		bl	CYCONFIGCPY
 478:Generated_Source\PSoC5/cyfitter_cfg.c **** 	CYCONFIGCPY((void CYFAR *)(CYREG_PRT6_DM0), (const void CYFAR *)(BS_IOPINS0_6_VAL), 8u);
 897              		.loc 1 478 0
 898 00ba 1F48     		ldr	r0, .L40+56
 899 00bc 1F49     		ldr	r1, .L40+60
 900 00be 0822     		movs	r2, #8
 901 00c0 FFF7FEFF 		bl	CYCONFIGCPY
 479:Generated_Source\PSoC5/cyfitter_cfg.c **** 	/* Switch Boost to the precision bandgap reference from its internal reference */
 480:Generated_Source\PSoC5/cyfitter_cfg.c **** 	CY_SET_REG8((void CYXDATA *)CYREG_BOOST_CR2, (CY_GET_REG8((void CYXDATA *)CYREG_BOOST_CR2) | 0x08u
 902              		.loc 1 480 0
 903 00c4 1E4A     		ldr	r2, .L40+64
 904 00c6 1E4B     		ldr	r3, .L40+64
 905 00c8 1B78     		ldrb	r3, [r3]
 906 00ca DBB2     		uxtb	r3, r3
 907 00cc 43F00803 		orr	r3, r3, #8
 908 00d0 DBB2     		uxtb	r3, r3
 909 00d2 1370     		strb	r3, [r2]
 481:Generated_Source\PSoC5/cyfitter_cfg.c **** 
 482:Generated_Source\PSoC5/cyfitter_cfg.c **** 	/* Set Flash Cycles based on max possible frequency in case a glitch occurs during ClockSetup(). *
 483:Generated_Source\PSoC5/cyfitter_cfg.c **** 	CY_SET_XTND_REG8((void CYFAR *)(CYREG_CACHE_CC_CTL), (((CYDEV_INSTRUCT_CACHE_ENABLED) != 0) ? 0x01
 910              		.loc 1 483 0
 911 00d4 1B4B     		ldr	r3, .L40+68
 912 00d6 0022     		movs	r2, #0
 913 00d8 1A70     		strb	r2, [r3]
 484:Generated_Source\PSoC5/cyfitter_cfg.c **** 	/* Setup clocks based on selections from Clock DWR */
 485:Generated_Source\PSoC5/cyfitter_cfg.c **** 	ClockSetup();
 914              		.loc 1 485 0
 915 00da FFF7FEFF 		bl	ClockSetup
 486:Generated_Source\PSoC5/cyfitter_cfg.c **** 	/* Set Flash Cycles based on newly configured 24.00MHz Bus Clock. */
 487:Generated_Source\PSoC5/cyfitter_cfg.c **** 	CY_SET_XTND_REG8((void CYFAR *)(CYREG_CACHE_CC_CTL), (((CYDEV_INSTRUCT_CACHE_ENABLED) != 0) ? 0x81
 916              		.loc 1 487 0
 917 00de 194B     		ldr	r3, .L40+68
 918 00e0 8022     		movs	r2, #128
 919 00e2 1A70     		strb	r2, [r3]
 488:Generated_Source\PSoC5/cyfitter_cfg.c **** 	CY_SET_XTND_REG8((void CYFAR *)(CYREG_PANTHER_WAITPIPE), 0x01u);
 920              		.loc 1 488 0
 921 00e4 184B     		ldr	r3, .L40+72
 922 00e6 0122     		movs	r2, #1
 923 00e8 1A70     		strb	r2, [r3]
 489:Generated_Source\PSoC5/cyfitter_cfg.c **** 
 490:Generated_Source\PSoC5/cyfitter_cfg.c **** 	/* Perform basic analog initialization to defaults */
 491:Generated_Source\PSoC5/cyfitter_cfg.c **** 	AnalogSetDefault();
ARM GAS  C:\Users\bryan.lee\AppData\Local\Temp\cc3Mn7NL.s 			page 26


 924              		.loc 1 491 0
 925 00ea FFF7FEFF 		bl	AnalogSetDefault
 492:Generated_Source\PSoC5/cyfitter_cfg.c **** 
 493:Generated_Source\PSoC5/cyfitter_cfg.c **** 	/* Configure alternate active mode */
 494:Generated_Source\PSoC5/cyfitter_cfg.c **** 	CYCONFIGCPY((void CYFAR *)CYDEV_PM_STBY_BASE, (const void CYFAR *)CYDEV_PM_ACT_BASE, 14u);
 926              		.loc 1 494 0
 927 00ee 1748     		ldr	r0, .L40+76
 928 00f0 0949     		ldr	r1, .L40+24
 929 00f2 0E22     		movs	r2, #14
 930 00f4 FFF7FEFF 		bl	CYCONFIGCPY
 495:Generated_Source\PSoC5/cyfitter_cfg.c **** }
 931              		.loc 1 495 0
 932 00f8 0837     		adds	r7, r7, #8
 933              		.cfi_def_cfa_offset 8
 934 00fa BD46     		mov	sp, r7
 935              		.cfi_def_cfa_register 13
 936              		@ sp needed
 937 00fc 80BD     		pop	{r7, pc}
 938              	.L41:
 939 00fe 00BF     		.align	2
 940              	.L40:
 941 0100 E8460040 		.word	1073759976
 942 0104 0C000000 		.word	cfg_memset_list.4898
 943 0108 48000048 		.word	1207959624
 944 010c 83580040 		.word	1073764483
 945 0110 03500140 		.word	1073827843
 946 0114 13500140 		.word	1073827859
 947 0118 A0430040 		.word	1073759136
 948 011c C2430040 		.word	1073759170
 949 0120 02510040 		.word	1073762562
 950 0124 38010048 		.word	1207959864
 951 0128 12510040 		.word	1073762578
 952 012c 40010048 		.word	1207959872
 953 0130 22510040 		.word	1073762594
 954 0134 48010048 		.word	1207959880
 955 0138 62510040 		.word	1073762658
 956 013c 50010048 		.word	1207959888
 957 0140 22430040 		.word	1073759010
 958 0144 00480040 		.word	1073760256
 959 0148 04000840 		.word	1074266116
 960 014c B0430040 		.word	1073759152
 961              		.cfi_endproc
 962              	.LFE10:
 963              		.size	cyfitter_cfg, .-cyfitter_cfg
 964              		.section	.rodata
 965 000a 0000     		.align	2
 966              		.type	cfg_memset_list.4898, %object
 967              		.size	cfg_memset_list.4898, 48
 968              	cfg_memset_list.4898:
 969 000c 30510040 		.word	1073762608
 970 0010 3000     		.short	48
 971 0012 C0510040 		.4byte	1073762752
 972 0016 1000     		.short	16
 973 0018 F0510040 		.word	1073762800
 974 001c 1000     		.short	16
 975 001e 00000140 		.4byte	1073807360
 976 0022 0010     		.short	4096
ARM GAS  C:\Users\bryan.lee\AppData\Local\Temp\cc3Mn7NL.s 			page 27


 977 0024 00140140 		.word	1073812480
 978 0028 0008     		.short	2048
 979 002a 00400140 		.4byte	1073823744
 980 002e 000A     		.short	2560
 981 0030 004C0140 		.word	1073826816
 982 0034 0002     		.short	512
 983 0036 00500140 		.4byte	1073827840
 984 003a 2000     		.short	32
 985              		.text
 986              	.Letext0:
 987              		.file 2 "c:\\program files (x86)\\cypress\\psoc creator\\4.0\\psoc creator\\import\\gnu\\arm\\4.9.
 988              		.file 3 "Generated_Source\\PSoC5\\cytypes.h"