ARM GAS  C:\Users\bryan.lee\AppData\Local\Temp\ccMG4MTE.s 			page 1


   1              		.syntax unified
   2              		.cpu cortex-m4
   3              		.eabi_attribute 27, 1
   4              		.fpu fpv4-sp-d16
   5              		.eabi_attribute 20, 1
   6              		.eabi_attribute 21, 1
   7              		.eabi_attribute 23, 3
   8              		.eabi_attribute 24, 1
   9              		.eabi_attribute 25, 1
  10              		.eabi_attribute 26, 1
  11              		.eabi_attribute 30, 1
  12              		.eabi_attribute 34, 1
  13              		.eabi_attribute 18, 4
  14              		.thumb
  15              		.syntax unified
  16              		.file	"CapSense_Control.c"
  17              		.text
  18              	.Ltext0:
  19              		.cfi_sections	.debug_frame
  20              		.section	.text.CapSense_SwitchPowerModeCallback,"ax",%progbits
  21              		.align	2
  22              		.thumb
  23              		.thumb_func
  24              		.type	CapSense_SwitchPowerModeCallback, %function
  25              	CapSense_SwitchPowerModeCallback:
  26              	.LFB269:
  27              		.file 1 "Generated_Source\\PSoC6\\CapSense_Control.c"
   1:Generated_Source\PSoC6/CapSense_Control.c **** /***************************************************************************//**
   2:Generated_Source\PSoC6/CapSense_Control.c **** * \file CapSense_Control.c
   3:Generated_Source\PSoC6/CapSense_Control.c **** * \version 2.0
   4:Generated_Source\PSoC6/CapSense_Control.c **** *
   5:Generated_Source\PSoC6/CapSense_Control.c **** * \brief
   6:Generated_Source\PSoC6/CapSense_Control.c **** *   This file provides the source code to the Control module API of the Component.
   7:Generated_Source\PSoC6/CapSense_Control.c **** *
   8:Generated_Source\PSoC6/CapSense_Control.c **** * \see CapSense v2.0 Datasheet
   9:Generated_Source\PSoC6/CapSense_Control.c **** *
  10:Generated_Source\PSoC6/CapSense_Control.c **** *//*****************************************************************************
  11:Generated_Source\PSoC6/CapSense_Control.c **** * Copyright (2016-2017), Cypress Semiconductor Corporation.
  12:Generated_Source\PSoC6/CapSense_Control.c **** ********************************************************************************
  13:Generated_Source\PSoC6/CapSense_Control.c **** * This software is owned by Cypress Semiconductor Corporation (Cypress) and is
  14:Generated_Source\PSoC6/CapSense_Control.c **** * protected by and subject to worldwide patent protection (United States and
  15:Generated_Source\PSoC6/CapSense_Control.c **** * foreign), United States copyright laws and international treaty provisions.
  16:Generated_Source\PSoC6/CapSense_Control.c **** * Cypress hereby grants to licensee a personal, non-exclusive, non-transferable
  17:Generated_Source\PSoC6/CapSense_Control.c **** * license to copy, use, modify, create derivative works of, and compile the
  18:Generated_Source\PSoC6/CapSense_Control.c **** * Cypress Source Code and derivative works for the sole purpose of creating
  19:Generated_Source\PSoC6/CapSense_Control.c **** * custom software in support of licensee product to be used only in conjunction
  20:Generated_Source\PSoC6/CapSense_Control.c **** * with a Cypress integrated circuit as specified in the applicable agreement.
  21:Generated_Source\PSoC6/CapSense_Control.c **** * Any reproduction, modification, translation, compilation, or representation of
  22:Generated_Source\PSoC6/CapSense_Control.c **** * this software except as specified above is prohibited without the express
  23:Generated_Source\PSoC6/CapSense_Control.c **** * written permission of Cypress.
  24:Generated_Source\PSoC6/CapSense_Control.c **** *
  25:Generated_Source\PSoC6/CapSense_Control.c **** * Disclaimer: CYPRESS MAKES NO WARRANTY OF ANY KIND, EXPRESS OR IMPLIED, WITH
  26:Generated_Source\PSoC6/CapSense_Control.c **** * REGARD TO THIS MATERIAL, INCLUDING, BUT NOT LIMITED TO, THE IMPLIED
  27:Generated_Source\PSoC6/CapSense_Control.c **** * WARRANTIES OF MERCHANTABILITY AND FITNESS FOR A PARTICULAR PURPOSE.
  28:Generated_Source\PSoC6/CapSense_Control.c **** * Cypress reserves the right to make changes without further notice to the
  29:Generated_Source\PSoC6/CapSense_Control.c **** * materials described herein. Cypress does not assume any liability arising out
  30:Generated_Source\PSoC6/CapSense_Control.c **** * of the application or use of any product or circuit described herein. Cypress
ARM GAS  C:\Users\bryan.lee\AppData\Local\Temp\ccMG4MTE.s 			page 2


  31:Generated_Source\PSoC6/CapSense_Control.c **** * does not authorize its products for use as critical components in life-support
  32:Generated_Source\PSoC6/CapSense_Control.c **** * systems where a malfunction or failure may reasonably be expected to result in
  33:Generated_Source\PSoC6/CapSense_Control.c **** * significant injury to the user. The inclusion of Cypress' product in a life-
  34:Generated_Source\PSoC6/CapSense_Control.c **** * support systems application implies that the manufacturer assumes all risk of
  35:Generated_Source\PSoC6/CapSense_Control.c **** * such use and in doing so indemnifies Cypress against all charges. Use may be
  36:Generated_Source\PSoC6/CapSense_Control.c **** * limited by and subject to the applicable Cypress software license agreement.
  37:Generated_Source\PSoC6/CapSense_Control.c **** *******************************************************************************/
  38:Generated_Source\PSoC6/CapSense_Control.c **** 
  39:Generated_Source\PSoC6/CapSense_Control.c **** #include <stddef.h>
  40:Generated_Source\PSoC6/CapSense_Control.c **** #include "syslib/cy_syslib.h"
  41:Generated_Source\PSoC6/CapSense_Control.c **** #include "syspm/cy_syspm.h"
  42:Generated_Source\PSoC6/CapSense_Control.c **** #include "cyfitter_sysint_cfg.h"
  43:Generated_Source\PSoC6/CapSense_Control.c **** #include "CapSense_Configuration.h"
  44:Generated_Source\PSoC6/CapSense_Control.c **** #include "CapSense_Structure.h"
  45:Generated_Source\PSoC6/CapSense_Control.c **** #include "CapSense_Control.h"
  46:Generated_Source\PSoC6/CapSense_Control.c **** #include "CapSense_Processing.h"
  47:Generated_Source\PSoC6/CapSense_Control.c **** #include "CapSense_Filter.h"
  48:Generated_Source\PSoC6/CapSense_Control.c **** #include "CapSense_Sensing.h"
  49:Generated_Source\PSoC6/CapSense_Control.c **** #include "CapSense_Tuner.h"
  50:Generated_Source\PSoC6/CapSense_Control.c **** 
  51:Generated_Source\PSoC6/CapSense_Control.c **** #if (CapSense_ENABLE == CapSense_SELF_TEST_EN)
  52:Generated_Source\PSoC6/CapSense_Control.c ****     #include "CapSense_SelfTest.h"
  53:Generated_Source\PSoC6/CapSense_Control.c **** #endif
  54:Generated_Source\PSoC6/CapSense_Control.c **** 
  55:Generated_Source\PSoC6/CapSense_Control.c **** #if (0u != CapSense_ADC_EN)
  56:Generated_Source\PSoC6/CapSense_Control.c ****     #include "CapSense_Adc.h"
  57:Generated_Source\PSoC6/CapSense_Control.c **** #endif /* (0u != CapSense_ADC_EN) */
  58:Generated_Source\PSoC6/CapSense_Control.c **** 
  59:Generated_Source\PSoC6/CapSense_Control.c **** #if ((CapSense_ENABLE == CapSense_GES_GLOBAL_EN) ||\
  60:Generated_Source\PSoC6/CapSense_Control.c ****      (CapSense_ENABLE == CapSense_BALLISTIC_MULTIPLIER_EN))
  61:Generated_Source\PSoC6/CapSense_Control.c ****     #include "CapSense_Gesture.h"
  62:Generated_Source\PSoC6/CapSense_Control.c **** #endif /* (CapSense_ENABLE == CapSense_GES_GLOBAL_EN) */
  63:Generated_Source\PSoC6/CapSense_Control.c **** 
  64:Generated_Source\PSoC6/CapSense_Control.c **** /**************************************************************************************************
  65:Generated_Source\PSoC6/CapSense_Control.c **** * Local definition
  66:Generated_Source\PSoC6/CapSense_Control.c **** ***************************************************************************************************
  67:Generated_Source\PSoC6/CapSense_Control.c **** #define CapSense_INIT_DONE   (1u)
  68:Generated_Source\PSoC6/CapSense_Control.c **** #define CapSense_INIT_NEEDED (0u)
  69:Generated_Source\PSoC6/CapSense_Control.c **** 
  70:Generated_Source\PSoC6/CapSense_Control.c **** /**************************************************************************************************
  71:Generated_Source\PSoC6/CapSense_Control.c **** * Local variables
  72:Generated_Source\PSoC6/CapSense_Control.c **** ***************************************************************************************************
  73:Generated_Source\PSoC6/CapSense_Control.c **** static uint8 CapSense_InitVar = CapSense_INIT_NEEDED;
  74:Generated_Source\PSoC6/CapSense_Control.c **** 
  75:Generated_Source\PSoC6/CapSense_Control.c **** /**************************************************************************************************
  76:Generated_Source\PSoC6/CapSense_Control.c **** * Local function
  77:Generated_Source\PSoC6/CapSense_Control.c **** ***************************************************************************************************
  78:Generated_Source\PSoC6/CapSense_Control.c **** static cy_en_syspm_status_t CapSense_SwitchPowerModeCallback(cy_stc_syspm_callback_params_t *callba
  79:Generated_Source\PSoC6/CapSense_Control.c **** 
  80:Generated_Source\PSoC6/CapSense_Control.c **** /*******************************************************************************
  81:Generated_Source\PSoC6/CapSense_Control.c **** * Function Name: CapSense_Start
  82:Generated_Source\PSoC6/CapSense_Control.c **** ****************************************************************************//**
  83:Generated_Source\PSoC6/CapSense_Control.c **** *
  84:Generated_Source\PSoC6/CapSense_Control.c **** * \brief
  85:Generated_Source\PSoC6/CapSense_Control.c **** *  Initializes the Component hardware and firmware modules. This function is
  86:Generated_Source\PSoC6/CapSense_Control.c **** *  called by the application program prior to calling any other function of the
  87:Generated_Source\PSoC6/CapSense_Control.c **** *  Component.
ARM GAS  C:\Users\bryan.lee\AppData\Local\Temp\ccMG4MTE.s 			page 3


  88:Generated_Source\PSoC6/CapSense_Control.c **** *
  89:Generated_Source\PSoC6/CapSense_Control.c **** * \details
  90:Generated_Source\PSoC6/CapSense_Control.c **** *  This function initializes the Component hardware and firmware modules and
  91:Generated_Source\PSoC6/CapSense_Control.c **** *  is called by the application program prior to calling any other API
  92:Generated_Source\PSoC6/CapSense_Control.c **** *  of the Component. When this function is called, the following tasks are
  93:Generated_Source\PSoC6/CapSense_Control.c **** *  executed as part of the initialization process:
  94:Generated_Source\PSoC6/CapSense_Control.c **** *    1. Initialize the registers of the \ref group_structures variable
  95:Generated_Source\PSoC6/CapSense_Control.c **** *       CapSense_dsRam based on the user selection in the Component
  96:Generated_Source\PSoC6/CapSense_Control.c **** *       configuration wizard.
  97:Generated_Source\PSoC6/CapSense_Control.c **** *    2. Configure the hardware to perform capacitive sensing.
  98:Generated_Source\PSoC6/CapSense_Control.c **** *    3. If SmartSense Auto-tuning is selected for the CSD Tuning mode in the
  99:Generated_Source\PSoC6/CapSense_Control.c **** *       Basic tab, the auto-tuning algorithm is executed to set the optimal
 100:Generated_Source\PSoC6/CapSense_Control.c **** *       values for the hardware parameters of the widgets/sensors.
 101:Generated_Source\PSoC6/CapSense_Control.c **** *    4. Calibrate the sensors and find the optimal values for IDACs of each
 102:Generated_Source\PSoC6/CapSense_Control.c **** *       widget / sensor, if the Enable IDAC auto-calibration is enabled in the
 103:Generated_Source\PSoC6/CapSense_Control.c **** *       CSD Setting or CSX Setting tabs.
 104:Generated_Source\PSoC6/CapSense_Control.c **** *    5. Perform scanning for all the sensors and initialize the baseline history.
 105:Generated_Source\PSoC6/CapSense_Control.c **** *    6. If the firmware filters are enabled in the Advanced General tab, the
 106:Generated_Source\PSoC6/CapSense_Control.c **** *       filter histories are also initialized.
 107:Generated_Source\PSoC6/CapSense_Control.c **** 
 108:Generated_Source\PSoC6/CapSense_Control.c **** *  Any next call of this API repeats an initialization process except for
 109:Generated_Source\PSoC6/CapSense_Control.c **** *  data structure initialization. Therefore, it is possible to change the
 110:Generated_Source\PSoC6/CapSense_Control.c **** *  Component configuration from the application program by writing registers to the
 111:Generated_Source\PSoC6/CapSense_Control.c **** *  data structure and calling this function again. This is also
 112:Generated_Source\PSoC6/CapSense_Control.c **** *  done inside the CapSense_RunTuner() function when a restart command
 113:Generated_Source\PSoC6/CapSense_Control.c **** *  is received.
 114:Generated_Source\PSoC6/CapSense_Control.c **** *
 115:Generated_Source\PSoC6/CapSense_Control.c **** *  When the Component operation is stopped by the CapSense_Stop()
 116:Generated_Source\PSoC6/CapSense_Control.c **** *  function, the CapSense_Start() function repeats an initialization
 117:Generated_Source\PSoC6/CapSense_Control.c **** *  process including data structure initialization.
 118:Generated_Source\PSoC6/CapSense_Control.c **** *
 119:Generated_Source\PSoC6/CapSense_Control.c **** * \return
 120:Generated_Source\PSoC6/CapSense_Control.c **** *  Returns the status of the initialization process. If CY_RET_SUCCESS is not
 121:Generated_Source\PSoC6/CapSense_Control.c **** *  received, some of the initialization fails and the Component may not operate
 122:Generated_Source\PSoC6/CapSense_Control.c **** *  as expected.
 123:Generated_Source\PSoC6/CapSense_Control.c **** *
 124:Generated_Source\PSoC6/CapSense_Control.c **** *******************************************************************************/
 125:Generated_Source\PSoC6/CapSense_Control.c **** cy_status CapSense_Start(void)
 126:Generated_Source\PSoC6/CapSense_Control.c **** {
 127:Generated_Source\PSoC6/CapSense_Control.c ****     cy_status result;
 128:Generated_Source\PSoC6/CapSense_Control.c **** 
 129:Generated_Source\PSoC6/CapSense_Control.c ****     /* Initialize CapSense modules */
 130:Generated_Source\PSoC6/CapSense_Control.c ****     result = CapSense_Initialize();
 131:Generated_Source\PSoC6/CapSense_Control.c **** 
 132:Generated_Source\PSoC6/CapSense_Control.c ****     #if (CapSense_CSD_AUTOTUNE != CapSense_CSD_SS_DIS)
 133:Generated_Source\PSoC6/CapSense_Control.c ****         if (CY_RET_SUCCESS == result)
 134:Generated_Source\PSoC6/CapSense_Control.c ****         {
 135:Generated_Source\PSoC6/CapSense_Control.c ****             result = CapSense_SsAutoTune();
 136:Generated_Source\PSoC6/CapSense_Control.c ****         }
 137:Generated_Source\PSoC6/CapSense_Control.c ****     #endif /* #if (CapSense_CSD_AUTOTUNE != CapSense_CSD_SS_DIS) */
 138:Generated_Source\PSoC6/CapSense_Control.c **** 
 139:Generated_Source\PSoC6/CapSense_Control.c ****     #if ((0u != CapSense_CSX_IDAC_AUTOCAL_EN) || \
 140:Generated_Source\PSoC6/CapSense_Control.c ****         ((CapSense_CSD_AUTOTUNE == CapSense_CSD_SS_DIS) && (0u != CapSense_CSD_IDAC_AUTOCAL_EN)))
 141:Generated_Source\PSoC6/CapSense_Control.c ****         if (CY_RET_SUCCESS == result)
 142:Generated_Source\PSoC6/CapSense_Control.c ****         {
 143:Generated_Source\PSoC6/CapSense_Control.c ****             result = CapSense_CalibrateAllWidgets();
 144:Generated_Source\PSoC6/CapSense_Control.c ****         }
ARM GAS  C:\Users\bryan.lee\AppData\Local\Temp\ccMG4MTE.s 			page 4


 145:Generated_Source\PSoC6/CapSense_Control.c ****     #endif
 146:Generated_Source\PSoC6/CapSense_Control.c **** 
 147:Generated_Source\PSoC6/CapSense_Control.c ****     if (CY_RET_SUCCESS == result)
 148:Generated_Source\PSoC6/CapSense_Control.c ****     {
 149:Generated_Source\PSoC6/CapSense_Control.c ****         result = CapSense_ScanAllWidgets();
 150:Generated_Source\PSoC6/CapSense_Control.c ****     }
 151:Generated_Source\PSoC6/CapSense_Control.c **** 
 152:Generated_Source\PSoC6/CapSense_Control.c ****     while(CapSense_NOT_BUSY != CapSense_IsBusy()){}
 153:Generated_Source\PSoC6/CapSense_Control.c **** 
 154:Generated_Source\PSoC6/CapSense_Control.c ****     CapSense_FtInitialize();
 155:Generated_Source\PSoC6/CapSense_Control.c ****     CapSense_InitializeAllBaselines();
 156:Generated_Source\PSoC6/CapSense_Control.c **** 
 157:Generated_Source\PSoC6/CapSense_Control.c ****     #if(CapSense_ENABLE == CapSense_GES_GLOBAL_EN)
 158:Generated_Source\PSoC6/CapSense_Control.c ****         if (CY_RET_SUCCESS == result)
 159:Generated_Source\PSoC6/CapSense_Control.c ****         {
 160:Generated_Source\PSoC6/CapSense_Control.c ****             CapSense_InitializeGestures();
 161:Generated_Source\PSoC6/CapSense_Control.c ****         }
 162:Generated_Source\PSoC6/CapSense_Control.c ****     #endif /* (CapSense_ENABLE == CapSense_GES_GLOBAL_EN) */
 163:Generated_Source\PSoC6/CapSense_Control.c **** 
 164:Generated_Source\PSoC6/CapSense_Control.c ****     #if (0u != CapSense_BALLISTIC_MULTIPLIER_EN)
 165:Generated_Source\PSoC6/CapSense_Control.c ****         if (CY_RET_SUCCESS == result)
 166:Generated_Source\PSoC6/CapSense_Control.c ****         {
 167:Generated_Source\PSoC6/CapSense_Control.c ****             CapSense_InitializeBallisticMultiplier();
 168:Generated_Source\PSoC6/CapSense_Control.c ****         }
 169:Generated_Source\PSoC6/CapSense_Control.c ****     #endif /* (0u != CapSense_BALLISTIC_MULTIPLIER_EN) */
 170:Generated_Source\PSoC6/CapSense_Control.c **** 
 171:Generated_Source\PSoC6/CapSense_Control.c ****     #if (0u != CapSense_ADC_EN)
 172:Generated_Source\PSoC6/CapSense_Control.c ****         CapSense_AdcInitialize();
 173:Generated_Source\PSoC6/CapSense_Control.c ****     #endif /* (0u != CapSense_ADC_EN) */
 174:Generated_Source\PSoC6/CapSense_Control.c **** 
 175:Generated_Source\PSoC6/CapSense_Control.c ****     return result;
 176:Generated_Source\PSoC6/CapSense_Control.c **** }
 177:Generated_Source\PSoC6/CapSense_Control.c **** 
 178:Generated_Source\PSoC6/CapSense_Control.c **** /*******************************************************************************
 179:Generated_Source\PSoC6/CapSense_Control.c **** * Function Name: CapSense_Initialize
 180:Generated_Source\PSoC6/CapSense_Control.c **** ****************************************************************************//**
 181:Generated_Source\PSoC6/CapSense_Control.c **** *
 182:Generated_Source\PSoC6/CapSense_Control.c **** * \brief
 183:Generated_Source\PSoC6/CapSense_Control.c **** *  This function initializes the CapSense Component.
 184:Generated_Source\PSoC6/CapSense_Control.c **** *
 185:Generated_Source\PSoC6/CapSense_Control.c **** * \details
 186:Generated_Source\PSoC6/CapSense_Control.c **** *  This API initializes all sub-modules of the CapSense Component:
 187:Generated_Source\PSoC6/CapSense_Control.c **** *   - Data Structure - set the default Component parameters defined in the Customizer.
 188:Generated_Source\PSoC6/CapSense_Control.c **** *   - Data Processing - resets all widget statuses.
 189:Generated_Source\PSoC6/CapSense_Control.c **** *   - Tuner - resets tuning state.
 190:Generated_Source\PSoC6/CapSense_Control.c **** *   - Sensing - prepares CSD HW for operation.
 191:Generated_Source\PSoC6/CapSense_Control.c **** *
 192:Generated_Source\PSoC6/CapSense_Control.c **** *  Note that Data Structure module is initialized only once after the reset or
 193:Generated_Source\PSoC6/CapSense_Control.c **** *  CapSense_Stop() API is called. The repeated calls of Initialize API
 194:Generated_Source\PSoC6/CapSense_Control.c **** *  will not re-initialize Data Structure. This is done to preserve Component
 195:Generated_Source\PSoC6/CapSense_Control.c **** *  parameters that user may set in runtime.
 196:Generated_Source\PSoC6/CapSense_Control.c **** *
 197:Generated_Source\PSoC6/CapSense_Control.c **** * \return
 198:Generated_Source\PSoC6/CapSense_Control.c **** *  Return CY_RET_SUCCESS if the initialization was successful.
 199:Generated_Source\PSoC6/CapSense_Control.c **** *
 200:Generated_Source\PSoC6/CapSense_Control.c **** *******************************************************************************/
 201:Generated_Source\PSoC6/CapSense_Control.c **** cy_status CapSense_Initialize(void)
ARM GAS  C:\Users\bryan.lee\AppData\Local\Temp\ccMG4MTE.s 			page 5


 202:Generated_Source\PSoC6/CapSense_Control.c **** {
 203:Generated_Source\PSoC6/CapSense_Control.c ****     cy_status result;
 204:Generated_Source\PSoC6/CapSense_Control.c **** 
 205:Generated_Source\PSoC6/CapSense_Control.c ****     /* The Data Structure and Tuner are initialized only once */
 206:Generated_Source\PSoC6/CapSense_Control.c ****     if (CapSense_INIT_NEEDED == CapSense_InitVar)
 207:Generated_Source\PSoC6/CapSense_Control.c ****     {
 208:Generated_Source\PSoC6/CapSense_Control.c ****         CapSense_DsInitialize();
 209:Generated_Source\PSoC6/CapSense_Control.c ****         CapSense_TuInitialize();
 210:Generated_Source\PSoC6/CapSense_Control.c ****         CapSense_InitVar = CapSense_INIT_DONE;
 211:Generated_Source\PSoC6/CapSense_Control.c ****     }
 212:Generated_Source\PSoC6/CapSense_Control.c **** 
 213:Generated_Source\PSoC6/CapSense_Control.c ****     CapSense_DpInitialize();
 214:Generated_Source\PSoC6/CapSense_Control.c **** 
 215:Generated_Source\PSoC6/CapSense_Control.c ****     result = CapSense_SsInitialize();
 216:Generated_Source\PSoC6/CapSense_Control.c **** 
 217:Generated_Source\PSoC6/CapSense_Control.c ****     return result;
 218:Generated_Source\PSoC6/CapSense_Control.c **** }
 219:Generated_Source\PSoC6/CapSense_Control.c **** 
 220:Generated_Source\PSoC6/CapSense_Control.c **** /*******************************************************************************
 221:Generated_Source\PSoC6/CapSense_Control.c **** * Function Name: CapSense_Stop
 222:Generated_Source\PSoC6/CapSense_Control.c **** ****************************************************************************//**
 223:Generated_Source\PSoC6/CapSense_Control.c **** *
 224:Generated_Source\PSoC6/CapSense_Control.c **** * \brief
 225:Generated_Source\PSoC6/CapSense_Control.c **** *  Stops the Component operation.
 226:Generated_Source\PSoC6/CapSense_Control.c **** *
 227:Generated_Source\PSoC6/CapSense_Control.c **** * \details
 228:Generated_Source\PSoC6/CapSense_Control.c **** *  This function stops the Component operation, no sensor scanning can be
 229:Generated_Source\PSoC6/CapSense_Control.c **** *  executed when the Component is stopped. Once stopped, the hardware block may
 230:Generated_Source\PSoC6/CapSense_Control.c **** *  be reconfigured by the application program for any other special usage. The
 231:Generated_Source\PSoC6/CapSense_Control.c **** *  Component operation can be resumed by calling the CapSense_Resume()
 232:Generated_Source\PSoC6/CapSense_Control.c **** *  function or the Component can be reset by calling the
 233:Generated_Source\PSoC6/CapSense_Control.c **** *  CapSense_Start() function.
 234:Generated_Source\PSoC6/CapSense_Control.c **** *
 235:Generated_Source\PSoC6/CapSense_Control.c **** *  This function is called when no scanning is in progress.
 236:Generated_Source\PSoC6/CapSense_Control.c **** *  I.e. CapSense_IsBusy() returns a non-busy status.
 237:Generated_Source\PSoC6/CapSense_Control.c **** *
 238:Generated_Source\PSoC6/CapSense_Control.c **** * \return
 239:Generated_Source\PSoC6/CapSense_Control.c **** *  Returns the status of the stop process. If CY_RET_SUCCESS is not received,
 240:Generated_Source\PSoC6/CapSense_Control.c **** *  the stop process fails and retries may be required.
 241:Generated_Source\PSoC6/CapSense_Control.c **** *
 242:Generated_Source\PSoC6/CapSense_Control.c **** *******************************************************************************/
 243:Generated_Source\PSoC6/CapSense_Control.c **** cy_status CapSense_Stop(void)
 244:Generated_Source\PSoC6/CapSense_Control.c **** {
 245:Generated_Source\PSoC6/CapSense_Control.c ****     cy_status result = CY_RET_SUCCESS;
 246:Generated_Source\PSoC6/CapSense_Control.c **** 
 247:Generated_Source\PSoC6/CapSense_Control.c ****     #if (CapSense_ENABLE == CapSense_ADC_EN)
 248:Generated_Source\PSoC6/CapSense_Control.c ****         /* Release CSD resources */
 249:Generated_Source\PSoC6/CapSense_Control.c ****         result = CapSense_SsReleaseResources();
 250:Generated_Source\PSoC6/CapSense_Control.c **** 
 251:Generated_Source\PSoC6/CapSense_Control.c ****         /* Release ADC resources */
 252:Generated_Source\PSoC6/CapSense_Control.c ****         CapSense_AdcStop();
 253:Generated_Source\PSoC6/CapSense_Control.c ****     #endif /* (CapSense_ENABLE == CapSense_ADC_EN) */
 254:Generated_Source\PSoC6/CapSense_Control.c **** 
 255:Generated_Source\PSoC6/CapSense_Control.c ****     CapSense_InitVar = CapSense_INIT_NEEDED;
 256:Generated_Source\PSoC6/CapSense_Control.c **** 
 257:Generated_Source\PSoC6/CapSense_Control.c ****     return result;
 258:Generated_Source\PSoC6/CapSense_Control.c **** }
ARM GAS  C:\Users\bryan.lee\AppData\Local\Temp\ccMG4MTE.s 			page 6


 259:Generated_Source\PSoC6/CapSense_Control.c **** 
 260:Generated_Source\PSoC6/CapSense_Control.c **** /*******************************************************************************
 261:Generated_Source\PSoC6/CapSense_Control.c **** * Function Name: CapSense_Resume
 262:Generated_Source\PSoC6/CapSense_Control.c **** ****************************************************************************//**
 263:Generated_Source\PSoC6/CapSense_Control.c **** *
 264:Generated_Source\PSoC6/CapSense_Control.c **** * \brief
 265:Generated_Source\PSoC6/CapSense_Control.c **** *  Resumes the Component operation if the CapSense_Stop() function was
 266:Generated_Source\PSoC6/CapSense_Control.c **** *  called previously.
 267:Generated_Source\PSoC6/CapSense_Control.c **** *
 268:Generated_Source\PSoC6/CapSense_Control.c **** * \details
 269:Generated_Source\PSoC6/CapSense_Control.c **** *  This function resumes the Component operation if the operation is stopped
 270:Generated_Source\PSoC6/CapSense_Control.c **** *  previously by the CapSense_Stop() function. The following tasks are
 271:Generated_Source\PSoC6/CapSense_Control.c **** *  executed as part of the operation resume process:
 272:Generated_Source\PSoC6/CapSense_Control.c **** *    1. Reset all the Widgets/Sensors statuses.
 273:Generated_Source\PSoC6/CapSense_Control.c **** *    2. Configure the hardware to perform capacitive sensing.
 274:Generated_Source\PSoC6/CapSense_Control.c **** *
 275:Generated_Source\PSoC6/CapSense_Control.c **** * \return
 276:Generated_Source\PSoC6/CapSense_Control.c **** *  Returns the status of the resume process. If CY_RET_SUCCESS is not received,
 277:Generated_Source\PSoC6/CapSense_Control.c **** *  the resume process fails and retries may be required.
 278:Generated_Source\PSoC6/CapSense_Control.c **** *
 279:Generated_Source\PSoC6/CapSense_Control.c **** *******************************************************************************/
 280:Generated_Source\PSoC6/CapSense_Control.c **** cy_status CapSense_Resume(void)
 281:Generated_Source\PSoC6/CapSense_Control.c **** {
 282:Generated_Source\PSoC6/CapSense_Control.c ****     cy_status result;
 283:Generated_Source\PSoC6/CapSense_Control.c **** 
 284:Generated_Source\PSoC6/CapSense_Control.c ****     /* The Tuner are initialized only once in order not to break communication */
 285:Generated_Source\PSoC6/CapSense_Control.c ****     if (CapSense_INIT_NEEDED == CapSense_InitVar)
 286:Generated_Source\PSoC6/CapSense_Control.c ****     {
 287:Generated_Source\PSoC6/CapSense_Control.c ****         CapSense_TuInitialize();
 288:Generated_Source\PSoC6/CapSense_Control.c ****         CapSense_InitVar = CapSense_INIT_DONE;
 289:Generated_Source\PSoC6/CapSense_Control.c ****     }
 290:Generated_Source\PSoC6/CapSense_Control.c ****     CapSense_DpInitialize();
 291:Generated_Source\PSoC6/CapSense_Control.c **** 
 292:Generated_Source\PSoC6/CapSense_Control.c ****     result = CapSense_SsInitialize();
 293:Generated_Source\PSoC6/CapSense_Control.c **** 
 294:Generated_Source\PSoC6/CapSense_Control.c ****     return result;
 295:Generated_Source\PSoC6/CapSense_Control.c **** }
 296:Generated_Source\PSoC6/CapSense_Control.c **** 
 297:Generated_Source\PSoC6/CapSense_Control.c **** /*******************************************************************************
 298:Generated_Source\PSoC6/CapSense_Control.c **** * Function Name: CapSense_ProcessAllWidgets
 299:Generated_Source\PSoC6/CapSense_Control.c **** ****************************************************************************//**
 300:Generated_Source\PSoC6/CapSense_Control.c **** *
 301:Generated_Source\PSoC6/CapSense_Control.c **** * \brief
 302:Generated_Source\PSoC6/CapSense_Control.c **** *  Performs full data processing of all enabled widgets.
 303:Generated_Source\PSoC6/CapSense_Control.c **** *
 304:Generated_Source\PSoC6/CapSense_Control.c **** * \details
 305:Generated_Source\PSoC6/CapSense_Control.c **** *  This function performs all data processes for all enabled widgets in the
 306:Generated_Source\PSoC6/CapSense_Control.c **** *  Component. The following tasks are executed as part of processing all the
 307:Generated_Source\PSoC6/CapSense_Control.c **** *  widgets:
 308:Generated_Source\PSoC6/CapSense_Control.c **** *    1. Apply raw count filters to the raw counts, if they are enabled in the
 309:Generated_Source\PSoC6/CapSense_Control.c **** *       customizer.
 310:Generated_Source\PSoC6/CapSense_Control.c **** *    2. Update the thresholds if the SmartSense Full Auto-Tuning is enabled in
 311:Generated_Source\PSoC6/CapSense_Control.c **** *       the customizer.
 312:Generated_Source\PSoC6/CapSense_Control.c **** *    3. Update the baselines and difference counts for all the sensors.
 313:Generated_Source\PSoC6/CapSense_Control.c **** *    4. Update the sensor and widget status (on/off), update the centroid for
 314:Generated_Source\PSoC6/CapSense_Control.c **** *       the sliders and the X/Y position for the touchpads.
 315:Generated_Source\PSoC6/CapSense_Control.c **** *
ARM GAS  C:\Users\bryan.lee\AppData\Local\Temp\ccMG4MTE.s 			page 7


 316:Generated_Source\PSoC6/CapSense_Control.c **** *  This function is called by an application program only after all the enabled
 317:Generated_Source\PSoC6/CapSense_Control.c **** *  widgets (and sensors) in the Component is scanned. Calling this function
 318:Generated_Source\PSoC6/CapSense_Control.c **** *  multiple times without sensor scanning causes unexpected behavior.
 319:Generated_Source\PSoC6/CapSense_Control.c **** *
 320:Generated_Source\PSoC6/CapSense_Control.c **** *  The disabled widgets are not processed by this function. To disable/enable
 321:Generated_Source\PSoC6/CapSense_Control.c **** *  a widget, set the appropriate values in the
 322:Generated_Source\PSoC6/CapSense_Control.c **** *  CapSense_WDGT_ENABLE<RegisterNumber>_PARAM_ID register using the
 323:Generated_Source\PSoC6/CapSense_Control.c **** *  CapSense_SetParam() function.
 324:Generated_Source\PSoC6/CapSense_Control.c **** *
 325:Generated_Source\PSoC6/CapSense_Control.c **** *  If the Ballistic multiplier filter is enabled the Timestamp must be
 326:Generated_Source\PSoC6/CapSense_Control.c **** *  updated before calling this function using the
 327:Generated_Source\PSoC6/CapSense_Control.c **** *  CapSense_IncrementGestureTimestamp() function.
 328:Generated_Source\PSoC6/CapSense_Control.c **** *
 329:Generated_Source\PSoC6/CapSense_Control.c **** *  If the Self-test library is enabled, this function executes the baseline duplication
 330:Generated_Source\PSoC6/CapSense_Control.c **** *  test. Refer to CapSense_CheckBaselineDuplication() for details.
 331:Generated_Source\PSoC6/CapSense_Control.c **** *
 332:Generated_Source\PSoC6/CapSense_Control.c **** * \return
 333:Generated_Source\PSoC6/CapSense_Control.c **** *  Returns the status of the processing operation. If CY_RET_SUCCESS is not received,
 334:Generated_Source\PSoC6/CapSense_Control.c **** *  the processing fails and retries may be required.
 335:Generated_Source\PSoC6/CapSense_Control.c **** *
 336:Generated_Source\PSoC6/CapSense_Control.c **** *******************************************************************************/
 337:Generated_Source\PSoC6/CapSense_Control.c **** cy_status CapSense_ProcessAllWidgets(void)
 338:Generated_Source\PSoC6/CapSense_Control.c **** {
 339:Generated_Source\PSoC6/CapSense_Control.c ****     uint32 wdgtId;
 340:Generated_Source\PSoC6/CapSense_Control.c ****     cy_status result = CY_RET_SUCCESS;
 341:Generated_Source\PSoC6/CapSense_Control.c ****     CapSense_FLASH_WD_STRUCT const *ptrFlashWdgt;
 342:Generated_Source\PSoC6/CapSense_Control.c **** 
 343:Generated_Source\PSoC6/CapSense_Control.c ****     ptrFlashWdgt = CapSense_dsFlash.wdgtArray;
 344:Generated_Source\PSoC6/CapSense_Control.c **** 
 345:Generated_Source\PSoC6/CapSense_Control.c ****     for (wdgtId = 0u; wdgtId < CapSense_TOTAL_WIDGETS; wdgtId++)
 346:Generated_Source\PSoC6/CapSense_Control.c ****     {
 347:Generated_Source\PSoC6/CapSense_Control.c ****         if (0uL != CapSense_GET_WIDGET_EN_STATUS(wdgtId))
 348:Generated_Source\PSoC6/CapSense_Control.c ****         {
 349:Generated_Source\PSoC6/CapSense_Control.c ****             switch(CapSense_GET_SENSE_METHOD(ptrFlashWdgt))
 350:Generated_Source\PSoC6/CapSense_Control.c ****             {
 351:Generated_Source\PSoC6/CapSense_Control.c ****             #if (0u != CapSense_TOTAL_CSD_WIDGETS)
 352:Generated_Source\PSoC6/CapSense_Control.c ****                 case CapSense_SENSE_METHOD_CSD_E:
 353:Generated_Source\PSoC6/CapSense_Control.c ****                     result = CapSense_DpProcessCsdWidgetRawCounts(ptrFlashWdgt);
 354:Generated_Source\PSoC6/CapSense_Control.c ****                     CapSense_DpProcessCsdWidgetStatus(wdgtId, ptrFlashWdgt);
 355:Generated_Source\PSoC6/CapSense_Control.c ****                     break;
 356:Generated_Source\PSoC6/CapSense_Control.c ****             #endif /* #if (0u != CapSense_TOTAL_CSD_WIDGETS) */
 357:Generated_Source\PSoC6/CapSense_Control.c **** 
 358:Generated_Source\PSoC6/CapSense_Control.c ****             #if (0u != CapSense_TOTAL_CSX_WIDGETS)
 359:Generated_Source\PSoC6/CapSense_Control.c ****                 case CapSense_SENSE_METHOD_CSX_E:
 360:Generated_Source\PSoC6/CapSense_Control.c ****                     result = CapSense_DpProcessCsxWidgetRawCounts(ptrFlashWdgt);
 361:Generated_Source\PSoC6/CapSense_Control.c ****                     CapSense_DpProcessCsxWidgetStatus(wdgtId, ptrFlashWdgt);
 362:Generated_Source\PSoC6/CapSense_Control.c ****                     break;
 363:Generated_Source\PSoC6/CapSense_Control.c ****             #endif /* #if (0u != CapSense_TOTAL_CSX_WIDGETS) */
 364:Generated_Source\PSoC6/CapSense_Control.c **** 
 365:Generated_Source\PSoC6/CapSense_Control.c ****             default:
 366:Generated_Source\PSoC6/CapSense_Control.c ****                 CY_ASSERT(0 != 0);
 367:Generated_Source\PSoC6/CapSense_Control.c ****                 break;
 368:Generated_Source\PSoC6/CapSense_Control.c ****             }
 369:Generated_Source\PSoC6/CapSense_Control.c **** 
 370:Generated_Source\PSoC6/CapSense_Control.c ****             #if (CapSense_ENABLE == CapSense_TST_BSLN_DUPLICATION_EN)
 371:Generated_Source\PSoC6/CapSense_Control.c ****                 if (CY_RET_SUCCESS != result)
 372:Generated_Source\PSoC6/CapSense_Control.c ****                 {
ARM GAS  C:\Users\bryan.lee\AppData\Local\Temp\ccMG4MTE.s 			page 8


 373:Generated_Source\PSoC6/CapSense_Control.c ****                     CapSense_UpdateTestResultBaselineDuplication(wdgtId, result);
 374:Generated_Source\PSoC6/CapSense_Control.c ****                     result = CY_RET_BAD_DATA;
 375:Generated_Source\PSoC6/CapSense_Control.c ****                 }
 376:Generated_Source\PSoC6/CapSense_Control.c ****             #endif /* (CapSense_ENABLE == CapSense_TST_BSLN_DUPLICATION_EN) */
 377:Generated_Source\PSoC6/CapSense_Control.c **** 
 378:Generated_Source\PSoC6/CapSense_Control.c ****         }
 379:Generated_Source\PSoC6/CapSense_Control.c ****         ptrFlashWdgt++;
 380:Generated_Source\PSoC6/CapSense_Control.c ****     }
 381:Generated_Source\PSoC6/CapSense_Control.c ****     return result;
 382:Generated_Source\PSoC6/CapSense_Control.c **** }
 383:Generated_Source\PSoC6/CapSense_Control.c **** 
 384:Generated_Source\PSoC6/CapSense_Control.c **** /*******************************************************************************
 385:Generated_Source\PSoC6/CapSense_Control.c **** * Function Name: CapSense_ProcessWidget
 386:Generated_Source\PSoC6/CapSense_Control.c **** ****************************************************************************//**
 387:Generated_Source\PSoC6/CapSense_Control.c **** *
 388:Generated_Source\PSoC6/CapSense_Control.c **** * \brief
 389:Generated_Source\PSoC6/CapSense_Control.c **** *  Performs full data processing of the specified widget if it is enabled.
 390:Generated_Source\PSoC6/CapSense_Control.c **** *
 391:Generated_Source\PSoC6/CapSense_Control.c **** * \details
 392:Generated_Source\PSoC6/CapSense_Control.c **** *  This function performs exactly the same tasks as
 393:Generated_Source\PSoC6/CapSense_Control.c **** *  CapSense_ProcessAllWidgets(), but only for a specified widget. This
 394:Generated_Source\PSoC6/CapSense_Control.c **** *  function can be used along with the CapSense_SetupWidget() and
 395:Generated_Source\PSoC6/CapSense_Control.c **** *  CapSense_Scan() functions to scan and process data for a specific
 396:Generated_Source\PSoC6/CapSense_Control.c **** *  widget. This function is called only after all the sensors in the
 397:Generated_Source\PSoC6/CapSense_Control.c **** *  widgets are scanned. A disabled widget is not processed by this function.
 398:Generated_Source\PSoC6/CapSense_Control.c **** *
 399:Generated_Source\PSoC6/CapSense_Control.c **** *  A pipeline scan method (i.e. during scanning of a widget perform processing
 400:Generated_Source\PSoC6/CapSense_Control.c **** *  of the previously scanned widget) can be implemented using this function and
 401:Generated_Source\PSoC6/CapSense_Control.c **** *  it may reduce the total execution time, increase the refresh rate and
 402:Generated_Source\PSoC6/CapSense_Control.c **** *  decrease the average power consumption.
 403:Generated_Source\PSoC6/CapSense_Control.c **** *
 404:Generated_Source\PSoC6/CapSense_Control.c **** *  If the Ballistic multiplier filter is enabled the Timestamp must be
 405:Generated_Source\PSoC6/CapSense_Control.c **** *  updated before calling this function using the
 406:Generated_Source\PSoC6/CapSense_Control.c **** *  CapSense_IncrementGestureTimestamp() function.
 407:Generated_Source\PSoC6/CapSense_Control.c **** *
 408:Generated_Source\PSoC6/CapSense_Control.c **** *  If the Self-test library is enabled, this function executes the baseline duplication
 409:Generated_Source\PSoC6/CapSense_Control.c **** *  test. Refer to CapSense_CheckBaselineDuplication() for details.
 410:Generated_Source\PSoC6/CapSense_Control.c **** *
 411:Generated_Source\PSoC6/CapSense_Control.c **** * \param widgetId
 412:Generated_Source\PSoC6/CapSense_Control.c **** *  Specifies the ID number of the widget to be processed.
 413:Generated_Source\PSoC6/CapSense_Control.c **** *  A macro for the widget ID can be found in the
 414:Generated_Source\PSoC6/CapSense_Control.c **** *  CapSense Configuration header file defined as
 415:Generated_Source\PSoC6/CapSense_Control.c **** *  CapSense_<WidgetName>_WDGT_ID
 416:Generated_Source\PSoC6/CapSense_Control.c **** *
 417:Generated_Source\PSoC6/CapSense_Control.c **** * \return
 418:Generated_Source\PSoC6/CapSense_Control.c **** *  Returns the status of the widget processing:
 419:Generated_Source\PSoC6/CapSense_Control.c **** *  - CY_RET_SUCCESS - The operation is successfully completed
 420:Generated_Source\PSoC6/CapSense_Control.c **** *  - CY_RET_BAD_PARAM - The input parameter is invalid
 421:Generated_Source\PSoC6/CapSense_Control.c **** *  - CY_RET_INVALID_STATE - The specified widget is disabled
 422:Generated_Source\PSoC6/CapSense_Control.c **** *  - CY_RET_BAD_DATA - The processing is failed
 423:Generated_Source\PSoC6/CapSense_Control.c **** *
 424:Generated_Source\PSoC6/CapSense_Control.c **** *******************************************************************************/
 425:Generated_Source\PSoC6/CapSense_Control.c **** cy_status CapSense_ProcessWidget(uint32 widgetId)
 426:Generated_Source\PSoC6/CapSense_Control.c **** {
 427:Generated_Source\PSoC6/CapSense_Control.c ****     cy_status result = CY_RET_SUCCESS;
 428:Generated_Source\PSoC6/CapSense_Control.c ****     CapSense_FLASH_WD_STRUCT const *ptrFlashWdgt;
 429:Generated_Source\PSoC6/CapSense_Control.c **** 
ARM GAS  C:\Users\bryan.lee\AppData\Local\Temp\ccMG4MTE.s 			page 9


 430:Generated_Source\PSoC6/CapSense_Control.c ****     if (widgetId >= CapSense_TOTAL_WIDGETS)
 431:Generated_Source\PSoC6/CapSense_Control.c ****     {
 432:Generated_Source\PSoC6/CapSense_Control.c ****         result = CY_RET_BAD_PARAM;
 433:Generated_Source\PSoC6/CapSense_Control.c ****     }
 434:Generated_Source\PSoC6/CapSense_Control.c **** 
 435:Generated_Source\PSoC6/CapSense_Control.c ****     if ((CY_RET_SUCCESS == result) && (0uL == CapSense_GET_WIDGET_EN_STATUS(widgetId)))
 436:Generated_Source\PSoC6/CapSense_Control.c ****     {
 437:Generated_Source\PSoC6/CapSense_Control.c ****         result = CY_RET_INVALID_STATE;
 438:Generated_Source\PSoC6/CapSense_Control.c ****     }
 439:Generated_Source\PSoC6/CapSense_Control.c **** 
 440:Generated_Source\PSoC6/CapSense_Control.c ****     if (CY_RET_SUCCESS == result)
 441:Generated_Source\PSoC6/CapSense_Control.c ****     {
 442:Generated_Source\PSoC6/CapSense_Control.c ****         ptrFlashWdgt = &CapSense_dsFlash.wdgtArray[widgetId];
 443:Generated_Source\PSoC6/CapSense_Control.c **** 
 444:Generated_Source\PSoC6/CapSense_Control.c ****         switch(CapSense_GET_SENSE_METHOD(ptrFlashWdgt))
 445:Generated_Source\PSoC6/CapSense_Control.c ****         {
 446:Generated_Source\PSoC6/CapSense_Control.c ****         #if (0u != CapSense_TOTAL_CSD_WIDGETS)
 447:Generated_Source\PSoC6/CapSense_Control.c ****             case CapSense_SENSE_METHOD_CSD_E:
 448:Generated_Source\PSoC6/CapSense_Control.c ****                 result = CapSense_DpProcessCsdWidgetRawCounts(ptrFlashWdgt);
 449:Generated_Source\PSoC6/CapSense_Control.c ****                 CapSense_DpProcessCsdWidgetStatus(widgetId, ptrFlashWdgt);
 450:Generated_Source\PSoC6/CapSense_Control.c ****                 break;
 451:Generated_Source\PSoC6/CapSense_Control.c ****         #endif /* #if (0u != CapSense_TOTAL_CSD_WIDGETS) */
 452:Generated_Source\PSoC6/CapSense_Control.c **** 
 453:Generated_Source\PSoC6/CapSense_Control.c ****         #if (0u != CapSense_TOTAL_CSX_WIDGETS)
 454:Generated_Source\PSoC6/CapSense_Control.c ****             case CapSense_SENSE_METHOD_CSX_E:
 455:Generated_Source\PSoC6/CapSense_Control.c ****                 result = CapSense_DpProcessCsxWidgetRawCounts(ptrFlashWdgt);
 456:Generated_Source\PSoC6/CapSense_Control.c ****                 CapSense_DpProcessCsxWidgetStatus(widgetId, ptrFlashWdgt);
 457:Generated_Source\PSoC6/CapSense_Control.c ****                 break;
 458:Generated_Source\PSoC6/CapSense_Control.c ****         #endif /* #if (0u != CapSense_TOTAL_CSX_WIDGETS) */
 459:Generated_Source\PSoC6/CapSense_Control.c **** 
 460:Generated_Source\PSoC6/CapSense_Control.c ****         default:
 461:Generated_Source\PSoC6/CapSense_Control.c ****             CY_ASSERT(0 != 0);
 462:Generated_Source\PSoC6/CapSense_Control.c ****             break;
 463:Generated_Source\PSoC6/CapSense_Control.c ****         }
 464:Generated_Source\PSoC6/CapSense_Control.c **** 
 465:Generated_Source\PSoC6/CapSense_Control.c ****         #if (CapSense_ENABLE == CapSense_TST_BSLN_DUPLICATION_EN)
 466:Generated_Source\PSoC6/CapSense_Control.c ****             if (CY_RET_SUCCESS != result)
 467:Generated_Source\PSoC6/CapSense_Control.c ****             {
 468:Generated_Source\PSoC6/CapSense_Control.c ****                 CapSense_UpdateTestResultBaselineDuplication(widgetId, result);
 469:Generated_Source\PSoC6/CapSense_Control.c ****                 result = CY_RET_BAD_DATA;
 470:Generated_Source\PSoC6/CapSense_Control.c ****             }
 471:Generated_Source\PSoC6/CapSense_Control.c ****         #endif /* (CapSense_ENABLE == CapSense_TST_BSLN_DUPLICATION_EN) */
 472:Generated_Source\PSoC6/CapSense_Control.c ****     }
 473:Generated_Source\PSoC6/CapSense_Control.c ****     return result;
 474:Generated_Source\PSoC6/CapSense_Control.c **** }
 475:Generated_Source\PSoC6/CapSense_Control.c **** 
 476:Generated_Source\PSoC6/CapSense_Control.c **** 
 477:Generated_Source\PSoC6/CapSense_Control.c **** /*******************************************************************************
 478:Generated_Source\PSoC6/CapSense_Control.c **** * Function Name: CapSense_ProcessWidgetExt
 479:Generated_Source\PSoC6/CapSense_Control.c **** ****************************************************************************//**
 480:Generated_Source\PSoC6/CapSense_Control.c **** *
 481:Generated_Source\PSoC6/CapSense_Control.c **** * \brief
 482:Generated_Source\PSoC6/CapSense_Control.c **** *  Performs customized data processing on the selected widget.
 483:Generated_Source\PSoC6/CapSense_Control.c **** *
 484:Generated_Source\PSoC6/CapSense_Control.c **** * \details
 485:Generated_Source\PSoC6/CapSense_Control.c **** *  This function performs data processes for the specified widget specified by
 486:Generated_Source\PSoC6/CapSense_Control.c **** *  the mode parameter. The execution order of the requested operations is from
ARM GAS  C:\Users\bryan.lee\AppData\Local\Temp\ccMG4MTE.s 			page 10


 487:Generated_Source\PSoC6/CapSense_Control.c **** *  LSB to MSB of the mode parameter. For a different order, this API
 488:Generated_Source\PSoC6/CapSense_Control.c **** *  can be called multiple times with the required mode parameter.
 489:Generated_Source\PSoC6/CapSense_Control.c **** *
 490:Generated_Source\PSoC6/CapSense_Control.c **** *  This function can be used with any of the available scan functions. This
 491:Generated_Source\PSoC6/CapSense_Control.c **** *  function is called only after all the sensors in the specified widget are
 492:Generated_Source\PSoC6/CapSense_Control.c **** *  scanned. Calling this function multiple times with the same mode without
 493:Generated_Source\PSoC6/CapSense_Control.c **** *  sensor scanning causes unexpected behavior. This function ignores the value
 494:Generated_Source\PSoC6/CapSense_Control.c **** *  of the wdgtEnable register.
 495:Generated_Source\PSoC6/CapSense_Control.c **** *
 496:Generated_Source\PSoC6/CapSense_Control.c **** *  The CapSense_PROCESS_CALC_NOISE and
 497:Generated_Source\PSoC6/CapSense_Control.c **** *  CapSense_PROCESS_THRESHOLDS flags are supported by the CSD sensing
 498:Generated_Source\PSoC6/CapSense_Control.c **** *  method only when Auto-tuning mode is enabled.
 499:Generated_Source\PSoC6/CapSense_Control.c **** *
 500:Generated_Source\PSoC6/CapSense_Control.c **** *  The pipeline scan method (i.e. during scanning of a widget, processing
 501:Generated_Source\PSoC6/CapSense_Control.c **** *  of a previously scanned widget is performed) can be implemented using this
 502:Generated_Source\PSoC6/CapSense_Control.c **** *  function and it may reduce the total scan/process time, increase the refresh
 503:Generated_Source\PSoC6/CapSense_Control.c **** *  rate and decrease the power consumption.
 504:Generated_Source\PSoC6/CapSense_Control.c **** *
 505:Generated_Source\PSoC6/CapSense_Control.c **** *  If the Self-test library is enabled, this function executes the baseline duplication
 506:Generated_Source\PSoC6/CapSense_Control.c **** *  test. Refer to CapSense_CheckBaselineDuplication() for details.
 507:Generated_Source\PSoC6/CapSense_Control.c **** *
 508:Generated_Source\PSoC6/CapSense_Control.c **** *  If the Ballistic multiplier filter is enabled the Timestamp must be
 509:Generated_Source\PSoC6/CapSense_Control.c **** *  updated before calling this function using the
 510:Generated_Source\PSoC6/CapSense_Control.c **** *  CapSense_IncrementGestureTimestamp() function.
 511:Generated_Source\PSoC6/CapSense_Control.c **** *
 512:Generated_Source\PSoC6/CapSense_Control.c **** * \param widgetId
 513:Generated_Source\PSoC6/CapSense_Control.c **** *  Specifies the ID number of the widget to be processed.
 514:Generated_Source\PSoC6/CapSense_Control.c **** *  A macro for the widget ID can be found in the CapSense Configuration header
 515:Generated_Source\PSoC6/CapSense_Control.c **** *  file defined as CapSense_<WidgetName>_WDGT_ID.
 516:Generated_Source\PSoC6/CapSense_Control.c **** 
 517:Generated_Source\PSoC6/CapSense_Control.c **** * \param mode
 518:Generated_Source\PSoC6/CapSense_Control.c **** *  Specifies the type of widget processing to be executed for the
 519:Generated_Source\PSoC6/CapSense_Control.c **** *  specified widget:
 520:Generated_Source\PSoC6/CapSense_Control.c **** *    1. Bits [31..6] - Reserved.
 521:Generated_Source\PSoC6/CapSense_Control.c **** *    2. Bits [5..0] - CapSense_PROCESS_ALL - Execute all the tasks.
 522:Generated_Source\PSoC6/CapSense_Control.c **** *    3. Bit [5] - CapSense_PROCESS_STATUS - Update the status (on/off,
 523:Generated_Source\PSoC6/CapSense_Control.c **** *       centroid position).
 524:Generated_Source\PSoC6/CapSense_Control.c **** *    4. Bit [4] - CapSense_PROCESS_THRESHOLDS - Update the thresholds
 525:Generated_Source\PSoC6/CapSense_Control.c **** *       (only in CSD auto-tuning mode).
 526:Generated_Source\PSoC6/CapSense_Control.c **** *    5. Bit [3] - CapSense_PROCESS_CALC_NOISE - Calculate the noise (only in
 527:Generated_Source\PSoC6/CapSense_Control.c **** *       CSD auto-tuning mode).
 528:Generated_Source\PSoC6/CapSense_Control.c **** *    6. Bit [2] - CapSense_PROCESS_DIFFCOUNTS - Update the difference counts.
 529:Generated_Source\PSoC6/CapSense_Control.c **** *    7. Bit [1] - CapSense_PROCESS_BASELINE - Update the baselines.
 530:Generated_Source\PSoC6/CapSense_Control.c **** *    8. Bit [0] - CapSense_PROCESS_FILTER - Run the firmware filters.
 531:Generated_Source\PSoC6/CapSense_Control.c **** *
 532:Generated_Source\PSoC6/CapSense_Control.c **** * \return
 533:Generated_Source\PSoC6/CapSense_Control.c **** *  Returns the status of the widget processing operation:
 534:Generated_Source\PSoC6/CapSense_Control.c **** *  - CY_RET_SUCCESS - The processing is successfully performed.
 535:Generated_Source\PSoC6/CapSense_Control.c **** *  - CY_RET_BAD_PARAM - The input parameter is invalid.
 536:Generated_Source\PSoC6/CapSense_Control.c **** *  - CY_RET_BAD_DATA - The processing failed.
 537:Generated_Source\PSoC6/CapSense_Control.c **** *
 538:Generated_Source\PSoC6/CapSense_Control.c **** *******************************************************************************/
 539:Generated_Source\PSoC6/CapSense_Control.c **** cy_status CapSense_ProcessWidgetExt(uint32 widgetId, uint32 mode)
 540:Generated_Source\PSoC6/CapSense_Control.c **** {
 541:Generated_Source\PSoC6/CapSense_Control.c ****     uint32 snsCount;
 542:Generated_Source\PSoC6/CapSense_Control.c ****     cy_status result = CY_RET_BAD_PARAM;
 543:Generated_Source\PSoC6/CapSense_Control.c ****     CapSense_FLASH_WD_STRUCT const *ptrFlashWdgt;
ARM GAS  C:\Users\bryan.lee\AppData\Local\Temp\ccMG4MTE.s 			page 11


 544:Generated_Source\PSoC6/CapSense_Control.c ****     CapSense_PTR_FILTER_VARIANT fltrHistV;
 545:Generated_Source\PSoC6/CapSense_Control.c ****     CapSense_RAM_SNS_STRUCT *ptrSnsTmp;
 546:Generated_Source\PSoC6/CapSense_Control.c **** 
 547:Generated_Source\PSoC6/CapSense_Control.c ****     #if (0u != CapSense_TOTAL_CSD_WIDGETS)
 548:Generated_Source\PSoC6/CapSense_Control.c ****         uint32 isProxWdgt;
 549:Generated_Source\PSoC6/CapSense_Control.c ****     #endif
 550:Generated_Source\PSoC6/CapSense_Control.c **** 
 551:Generated_Source\PSoC6/CapSense_Control.c ****     if (widgetId < CapSense_TOTAL_WIDGETS)
 552:Generated_Source\PSoC6/CapSense_Control.c ****     {
 553:Generated_Source\PSoC6/CapSense_Control.c ****         ptrFlashWdgt = &CapSense_dsFlash.wdgtArray[widgetId];
 554:Generated_Source\PSoC6/CapSense_Control.c ****         snsCount = CapSense_GET_SNS_CNT_BY_PTR(ptrFlashWdgt);
 555:Generated_Source\PSoC6/CapSense_Control.c ****         ptrSnsTmp = ptrFlashWdgt->ptr2SnsRam;
 556:Generated_Source\PSoC6/CapSense_Control.c ****         fltrHistV.ptr = ptrFlashWdgt->ptr2FltrHistory;
 557:Generated_Source\PSoC6/CapSense_Control.c **** 
 558:Generated_Source\PSoC6/CapSense_Control.c ****         switch(CapSense_GET_SENSE_METHOD(ptrFlashWdgt))
 559:Generated_Source\PSoC6/CapSense_Control.c ****         {
 560:Generated_Source\PSoC6/CapSense_Control.c ****         #if (0u != CapSense_TOTAL_CSD_WIDGETS)
 561:Generated_Source\PSoC6/CapSense_Control.c ****             case CapSense_SENSE_METHOD_CSD_E:
 562:Generated_Source\PSoC6/CapSense_Control.c ****             {
 563:Generated_Source\PSoC6/CapSense_Control.c ****                 /* Determine if widget is type of proximity.
 564:Generated_Source\PSoC6/CapSense_Control.c ****                  * The Proximity widgets use different filters and
 565:Generated_Source\PSoC6/CapSense_Control.c ****                  * therefore have different filter history object structure */
 566:Generated_Source\PSoC6/CapSense_Control.c ****                 isProxWdgt = (CapSense_GET_WIDGET_TYPE(ptrFlashWdgt) == CapSense_WD_PROXIMITY_E) ? 
 567:Generated_Source\PSoC6/CapSense_Control.c **** 
 568:Generated_Source\PSoC6/CapSense_Control.c ****                 /* Run the desired processing for the all CSD widget sensors */
 569:Generated_Source\PSoC6/CapSense_Control.c ****                 for (;snsCount-- > 0u;)
 570:Generated_Source\PSoC6/CapSense_Control.c ****                 {
 571:Generated_Source\PSoC6/CapSense_Control.c ****                     result = CapSense_DpProcessCsdSensorRawCountsExt(ptrFlashWdgt, ptrSnsTmp, fltrH
 572:Generated_Source\PSoC6/CapSense_Control.c **** 
 573:Generated_Source\PSoC6/CapSense_Control.c ****                     #if (CapSense_ENABLE == CapSense_TST_BSLN_DUPLICATION_EN)
 574:Generated_Source\PSoC6/CapSense_Control.c ****                         if (CY_RET_SUCCESS != result)
 575:Generated_Source\PSoC6/CapSense_Control.c ****                         {
 576:Generated_Source\PSoC6/CapSense_Control.c ****                             result = (result | CapSense_TST_LSBYTE) & snsCount;
 577:Generated_Source\PSoC6/CapSense_Control.c ****                         }
 578:Generated_Source\PSoC6/CapSense_Control.c ****                     #endif /* (CapSense_ENABLE == CapSense_TST_BSLN_DUPLICATION_EN) */
 579:Generated_Source\PSoC6/CapSense_Control.c **** 
 580:Generated_Source\PSoC6/CapSense_Control.c ****                     /* Move to the next sensor and filter history objects */
 581:Generated_Source\PSoC6/CapSense_Control.c ****                     ptrSnsTmp++;
 582:Generated_Source\PSoC6/CapSense_Control.c ****                     CapSense_INC_FLTR_OBJ_VARIANT(isProxWdgt, fltrHistV);
 583:Generated_Source\PSoC6/CapSense_Control.c ****                 }
 584:Generated_Source\PSoC6/CapSense_Control.c **** 
 585:Generated_Source\PSoC6/CapSense_Control.c ****                 if (0u != (mode & CapSense_PROCESS_STATUS))
 586:Generated_Source\PSoC6/CapSense_Control.c ****                 {
 587:Generated_Source\PSoC6/CapSense_Control.c ****                     CapSense_DpProcessCsdWidgetStatus(widgetId, ptrFlashWdgt);
 588:Generated_Source\PSoC6/CapSense_Control.c ****                 }
 589:Generated_Source\PSoC6/CapSense_Control.c ****                 break;
 590:Generated_Source\PSoC6/CapSense_Control.c ****             }
 591:Generated_Source\PSoC6/CapSense_Control.c ****         #endif /* #if (0u != CapSense_TOTAL_CSD_WIDGETS) */
 592:Generated_Source\PSoC6/CapSense_Control.c **** 
 593:Generated_Source\PSoC6/CapSense_Control.c ****         #if (0u != CapSense_TOTAL_CSX_WIDGETS)
 594:Generated_Source\PSoC6/CapSense_Control.c ****             case CapSense_SENSE_METHOD_CSX_E:
 595:Generated_Source\PSoC6/CapSense_Control.c **** 
 596:Generated_Source\PSoC6/CapSense_Control.c ****                 #if (0u != CapSense_CSX_MULTIPHASE_TX_EN)
 597:Generated_Source\PSoC6/CapSense_Control.c ****                     if ((0u != (mode & CapSense_PROCESS_DECONVOLUTION)) &&
 598:Generated_Source\PSoC6/CapSense_Control.c ****                         (0u != (ptrFlashWdgt->staticConfig & CapSense_MULTIPHASE_TX_MASK)))
 599:Generated_Source\PSoC6/CapSense_Control.c ****                     {
 600:Generated_Source\PSoC6/CapSense_Control.c ****                         CapSense_DpDeconvolution(ptrFlashWdgt);
ARM GAS  C:\Users\bryan.lee\AppData\Local\Temp\ccMG4MTE.s 			page 12


 601:Generated_Source\PSoC6/CapSense_Control.c ****                     }
 602:Generated_Source\PSoC6/CapSense_Control.c ****                 #endif /* #if (0u != CapSense_CSX_MULTIPHASE_TX_EN) */
 603:Generated_Source\PSoC6/CapSense_Control.c **** 
 604:Generated_Source\PSoC6/CapSense_Control.c ****                 /* Run the desired processing for the all CSX widget sensors */
 605:Generated_Source\PSoC6/CapSense_Control.c ****                 for (;snsCount-- > 0u;)
 606:Generated_Source\PSoC6/CapSense_Control.c ****                 {
 607:Generated_Source\PSoC6/CapSense_Control.c ****                     result = CapSense_DpProcessCsxSensorRawCountsExt(ptrFlashWdgt, ptrSnsTmp, fltrH
 608:Generated_Source\PSoC6/CapSense_Control.c **** 
 609:Generated_Source\PSoC6/CapSense_Control.c ****                     #if (CapSense_ENABLE == CapSense_TST_BSLN_DUPLICATION_EN)
 610:Generated_Source\PSoC6/CapSense_Control.c ****                         if (CY_RET_SUCCESS != result)
 611:Generated_Source\PSoC6/CapSense_Control.c ****                         {
 612:Generated_Source\PSoC6/CapSense_Control.c ****                             result = (result | CapSense_TST_LSBYTE) & snsCount;
 613:Generated_Source\PSoC6/CapSense_Control.c ****                         }
 614:Generated_Source\PSoC6/CapSense_Control.c ****                     #endif /* (CapSense_ENABLE == CapSense_TST_BSLN_DUPLICATION_EN) */
 615:Generated_Source\PSoC6/CapSense_Control.c **** 
 616:Generated_Source\PSoC6/CapSense_Control.c ****                     /* Move to the next sensor and filter history objects */
 617:Generated_Source\PSoC6/CapSense_Control.c ****                     ptrSnsTmp++;
 618:Generated_Source\PSoC6/CapSense_Control.c ****                     CapSense_INC_REG_FLTR_OBJ(fltrHistV);
 619:Generated_Source\PSoC6/CapSense_Control.c ****                 }
 620:Generated_Source\PSoC6/CapSense_Control.c **** 
 621:Generated_Source\PSoC6/CapSense_Control.c ****                 if (0u != (mode & CapSense_PROCESS_STATUS))
 622:Generated_Source\PSoC6/CapSense_Control.c ****                 {
 623:Generated_Source\PSoC6/CapSense_Control.c ****                     CapSense_DpProcessCsxWidgetStatus(widgetId, ptrFlashWdgt);
 624:Generated_Source\PSoC6/CapSense_Control.c ****                 }
 625:Generated_Source\PSoC6/CapSense_Control.c ****                 break;
 626:Generated_Source\PSoC6/CapSense_Control.c ****         #endif /* #if (0u != CapSense_TOTAL_CSX_WIDGETS) */
 627:Generated_Source\PSoC6/CapSense_Control.c **** 
 628:Generated_Source\PSoC6/CapSense_Control.c ****         default:
 629:Generated_Source\PSoC6/CapSense_Control.c ****             CY_ASSERT(0 != 0);
 630:Generated_Source\PSoC6/CapSense_Control.c ****             break;
 631:Generated_Source\PSoC6/CapSense_Control.c ****         }
 632:Generated_Source\PSoC6/CapSense_Control.c **** 
 633:Generated_Source\PSoC6/CapSense_Control.c ****         #if (CapSense_ENABLE == CapSense_TST_BSLN_DUPLICATION_EN)
 634:Generated_Source\PSoC6/CapSense_Control.c ****             if (CY_RET_SUCCESS != result)
 635:Generated_Source\PSoC6/CapSense_Control.c ****             {
 636:Generated_Source\PSoC6/CapSense_Control.c ****                 CapSense_UpdateTestResultBaselineDuplication(widgetId, snsCount);
 637:Generated_Source\PSoC6/CapSense_Control.c ****                 result = CY_RET_BAD_DATA;
 638:Generated_Source\PSoC6/CapSense_Control.c ****             }
 639:Generated_Source\PSoC6/CapSense_Control.c ****         #endif /* (CapSense_ENABLE == CapSense_TST_BSLN_DUPLICATION_EN) */
 640:Generated_Source\PSoC6/CapSense_Control.c **** 
 641:Generated_Source\PSoC6/CapSense_Control.c ****     }
 642:Generated_Source\PSoC6/CapSense_Control.c ****     return result;
 643:Generated_Source\PSoC6/CapSense_Control.c **** }
 644:Generated_Source\PSoC6/CapSense_Control.c **** 
 645:Generated_Source\PSoC6/CapSense_Control.c **** /*******************************************************************************
 646:Generated_Source\PSoC6/CapSense_Control.c **** * Function Name: CapSense_ProcessSensorExt
 647:Generated_Source\PSoC6/CapSense_Control.c **** ****************************************************************************//**
 648:Generated_Source\PSoC6/CapSense_Control.c **** *
 649:Generated_Source\PSoC6/CapSense_Control.c **** * \brief
 650:Generated_Source\PSoC6/CapSense_Control.c **** *  Performs customized data processing on the selected widget's sensor.
 651:Generated_Source\PSoC6/CapSense_Control.c **** *
 652:Generated_Source\PSoC6/CapSense_Control.c **** * \details
 653:Generated_Source\PSoC6/CapSense_Control.c **** *  This function performs data processes for the specified sensor specified by
 654:Generated_Source\PSoC6/CapSense_Control.c **** *  the mode parameter. The execution order of the requested operations is from
 655:Generated_Source\PSoC6/CapSense_Control.c **** *  LSB to MSB of the mode parameter. For a different order, this
 656:Generated_Source\PSoC6/CapSense_Control.c **** *  function can be called multiple times with the required mode parameter.
 657:Generated_Source\PSoC6/CapSense_Control.c **** *
ARM GAS  C:\Users\bryan.lee\AppData\Local\Temp\ccMG4MTE.s 			page 13


 658:Generated_Source\PSoC6/CapSense_Control.c **** *  This function can be used with any of the available scan functions. This
 659:Generated_Source\PSoC6/CapSense_Control.c **** *  function is called only after a specified sensor in the widget is
 660:Generated_Source\PSoC6/CapSense_Control.c **** *  scanned. Calling this function multiple times with the same mode without
 661:Generated_Source\PSoC6/CapSense_Control.c **** *  sensor scanning causes unexpected behavior. This function ignores the value
 662:Generated_Source\PSoC6/CapSense_Control.c **** *  of the wdgtEnable register.
 663:Generated_Source\PSoC6/CapSense_Control.c **** *
 664:Generated_Source\PSoC6/CapSense_Control.c **** *  The CapSense_PROCESS_CALC_NOISE and
 665:Generated_Source\PSoC6/CapSense_Control.c **** *  CapSense_PROCESS_THRESHOLDS flags are supported by the CSD sensing
 666:Generated_Source\PSoC6/CapSense_Control.c **** *  method only when Auto-tuning mode is enabled.
 667:Generated_Source\PSoC6/CapSense_Control.c **** *
 668:Generated_Source\PSoC6/CapSense_Control.c **** *  The pipeline scan method (i.e. during scanning of a sensor, processing
 669:Generated_Source\PSoC6/CapSense_Control.c **** *  of a previously scanned sensor is performed) can be implemented using this
 670:Generated_Source\PSoC6/CapSense_Control.c **** *  function and it may reduce the total scan/process time, increase the refresh
 671:Generated_Source\PSoC6/CapSense_Control.c **** *  rate and decrease the power consumption.
 672:Generated_Source\PSoC6/CapSense_Control.c **** *
 673:Generated_Source\PSoC6/CapSense_Control.c **** *  If the Self-test library is enabled, this function executes the baseline duplication
 674:Generated_Source\PSoC6/CapSense_Control.c **** *  test. Refer to CapSense_CheckBaselineDuplication() for details.
 675:Generated_Source\PSoC6/CapSense_Control.c **** *
 676:Generated_Source\PSoC6/CapSense_Control.c **** * \param widgetId
 677:Generated_Source\PSoC6/CapSense_Control.c **** *  Specifies the ID number of the widget to process one of its sensors.
 678:Generated_Source\PSoC6/CapSense_Control.c **** *  A macro for the widget ID can be found in the
 679:Generated_Source\PSoC6/CapSense_Control.c **** *  CapSense Configuration header file defined as
 680:Generated_Source\PSoC6/CapSense_Control.c **** *  CapSense_<WidgetName>_WDGT_ID.
 681:Generated_Source\PSoC6/CapSense_Control.c **** *
 682:Generated_Source\PSoC6/CapSense_Control.c **** * \param sensorId
 683:Generated_Source\PSoC6/CapSense_Control.c **** *  Specifies the ID number of the sensor within the widget to process it.
 684:Generated_Source\PSoC6/CapSense_Control.c **** *  A macro for the sensor ID within a specified widget can be found in the
 685:Generated_Source\PSoC6/CapSense_Control.c **** *  CapSense Configuration header file defined as
 686:Generated_Source\PSoC6/CapSense_Control.c **** *  CapSense_<WidgetName>_SNS<SensorNumber>_ID.
 687:Generated_Source\PSoC6/CapSense_Control.c **** *
 688:Generated_Source\PSoC6/CapSense_Control.c **** * \param mode
 689:Generated_Source\PSoC6/CapSense_Control.c **** *  Specifies the type of the sensor processing that needs to be executed for the
 690:Generated_Source\PSoC6/CapSense_Control.c **** *  specified sensor:
 691:Generated_Source\PSoC6/CapSense_Control.c **** *    1. Bits [31..5] - Reserved
 692:Generated_Source\PSoC6/CapSense_Control.c **** *    2. Bits [4..0] - CapSense_PROCESS_ALL - Executes all the tasks
 693:Generated_Source\PSoC6/CapSense_Control.c **** *    3. Bit [4] - CapSense_PROCESS_THRESHOLDS - Updates the thresholds (only
 694:Generated_Source\PSoC6/CapSense_Control.c **** *       in auto-tuning mode)
 695:Generated_Source\PSoC6/CapSense_Control.c **** *    4. Bit [3] - CapSense_PROCESS_CALC_NOISE - Calculates the noise (only
 696:Generated_Source\PSoC6/CapSense_Control.c **** *       in auto-tuning mode)
 697:Generated_Source\PSoC6/CapSense_Control.c **** *    5. Bit [2] - CapSense_PROCESS_DIFFCOUNTS - Updates the difference count
 698:Generated_Source\PSoC6/CapSense_Control.c **** *    6. Bit [1] - CapSense_PROCESS_BASELINE - Updates the baseline
 699:Generated_Source\PSoC6/CapSense_Control.c **** *    7. Bit [0] - CapSense_PROCESS_FILTER - Runs the firmware filters
 700:Generated_Source\PSoC6/CapSense_Control.c **** *
 701:Generated_Source\PSoC6/CapSense_Control.c **** * \return
 702:Generated_Source\PSoC6/CapSense_Control.c **** *  Returns the status of the sensor process operation:
 703:Generated_Source\PSoC6/CapSense_Control.c **** *  - CY_RET_SUCCESS - The processing is successfully performed.
 704:Generated_Source\PSoC6/CapSense_Control.c **** *  - CY_RET_BAD_PARAM - The input parameter is invalid.
 705:Generated_Source\PSoC6/CapSense_Control.c **** *  - CY_RET_BAD_DATA - The processing failed.
 706:Generated_Source\PSoC6/CapSense_Control.c **** *
 707:Generated_Source\PSoC6/CapSense_Control.c **** *******************************************************************************/
 708:Generated_Source\PSoC6/CapSense_Control.c **** cy_status CapSense_ProcessSensorExt(uint32 widgetId, uint32 sensorId, uint32 mode)
 709:Generated_Source\PSoC6/CapSense_Control.c **** {
 710:Generated_Source\PSoC6/CapSense_Control.c ****     cy_status result = CY_RET_BAD_PARAM;
 711:Generated_Source\PSoC6/CapSense_Control.c ****     CapSense_FLASH_WD_STRUCT const *ptrFlashWdgt;
 712:Generated_Source\PSoC6/CapSense_Control.c ****     CapSense_PTR_FILTER_VARIANT fltrHistV;
 713:Generated_Source\PSoC6/CapSense_Control.c ****     CapSense_RAM_SNS_STRUCT *ptrSnsTmp;
 714:Generated_Source\PSoC6/CapSense_Control.c **** 
ARM GAS  C:\Users\bryan.lee\AppData\Local\Temp\ccMG4MTE.s 			page 14


 715:Generated_Source\PSoC6/CapSense_Control.c ****     if ((widgetId < CapSense_TOTAL_WIDGETS) && (sensorId < CapSense_GET_SENSOR_COUNT(widgetId)))
 716:Generated_Source\PSoC6/CapSense_Control.c ****     {
 717:Generated_Source\PSoC6/CapSense_Control.c ****         result = CY_RET_SUCCESS;
 718:Generated_Source\PSoC6/CapSense_Control.c **** 
 719:Generated_Source\PSoC6/CapSense_Control.c ****         ptrFlashWdgt = &CapSense_dsFlash.wdgtArray[widgetId];
 720:Generated_Source\PSoC6/CapSense_Control.c ****         fltrHistV.ptr = ptrFlashWdgt->ptr2FltrHistory;
 721:Generated_Source\PSoC6/CapSense_Control.c ****         ptrSnsTmp = ptrFlashWdgt->ptr2SnsRam;
 722:Generated_Source\PSoC6/CapSense_Control.c ****         ptrSnsTmp += sensorId;
 723:Generated_Source\PSoC6/CapSense_Control.c **** 
 724:Generated_Source\PSoC6/CapSense_Control.c ****         switch(CapSense_GET_SENSE_METHOD(ptrFlashWdgt))
 725:Generated_Source\PSoC6/CapSense_Control.c ****         {
 726:Generated_Source\PSoC6/CapSense_Control.c ****         #if (0u != CapSense_TOTAL_CSD_WIDGETS)
 727:Generated_Source\PSoC6/CapSense_Control.c ****             case CapSense_SENSE_METHOD_CSD_E:
 728:Generated_Source\PSoC6/CapSense_Control.c ****                 if (CapSense_WD_PROXIMITY_E == (CapSense_WD_TYPE_ENUM)ptrFlashWdgt->wdgtType)
 729:Generated_Source\PSoC6/CapSense_Control.c ****                 {
 730:Generated_Source\PSoC6/CapSense_Control.c ****                     #if (0u != CapSense_PROX_RC_ALP_FILTER_EN)
 731:Generated_Source\PSoC6/CapSense_Control.c ****                         fltrHistV.ptr = &fltrHistV.ptrAlp[sensorId];
 732:Generated_Source\PSoC6/CapSense_Control.c ****                     #elif (0u != CapSense_PROX_RC_FILTER_EN)
 733:Generated_Source\PSoC6/CapSense_Control.c ****                         fltrHistV.ptr = &fltrHistV.ptrProx[sensorId];
 734:Generated_Source\PSoC6/CapSense_Control.c ****                     #endif
 735:Generated_Source\PSoC6/CapSense_Control.c ****                 }
 736:Generated_Source\PSoC6/CapSense_Control.c ****                 else
 737:Generated_Source\PSoC6/CapSense_Control.c ****                 {
 738:Generated_Source\PSoC6/CapSense_Control.c ****                     #if (0u != CapSense_REGULAR_RC_ALP_FILTER_EN)
 739:Generated_Source\PSoC6/CapSense_Control.c ****                         fltrHistV.ptr = &fltrHistV.ptrAlp[sensorId];
 740:Generated_Source\PSoC6/CapSense_Control.c ****                     #elif (0u != CapSense_REGULAR_RC_FILTER_EN)
 741:Generated_Source\PSoC6/CapSense_Control.c ****                         fltrHistV.ptr = &fltrHistV.ptrRegular[sensorId];
 742:Generated_Source\PSoC6/CapSense_Control.c ****                     #endif
 743:Generated_Source\PSoC6/CapSense_Control.c ****                 }
 744:Generated_Source\PSoC6/CapSense_Control.c **** 
 745:Generated_Source\PSoC6/CapSense_Control.c ****                 result = CapSense_DpProcessCsdSensorRawCountsExt(ptrFlashWdgt, ptrSnsTmp, fltrHistV
 746:Generated_Source\PSoC6/CapSense_Control.c ****                 break;
 747:Generated_Source\PSoC6/CapSense_Control.c ****         #endif /* #if (0u != CapSense_TOTAL_CSD_WIDGETS) */
 748:Generated_Source\PSoC6/CapSense_Control.c **** 
 749:Generated_Source\PSoC6/CapSense_Control.c ****         #if (0u != CapSense_TOTAL_CSX_WIDGETS)
 750:Generated_Source\PSoC6/CapSense_Control.c ****             case CapSense_SENSE_METHOD_CSX_E:
 751:Generated_Source\PSoC6/CapSense_Control.c ****                 #if (0u != CapSense_REGULAR_RC_ALP_FILTER_EN)
 752:Generated_Source\PSoC6/CapSense_Control.c ****                     fltrHistV.ptr = &fltrHistV.ptrAlp[sensorId];
 753:Generated_Source\PSoC6/CapSense_Control.c ****                 #elif (0u != CapSense_REGULAR_RC_FILTER_EN)
 754:Generated_Source\PSoC6/CapSense_Control.c ****                     fltrHistV.ptr = &fltrHistV.ptrRegular[sensorId];
 755:Generated_Source\PSoC6/CapSense_Control.c ****                 #endif
 756:Generated_Source\PSoC6/CapSense_Control.c **** 
 757:Generated_Source\PSoC6/CapSense_Control.c ****                 result = CapSense_DpProcessCsxSensorRawCountsExt(ptrFlashWdgt, ptrSnsTmp, fltrHistV
 758:Generated_Source\PSoC6/CapSense_Control.c ****                 break;
 759:Generated_Source\PSoC6/CapSense_Control.c ****         #endif /* #if (0u != CapSense_TOTAL_CSX_WIDGETS) */
 760:Generated_Source\PSoC6/CapSense_Control.c **** 
 761:Generated_Source\PSoC6/CapSense_Control.c ****         default:
 762:Generated_Source\PSoC6/CapSense_Control.c ****             CY_ASSERT(0 != 0);
 763:Generated_Source\PSoC6/CapSense_Control.c ****             break;
 764:Generated_Source\PSoC6/CapSense_Control.c ****         }
 765:Generated_Source\PSoC6/CapSense_Control.c **** 
 766:Generated_Source\PSoC6/CapSense_Control.c ****         #if (CapSense_ENABLE == CapSense_TST_BSLN_DUPLICATION_EN)
 767:Generated_Source\PSoC6/CapSense_Control.c ****             if (CY_RET_SUCCESS != result)
 768:Generated_Source\PSoC6/CapSense_Control.c ****             {
 769:Generated_Source\PSoC6/CapSense_Control.c ****                 CapSense_UpdateTestResultBaselineDuplication(widgetId, sensorId);
 770:Generated_Source\PSoC6/CapSense_Control.c ****                 result = CY_RET_BAD_DATA;
 771:Generated_Source\PSoC6/CapSense_Control.c ****             }
ARM GAS  C:\Users\bryan.lee\AppData\Local\Temp\ccMG4MTE.s 			page 15


 772:Generated_Source\PSoC6/CapSense_Control.c ****         #endif /* (CapSense_ENABLE == CapSense_TST_BSLN_DUPLICATION_EN) */
 773:Generated_Source\PSoC6/CapSense_Control.c **** 
 774:Generated_Source\PSoC6/CapSense_Control.c ****     }
 775:Generated_Source\PSoC6/CapSense_Control.c ****     return result;
 776:Generated_Source\PSoC6/CapSense_Control.c **** }
 777:Generated_Source\PSoC6/CapSense_Control.c **** 
 778:Generated_Source\PSoC6/CapSense_Control.c **** /*******************************************************************************
 779:Generated_Source\PSoC6/CapSense_Control.c **** * Function Name: CapSense_Sleep
 780:Generated_Source\PSoC6/CapSense_Control.c **** ****************************************************************************//**
 781:Generated_Source\PSoC6/CapSense_Control.c **** *
 782:Generated_Source\PSoC6/CapSense_Control.c **** * \brief
 783:Generated_Source\PSoC6/CapSense_Control.c **** *  Prepares the Component for deep sleep.
 784:Generated_Source\PSoC6/CapSense_Control.c **** *
 785:Generated_Source\PSoC6/CapSense_Control.c **** * \details
 786:Generated_Source\PSoC6/CapSense_Control.c **** *  Currently this function is empty and exists as a place for future updates,
 787:Generated_Source\PSoC6/CapSense_Control.c **** *  this function will be used to prepare the Component to enter deep sleep.
 788:Generated_Source\PSoC6/CapSense_Control.c **** *
 789:Generated_Source\PSoC6/CapSense_Control.c **** *******************************************************************************/
 790:Generated_Source\PSoC6/CapSense_Control.c **** void CapSense_Sleep(void)
 791:Generated_Source\PSoC6/CapSense_Control.c **** {
 792:Generated_Source\PSoC6/CapSense_Control.c **** }
 793:Generated_Source\PSoC6/CapSense_Control.c **** 
 794:Generated_Source\PSoC6/CapSense_Control.c **** 
 795:Generated_Source\PSoC6/CapSense_Control.c **** /*******************************************************************************
 796:Generated_Source\PSoC6/CapSense_Control.c **** * Function Name: CapSense_Wakeup
 797:Generated_Source\PSoC6/CapSense_Control.c **** ****************************************************************************//**
 798:Generated_Source\PSoC6/CapSense_Control.c **** *
 799:Generated_Source\PSoC6/CapSense_Control.c **** * \brief
 800:Generated_Source\PSoC6/CapSense_Control.c **** *  Resumes the Component after sleep.
 801:Generated_Source\PSoC6/CapSense_Control.c **** *
 802:Generated_Source\PSoC6/CapSense_Control.c **** * \details
 803:Generated_Source\PSoC6/CapSense_Control.c **** *  Resumes the Component after sleep. This function shall be used to resume
 804:Generated_Source\PSoC6/CapSense_Control.c **** *  the Component after exiting deep sleep.
 805:Generated_Source\PSoC6/CapSense_Control.c **** *
 806:Generated_Source\PSoC6/CapSense_Control.c **** *******************************************************************************/
 807:Generated_Source\PSoC6/CapSense_Control.c **** void CapSense_Wakeup(void)
 808:Generated_Source\PSoC6/CapSense_Control.c **** {
 809:Generated_Source\PSoC6/CapSense_Control.c ****     #if(CapSense_BLOCK_ANALOG_WAKEUP_DELAY_US > 0uL)
 810:Generated_Source\PSoC6/CapSense_Control.c ****         Cy_SysLib_DelayUs(CapSense_BLOCK_ANALOG_WAKEUP_DELAY_US);
 811:Generated_Source\PSoC6/CapSense_Control.c ****     #endif /* (CapSense_BLOCK_ANALOG_WAKEUP_DELAY_US > 0uL) */
 812:Generated_Source\PSoC6/CapSense_Control.c **** }
 813:Generated_Source\PSoC6/CapSense_Control.c **** 
 814:Generated_Source\PSoC6/CapSense_Control.c **** 
 815:Generated_Source\PSoC6/CapSense_Control.c **** /*******************************************************************************
 816:Generated_Source\PSoC6/CapSense_Control.c **** * Function Name: CapSense_DeepSleepCallback
 817:Generated_Source\PSoC6/CapSense_Control.c **** ****************************************************************************//**
 818:Generated_Source\PSoC6/CapSense_Control.c **** *
 819:Generated_Source\PSoC6/CapSense_Control.c **** * \brief
 820:Generated_Source\PSoC6/CapSense_Control.c **** *  Handles Active to DeepSleep power mode transition for the CapSense
 821:Generated_Source\PSoC6/CapSense_Control.c **** *  Component.
 822:Generated_Source\PSoC6/CapSense_Control.c **** *
 823:Generated_Source\PSoC6/CapSense_Control.c **** * \details
 824:Generated_Source\PSoC6/CapSense_Control.c **** *  This function handles Active to DeepSleep power mode transition
 825:Generated_Source\PSoC6/CapSense_Control.c **** *  for the CapSense Component.
 826:Generated_Source\PSoC6/CapSense_Control.c **** *  Calling this function directly by application layer is not recommended.
 827:Generated_Source\PSoC6/CapSense_Control.c **** *  Instead, Cy_SysPm_DeepSleep() should be used for the Active to DeepSleep
 828:Generated_Source\PSoC6/CapSense_Control.c **** *  power mode transition of the device.
ARM GAS  C:\Users\bryan.lee\AppData\Local\Temp\ccMG4MTE.s 			page 16


 829:Generated_Source\PSoC6/CapSense_Control.c **** *
 830:Generated_Source\PSoC6/CapSense_Control.c **** *  For proper operation of the CapSense Component during the Active to
 831:Generated_Source\PSoC6/CapSense_Control.c **** *  DeepSleep mode transition, a callback to this API should be registered
 832:Generated_Source\PSoC6/CapSense_Control.c **** *  using the Cy_SysPm_RegisterCallback() function with CY_SYSPM_DEEPSLEEP
 833:Generated_Source\PSoC6/CapSense_Control.c **** *  type. Once the callback is registered, this function is called by the
 834:Generated_Source\PSoC6/CapSense_Control.c **** *  Cy_SysPm_DeepSleep() function to prepare the Component to the device
 835:Generated_Source\PSoC6/CapSense_Control.c **** *  power mode transition.
 836:Generated_Source\PSoC6/CapSense_Control.c **** *
 837:Generated_Source\PSoC6/CapSense_Control.c **** *  When this function is called with CY_SYSPM_CHECK_READY as input, this
 838:Generated_Source\PSoC6/CapSense_Control.c **** *  function returns CY_SYSPM_SUCCESS if no scanning is in progress, otherwise
 839:Generated_Source\PSoC6/CapSense_Control.c **** *  CY_SYSPM_FAIL is returned. If CY_SYSPM_FAIL status is returned, a device
 840:Generated_Source\PSoC6/CapSense_Control.c **** *  cannot change the power mode without completing the current scan as
 841:Generated_Source\PSoC6/CapSense_Control.c **** *  a transition to DeepSleep during the scan can disrupt the Component
 842:Generated_Source\PSoC6/CapSense_Control.c **** *  operation.
 843:Generated_Source\PSoC6/CapSense_Control.c **** *
 844:Generated_Source\PSoC6/CapSense_Control.c **** * \param callbackParams
 845:Generated_Source\PSoC6/CapSense_Control.c **** *  Refer to the description of the cy_stc_syspm_callback_params_t type in the
 846:Generated_Source\PSoC6/CapSense_Control.c **** *  Peripheral Driver Library documentation.
 847:Generated_Source\PSoC6/CapSense_Control.c **** *
 848:Generated_Source\PSoC6/CapSense_Control.c **** * \return
 849:Generated_Source\PSoC6/CapSense_Control.c **** *  Returns the status of the operation requested by the mode parameter:
 850:Generated_Source\PSoC6/CapSense_Control.c **** *  - CY_SYSPM_SUCCESS  - DeepSleep power mode can be entered.
 851:Generated_Source\PSoC6/CapSense_Control.c **** *  - CY_SYSPM_FAIL     - DeepSleep power mode cannot be entered.
 852:Generated_Source\PSoC6/CapSense_Control.c **** *
 853:Generated_Source\PSoC6/CapSense_Control.c **** *******************************************************************************/
 854:Generated_Source\PSoC6/CapSense_Control.c **** cy_en_syspm_status_t CapSense_DeepSleepCallback(cy_stc_syspm_callback_params_t *callbackParams)
 855:Generated_Source\PSoC6/CapSense_Control.c **** {
 856:Generated_Source\PSoC6/CapSense_Control.c ****     return(CapSense_SwitchPowerModeCallback(callbackParams));
 857:Generated_Source\PSoC6/CapSense_Control.c **** }
 858:Generated_Source\PSoC6/CapSense_Control.c **** 
 859:Generated_Source\PSoC6/CapSense_Control.c **** 
 860:Generated_Source\PSoC6/CapSense_Control.c **** /*******************************************************************************
 861:Generated_Source\PSoC6/CapSense_Control.c **** * Function Name: CapSense_EnterLowPowerCallback
 862:Generated_Source\PSoC6/CapSense_Control.c **** ****************************************************************************//**
 863:Generated_Source\PSoC6/CapSense_Control.c **** *
 864:Generated_Source\PSoC6/CapSense_Control.c **** * \brief
 865:Generated_Source\PSoC6/CapSense_Control.c **** *  Handles Active to Low Power Active (LPActive) power mode transition for
 866:Generated_Source\PSoC6/CapSense_Control.c **** *  the CapSense Component.
 867:Generated_Source\PSoC6/CapSense_Control.c **** *
 868:Generated_Source\PSoC6/CapSense_Control.c **** * \details
 869:Generated_Source\PSoC6/CapSense_Control.c **** *  This function handles the Active to LPActive power mode transition for
 870:Generated_Source\PSoC6/CapSense_Control.c **** *  the CapSense Component.
 871:Generated_Source\PSoC6/CapSense_Control.c **** *  Calling this function directly by application layer is not recommended.
 872:Generated_Source\PSoC6/CapSense_Control.c **** *  Instead, Cy_SysPm_EnterLpMode() should be used for the Active to LPActive
 873:Generated_Source\PSoC6/CapSense_Control.c **** *  power mode transition of the device.
 874:Generated_Source\PSoC6/CapSense_Control.c **** *
 875:Generated_Source\PSoC6/CapSense_Control.c **** *  For proper operation of the CapSense Component during the Active to
 876:Generated_Source\PSoC6/CapSense_Control.c **** *  LPActive mode transition, a callback to this function should be registered
 877:Generated_Source\PSoC6/CapSense_Control.c **** *  using the Cy_SysPm_RegisterCallback() function with CY_SYSPM_ENTER_LP_MODE
 878:Generated_Source\PSoC6/CapSense_Control.c **** *  type. Once the callback is registered, this function is called by the
 879:Generated_Source\PSoC6/CapSense_Control.c **** *  Cy_SysPm_EnterLpMode() function to prepare the Component to the device
 880:Generated_Source\PSoC6/CapSense_Control.c **** *  power mode transition.
 881:Generated_Source\PSoC6/CapSense_Control.c **** *
 882:Generated_Source\PSoC6/CapSense_Control.c **** *  When this function is called with CY_SYSPM_CHECK_READY as input, this
 883:Generated_Source\PSoC6/CapSense_Control.c **** *  function returns CY_SYSPM_SUCCESS if no scanning is in progress, otherwise
 884:Generated_Source\PSoC6/CapSense_Control.c **** *  CY_SYSPM_FAIL is returned. If CY_SYSPM_FAIL status is returned, a device
 885:Generated_Source\PSoC6/CapSense_Control.c **** *  cannot change the power mode without completing the current scan as
ARM GAS  C:\Users\bryan.lee\AppData\Local\Temp\ccMG4MTE.s 			page 17


 886:Generated_Source\PSoC6/CapSense_Control.c **** *  a transition to LPActive during the scan can disrupt the Component
 887:Generated_Source\PSoC6/CapSense_Control.c **** *  operation.
 888:Generated_Source\PSoC6/CapSense_Control.c **** *
 889:Generated_Source\PSoC6/CapSense_Control.c **** * \param callbackParams
 890:Generated_Source\PSoC6/CapSense_Control.c **** *  Refer to the description of the cy_stc_syspm_callback_params_t type in the
 891:Generated_Source\PSoC6/CapSense_Control.c **** *  Peripheral Driver Library documentation.
 892:Generated_Source\PSoC6/CapSense_Control.c **** *
 893:Generated_Source\PSoC6/CapSense_Control.c **** * \return
 894:Generated_Source\PSoC6/CapSense_Control.c **** *  Returns the status of the operation requested by the mode parameter:
 895:Generated_Source\PSoC6/CapSense_Control.c **** *  - CY_SYSPM_SUCCESS  - LPActive power mode can be entered.
 896:Generated_Source\PSoC6/CapSense_Control.c **** *  - CY_SYSPM_FAIL     - LPActive power mode cannot be entered.
 897:Generated_Source\PSoC6/CapSense_Control.c **** *
 898:Generated_Source\PSoC6/CapSense_Control.c **** *******************************************************************************/
 899:Generated_Source\PSoC6/CapSense_Control.c **** cy_en_syspm_status_t CapSense_EnterLowPowerCallback(cy_stc_syspm_callback_params_t *callbackParams)
 900:Generated_Source\PSoC6/CapSense_Control.c **** {
 901:Generated_Source\PSoC6/CapSense_Control.c ****     return(CapSense_SwitchPowerModeCallback(callbackParams));
 902:Generated_Source\PSoC6/CapSense_Control.c **** }
 903:Generated_Source\PSoC6/CapSense_Control.c **** 
 904:Generated_Source\PSoC6/CapSense_Control.c **** 
 905:Generated_Source\PSoC6/CapSense_Control.c **** /*******************************************************************************
 906:Generated_Source\PSoC6/CapSense_Control.c **** * Function Name: CapSense_ExitLowPowerCallback
 907:Generated_Source\PSoC6/CapSense_Control.c **** ****************************************************************************//**
 908:Generated_Source\PSoC6/CapSense_Control.c **** *
 909:Generated_Source\PSoC6/CapSense_Control.c **** * \brief
 910:Generated_Source\PSoC6/CapSense_Control.c **** *  Handles Low Power Active (LPActive) to Active power mode transition for
 911:Generated_Source\PSoC6/CapSense_Control.c **** *  the CapSense Component.
 912:Generated_Source\PSoC6/CapSense_Control.c **** *
 913:Generated_Source\PSoC6/CapSense_Control.c **** * \details
 914:Generated_Source\PSoC6/CapSense_Control.c **** *  This function handles LPActive to Active power mode transition for
 915:Generated_Source\PSoC6/CapSense_Control.c **** *  the CapSense Component.
 916:Generated_Source\PSoC6/CapSense_Control.c **** *  Calling this function directly by application layer is not recommended.
 917:Generated_Source\PSoC6/CapSense_Control.c **** *  Instead, Cy_SysPm_ExitLpMode() should be used for the LPActive to Active
 918:Generated_Source\PSoC6/CapSense_Control.c **** *  power mode transition of the device.
 919:Generated_Source\PSoC6/CapSense_Control.c **** *
 920:Generated_Source\PSoC6/CapSense_Control.c **** *  For proper operation of the CapSense Component during the LPActive to
 921:Generated_Source\PSoC6/CapSense_Control.c **** *  Active mode transition, a callback to this function should be registered
 922:Generated_Source\PSoC6/CapSense_Control.c **** *  using Cy_SysPm_RegisterCallback() function with CY_SYSPM_EXIT_LP_MODE
 923:Generated_Source\PSoC6/CapSense_Control.c **** *  type. Once the callback is registered, this function is called by the
 924:Generated_Source\PSoC6/CapSense_Control.c **** *  Cy_SysPm_ExitLpMode() function to prepare the Component to the device
 925:Generated_Source\PSoC6/CapSense_Control.c **** *  power mode transition.
 926:Generated_Source\PSoC6/CapSense_Control.c **** *
 927:Generated_Source\PSoC6/CapSense_Control.c **** *  When this function is called with CY_SYSPM_CHECK_READY as input, this
 928:Generated_Source\PSoC6/CapSense_Control.c **** *  function returns CY_SYSPM_SUCCESS if no scanning is in progress, otherwise
 929:Generated_Source\PSoC6/CapSense_Control.c **** *  CY_SYSPM_FAIL is returned. If CY_SYSPM_FAIL status is returned, a device
 930:Generated_Source\PSoC6/CapSense_Control.c **** *  cannot change the power mode without completing the current scan as
 931:Generated_Source\PSoC6/CapSense_Control.c **** *  a transition to Active during the scan can disrupt the Component
 932:Generated_Source\PSoC6/CapSense_Control.c **** *  operation.
 933:Generated_Source\PSoC6/CapSense_Control.c **** 
 934:Generated_Source\PSoC6/CapSense_Control.c **** * \param callbackParams
 935:Generated_Source\PSoC6/CapSense_Control.c **** *  Refer to the description of the cy_stc_syspm_callback_params_t type in the
 936:Generated_Source\PSoC6/CapSense_Control.c **** *  Peripheral Driver Library documentation.
 937:Generated_Source\PSoC6/CapSense_Control.c **** *
 938:Generated_Source\PSoC6/CapSense_Control.c **** * \return
 939:Generated_Source\PSoC6/CapSense_Control.c **** *  Returns the status of the operation requested by the mode parameter:
 940:Generated_Source\PSoC6/CapSense_Control.c **** *  - CY_SYSPM_SUCCESS  - Active power mode can be entered.
 941:Generated_Source\PSoC6/CapSense_Control.c **** *  - CY_SYSPM_FAIL     - Active power mode cannot be entered.
 942:Generated_Source\PSoC6/CapSense_Control.c **** *
ARM GAS  C:\Users\bryan.lee\AppData\Local\Temp\ccMG4MTE.s 			page 18


 943:Generated_Source\PSoC6/CapSense_Control.c **** *******************************************************************************/
 944:Generated_Source\PSoC6/CapSense_Control.c **** cy_en_syspm_status_t CapSense_ExitLowPowerCallback(cy_stc_syspm_callback_params_t *callbackParams)
 945:Generated_Source\PSoC6/CapSense_Control.c **** {
 946:Generated_Source\PSoC6/CapSense_Control.c ****     return(CapSense_SwitchPowerModeCallback(callbackParams));
 947:Generated_Source\PSoC6/CapSense_Control.c **** }
 948:Generated_Source\PSoC6/CapSense_Control.c **** 
 949:Generated_Source\PSoC6/CapSense_Control.c **** 
 950:Generated_Source\PSoC6/CapSense_Control.c **** /*******************************************************************************
 951:Generated_Source\PSoC6/CapSense_Control.c **** * Function Name: CapSense_SwitchPowerModeCallback
 952:Generated_Source\PSoC6/CapSense_Control.c **** ****************************************************************************//**
 953:Generated_Source\PSoC6/CapSense_Control.c **** *
 954:Generated_Source\PSoC6/CapSense_Control.c **** * \brief
 955:Generated_Source\PSoC6/CapSense_Control.c **** *  Handles the switching power mode for the CapSense Component.
 956:Generated_Source\PSoC6/CapSense_Control.c **** *
 957:Generated_Source\PSoC6/CapSense_Control.c **** * \details
 958:Generated_Source\PSoC6/CapSense_Control.c **** *  This function handles swithing of system power mode.
 959:Generated_Source\PSoC6/CapSense_Control.c **** *  When this function is called with the mode parameter set to CY_SYSPM_CHECK_READY,
 960:Generated_Source\PSoC6/CapSense_Control.c **** *  the function returns CY_SYSPM_SUCCESS if no scanning is in progress, otherwise
 961:Generated_Source\PSoC6/CapSense_Control.c **** *  CY_SYSPM_FAIL is returned that means that the device cannot switch the power mode
 962:Generated_Source\PSoC6/CapSense_Control.c **** *  without finishing the current scan that is in progress (switching power mode
 963:Generated_Source\PSoC6/CapSense_Control.c **** *  during the scan can disrupt a sensor scan result and produce an unexpected
 964:Generated_Source\PSoC6/CapSense_Control.c **** *  behavior).
 965:Generated_Source\PSoC6/CapSense_Control.c **** *
 966:Generated_Source\PSoC6/CapSense_Control.c **** * \param callbackParams
 967:Generated_Source\PSoC6/CapSense_Control.c **** *  Refer to the description of the cy_stc_syspm_callback_params_t type.
 968:Generated_Source\PSoC6/CapSense_Control.c **** *
 969:Generated_Source\PSoC6/CapSense_Control.c **** * \return
 970:Generated_Source\PSoC6/CapSense_Control.c **** *  Returns the status of the operation requeted by mode parameter:
 971:Generated_Source\PSoC6/CapSense_Control.c **** *  - CY_SYSPM_SUCCESS  - Switching power mode can be done
 972:Generated_Source\PSoC6/CapSense_Control.c **** *  - CY_SYSPM_FAIL     - Switching power mode cannot be done.
 973:Generated_Source\PSoC6/CapSense_Control.c **** *
 974:Generated_Source\PSoC6/CapSense_Control.c **** *******************************************************************************/
 975:Generated_Source\PSoC6/CapSense_Control.c **** static cy_en_syspm_status_t CapSense_SwitchPowerModeCallback(cy_stc_syspm_callback_params_t *callba
 976:Generated_Source\PSoC6/CapSense_Control.c **** {
  28              		.loc 1 976 0
  29              		.cfi_startproc
  30              		@ args = 0, pretend = 0, frame = 0
  31              		@ frame_needed = 0, uses_anonymous_args = 0
  32              	.LVL0:
  33 0000 08B5     		push	{r3, lr}
  34              		.cfi_def_cfa_offset 8
  35              		.cfi_offset 3, -8
  36              		.cfi_offset 14, -4
  37              	.LVL1:
 977:Generated_Source\PSoC6/CapSense_Control.c ****     cy_en_syspm_status_t retVal = CY_SYSPM_SUCCESS;
 978:Generated_Source\PSoC6/CapSense_Control.c **** 
 979:Generated_Source\PSoC6/CapSense_Control.c ****     #if (0u != CapSense_ADC_EN)
 980:Generated_Source\PSoC6/CapSense_Control.c ****         uint8 temp;
 981:Generated_Source\PSoC6/CapSense_Control.c ****     #endif /* (0u != CapSense_ADC_EN) */
 982:Generated_Source\PSoC6/CapSense_Control.c **** 
 983:Generated_Source\PSoC6/CapSense_Control.c ****     switch(callbackParams->mode)
  38              		.loc 1 983 0
  39 0002 0378     		ldrb	r3, [r0]	@ zero_extendqisi2
  40 0004 012B     		cmp	r3, #1
  41 0006 03D1     		bne	.L6
 984:Generated_Source\PSoC6/CapSense_Control.c ****     {
 985:Generated_Source\PSoC6/CapSense_Control.c ****     case (CY_SYSPM_CHECK_READY):
ARM GAS  C:\Users\bryan.lee\AppData\Local\Temp\ccMG4MTE.s 			page 19


 986:Generated_Source\PSoC6/CapSense_Control.c ****         if (CapSense_NOT_BUSY != CapSense_IsBusy())
  42              		.loc 1 986 0
  43 0008 FFF7FEFF 		bl	CapSense_IsBusy
  44              	.LVL2:
  45 000c 10B9     		cbnz	r0, .L5
  46 000e 08BD     		pop	{r3, pc}
  47              	.LVL3:
  48              	.L6:
 977:Generated_Source\PSoC6/CapSense_Control.c ****     cy_en_syspm_status_t retVal = CY_SYSPM_SUCCESS;
  49              		.loc 1 977 0
  50 0010 0020     		movs	r0, #0
  51              	.LVL4:
  52 0012 08BD     		pop	{r3, pc}
  53              	.L5:
 987:Generated_Source\PSoC6/CapSense_Control.c ****         {
 988:Generated_Source\PSoC6/CapSense_Control.c ****             /* Scanning in progress */
 989:Generated_Source\PSoC6/CapSense_Control.c ****             retVal = CY_SYSPM_FAIL;
  54              		.loc 1 989 0
  55 0014 0048     		ldr	r0, .L8
  56              	.LVL5:
 990:Generated_Source\PSoC6/CapSense_Control.c ****         }
 991:Generated_Source\PSoC6/CapSense_Control.c ****         #if (0u != CapSense_ADC_EN)
 992:Generated_Source\PSoC6/CapSense_Control.c ****             temp = CapSense_AdcIsBusy();
 993:Generated_Source\PSoC6/CapSense_Control.c ****             if ((CapSense_AdcSTATUS_IDLE != temp) &&
 994:Generated_Source\PSoC6/CapSense_Control.c ****                 (CapSense_AdcSTATUS_OVERFLOW != temp))
 995:Generated_Source\PSoC6/CapSense_Control.c ****             {
 996:Generated_Source\PSoC6/CapSense_Control.c ****                 /* Scanning in progress */
 997:Generated_Source\PSoC6/CapSense_Control.c ****                 retVal = CY_SYSPM_FAIL;
 998:Generated_Source\PSoC6/CapSense_Control.c ****             }
 999:Generated_Source\PSoC6/CapSense_Control.c ****         #endif /* (0u != CapSense_ADC_EN) */
1000:Generated_Source\PSoC6/CapSense_Control.c ****         break;
1001:Generated_Source\PSoC6/CapSense_Control.c **** 
1002:Generated_Source\PSoC6/CapSense_Control.c ****     default:
1003:Generated_Source\PSoC6/CapSense_Control.c ****         break;
1004:Generated_Source\PSoC6/CapSense_Control.c ****     }
1005:Generated_Source\PSoC6/CapSense_Control.c **** 
1006:Generated_Source\PSoC6/CapSense_Control.c ****     return(retVal);
1007:Generated_Source\PSoC6/CapSense_Control.c **** }
  57              		.loc 1 1007 0
  58 0016 08BD     		pop	{r3, pc}
  59              	.L9:
  60              		.align	2
  61              	.L8:
  62 0018 FF004200 		.word	4325631
  63              		.cfi_endproc
  64              	.LFE269:
  65              		.size	CapSense_SwitchPowerModeCallback, .-CapSense_SwitchPowerModeCallback
  66              		.section	.text.CapSense_Initialize,"ax",%progbits
  67              		.align	2
  68              		.global	CapSense_Initialize
  69              		.thumb
  70              		.thumb_func
  71              		.type	CapSense_Initialize, %function
  72              	CapSense_Initialize:
  73              	.LFB257:
 202:Generated_Source\PSoC6/CapSense_Control.c ****     cy_status result;
  74              		.loc 1 202 0
ARM GAS  C:\Users\bryan.lee\AppData\Local\Temp\ccMG4MTE.s 			page 20


  75              		.cfi_startproc
  76              		@ args = 0, pretend = 0, frame = 0
  77              		@ frame_needed = 0, uses_anonymous_args = 0
  78 0000 08B5     		push	{r3, lr}
  79              		.cfi_def_cfa_offset 8
  80              		.cfi_offset 3, -8
  81              		.cfi_offset 14, -4
 206:Generated_Source\PSoC6/CapSense_Control.c ****     {
  82              		.loc 1 206 0
  83 0002 074B     		ldr	r3, .L13
  84 0004 1B78     		ldrb	r3, [r3]	@ zero_extendqisi2
  85 0006 33B9     		cbnz	r3, .L11
 208:Generated_Source\PSoC6/CapSense_Control.c ****         CapSense_TuInitialize();
  86              		.loc 1 208 0
  87 0008 FFF7FEFF 		bl	CapSense_DsInitialize
  88              	.LVL6:
 209:Generated_Source\PSoC6/CapSense_Control.c ****         CapSense_InitVar = CapSense_INIT_DONE;
  89              		.loc 1 209 0
  90 000c FFF7FEFF 		bl	CapSense_TuInitialize
  91              	.LVL7:
 210:Generated_Source\PSoC6/CapSense_Control.c ****     }
  92              		.loc 1 210 0
  93 0010 0122     		movs	r2, #1
  94 0012 034B     		ldr	r3, .L13
  95 0014 1A70     		strb	r2, [r3]
  96              	.L11:
 213:Generated_Source\PSoC6/CapSense_Control.c **** 
  97              		.loc 1 213 0
  98 0016 FFF7FEFF 		bl	CapSense_DpInitialize
  99              	.LVL8:
 215:Generated_Source\PSoC6/CapSense_Control.c **** 
 100              		.loc 1 215 0
 101 001a FFF7FEFF 		bl	CapSense_SsInitialize
 102              	.LVL9:
 218:Generated_Source\PSoC6/CapSense_Control.c **** 
 103              		.loc 1 218 0
 104 001e 08BD     		pop	{r3, pc}
 105              	.L14:
 106              		.align	2
 107              	.L13:
 108 0020 00000000 		.word	.LANCHOR0
 109              		.cfi_endproc
 110              	.LFE257:
 111              		.size	CapSense_Initialize, .-CapSense_Initialize
 112              		.section	.text.CapSense_Start,"ax",%progbits
 113              		.align	2
 114              		.global	CapSense_Start
 115              		.thumb
 116              		.thumb_func
 117              		.type	CapSense_Start, %function
 118              	CapSense_Start:
 119              	.LFB256:
 126:Generated_Source\PSoC6/CapSense_Control.c ****     cy_status result;
 120              		.loc 1 126 0
 121              		.cfi_startproc
 122              		@ args = 0, pretend = 0, frame = 0
 123              		@ frame_needed = 0, uses_anonymous_args = 0
ARM GAS  C:\Users\bryan.lee\AppData\Local\Temp\ccMG4MTE.s 			page 21


 124 0000 10B5     		push	{r4, lr}
 125              		.cfi_def_cfa_offset 8
 126              		.cfi_offset 4, -8
 127              		.cfi_offset 14, -4
 130:Generated_Source\PSoC6/CapSense_Control.c **** 
 128              		.loc 1 130 0
 129 0002 FFF7FEFF 		bl	CapSense_Initialize
 130              	.LVL10:
 133:Generated_Source\PSoC6/CapSense_Control.c ****         {
 131              		.loc 1 133 0
 132 0006 0446     		mov	r4, r0
 133 0008 10B9     		cbnz	r0, .L16
 135:Generated_Source\PSoC6/CapSense_Control.c ****         }
 134              		.loc 1 135 0
 135 000a FFF7FEFF 		bl	CapSense_SsAutoTune
 136              	.LVL11:
 137 000e 0446     		mov	r4, r0
 138              	.LVL12:
 139              	.L16:
 141:Generated_Source\PSoC6/CapSense_Control.c ****         {
 140              		.loc 1 141 0
 141 0010 14B9     		cbnz	r4, .L17
 143:Generated_Source\PSoC6/CapSense_Control.c ****         }
 142              		.loc 1 143 0
 143 0012 FFF7FEFF 		bl	CapSense_CalibrateAllWidgets
 144              	.LVL13:
 145 0016 0446     		mov	r4, r0
 146              	.LVL14:
 147              	.L17:
 147:Generated_Source\PSoC6/CapSense_Control.c ****     {
 148              		.loc 1 147 0
 149 0018 14B9     		cbnz	r4, .L19
 149:Generated_Source\PSoC6/CapSense_Control.c ****     }
 150              		.loc 1 149 0
 151 001a FFF7FEFF 		bl	CapSense_ScanAllWidgets
 152              	.LVL15:
 153 001e 0446     		mov	r4, r0
 154              	.LVL16:
 155              	.L19:
 152:Generated_Source\PSoC6/CapSense_Control.c **** 
 156              		.loc 1 152 0 discriminator 1
 157 0020 FFF7FEFF 		bl	CapSense_IsBusy
 158              	.LVL17:
 159 0024 0028     		cmp	r0, #0
 160 0026 FBD1     		bne	.L19
 154:Generated_Source\PSoC6/CapSense_Control.c ****     CapSense_InitializeAllBaselines();
 161              		.loc 1 154 0
 162 0028 FFF7FEFF 		bl	CapSense_FtInitialize
 163              	.LVL18:
 155:Generated_Source\PSoC6/CapSense_Control.c **** 
 164              		.loc 1 155 0
 165 002c FFF7FEFF 		bl	CapSense_InitializeAllBaselines
 166              	.LVL19:
 176:Generated_Source\PSoC6/CapSense_Control.c **** 
 167              		.loc 1 176 0
 168 0030 2046     		mov	r0, r4
 169 0032 10BD     		pop	{r4, pc}
ARM GAS  C:\Users\bryan.lee\AppData\Local\Temp\ccMG4MTE.s 			page 22


 170              		.cfi_endproc
 171              	.LFE256:
 172              		.size	CapSense_Start, .-CapSense_Start
 173              		.section	.text.CapSense_Stop,"ax",%progbits
 174              		.align	2
 175              		.global	CapSense_Stop
 176              		.thumb
 177              		.thumb_func
 178              		.type	CapSense_Stop, %function
 179              	CapSense_Stop:
 180              	.LFB258:
 244:Generated_Source\PSoC6/CapSense_Control.c ****     cy_status result = CY_RET_SUCCESS;
 181              		.loc 1 244 0
 182              		.cfi_startproc
 183              		@ args = 0, pretend = 0, frame = 0
 184              		@ frame_needed = 0, uses_anonymous_args = 0
 185              		@ link register save eliminated.
 186              	.LVL20:
 255:Generated_Source\PSoC6/CapSense_Control.c **** 
 187              		.loc 1 255 0
 188 0000 0020     		movs	r0, #0
 189 0002 014B     		ldr	r3, .L22
 190 0004 1870     		strb	r0, [r3]
 258:Generated_Source\PSoC6/CapSense_Control.c **** 
 191              		.loc 1 258 0
 192 0006 7047     		bx	lr
 193              	.L23:
 194              		.align	2
 195              	.L22:
 196 0008 00000000 		.word	.LANCHOR0
 197              		.cfi_endproc
 198              	.LFE258:
 199              		.size	CapSense_Stop, .-CapSense_Stop
 200              		.section	.text.CapSense_Resume,"ax",%progbits
 201              		.align	2
 202              		.global	CapSense_Resume
 203              		.thumb
 204              		.thumb_func
 205              		.type	CapSense_Resume, %function
 206              	CapSense_Resume:
 207              	.LFB259:
 281:Generated_Source\PSoC6/CapSense_Control.c ****     cy_status result;
 208              		.loc 1 281 0
 209              		.cfi_startproc
 210              		@ args = 0, pretend = 0, frame = 0
 211              		@ frame_needed = 0, uses_anonymous_args = 0
 212 0000 08B5     		push	{r3, lr}
 213              		.cfi_def_cfa_offset 8
 214              		.cfi_offset 3, -8
 215              		.cfi_offset 14, -4
 285:Generated_Source\PSoC6/CapSense_Control.c ****     {
 216              		.loc 1 285 0
 217 0002 064B     		ldr	r3, .L27
 218 0004 1B78     		ldrb	r3, [r3]	@ zero_extendqisi2
 219 0006 23B9     		cbnz	r3, .L25
 287:Generated_Source\PSoC6/CapSense_Control.c ****         CapSense_InitVar = CapSense_INIT_DONE;
 220              		.loc 1 287 0
ARM GAS  C:\Users\bryan.lee\AppData\Local\Temp\ccMG4MTE.s 			page 23


 221 0008 FFF7FEFF 		bl	CapSense_TuInitialize
 222              	.LVL21:
 288:Generated_Source\PSoC6/CapSense_Control.c ****     }
 223              		.loc 1 288 0
 224 000c 0122     		movs	r2, #1
 225 000e 034B     		ldr	r3, .L27
 226 0010 1A70     		strb	r2, [r3]
 227              	.L25:
 290:Generated_Source\PSoC6/CapSense_Control.c **** 
 228              		.loc 1 290 0
 229 0012 FFF7FEFF 		bl	CapSense_DpInitialize
 230              	.LVL22:
 292:Generated_Source\PSoC6/CapSense_Control.c **** 
 231              		.loc 1 292 0
 232 0016 FFF7FEFF 		bl	CapSense_SsInitialize
 233              	.LVL23:
 295:Generated_Source\PSoC6/CapSense_Control.c **** 
 234              		.loc 1 295 0
 235 001a 08BD     		pop	{r3, pc}
 236              	.L28:
 237              		.align	2
 238              	.L27:
 239 001c 00000000 		.word	.LANCHOR0
 240              		.cfi_endproc
 241              	.LFE259:
 242              		.size	CapSense_Resume, .-CapSense_Resume
 243              		.section	.text.CapSense_ProcessAllWidgets,"ax",%progbits
 244              		.align	2
 245              		.global	CapSense_ProcessAllWidgets
 246              		.thumb
 247              		.thumb_func
 248              		.type	CapSense_ProcessAllWidgets, %function
 249              	CapSense_ProcessAllWidgets:
 250              	.LFB260:
 338:Generated_Source\PSoC6/CapSense_Control.c ****     uint32 wdgtId;
 251              		.loc 1 338 0
 252              		.cfi_startproc
 253              		@ args = 0, pretend = 0, frame = 0
 254              		@ frame_needed = 0, uses_anonymous_args = 0
 255 0000 70B5     		push	{r4, r5, r6, lr}
 256              		.cfi_def_cfa_offset 16
 257              		.cfi_offset 4, -16
 258              		.cfi_offset 5, -12
 259              		.cfi_offset 6, -8
 260              		.cfi_offset 14, -4
 261              	.LVL24:
 343:Generated_Source\PSoC6/CapSense_Control.c **** 
 262              		.loc 1 343 0
 263 0002 194D     		ldr	r5, .L38
 340:Generated_Source\PSoC6/CapSense_Control.c ****     CapSense_FLASH_WD_STRUCT const *ptrFlashWdgt;
 264              		.loc 1 340 0
 265 0004 0026     		movs	r6, #0
 345:Generated_Source\PSoC6/CapSense_Control.c ****     {
 266              		.loc 1 345 0
 267 0006 3446     		mov	r4, r6
 268 0008 29E0     		b	.L30
 269              	.LVL25:
ARM GAS  C:\Users\bryan.lee\AppData\Local\Temp\ccMG4MTE.s 			page 24


 270              	.L35:
 347:Generated_Source\PSoC6/CapSense_Control.c ****         {
 271              		.loc 1 347 0
 272 000a 6309     		lsrs	r3, r4, #5
 273 000c 0433     		adds	r3, r3, #4
 274 000e 174A     		ldr	r2, .L38+4
 275 0010 52F82330 		ldr	r3, [r2, r3, lsl #2]
 276 0014 04F01F02 		and	r2, r4, #31
 277 0018 D340     		lsrs	r3, r3, r2
 278 001a 13F0010F 		tst	r3, #1
 279 001e 1CD0     		beq	.L31
 349:Generated_Source\PSoC6/CapSense_Control.c ****             {
 280              		.loc 1 349 0
 281 0020 EB7E     		ldrb	r3, [r5, #27]	@ zero_extendqisi2
 282 0022 012B     		cmp	r3, #1
 283 0024 02D0     		beq	.L33
 284 0026 022B     		cmp	r3, #2
 285 0028 09D0     		beq	.L34
 286 002a 11E0     		b	.L36
 287              	.L33:
 353:Generated_Source\PSoC6/CapSense_Control.c ****                     CapSense_DpProcessCsdWidgetStatus(wdgtId, ptrFlashWdgt);
 288              		.loc 1 353 0
 289 002c 2846     		mov	r0, r5
 290 002e FFF7FEFF 		bl	CapSense_DpProcessCsdWidgetRawCounts
 291              	.LVL26:
 292 0032 0646     		mov	r6, r0
 293              	.LVL27:
 354:Generated_Source\PSoC6/CapSense_Control.c ****                     break;
 294              		.loc 1 354 0
 295 0034 2946     		mov	r1, r5
 296 0036 2046     		mov	r0, r4
 297              	.LVL28:
 298 0038 FFF7FEFF 		bl	CapSense_DpProcessCsdWidgetStatus
 299              	.LVL29:
 355:Generated_Source\PSoC6/CapSense_Control.c ****             #endif /* #if (0u != CapSense_TOTAL_CSD_WIDGETS) */
 300              		.loc 1 355 0
 301 003c 0DE0     		b	.L31
 302              	.L34:
 360:Generated_Source\PSoC6/CapSense_Control.c ****                     CapSense_DpProcessCsxWidgetStatus(wdgtId, ptrFlashWdgt);
 303              		.loc 1 360 0
 304 003e 2846     		mov	r0, r5
 305 0040 FFF7FEFF 		bl	CapSense_DpProcessCsxWidgetRawCounts
 306              	.LVL30:
 307 0044 0646     		mov	r6, r0
 308              	.LVL31:
 361:Generated_Source\PSoC6/CapSense_Control.c ****                     break;
 309              		.loc 1 361 0
 310 0046 2946     		mov	r1, r5
 311 0048 2046     		mov	r0, r4
 312              	.LVL32:
 313 004a FFF7FEFF 		bl	CapSense_DpProcessCsxWidgetStatus
 314              	.LVL33:
 362:Generated_Source\PSoC6/CapSense_Control.c ****             #endif /* #if (0u != CapSense_TOTAL_CSX_WIDGETS) */
 315              		.loc 1 362 0
 316 004e 04E0     		b	.L31
 317              	.L36:
 366:Generated_Source\PSoC6/CapSense_Control.c ****                 break;
ARM GAS  C:\Users\bryan.lee\AppData\Local\Temp\ccMG4MTE.s 			page 25


 318              		.loc 1 366 0 discriminator 1
 319 0050 4FF4B771 		mov	r1, #366
 320 0054 0648     		ldr	r0, .L38+8
 321 0056 FFF7FEFF 		bl	Cy_SysLib_AssertFailed
 322              	.LVL34:
 323              	.L31:
 379:Generated_Source\PSoC6/CapSense_Control.c ****     }
 324              		.loc 1 379 0 discriminator 2
 325 005a 3035     		adds	r5, r5, #48
 326              	.LVL35:
 345:Generated_Source\PSoC6/CapSense_Control.c ****     {
 327              		.loc 1 345 0 discriminator 2
 328 005c 0134     		adds	r4, r4, #1
 329              	.LVL36:
 330              	.L30:
 345:Generated_Source\PSoC6/CapSense_Control.c ****     {
 331              		.loc 1 345 0 is_stmt 0 discriminator 1
 332 005e 022C     		cmp	r4, #2
 333 0060 D3D9     		bls	.L35
 382:Generated_Source\PSoC6/CapSense_Control.c **** 
 334              		.loc 1 382 0 is_stmt 1
 335 0062 3046     		mov	r0, r6
 336 0064 70BD     		pop	{r4, r5, r6, pc}
 337              	.LVL37:
 338              	.L39:
 339 0066 00BF     		.align	2
 340              	.L38:
 341 0068 00000000 		.word	CapSense_dsFlash
 342 006c 00000000 		.word	CapSense_dsRam
 343 0070 00000000 		.word	.LC0
 344              		.cfi_endproc
 345              	.LFE260:
 346              		.size	CapSense_ProcessAllWidgets, .-CapSense_ProcessAllWidgets
 347              		.section	.text.CapSense_ProcessWidget,"ax",%progbits
 348              		.align	2
 349              		.global	CapSense_ProcessWidget
 350              		.thumb
 351              		.thumb_func
 352              		.type	CapSense_ProcessWidget, %function
 353              	CapSense_ProcessWidget:
 354              	.LFB261:
 426:Generated_Source\PSoC6/CapSense_Control.c ****     cy_status result = CY_RET_SUCCESS;
 355              		.loc 1 426 0
 356              		.cfi_startproc
 357              		@ args = 0, pretend = 0, frame = 0
 358              		@ frame_needed = 0, uses_anonymous_args = 0
 359              	.LVL38:
 360 0000 70B5     		push	{r4, r5, r6, lr}
 361              		.cfi_def_cfa_offset 16
 362              		.cfi_offset 4, -16
 363              		.cfi_offset 5, -12
 364              		.cfi_offset 6, -8
 365              		.cfi_offset 14, -4
 366              	.LVL39:
 430:Generated_Source\PSoC6/CapSense_Control.c ****     {
 367              		.loc 1 430 0
 368 0002 0228     		cmp	r0, #2
ARM GAS  C:\Users\bryan.lee\AppData\Local\Temp\ccMG4MTE.s 			page 26


 369 0004 01D8     		bhi	.L47
 427:Generated_Source\PSoC6/CapSense_Control.c ****     CapSense_FLASH_WD_STRUCT const *ptrFlashWdgt;
 370              		.loc 1 427 0
 371 0006 0025     		movs	r5, #0
 372 0008 00E0     		b	.L41
 373              	.L47:
 432:Generated_Source\PSoC6/CapSense_Control.c ****     }
 374              		.loc 1 432 0
 375 000a 0125     		movs	r5, #1
 376              	.L41:
 377              	.LVL40:
 435:Generated_Source\PSoC6/CapSense_Control.c ****     {
 378              		.loc 1 435 0
 379 000c 5DB9     		cbnz	r5, .L42
 435:Generated_Source\PSoC6/CapSense_Control.c ****     {
 380              		.loc 1 435 0 is_stmt 0 discriminator 1
 381 000e 4309     		lsrs	r3, r0, #5
 382 0010 0433     		adds	r3, r3, #4
 383 0012 184A     		ldr	r2, .L51
 384 0014 52F82330 		ldr	r3, [r2, r3, lsl #2]
 385 0018 00F01F02 		and	r2, r0, #31
 386 001c D340     		lsrs	r3, r3, r2
 387 001e 13F0010F 		tst	r3, #1
 388 0022 00D1     		bne	.L42
 437:Generated_Source\PSoC6/CapSense_Control.c ****     }
 389              		.loc 1 437 0 is_stmt 1
 390 0024 1125     		movs	r5, #17
 391              	.LVL41:
 392              	.L42:
 440:Generated_Source\PSoC6/CapSense_Control.c ****     {
 393              		.loc 1 440 0
 394 0026 15BB     		cbnz	r5, .L43
 395 0028 0446     		mov	r4, r0
 442:Generated_Source\PSoC6/CapSense_Control.c **** 
 396              		.loc 1 442 0
 397 002a 4300     		lsls	r3, r0, #1
 398 002c 0344     		add	r3, r3, r0
 399 002e 1E01     		lsls	r6, r3, #4
 400 0030 114B     		ldr	r3, .L51+4
 401 0032 1E44     		add	r6, r6, r3
 402              	.LVL42:
 444:Generated_Source\PSoC6/CapSense_Control.c ****         {
 403              		.loc 1 444 0
 404 0034 F37E     		ldrb	r3, [r6, #27]	@ zero_extendqisi2
 405 0036 012B     		cmp	r3, #1
 406 0038 02D0     		beq	.L45
 407 003a 022B     		cmp	r3, #2
 408 003c 09D0     		beq	.L46
 409 003e 11E0     		b	.L49
 410              	.L45:
 448:Generated_Source\PSoC6/CapSense_Control.c ****                 CapSense_DpProcessCsdWidgetStatus(widgetId, ptrFlashWdgt);
 411              		.loc 1 448 0
 412 0040 3046     		mov	r0, r6
 413              	.LVL43:
 414 0042 FFF7FEFF 		bl	CapSense_DpProcessCsdWidgetRawCounts
 415              	.LVL44:
 416 0046 0546     		mov	r5, r0
ARM GAS  C:\Users\bryan.lee\AppData\Local\Temp\ccMG4MTE.s 			page 27


 417              	.LVL45:
 449:Generated_Source\PSoC6/CapSense_Control.c ****                 break;
 418              		.loc 1 449 0
 419 0048 3146     		mov	r1, r6
 420 004a 2046     		mov	r0, r4
 421              	.LVL46:
 422 004c FFF7FEFF 		bl	CapSense_DpProcessCsdWidgetStatus
 423              	.LVL47:
 450:Generated_Source\PSoC6/CapSense_Control.c ****         #endif /* #if (0u != CapSense_TOTAL_CSD_WIDGETS) */
 424              		.loc 1 450 0
 425 0050 0DE0     		b	.L43
 426              	.LVL48:
 427              	.L46:
 455:Generated_Source\PSoC6/CapSense_Control.c ****                 CapSense_DpProcessCsxWidgetStatus(widgetId, ptrFlashWdgt);
 428              		.loc 1 455 0
 429 0052 3046     		mov	r0, r6
 430              	.LVL49:
 431 0054 FFF7FEFF 		bl	CapSense_DpProcessCsxWidgetRawCounts
 432              	.LVL50:
 433 0058 0546     		mov	r5, r0
 434              	.LVL51:
 456:Generated_Source\PSoC6/CapSense_Control.c ****                 break;
 435              		.loc 1 456 0
 436 005a 3146     		mov	r1, r6
 437 005c 2046     		mov	r0, r4
 438              	.LVL52:
 439 005e FFF7FEFF 		bl	CapSense_DpProcessCsxWidgetStatus
 440              	.LVL53:
 457:Generated_Source\PSoC6/CapSense_Control.c ****         #endif /* #if (0u != CapSense_TOTAL_CSX_WIDGETS) */
 441              		.loc 1 457 0
 442 0062 04E0     		b	.L43
 443              	.LVL54:
 444              	.L49:
 461:Generated_Source\PSoC6/CapSense_Control.c ****             break;
 445              		.loc 1 461 0 discriminator 1
 446 0064 40F2CD11 		movw	r1, #461
 447 0068 0448     		ldr	r0, .L51+8
 448              	.LVL55:
 449 006a FFF7FEFF 		bl	Cy_SysLib_AssertFailed
 450              	.LVL56:
 451              	.L43:
 474:Generated_Source\PSoC6/CapSense_Control.c **** 
 452              		.loc 1 474 0
 453 006e 2846     		mov	r0, r5
 454 0070 70BD     		pop	{r4, r5, r6, pc}
 455              	.LVL57:
 456              	.L52:
 457 0072 00BF     		.align	2
 458              	.L51:
 459 0074 00000000 		.word	CapSense_dsRam
 460 0078 00000000 		.word	CapSense_dsFlash
 461 007c 00000000 		.word	.LC0
 462              		.cfi_endproc
 463              	.LFE261:
 464              		.size	CapSense_ProcessWidget, .-CapSense_ProcessWidget
 465              		.section	.text.CapSense_ProcessWidgetExt,"ax",%progbits
 466              		.align	2
ARM GAS  C:\Users\bryan.lee\AppData\Local\Temp\ccMG4MTE.s 			page 28


 467              		.global	CapSense_ProcessWidgetExt
 468              		.thumb
 469              		.thumb_func
 470              		.type	CapSense_ProcessWidgetExt, %function
 471              	CapSense_ProcessWidgetExt:
 472              	.LFB262:
 540:Generated_Source\PSoC6/CapSense_Control.c ****     uint32 snsCount;
 473              		.loc 1 540 0
 474              		.cfi_startproc
 475              		@ args = 0, pretend = 0, frame = 0
 476              		@ frame_needed = 0, uses_anonymous_args = 0
 477              	.LVL58:
 478 0000 2DE9F84F 		push	{r3, r4, r5, r6, r7, r8, r9, r10, fp, lr}
 479              		.cfi_def_cfa_offset 40
 480              		.cfi_offset 3, -40
 481              		.cfi_offset 4, -36
 482              		.cfi_offset 5, -32
 483              		.cfi_offset 6, -28
 484              		.cfi_offset 7, -24
 485              		.cfi_offset 8, -20
 486              		.cfi_offset 9, -16
 487              		.cfi_offset 10, -12
 488              		.cfi_offset 11, -8
 489              		.cfi_offset 14, -4
 490              	.LVL59:
 551:Generated_Source\PSoC6/CapSense_Control.c ****     {
 491              		.loc 1 551 0
 492 0004 0228     		cmp	r0, #2
 493 0006 59D8     		bhi	.L63
 494 0008 0F46     		mov	r7, r1
 495 000a 8146     		mov	r9, r0
 553:Generated_Source\PSoC6/CapSense_Control.c ****         snsCount = CapSense_GET_SNS_CNT_BY_PTR(ptrFlashWdgt);
 496              		.loc 1 553 0
 497 000c 4300     		lsls	r3, r0, #1
 498 000e 0344     		add	r3, r3, r0
 499 0010 1A01     		lsls	r2, r3, #4
 500 0012 2D4E     		ldr	r6, .L68
 501 0014 1644     		add	r6, r6, r2
 502              	.LVL60:
 554:Generated_Source\PSoC6/CapSense_Control.c ****         ptrSnsTmp = ptrFlashWdgt->ptr2SnsRam;
 503              		.loc 1 554 0
 504 0016 338B     		ldrh	r3, [r6, #24]
 505              	.LVL61:
 555:Generated_Source\PSoC6/CapSense_Control.c ****         fltrHistV.ptr = ptrFlashWdgt->ptr2FltrHistory;
 506              		.loc 1 555 0
 507 0018 B468     		ldr	r4, [r6, #8]
 508              	.LVL62:
 556:Generated_Source\PSoC6/CapSense_Control.c **** 
 509              		.loc 1 556 0
 510 001a F568     		ldr	r5, [r6, #12]
 511              	.LVL63:
 558:Generated_Source\PSoC6/CapSense_Control.c ****         {
 512              		.loc 1 558 0
 513 001c F27E     		ldrb	r2, [r6, #27]	@ zero_extendqisi2
 514 001e 012A     		cmp	r2, #1
 515 0020 02D0     		beq	.L56
 516 0022 022A     		cmp	r2, #2
ARM GAS  C:\Users\bryan.lee\AppData\Local\Temp\ccMG4MTE.s 			page 29


 517 0024 34D0     		beq	.L64
 518 0026 41E0     		b	.L66
 519              	.L56:
 566:Generated_Source\PSoC6/CapSense_Control.c **** 
 520              		.loc 1 566 0
 521 0028 00EB4001 		add	r1, r0, r0, lsl #1
 522              	.LVL64:
 523 002c 0A01     		lsls	r2, r1, #4
 524 002e 2649     		ldr	r1, .L68
 525 0030 0A44     		add	r2, r2, r1
 526 0032 927E     		ldrb	r2, [r2, #26]	@ zero_extendqisi2
 527 0034 062A     		cmp	r2, #6
 528 0036 02D1     		bne	.L65
 529 0038 4FF0010B 		mov	fp, #1
 530 003c 01E0     		b	.L58
 531              	.L65:
 532 003e 4FF0000B 		mov	fp, #0
 533              	.L58:
 534              	.LVL65:
 542:Generated_Source\PSoC6/CapSense_Control.c ****     CapSense_FLASH_WD_STRUCT const *ptrFlashWdgt;
 535              		.loc 1 542 0 discriminator 4
 536 0042 4FF00108 		mov	r8, #1
 569:Generated_Source\PSoC6/CapSense_Control.c ****                 {
 537              		.loc 1 569 0 discriminator 4
 538 0046 0CE0     		b	.L59
 539              	.LVL66:
 540              	.L61:
 571:Generated_Source\PSoC6/CapSense_Control.c **** 
 541              		.loc 1 571 0
 542 0048 3B46     		mov	r3, r7
 543 004a 2A46     		mov	r2, r5
 544 004c 2146     		mov	r1, r4
 545 004e 3046     		mov	r0, r6
 546 0050 FFF7FEFF 		bl	CapSense_DpProcessCsdSensorRawCountsExt
 547              	.LVL67:
 548 0054 8046     		mov	r8, r0
 549              	.LVL68:
 581:Generated_Source\PSoC6/CapSense_Control.c ****                     CapSense_INC_FLTR_OBJ_VARIANT(isProxWdgt, fltrHistV);
 550              		.loc 1 581 0
 551 0056 0A34     		adds	r4, r4, #10
 552              	.LVL69:
 582:Generated_Source\PSoC6/CapSense_Control.c ****                 }
 553              		.loc 1 582 0
 554 0058 BBF1000F 		cmp	fp, #0
 555 005c 00D1     		bne	.L60
 582:Generated_Source\PSoC6/CapSense_Control.c ****                 }
 556              		.loc 1 582 0 is_stmt 0 discriminator 1
 557 005e 0A35     		adds	r5, r5, #10
 558              	.LVL70:
 559              	.L60:
 560 0060 5346     		mov	r3, r10
 561              	.LVL71:
 562              	.L59:
 569:Generated_Source\PSoC6/CapSense_Control.c ****                 {
 563              		.loc 1 569 0 is_stmt 1
 564 0062 03F1FF3A 		add	r10, r3, #-1
 565              	.LVL72:
ARM GAS  C:\Users\bryan.lee\AppData\Local\Temp\ccMG4MTE.s 			page 30


 566 0066 002B     		cmp	r3, #0
 567 0068 EED1     		bne	.L61
 585:Generated_Source\PSoC6/CapSense_Control.c ****                 {
 568              		.loc 1 585 0
 569 006a 17F0200F 		tst	r7, #32
 570 006e 27D0     		beq	.L54
 587:Generated_Source\PSoC6/CapSense_Control.c ****                 }
 571              		.loc 1 587 0
 572 0070 3146     		mov	r1, r6
 573 0072 4846     		mov	r0, r9
 574 0074 FFF7FEFF 		bl	CapSense_DpProcessCsdWidgetStatus
 575              	.LVL73:
 576 0078 22E0     		b	.L54
 577              	.LVL74:
 578              	.L62:
 607:Generated_Source\PSoC6/CapSense_Control.c **** 
 579              		.loc 1 607 0
 580 007a 3B46     		mov	r3, r7
 581              	.LVL75:
 582 007c 2A46     		mov	r2, r5
 583 007e 2146     		mov	r1, r4
 584 0080 3046     		mov	r0, r6
 585 0082 FFF7FEFF 		bl	CapSense_DpProcessCsxSensorRawCountsExt
 586              	.LVL76:
 587 0086 8046     		mov	r8, r0
 588              	.LVL77:
 617:Generated_Source\PSoC6/CapSense_Control.c ****                     CapSense_INC_REG_FLTR_OBJ(fltrHistV);
 589              		.loc 1 617 0
 590 0088 0A34     		adds	r4, r4, #10
 591              	.LVL78:
 618:Generated_Source\PSoC6/CapSense_Control.c ****                 }
 592              		.loc 1 618 0
 593 008a 0A35     		adds	r5, r5, #10
 594              	.LVL79:
 605:Generated_Source\PSoC6/CapSense_Control.c ****                 {
 595              		.loc 1 605 0
 596 008c 5346     		mov	r3, r10
 597 008e 01E0     		b	.L57
 598              	.LVL80:
 599              	.L64:
 558:Generated_Source\PSoC6/CapSense_Control.c ****         {
 600              		.loc 1 558 0
 601 0090 4FF00108 		mov	r8, #1
 602              	.LVL81:
 603              	.L57:
 605:Generated_Source\PSoC6/CapSense_Control.c ****                 {
 604              		.loc 1 605 0
 605 0094 03F1FF3A 		add	r10, r3, #-1
 606              	.LVL82:
 607 0098 002B     		cmp	r3, #0
 608 009a EED1     		bne	.L62
 621:Generated_Source\PSoC6/CapSense_Control.c ****                 {
 609              		.loc 1 621 0
 610 009c 17F0200F 		tst	r7, #32
 611 00a0 0ED0     		beq	.L54
 623:Generated_Source\PSoC6/CapSense_Control.c ****                 }
 612              		.loc 1 623 0
ARM GAS  C:\Users\bryan.lee\AppData\Local\Temp\ccMG4MTE.s 			page 31


 613 00a2 3146     		mov	r1, r6
 614 00a4 4846     		mov	r0, r9
 615 00a6 FFF7FEFF 		bl	CapSense_DpProcessCsxWidgetStatus
 616              	.LVL83:
 617 00aa 09E0     		b	.L54
 618              	.LVL84:
 619              	.L66:
 629:Generated_Source\PSoC6/CapSense_Control.c ****             break;
 620              		.loc 1 629 0 discriminator 1
 621 00ac 40F27521 		movw	r1, #629
 622              	.LVL85:
 623 00b0 0648     		ldr	r0, .L68+4
 624              	.LVL86:
 625 00b2 FFF7FEFF 		bl	Cy_SysLib_AssertFailed
 626              	.LVL87:
 542:Generated_Source\PSoC6/CapSense_Control.c ****     CapSense_FLASH_WD_STRUCT const *ptrFlashWdgt;
 627              		.loc 1 542 0 discriminator 1
 628 00b6 4FF00108 		mov	r8, #1
 630:Generated_Source\PSoC6/CapSense_Control.c ****         }
 629              		.loc 1 630 0 discriminator 1
 630 00ba 01E0     		b	.L54
 631              	.LVL88:
 632              	.L63:
 542:Generated_Source\PSoC6/CapSense_Control.c ****     CapSense_FLASH_WD_STRUCT const *ptrFlashWdgt;
 633              		.loc 1 542 0
 634 00bc 4FF00108 		mov	r8, #1
 635              	.LVL89:
 636              	.L54:
 643:Generated_Source\PSoC6/CapSense_Control.c **** 
 637              		.loc 1 643 0
 638 00c0 4046     		mov	r0, r8
 639 00c2 BDE8F88F 		pop	{r3, r4, r5, r6, r7, r8, r9, r10, fp, pc}
 640              	.LVL90:
 641              	.L69:
 642 00c6 00BF     		.align	2
 643              	.L68:
 644 00c8 00000000 		.word	CapSense_dsFlash
 645 00cc 00000000 		.word	.LC0
 646              		.cfi_endproc
 647              	.LFE262:
 648              		.size	CapSense_ProcessWidgetExt, .-CapSense_ProcessWidgetExt
 649              		.section	.text.CapSense_ProcessSensorExt,"ax",%progbits
 650              		.align	2
 651              		.global	CapSense_ProcessSensorExt
 652              		.thumb
 653              		.thumb_func
 654              		.type	CapSense_ProcessSensorExt, %function
 655              	CapSense_ProcessSensorExt:
 656              	.LFB263:
 709:Generated_Source\PSoC6/CapSense_Control.c ****     cy_status result = CY_RET_BAD_PARAM;
 657              		.loc 1 709 0
 658              		.cfi_startproc
 659              		@ args = 0, pretend = 0, frame = 0
 660              		@ frame_needed = 0, uses_anonymous_args = 0
 661              	.LVL91:
 715:Generated_Source\PSoC6/CapSense_Control.c ****     {
 662              		.loc 1 715 0
ARM GAS  C:\Users\bryan.lee\AppData\Local\Temp\ccMG4MTE.s 			page 32


 663 0000 0228     		cmp	r0, #2
 664 0002 34D8     		bhi	.L76
 709:Generated_Source\PSoC6/CapSense_Control.c ****     cy_status result = CY_RET_BAD_PARAM;
 665              		.loc 1 709 0 discriminator 1
 666 0004 F8B5     		push	{r3, r4, r5, r6, r7, lr}
 667              		.cfi_def_cfa_offset 24
 668              		.cfi_offset 3, -24
 669              		.cfi_offset 4, -20
 670              		.cfi_offset 5, -16
 671              		.cfi_offset 6, -12
 672              		.cfi_offset 7, -8
 673              		.cfi_offset 14, -4
 715:Generated_Source\PSoC6/CapSense_Control.c ****     {
 674              		.loc 1 715 0 discriminator 1
 675 0006 00EB4005 		add	r5, r0, r0, lsl #1
 676 000a 2C01     		lsls	r4, r5, #4
 677 000c 1A4B     		ldr	r3, .L80
 678 000e 1C44     		add	r4, r4, r3
 679 0010 238B     		ldrh	r3, [r4, #24]
 680 0012 8B42     		cmp	r3, r1
 681 0014 2DD9     		bls	.L77
 682 0016 1346     		mov	r3, r2
 683 0018 0446     		mov	r4, r0
 684              	.LVL92:
 719:Generated_Source\PSoC6/CapSense_Control.c ****         fltrHistV.ptr = ptrFlashWdgt->ptr2FltrHistory;
 685              		.loc 1 719 0
 686 001a 4500     		lsls	r5, r0, #1
 687 001c 0544     		add	r5, r5, r0
 688 001e 2A01     		lsls	r2, r5, #4
 689              	.LVL93:
 690 0020 1548     		ldr	r0, .L80
 691              	.LVL94:
 692 0022 1044     		add	r0, r0, r2
 693              	.LVL95:
 720:Generated_Source\PSoC6/CapSense_Control.c ****         ptrSnsTmp = ptrFlashWdgt->ptr2SnsRam;
 694              		.loc 1 720 0
 695 0024 C768     		ldr	r7, [r0, #12]
 696 0026 3A46     		mov	r2, r7
 697              	.LVL96:
 721:Generated_Source\PSoC6/CapSense_Control.c ****         ptrSnsTmp += sensorId;
 698              		.loc 1 721 0
 699 0028 8668     		ldr	r6, [r0, #8]
 700              	.LVL97:
 722:Generated_Source\PSoC6/CapSense_Control.c **** 
 701              		.loc 1 722 0
 702 002a 01EB8101 		add	r1, r1, r1, lsl #2
 703              	.LVL98:
 704 002e 4D00     		lsls	r5, r1, #1
 705 0030 7119     		adds	r1, r6, r5
 706              	.LVL99:
 724:Generated_Source\PSoC6/CapSense_Control.c ****         {
 707              		.loc 1 724 0
 708 0032 C67E     		ldrb	r6, [r0, #27]	@ zero_extendqisi2
 709 0034 012E     		cmp	r6, #1
 710 0036 02D0     		beq	.L73
 711 0038 022E     		cmp	r6, #2
 712 003a 0CD0     		beq	.L74
ARM GAS  C:\Users\bryan.lee\AppData\Local\Temp\ccMG4MTE.s 			page 33


 713 003c 10E0     		b	.L78
 714              	.L73:
 728:Generated_Source\PSoC6/CapSense_Control.c ****                 {
 715              		.loc 1 728 0
 716 003e 04EB4404 		add	r4, r4, r4, lsl #1
 717              	.LVL100:
 718 0042 2601     		lsls	r6, r4, #4
 719 0044 0C4C     		ldr	r4, .L80
 720 0046 2644     		add	r6, r6, r4
 721 0048 B47E     		ldrb	r4, [r6, #26]	@ zero_extendqisi2
 722 004a 062C     		cmp	r4, #6
 723 004c 00D0     		beq	.L75
 741:Generated_Source\PSoC6/CapSense_Control.c ****                     #endif
 724              		.loc 1 741 0
 725 004e 7A19     		adds	r2, r7, r5
 726              	.L75:
 745:Generated_Source\PSoC6/CapSense_Control.c ****                 break;
 727              		.loc 1 745 0
 728 0050 FFF7FEFF 		bl	CapSense_DpProcessCsdSensorRawCountsExt
 729              	.LVL101:
 746:Generated_Source\PSoC6/CapSense_Control.c ****         #endif /* #if (0u != CapSense_TOTAL_CSD_WIDGETS) */
 730              		.loc 1 746 0
 731 0054 F8BD     		pop	{r3, r4, r5, r6, r7, pc}
 732              	.LVL102:
 733              	.L74:
 754:Generated_Source\PSoC6/CapSense_Control.c ****                 #endif
 734              		.loc 1 754 0
 735 0056 3D44     		add	r5, r5, r7
 736 0058 2A46     		mov	r2, r5
 757:Generated_Source\PSoC6/CapSense_Control.c ****                 break;
 737              		.loc 1 757 0
 738 005a FFF7FEFF 		bl	CapSense_DpProcessCsxSensorRawCountsExt
 739              	.LVL103:
 758:Generated_Source\PSoC6/CapSense_Control.c ****         #endif /* #if (0u != CapSense_TOTAL_CSX_WIDGETS) */
 740              		.loc 1 758 0
 741 005e F8BD     		pop	{r3, r4, r5, r6, r7, pc}
 742              	.LVL104:
 743              	.L78:
 762:Generated_Source\PSoC6/CapSense_Control.c ****             break;
 744              		.loc 1 762 0 discriminator 1
 745 0060 40F2FA21 		movw	r1, #762
 746              	.LVL105:
 747 0064 0548     		ldr	r0, .L80+4
 748              	.LVL106:
 749 0066 FFF7FEFF 		bl	Cy_SysLib_AssertFailed
 750              	.LVL107:
 717:Generated_Source\PSoC6/CapSense_Control.c **** 
 751              		.loc 1 717 0 discriminator 1
 752 006a 0020     		movs	r0, #0
 763:Generated_Source\PSoC6/CapSense_Control.c ****         }
 753              		.loc 1 763 0 discriminator 1
 754 006c F8BD     		pop	{r3, r4, r5, r6, r7, pc}
 755              	.LVL108:
 756              	.L76:
 757              		.cfi_def_cfa_offset 0
 758              		.cfi_restore 3
 759              		.cfi_restore 4
ARM GAS  C:\Users\bryan.lee\AppData\Local\Temp\ccMG4MTE.s 			page 34


 760              		.cfi_restore 5
 761              		.cfi_restore 6
 762              		.cfi_restore 7
 763              		.cfi_restore 14
 710:Generated_Source\PSoC6/CapSense_Control.c ****     CapSense_FLASH_WD_STRUCT const *ptrFlashWdgt;
 764              		.loc 1 710 0
 765 006e 0120     		movs	r0, #1
 766              	.LVL109:
 776:Generated_Source\PSoC6/CapSense_Control.c **** 
 767              		.loc 1 776 0
 768 0070 7047     		bx	lr
 769              	.LVL110:
 770              	.L77:
 771              		.cfi_def_cfa_offset 24
 772              		.cfi_offset 3, -24
 773              		.cfi_offset 4, -20
 774              		.cfi_offset 5, -16
 775              		.cfi_offset 6, -12
 776              		.cfi_offset 7, -8
 777              		.cfi_offset 14, -4
 710:Generated_Source\PSoC6/CapSense_Control.c ****     CapSense_FLASH_WD_STRUCT const *ptrFlashWdgt;
 778              		.loc 1 710 0
 779 0072 0120     		movs	r0, #1
 780              	.LVL111:
 776:Generated_Source\PSoC6/CapSense_Control.c **** 
 781              		.loc 1 776 0
 782 0074 F8BD     		pop	{r3, r4, r5, r6, r7, pc}
 783              	.L81:
 784 0076 00BF     		.align	2
 785              	.L80:
 786 0078 00000000 		.word	CapSense_dsFlash
 787 007c 00000000 		.word	.LC0
 788              		.cfi_endproc
 789              	.LFE263:
 790              		.size	CapSense_ProcessSensorExt, .-CapSense_ProcessSensorExt
 791              		.section	.text.CapSense_Sleep,"ax",%progbits
 792              		.align	2
 793              		.global	CapSense_Sleep
 794              		.thumb
 795              		.thumb_func
 796              		.type	CapSense_Sleep, %function
 797              	CapSense_Sleep:
 798              	.LFB264:
 791:Generated_Source\PSoC6/CapSense_Control.c **** }
 799              		.loc 1 791 0
 800              		.cfi_startproc
 801              		@ args = 0, pretend = 0, frame = 0
 802              		@ frame_needed = 0, uses_anonymous_args = 0
 803              		@ link register save eliminated.
 804 0000 7047     		bx	lr
 805              		.cfi_endproc
 806              	.LFE264:
 807              		.size	CapSense_Sleep, .-CapSense_Sleep
 808 0002 00BF     		.section	.text.CapSense_Wakeup,"ax",%progbits
 809              		.align	2
 810              		.global	CapSense_Wakeup
 811              		.thumb
ARM GAS  C:\Users\bryan.lee\AppData\Local\Temp\ccMG4MTE.s 			page 35


 812              		.thumb_func
 813              		.type	CapSense_Wakeup, %function
 814              	CapSense_Wakeup:
 815              	.LFB265:
 808:Generated_Source\PSoC6/CapSense_Control.c ****     #if(CapSense_BLOCK_ANALOG_WAKEUP_DELAY_US > 0uL)
 816              		.loc 1 808 0
 817              		.cfi_startproc
 818              		@ args = 0, pretend = 0, frame = 0
 819              		@ frame_needed = 0, uses_anonymous_args = 0
 820              		@ link register save eliminated.
 821 0000 7047     		bx	lr
 822              		.cfi_endproc
 823              	.LFE265:
 824              		.size	CapSense_Wakeup, .-CapSense_Wakeup
 825 0002 00BF     		.section	.text.CapSense_DeepSleepCallback,"ax",%progbits
 826              		.align	2
 827              		.global	CapSense_DeepSleepCallback
 828              		.thumb
 829              		.thumb_func
 830              		.type	CapSense_DeepSleepCallback, %function
 831              	CapSense_DeepSleepCallback:
 832              	.LFB266:
 855:Generated_Source\PSoC6/CapSense_Control.c ****     return(CapSense_SwitchPowerModeCallback(callbackParams));
 833              		.loc 1 855 0
 834              		.cfi_startproc
 835              		@ args = 0, pretend = 0, frame = 0
 836              		@ frame_needed = 0, uses_anonymous_args = 0
 837              	.LVL112:
 855:Generated_Source\PSoC6/CapSense_Control.c ****     return(CapSense_SwitchPowerModeCallback(callbackParams));
 838              		.loc 1 855 0
 839 0000 08B5     		push	{r3, lr}
 840              		.cfi_def_cfa_offset 8
 841              		.cfi_offset 3, -8
 842              		.cfi_offset 14, -4
 856:Generated_Source\PSoC6/CapSense_Control.c **** }
 843              		.loc 1 856 0
 844 0002 FFF7FEFF 		bl	CapSense_SwitchPowerModeCallback
 845              	.LVL113:
 857:Generated_Source\PSoC6/CapSense_Control.c **** 
 846              		.loc 1 857 0
 847 0006 08BD     		pop	{r3, pc}
 848              		.cfi_endproc
 849              	.LFE266:
 850              		.size	CapSense_DeepSleepCallback, .-CapSense_DeepSleepCallback
 851              		.section	.text.CapSense_EnterLowPowerCallback,"ax",%progbits
 852              		.align	2
 853              		.global	CapSense_EnterLowPowerCallback
 854              		.thumb
 855              		.thumb_func
 856              		.type	CapSense_EnterLowPowerCallback, %function
 857              	CapSense_EnterLowPowerCallback:
 858              	.LFB267:
 900:Generated_Source\PSoC6/CapSense_Control.c ****     return(CapSense_SwitchPowerModeCallback(callbackParams));
 859              		.loc 1 900 0
 860              		.cfi_startproc
 861              		@ args = 0, pretend = 0, frame = 0
 862              		@ frame_needed = 0, uses_anonymous_args = 0
ARM GAS  C:\Users\bryan.lee\AppData\Local\Temp\ccMG4MTE.s 			page 36


 863              	.LVL114:
 864 0000 08B5     		push	{r3, lr}
 865              		.cfi_def_cfa_offset 8
 866              		.cfi_offset 3, -8
 867              		.cfi_offset 14, -4
 901:Generated_Source\PSoC6/CapSense_Control.c **** }
 868              		.loc 1 901 0
 869 0002 FFF7FEFF 		bl	CapSense_SwitchPowerModeCallback
 870              	.LVL115:
 902:Generated_Source\PSoC6/CapSense_Control.c **** 
 871              		.loc 1 902 0
 872 0006 08BD     		pop	{r3, pc}
 873              		.cfi_endproc
 874              	.LFE267:
 875              		.size	CapSense_EnterLowPowerCallback, .-CapSense_EnterLowPowerCallback
 876              		.section	.text.CapSense_ExitLowPowerCallback,"ax",%progbits
 877              		.align	2
 878              		.global	CapSense_ExitLowPowerCallback
 879              		.thumb
 880              		.thumb_func
 881              		.type	CapSense_ExitLowPowerCallback, %function
 882              	CapSense_ExitLowPowerCallback:
 883              	.LFB268:
 945:Generated_Source\PSoC6/CapSense_Control.c ****     return(CapSense_SwitchPowerModeCallback(callbackParams));
 884              		.loc 1 945 0
 885              		.cfi_startproc
 886              		@ args = 0, pretend = 0, frame = 0
 887              		@ frame_needed = 0, uses_anonymous_args = 0
 888              	.LVL116:
 889 0000 08B5     		push	{r3, lr}
 890              		.cfi_def_cfa_offset 8
 891              		.cfi_offset 3, -8
 892              		.cfi_offset 14, -4
 946:Generated_Source\PSoC6/CapSense_Control.c **** }
 893              		.loc 1 946 0
 894 0002 FFF7FEFF 		bl	CapSense_SwitchPowerModeCallback
 895              	.LVL117:
 947:Generated_Source\PSoC6/CapSense_Control.c **** 
 896              		.loc 1 947 0
 897 0006 08BD     		pop	{r3, pc}
 898              		.cfi_endproc
 899              	.LFE268:
 900              		.size	CapSense_ExitLowPowerCallback, .-CapSense_ExitLowPowerCallback
 901              		.section	.rodata.str1.4,"aMS",%progbits,1
 902              		.align	2
 903              	.LC0:
 904 0000 47656E65 		.ascii	"Generated_Source\\PSoC6\\CapSense_Control.c\000"
 904      72617465 
 904      645F536F 
 904      75726365 
 904      5C50536F 
 905              		.bss
 906              		.set	.LANCHOR0,. + 0
 907              		.type	CapSense_InitVar, %object
 908              		.size	CapSense_InitVar, 1
 909              	CapSense_InitVar:
 910 0000 00       		.space	1
ARM GAS  C:\Users\bryan.lee\AppData\Local\Temp\ccMG4MTE.s 			page 37


 911              		.text
 912              	.Letext0:
 913              		.file 2 "c:\\program files (x86)\\cypress\\psoc creator\\4.2\\psoc creator\\import\\gnu\\arm\\5.4.
 914              		.file 3 "c:\\program files (x86)\\cypress\\psoc creator\\4.2\\psoc creator\\import\\gnu\\arm\\5.4.
 915              		.file 4 "Generated_Source\\PSoC6\\pdl\\drivers/peripheral/syslib/cy_syslib.h"
 916              		.file 5 "Generated_Source\\PSoC6\\pdl\\drivers/peripheral/syspm/cy_syspm.h"
 917              		.file 6 "Generated_Source\\PSoC6\\CapSense_Configuration.h"
 918              		.file 7 "Generated_Source\\PSoC6\\CapSense_SmartSense_LL.h"
 919              		.file 8 "Generated_Source\\PSoC6\\CapSense_Structure.h"
 920              		.file 9 "Generated_Source\\PSoC6\\pdl\\cmsis/include/core_cm4.h"
 921              		.file 10 "Generated_Source\\PSoC6\\CapSense_Sensing.h"
 922              		.file 11 "Generated_Source\\PSoC6\\CapSense_Tuner.h"
 923              		.file 12 "Generated_Source\\PSoC6\\CapSense_Processing.h"
 924              		.file 13 "Generated_Source\\PSoC6\\CapSense_Filter.h"