ARM GAS  C:\Users\bryan.lee\AppData\Local\Temp\ccsOdVkx.s 			page 1


   1              		.syntax unified
   2              		.cpu cortex-m3
   3              		.fpu softvfp
   4              		.eabi_attribute 20, 1
   5              		.eabi_attribute 21, 1
   6              		.eabi_attribute 23, 3
   7              		.eabi_attribute 24, 1
   8              		.eabi_attribute 25, 1
   9              		.eabi_attribute 26, 1
  10              		.eabi_attribute 30, 6
  11              		.eabi_attribute 18, 4
  12              		.thumb
  13              		.file	"cyfitter_cfg.c"
  20 0000 29020000 		.text
  20      0200F000 
  20      00000201 
  20      FB0E0D00 
  20      01010101 
  21              	.Ltext0:
  22              		.cfi_sections	.debug_frame
  23              		.section	.text.CYMEMZERO8,"ax",%progbits
  24              		.align	2
  25              		.thumb
  26              		.thumb_func
  27              		.type	CYMEMZERO8, %function
  28              	CYMEMZERO8:
  29              	.LFB0:
  30              		.file 1 ".\\Generated_Source\\PSoC5\\cyfitter_cfg.c"
   1:.\Generated_Source\PSoC5/cyfitter_cfg.c **** /*******************************************************************************
   2:.\Generated_Source\PSoC5/cyfitter_cfg.c **** * FILENAME: cyfitter_cfg.c
   3:.\Generated_Source\PSoC5/cyfitter_cfg.c **** * PSoC Creator 2.2 Component Pack 6
   4:.\Generated_Source\PSoC5/cyfitter_cfg.c **** *
   5:.\Generated_Source\PSoC5/cyfitter_cfg.c **** * Description:
   6:.\Generated_Source\PSoC5/cyfitter_cfg.c **** * This file is automatically generated by PSoC Creator with device 
   7:.\Generated_Source\PSoC5/cyfitter_cfg.c **** * initialization code.  Except for the user defined sections in
   8:.\Generated_Source\PSoC5/cyfitter_cfg.c **** * CyClockStartupError(), this file should not be modified.
   9:.\Generated_Source\PSoC5/cyfitter_cfg.c **** *
  10:.\Generated_Source\PSoC5/cyfitter_cfg.c **** ********************************************************************************
  11:.\Generated_Source\PSoC5/cyfitter_cfg.c **** * Copyright 2013, Cypress Semiconductor Corporation.  All rights reserved.
  12:.\Generated_Source\PSoC5/cyfitter_cfg.c **** * You may use this file only in accordance with the license, terms, conditions, 
  13:.\Generated_Source\PSoC5/cyfitter_cfg.c **** * disclaimers, and limitations in the end user license agreement accompanying 
  14:.\Generated_Source\PSoC5/cyfitter_cfg.c **** * the software package with which this file was provided.
  15:.\Generated_Source\PSoC5/cyfitter_cfg.c **** ********************************************************************************/
  16:.\Generated_Source\PSoC5/cyfitter_cfg.c **** 
  17:.\Generated_Source\PSoC5/cyfitter_cfg.c **** #include <string.h>
  18:.\Generated_Source\PSoC5/cyfitter_cfg.c **** #include <cytypes.h>
  19:.\Generated_Source\PSoC5/cyfitter_cfg.c **** #include <cydevice_trm.h>
  20:.\Generated_Source\PSoC5/cyfitter_cfg.c **** #include <cyfitter.h>
  21:.\Generated_Source\PSoC5/cyfitter_cfg.c **** #include <CyLib.h>
  22:.\Generated_Source\PSoC5/cyfitter_cfg.c **** #include <cyfitter_cfg.h>
  23:.\Generated_Source\PSoC5/cyfitter_cfg.c **** 
ARM GAS  C:\Users\bryan.lee\AppData\Local\Temp\ccsOdVkx.s 			page 2


  24:.\Generated_Source\PSoC5/cyfitter_cfg.c **** /* Clock startup error codes                                                   */
  25:.\Generated_Source\PSoC5/cyfitter_cfg.c **** #define CYCLOCKSTART_NO_ERROR    0u
  26:.\Generated_Source\PSoC5/cyfitter_cfg.c **** #define CYCLOCKSTART_XTAL_ERROR  1u
  27:.\Generated_Source\PSoC5/cyfitter_cfg.c **** #define CYCLOCKSTART_32KHZ_ERROR 2u
  28:.\Generated_Source\PSoC5/cyfitter_cfg.c **** #define CYCLOCKSTART_PLL_ERROR   3u
  29:.\Generated_Source\PSoC5/cyfitter_cfg.c **** 
  30:.\Generated_Source\PSoC5/cyfitter_cfg.c **** #ifdef CY_NEED_CYCLOCKSTARTUPERROR
  31:.\Generated_Source\PSoC5/cyfitter_cfg.c **** /*******************************************************************************
  32:.\Generated_Source\PSoC5/cyfitter_cfg.c **** * Function Name: CyClockStartupError
  33:.\Generated_Source\PSoC5/cyfitter_cfg.c **** ********************************************************************************
  34:.\Generated_Source\PSoC5/cyfitter_cfg.c **** * Summary:
  35:.\Generated_Source\PSoC5/cyfitter_cfg.c **** *  If an error is encountered during clock configuration (crystal startup error,
  36:.\Generated_Source\PSoC5/cyfitter_cfg.c **** *  PLL lock error, etc.), the system will end up here.  Unless reimplemented by
  37:.\Generated_Source\PSoC5/cyfitter_cfg.c **** *  the customer, this function will stop in an infinite loop.
  38:.\Generated_Source\PSoC5/cyfitter_cfg.c **** *
  39:.\Generated_Source\PSoC5/cyfitter_cfg.c **** * Parameters:
  40:.\Generated_Source\PSoC5/cyfitter_cfg.c **** *   void
  41:.\Generated_Source\PSoC5/cyfitter_cfg.c **** *
  42:.\Generated_Source\PSoC5/cyfitter_cfg.c **** * Return:
  43:.\Generated_Source\PSoC5/cyfitter_cfg.c **** *   void
  44:.\Generated_Source\PSoC5/cyfitter_cfg.c **** *
  45:.\Generated_Source\PSoC5/cyfitter_cfg.c **** *******************************************************************************/
  46:.\Generated_Source\PSoC5/cyfitter_cfg.c **** #if defined(__GNUC__) || defined(__ARMCC_VERSION)
  47:.\Generated_Source\PSoC5/cyfitter_cfg.c **** __attribute__ ((unused))
  48:.\Generated_Source\PSoC5/cyfitter_cfg.c **** #endif
  49:.\Generated_Source\PSoC5/cyfitter_cfg.c **** static void CyClockStartupError(uint8 errorCode);
  50:.\Generated_Source\PSoC5/cyfitter_cfg.c **** #if defined(__GNUC__) || defined(__ARMCC_VERSION)
  51:.\Generated_Source\PSoC5/cyfitter_cfg.c **** __attribute__ ((unused))
  52:.\Generated_Source\PSoC5/cyfitter_cfg.c **** #endif
  53:.\Generated_Source\PSoC5/cyfitter_cfg.c **** static void CyClockStartupError(uint8 errorCode)
  54:.\Generated_Source\PSoC5/cyfitter_cfg.c **** {
  55:.\Generated_Source\PSoC5/cyfitter_cfg.c ****     /* To remove the compiler warning if errorCode not used.                */
  56:.\Generated_Source\PSoC5/cyfitter_cfg.c ****     errorCode = errorCode;
  57:.\Generated_Source\PSoC5/cyfitter_cfg.c **** 
  58:.\Generated_Source\PSoC5/cyfitter_cfg.c ****     /* `#START CyClockStartupError` */
  59:.\Generated_Source\PSoC5/cyfitter_cfg.c **** 
  60:.\Generated_Source\PSoC5/cyfitter_cfg.c ****     /* If we have a clock startup error (bad MHz crystal, PLL lock, etc)    */
  61:.\Generated_Source\PSoC5/cyfitter_cfg.c ****     /* we will end up here to allow the customer to implement something to  */
  62:.\Generated_Source\PSoC5/cyfitter_cfg.c ****     /* deal with the clock condition.                                       */
  63:.\Generated_Source\PSoC5/cyfitter_cfg.c **** 
  64:.\Generated_Source\PSoC5/cyfitter_cfg.c ****     /* `#END` */
  65:.\Generated_Source\PSoC5/cyfitter_cfg.c **** 
  66:.\Generated_Source\PSoC5/cyfitter_cfg.c ****     /* If nothing else, stop here since the clocks have not started         */
  67:.\Generated_Source\PSoC5/cyfitter_cfg.c ****     /* correctly.                                                           */
  68:.\Generated_Source\PSoC5/cyfitter_cfg.c ****     while(1) {}
  69:.\Generated_Source\PSoC5/cyfitter_cfg.c **** }
  70:.\Generated_Source\PSoC5/cyfitter_cfg.c **** #endif
  71:.\Generated_Source\PSoC5/cyfitter_cfg.c **** 
  72:.\Generated_Source\PSoC5/cyfitter_cfg.c **** 
  73:.\Generated_Source\PSoC5/cyfitter_cfg.c **** #if defined(__GNUC__) || defined(__ARMCC_VERSION)
  74:.\Generated_Source\PSoC5/cyfitter_cfg.c **** 	#define CYPACKED __attribute__ ((packed))
  75:.\Generated_Source\PSoC5/cyfitter_cfg.c **** 	#define CYALIGNED __attribute__ ((aligned))
  76:.\Generated_Source\PSoC5/cyfitter_cfg.c **** 	
  77:.\Generated_Source\PSoC5/cyfitter_cfg.c **** 	#if defined(__ARMCC_VERSION)
  78:.\Generated_Source\PSoC5/cyfitter_cfg.c **** 		#define CY_CFG_MEMORY_BARRIER() __memory_changed()
  79:.\Generated_Source\PSoC5/cyfitter_cfg.c **** 	#else
  80:.\Generated_Source\PSoC5/cyfitter_cfg.c **** 		#define CY_CFG_MEMORY_BARRIER() __sync_synchronize()
ARM GAS  C:\Users\bryan.lee\AppData\Local\Temp\ccsOdVkx.s 			page 3


  81:.\Generated_Source\PSoC5/cyfitter_cfg.c **** 	#endif
  82:.\Generated_Source\PSoC5/cyfitter_cfg.c **** 	
  83:.\Generated_Source\PSoC5/cyfitter_cfg.c **** 	/*******************************************************************************
  84:.\Generated_Source\PSoC5/cyfitter_cfg.c **** 	* Function Name: CYMEMZERO8
  85:.\Generated_Source\PSoC5/cyfitter_cfg.c **** 	********************************************************************************
  86:.\Generated_Source\PSoC5/cyfitter_cfg.c **** 	* Summary:
  87:.\Generated_Source\PSoC5/cyfitter_cfg.c **** 	*  This function is provided as a way to initialize a block of memory to zero
  88:.\Generated_Source\PSoC5/cyfitter_cfg.c **** 	*  one byte at a time.  While this is a 32bit processor, some of the 
  89:.\Generated_Source\PSoC5/cyfitter_cfg.c **** 	*  configuration registers are only 8bits wide.  This allows us to initialize
  90:.\Generated_Source\PSoC5/cyfitter_cfg.c **** 	*  just the registers we care about.
  91:.\Generated_Source\PSoC5/cyfitter_cfg.c **** 	*
  92:.\Generated_Source\PSoC5/cyfitter_cfg.c **** 	* Parameters:  
  93:.\Generated_Source\PSoC5/cyfitter_cfg.c **** 	*   addr  - The first address to start writing zero to.
  94:.\Generated_Source\PSoC5/cyfitter_cfg.c **** 	*   count - The number of bytes to write 0 to.
  95:.\Generated_Source\PSoC5/cyfitter_cfg.c **** 	*
  96:.\Generated_Source\PSoC5/cyfitter_cfg.c **** 	* Return:
  97:.\Generated_Source\PSoC5/cyfitter_cfg.c **** 	*   void
  98:.\Generated_Source\PSoC5/cyfitter_cfg.c **** 	*
  99:.\Generated_Source\PSoC5/cyfitter_cfg.c **** 	*******************************************************************************/
 100:.\Generated_Source\PSoC5/cyfitter_cfg.c **** 	__attribute__ ((unused))
 101:.\Generated_Source\PSoC5/cyfitter_cfg.c **** 	static void CYMEMZERO8(void *addr, uint32 count);
 102:.\Generated_Source\PSoC5/cyfitter_cfg.c **** 	__attribute__ ((unused))
 103:.\Generated_Source\PSoC5/cyfitter_cfg.c **** 	static void CYMEMZERO8(void *addr, uint32 count)
 104:.\Generated_Source\PSoC5/cyfitter_cfg.c **** 	{
  31              		.loc 1 104 0
  32              		.cfi_startproc
  33              		@ args = 0, pretend = 0, frame = 16
  34              		@ frame_needed = 1, uses_anonymous_args = 0
  35              		@ link register save eliminated.
  36 0000 80B4     		push	{r7}
  37              	.LCFI0:
  38              		.cfi_def_cfa_offset 4
  39 0002 85B0     		sub	sp, sp, #20
  40              	.LCFI1:
  41              		.cfi_def_cfa_offset 24
  42 0004 00AF     		add	r7, sp, #0
  43              		.cfi_offset 7, -4
  44              	.LCFI2:
  45              		.cfi_def_cfa_register 7
  46 0006 7860     		str	r0, [r7, #4]
  47 0008 3960     		str	r1, [r7, #0]
 105:.\Generated_Source\PSoC5/cyfitter_cfg.c **** 		volatile uint8 * const addr8 = (volatile uint8 *)addr;
  48              		.loc 1 105 0
  49 000a 7B68     		ldr	r3, [r7, #4]
  50 000c BB60     		str	r3, [r7, #8]
 106:.\Generated_Source\PSoC5/cyfitter_cfg.c **** 		uint32 i;
 107:.\Generated_Source\PSoC5/cyfitter_cfg.c **** 		for (i = 0u; i < count; i++)
  51              		.loc 1 107 0
  52 000e 4FF00003 		mov	r3, #0
  53 0012 FB60     		str	r3, [r7, #12]
  54 0014 09E0     		b	.L2
  55              	.L3:
 108:.\Generated_Source\PSoC5/cyfitter_cfg.c **** 		{
 109:.\Generated_Source\PSoC5/cyfitter_cfg.c **** 			addr8[i] = 0u;
  56              		.loc 1 109 0
  57 0016 BA68     		ldr	r2, [r7, #8]
  58 0018 FB68     		ldr	r3, [r7, #12]
ARM GAS  C:\Users\bryan.lee\AppData\Local\Temp\ccsOdVkx.s 			page 4


  59 001a 1344     		add	r3, r2, r3
  60 001c 4FF00002 		mov	r2, #0
  61 0020 1A70     		strb	r2, [r3, #0]
  62              		.loc 1 107 0
  63 0022 FB68     		ldr	r3, [r7, #12]
  64 0024 03F10103 		add	r3, r3, #1
  65 0028 FB60     		str	r3, [r7, #12]
  66              	.L2:
  67 002a FA68     		ldr	r2, [r7, #12]
  68 002c 3B68     		ldr	r3, [r7, #0]
  69 002e 9A42     		cmp	r2, r3
  70 0030 F1D3     		bcc	.L3
 110:.\Generated_Source\PSoC5/cyfitter_cfg.c **** 		}
 111:.\Generated_Source\PSoC5/cyfitter_cfg.c **** 	}
  71              		.loc 1 111 0
  72 0032 07F11407 		add	r7, r7, #20
  73 0036 BD46     		mov	sp, r7
  74 0038 80BC     		pop	{r7}
  75 003a 7047     		bx	lr
  76              		.cfi_endproc
  77              	.LFE0:
  78              		.size	CYMEMZERO8, .-CYMEMZERO8
  79              		.section	.text.CYCONFIGCPY8,"ax",%progbits
  80              		.align	2
  81              		.thumb
  82              		.thumb_func
  83              		.type	CYCONFIGCPY8, %function
  84              	CYCONFIGCPY8:
  85              	.LFB1:
 112:.\Generated_Source\PSoC5/cyfitter_cfg.c **** 
 113:.\Generated_Source\PSoC5/cyfitter_cfg.c **** 	/*******************************************************************************
 114:.\Generated_Source\PSoC5/cyfitter_cfg.c **** 	* Function Name: CYCONFIGCPY8
 115:.\Generated_Source\PSoC5/cyfitter_cfg.c **** 	********************************************************************************
 116:.\Generated_Source\PSoC5/cyfitter_cfg.c **** 	* Summary:
 117:.\Generated_Source\PSoC5/cyfitter_cfg.c **** 	*  This function is provided as a way to copy data from one location to another
 118:.\Generated_Source\PSoC5/cyfitter_cfg.c **** 	*  one byte at a time.  While this is a 32bit processor, some of the 
 119:.\Generated_Source\PSoC5/cyfitter_cfg.c **** 	*  configuration registers are only 8bits wide.  This allows us to initialize
 120:.\Generated_Source\PSoC5/cyfitter_cfg.c **** 	*  just the registers we care about.
 121:.\Generated_Source\PSoC5/cyfitter_cfg.c **** 	*
 122:.\Generated_Source\PSoC5/cyfitter_cfg.c **** 	* Parameters:  
 123:.\Generated_Source\PSoC5/cyfitter_cfg.c **** 	*   dest  - The destination address to copy data to.
 124:.\Generated_Source\PSoC5/cyfitter_cfg.c **** 	*   src   - The source address to copy data from.
 125:.\Generated_Source\PSoC5/cyfitter_cfg.c **** 	*   count - The number of bytes to copy from 'src' to 'dest'.
 126:.\Generated_Source\PSoC5/cyfitter_cfg.c **** 	*
 127:.\Generated_Source\PSoC5/cyfitter_cfg.c **** 	* Return:
 128:.\Generated_Source\PSoC5/cyfitter_cfg.c **** 	*   void
 129:.\Generated_Source\PSoC5/cyfitter_cfg.c **** 	*
 130:.\Generated_Source\PSoC5/cyfitter_cfg.c **** 	*******************************************************************************/
 131:.\Generated_Source\PSoC5/cyfitter_cfg.c **** 	__attribute__ ((unused))
 132:.\Generated_Source\PSoC5/cyfitter_cfg.c **** 	static void CYCONFIGCPY8(void *dest, const void *src, uint32 count);
 133:.\Generated_Source\PSoC5/cyfitter_cfg.c **** 	__attribute__ ((unused))
 134:.\Generated_Source\PSoC5/cyfitter_cfg.c **** 	static void CYCONFIGCPY8(void *dest, const void *src, uint32 count)
 135:.\Generated_Source\PSoC5/cyfitter_cfg.c **** 	{
  86              		.loc 1 135 0
  87              		.cfi_startproc
  88              		@ args = 0, pretend = 0, frame = 32
  89              		@ frame_needed = 1, uses_anonymous_args = 0
ARM GAS  C:\Users\bryan.lee\AppData\Local\Temp\ccsOdVkx.s 			page 5


  90              		@ link register save eliminated.
  91 0000 80B4     		push	{r7}
  92              	.LCFI3:
  93              		.cfi_def_cfa_offset 4
  94 0002 89B0     		sub	sp, sp, #36
  95              	.LCFI4:
  96              		.cfi_def_cfa_offset 40
  97 0004 00AF     		add	r7, sp, #0
  98              		.cfi_offset 7, -4
  99              	.LCFI5:
 100              		.cfi_def_cfa_register 7
 101 0006 F860     		str	r0, [r7, #12]
 102 0008 B960     		str	r1, [r7, #8]
 103 000a 7A60     		str	r2, [r7, #4]
 136:.\Generated_Source\PSoC5/cyfitter_cfg.c **** 		volatile uint8 * const dest8 = (volatile uint8 *)dest;
 104              		.loc 1 136 0
 105 000c FB68     		ldr	r3, [r7, #12]
 106 000e 7B61     		str	r3, [r7, #20]
 137:.\Generated_Source\PSoC5/cyfitter_cfg.c **** 		const uint8 * const src8 = (const uint8 *)src;
 107              		.loc 1 137 0
 108 0010 BB68     		ldr	r3, [r7, #8]
 109 0012 BB61     		str	r3, [r7, #24]
 138:.\Generated_Source\PSoC5/cyfitter_cfg.c **** 		uint32 i;
 139:.\Generated_Source\PSoC5/cyfitter_cfg.c **** 		for (i = 0u; i < count; i++)
 110              		.loc 1 139 0
 111 0014 4FF00003 		mov	r3, #0
 112 0018 FB61     		str	r3, [r7, #28]
 113 001a 0BE0     		b	.L6
 114              	.L7:
 140:.\Generated_Source\PSoC5/cyfitter_cfg.c **** 		{
 141:.\Generated_Source\PSoC5/cyfitter_cfg.c **** 			dest8[i] = src8[i];
 115              		.loc 1 141 0
 116 001c 7A69     		ldr	r2, [r7, #20]
 117 001e FB69     		ldr	r3, [r7, #28]
 118 0020 1344     		add	r3, r2, r3
 119 0022 B969     		ldr	r1, [r7, #24]
 120 0024 FA69     		ldr	r2, [r7, #28]
 121 0026 0A44     		add	r2, r1, r2
 122 0028 1278     		ldrb	r2, [r2, #0]	@ zero_extendqisi2
 123 002a 1A70     		strb	r2, [r3, #0]
 124              		.loc 1 139 0
 125 002c FB69     		ldr	r3, [r7, #28]
 126 002e 03F10103 		add	r3, r3, #1
 127 0032 FB61     		str	r3, [r7, #28]
 128              	.L6:
 129 0034 FA69     		ldr	r2, [r7, #28]
 130 0036 7B68     		ldr	r3, [r7, #4]
 131 0038 9A42     		cmp	r2, r3
 132 003a EFD3     		bcc	.L7
 142:.\Generated_Source\PSoC5/cyfitter_cfg.c **** 		}
 143:.\Generated_Source\PSoC5/cyfitter_cfg.c **** 	}
 133              		.loc 1 143 0
 134 003c 07F12407 		add	r7, r7, #36
 135 0040 BD46     		mov	sp, r7
 136 0042 80BC     		pop	{r7}
 137 0044 7047     		bx	lr
 138              		.cfi_endproc
ARM GAS  C:\Users\bryan.lee\AppData\Local\Temp\ccsOdVkx.s 			page 6


 139              	.LFE1:
 140              		.size	CYCONFIGCPY8, .-CYCONFIGCPY8
 141 0046 00BF     		.section	.text.CYCONFIGCPYCODE8,"ax",%progbits
 142              		.align	2
 143              		.thumb
 144              		.thumb_func
 145              		.type	CYCONFIGCPYCODE8, %function
 146              	CYCONFIGCPYCODE8:
 147              	.LFB2:
 144:.\Generated_Source\PSoC5/cyfitter_cfg.c **** 
 145:.\Generated_Source\PSoC5/cyfitter_cfg.c **** 	/*******************************************************************************
 146:.\Generated_Source\PSoC5/cyfitter_cfg.c **** 	* Function Name: CYCONFIGCPYCODE8
 147:.\Generated_Source\PSoC5/cyfitter_cfg.c **** 	********************************************************************************
 148:.\Generated_Source\PSoC5/cyfitter_cfg.c **** 	* Summary:
 149:.\Generated_Source\PSoC5/cyfitter_cfg.c **** 	*  This function is provided as a way to copy data from one location to another
 150:.\Generated_Source\PSoC5/cyfitter_cfg.c **** 	*  one byte at a time.  While this is a 32bit processor, some of the 
 151:.\Generated_Source\PSoC5/cyfitter_cfg.c **** 	*  configuration registers are only 8bits wide.  This allows us to initialize
 152:.\Generated_Source\PSoC5/cyfitter_cfg.c **** 	*  just the registers we care about.
 153:.\Generated_Source\PSoC5/cyfitter_cfg.c **** 	*
 154:.\Generated_Source\PSoC5/cyfitter_cfg.c **** 	* Parameters:  
 155:.\Generated_Source\PSoC5/cyfitter_cfg.c **** 	*   dest  - The destination address to copy data to.
 156:.\Generated_Source\PSoC5/cyfitter_cfg.c **** 	*   src   - The source address to copy data from.
 157:.\Generated_Source\PSoC5/cyfitter_cfg.c **** 	*   count - The number of bytes to copy from 'src' to 'dest'.
 158:.\Generated_Source\PSoC5/cyfitter_cfg.c **** 	*
 159:.\Generated_Source\PSoC5/cyfitter_cfg.c **** 	* Return:
 160:.\Generated_Source\PSoC5/cyfitter_cfg.c **** 	*   void
 161:.\Generated_Source\PSoC5/cyfitter_cfg.c **** 	*
 162:.\Generated_Source\PSoC5/cyfitter_cfg.c **** 	*******************************************************************************/
 163:.\Generated_Source\PSoC5/cyfitter_cfg.c **** 	__attribute__ ((unused))
 164:.\Generated_Source\PSoC5/cyfitter_cfg.c **** 	static void CYCONFIGCPYCODE8(void *dest, const void *src, uint32 count);
 165:.\Generated_Source\PSoC5/cyfitter_cfg.c **** 	__attribute__ ((unused))
 166:.\Generated_Source\PSoC5/cyfitter_cfg.c **** 	static void CYCONFIGCPYCODE8(void *dest, const void *src, uint32 count)
 167:.\Generated_Source\PSoC5/cyfitter_cfg.c **** 	{
 148              		.loc 1 167 0
 149              		.cfi_startproc
 150              		@ args = 0, pretend = 0, frame = 16
 151              		@ frame_needed = 1, uses_anonymous_args = 0
 152 0000 80B5     		push	{r7, lr}
 153              	.LCFI6:
 154              		.cfi_def_cfa_offset 8
 155 0002 84B0     		sub	sp, sp, #16
 156              	.LCFI7:
 157              		.cfi_def_cfa_offset 24
 158 0004 00AF     		add	r7, sp, #0
 159              		.cfi_offset 14, -4
 160              		.cfi_offset 7, -8
 161              	.LCFI8:
 162              		.cfi_def_cfa_register 7
 163 0006 F860     		str	r0, [r7, #12]
 164 0008 B960     		str	r1, [r7, #8]
 165 000a 7A60     		str	r2, [r7, #4]
 168:.\Generated_Source\PSoC5/cyfitter_cfg.c **** 		CYCONFIGCPY8(dest, src, count);
 166              		.loc 1 168 0
 167 000c F868     		ldr	r0, [r7, #12]
 168 000e B968     		ldr	r1, [r7, #8]
 169 0010 7A68     		ldr	r2, [r7, #4]
 170 0012 FFF7FEFF 		bl	CYCONFIGCPY8
ARM GAS  C:\Users\bryan.lee\AppData\Local\Temp\ccsOdVkx.s 			page 7


 169:.\Generated_Source\PSoC5/cyfitter_cfg.c **** 	}
 171              		.loc 1 169 0
 172 0016 07F11007 		add	r7, r7, #16
 173 001a BD46     		mov	sp, r7
 174 001c 80BD     		pop	{r7, pc}
 175              		.cfi_endproc
 176              	.LFE2:
 177              		.size	CYCONFIGCPYCODE8, .-CYCONFIGCPYCODE8
 178 001e 00BF     		.section	.text.CYMEMZERO,"ax",%progbits
 179              		.align	2
 180              		.thumb
 181              		.thumb_func
 182              		.type	CYMEMZERO, %function
 183              	CYMEMZERO:
 184              	.LFB3:
 170:.\Generated_Source\PSoC5/cyfitter_cfg.c **** 
 171:.\Generated_Source\PSoC5/cyfitter_cfg.c **** 	__attribute__ ((unused))
 172:.\Generated_Source\PSoC5/cyfitter_cfg.c **** 	static void CYMEMZERO(void *s, size_t n);
 173:.\Generated_Source\PSoC5/cyfitter_cfg.c **** 	__attribute__ ((unused))
 174:.\Generated_Source\PSoC5/cyfitter_cfg.c **** 	static void CYMEMZERO(void *s, size_t n)
 175:.\Generated_Source\PSoC5/cyfitter_cfg.c **** 	{
 185              		.loc 1 175 0
 186              		.cfi_startproc
 187              		@ args = 0, pretend = 0, frame = 8
 188              		@ frame_needed = 1, uses_anonymous_args = 0
 189 0000 80B5     		push	{r7, lr}
 190              	.LCFI9:
 191              		.cfi_def_cfa_offset 8
 192 0002 82B0     		sub	sp, sp, #8
 193              	.LCFI10:
 194              		.cfi_def_cfa_offset 16
 195 0004 00AF     		add	r7, sp, #0
 196              		.cfi_offset 14, -4
 197              		.cfi_offset 7, -8
 198              	.LCFI11:
 199              		.cfi_def_cfa_register 7
 200 0006 7860     		str	r0, [r7, #4]
 201 0008 3960     		str	r1, [r7, #0]
 176:.\Generated_Source\PSoC5/cyfitter_cfg.c **** 		(void)memset(s, 0, n);
 202              		.loc 1 176 0
 203 000a 7868     		ldr	r0, [r7, #4]
 204 000c 4FF00001 		mov	r1, #0
 205 0010 3A68     		ldr	r2, [r7, #0]
 206 0012 FFF7FEFF 		bl	memset
 177:.\Generated_Source\PSoC5/cyfitter_cfg.c **** 	}
 207              		.loc 1 177 0
 208 0016 07F10807 		add	r7, r7, #8
 209 001a BD46     		mov	sp, r7
 210 001c 80BD     		pop	{r7, pc}
 211              		.cfi_endproc
 212              	.LFE3:
 213              		.size	CYMEMZERO, .-CYMEMZERO
 214 001e 00BF     		.section	.text.CYCONFIGCPY,"ax",%progbits
 215              		.align	2
 216              		.thumb
 217              		.thumb_func
 218              		.type	CYCONFIGCPY, %function
ARM GAS  C:\Users\bryan.lee\AppData\Local\Temp\ccsOdVkx.s 			page 8


 219              	CYCONFIGCPY:
 220              	.LFB4:
 178:.\Generated_Source\PSoC5/cyfitter_cfg.c **** 	__attribute__ ((unused))
 179:.\Generated_Source\PSoC5/cyfitter_cfg.c **** 	static void CYCONFIGCPY(void *dest, const void *src, size_t n);
 180:.\Generated_Source\PSoC5/cyfitter_cfg.c **** 	__attribute__ ((unused))
 181:.\Generated_Source\PSoC5/cyfitter_cfg.c **** 	static void CYCONFIGCPY(void *dest, const void *src, size_t n)
 182:.\Generated_Source\PSoC5/cyfitter_cfg.c **** 	{
 221              		.loc 1 182 0
 222              		.cfi_startproc
 223              		@ args = 0, pretend = 0, frame = 16
 224              		@ frame_needed = 1, uses_anonymous_args = 0
 225 0000 80B5     		push	{r7, lr}
 226              	.LCFI12:
 227              		.cfi_def_cfa_offset 8
 228 0002 84B0     		sub	sp, sp, #16
 229              	.LCFI13:
 230              		.cfi_def_cfa_offset 24
 231 0004 00AF     		add	r7, sp, #0
 232              		.cfi_offset 14, -4
 233              		.cfi_offset 7, -8
 234              	.LCFI14:
 235              		.cfi_def_cfa_register 7
 236 0006 F860     		str	r0, [r7, #12]
 237 0008 B960     		str	r1, [r7, #8]
 238 000a 7A60     		str	r2, [r7, #4]
 183:.\Generated_Source\PSoC5/cyfitter_cfg.c **** 		(void)memcpy(dest, src, n);
 239              		.loc 1 183 0
 240 000c F868     		ldr	r0, [r7, #12]
 241 000e B968     		ldr	r1, [r7, #8]
 242 0010 7A68     		ldr	r2, [r7, #4]
 243 0012 FFF7FEFF 		bl	memcpy
 184:.\Generated_Source\PSoC5/cyfitter_cfg.c **** 	}
 244              		.loc 1 184 0
 245 0016 07F11007 		add	r7, r7, #16
 246 001a BD46     		mov	sp, r7
 247 001c 80BD     		pop	{r7, pc}
 248              		.cfi_endproc
 249              	.LFE4:
 250              		.size	CYCONFIGCPY, .-CYCONFIGCPY
 251 001e 00BF     		.section	.text.CYCONFIGCPYCODE,"ax",%progbits
 252              		.align	2
 253              		.thumb
 254              		.thumb_func
 255              		.type	CYCONFIGCPYCODE, %function
 256              	CYCONFIGCPYCODE:
 257              	.LFB5:
 185:.\Generated_Source\PSoC5/cyfitter_cfg.c **** 	__attribute__ ((unused))
 186:.\Generated_Source\PSoC5/cyfitter_cfg.c **** 	static void CYCONFIGCPYCODE(void *dest, const void *src, size_t n);
 187:.\Generated_Source\PSoC5/cyfitter_cfg.c **** 	__attribute__ ((unused))
 188:.\Generated_Source\PSoC5/cyfitter_cfg.c **** 	static void CYCONFIGCPYCODE(void *dest, const void *src, size_t n)
 189:.\Generated_Source\PSoC5/cyfitter_cfg.c **** 	{
 258              		.loc 1 189 0
 259              		.cfi_startproc
 260              		@ args = 0, pretend = 0, frame = 16
 261              		@ frame_needed = 1, uses_anonymous_args = 0
 262 0000 80B5     		push	{r7, lr}
 263              	.LCFI15:
ARM GAS  C:\Users\bryan.lee\AppData\Local\Temp\ccsOdVkx.s 			page 9


 264              		.cfi_def_cfa_offset 8
 265 0002 84B0     		sub	sp, sp, #16
 266              	.LCFI16:
 267              		.cfi_def_cfa_offset 24
 268 0004 00AF     		add	r7, sp, #0
 269              		.cfi_offset 14, -4
 270              		.cfi_offset 7, -8
 271              	.LCFI17:
 272              		.cfi_def_cfa_register 7
 273 0006 F860     		str	r0, [r7, #12]
 274 0008 B960     		str	r1, [r7, #8]
 275 000a 7A60     		str	r2, [r7, #4]
 190:.\Generated_Source\PSoC5/cyfitter_cfg.c **** 		(void)memcpy(dest, src, n);
 276              		.loc 1 190 0
 277 000c F868     		ldr	r0, [r7, #12]
 278 000e B968     		ldr	r1, [r7, #8]
 279 0010 7A68     		ldr	r2, [r7, #4]
 280 0012 FFF7FEFF 		bl	memcpy
 191:.\Generated_Source\PSoC5/cyfitter_cfg.c **** 	}
 281              		.loc 1 191 0
 282 0016 07F11007 		add	r7, r7, #16
 283 001a BD46     		mov	sp, r7
 284 001c 80BD     		pop	{r7, pc}
 285              		.cfi_endproc
 286              	.LFE5:
 287              		.size	CYCONFIGCPYCODE, .-CYCONFIGCPYCODE
 288 001e 00BF     		.section	.text.cfg_write_bytes32,"ax",%progbits
 289              		.align	2
 290              		.thumb
 291              		.thumb_func
 292              		.type	cfg_write_bytes32, %function
 293              	cfg_write_bytes32:
 294              	.LFB6:
 192:.\Generated_Source\PSoC5/cyfitter_cfg.c **** #else
 193:.\Generated_Source\PSoC5/cyfitter_cfg.c **** 	#error Unsupported toolchain
 194:.\Generated_Source\PSoC5/cyfitter_cfg.c **** #endif
 195:.\Generated_Source\PSoC5/cyfitter_cfg.c **** 
 196:.\Generated_Source\PSoC5/cyfitter_cfg.c **** #define CY_CFG_BASE_ADDR_COUNT 31u
 197:.\Generated_Source\PSoC5/cyfitter_cfg.c **** typedef struct
 198:.\Generated_Source\PSoC5/cyfitter_cfg.c **** {
 199:.\Generated_Source\PSoC5/cyfitter_cfg.c **** 	uint8 offset;
 200:.\Generated_Source\PSoC5/cyfitter_cfg.c **** 	uint8 value;
 201:.\Generated_Source\PSoC5/cyfitter_cfg.c **** } CYPACKED cy_cfg_addrvalue_t;
 202:.\Generated_Source\PSoC5/cyfitter_cfg.c **** 
 203:.\Generated_Source\PSoC5/cyfitter_cfg.c **** #define cy_cfg_addr_table ((const uint32 CYFAR *)0x48000000u)
 204:.\Generated_Source\PSoC5/cyfitter_cfg.c **** #define cy_cfg_data_table ((const cy_cfg_addrvalue_t CYFAR *)0x4800007Cu)
 205:.\Generated_Source\PSoC5/cyfitter_cfg.c **** 
 206:.\Generated_Source\PSoC5/cyfitter_cfg.c **** /* IOPINS0_0 Address: CYREG_PRT0_DR Size (bytes): 10 */
 207:.\Generated_Source\PSoC5/cyfitter_cfg.c **** #define BS_IOPINS0_0_VAL ((const uint8 CYFAR *)0x480005DCu)
 208:.\Generated_Source\PSoC5/cyfitter_cfg.c **** 
 209:.\Generated_Source\PSoC5/cyfitter_cfg.c **** /* IOPINS0_2 Address: CYREG_PRT2_DM0 Size (bytes): 8 */
 210:.\Generated_Source\PSoC5/cyfitter_cfg.c **** #define BS_IOPINS0_2_VAL ((const uint8 CYFAR *)0x480005E8u)
 211:.\Generated_Source\PSoC5/cyfitter_cfg.c **** 
 212:.\Generated_Source\PSoC5/cyfitter_cfg.c **** /* IOPINS0_3 Address: CYREG_PRT3_DR Size (bytes): 10 */
 213:.\Generated_Source\PSoC5/cyfitter_cfg.c **** #define BS_IOPINS0_3_VAL ((const uint8 CYFAR *)0x480005F0u)
 214:.\Generated_Source\PSoC5/cyfitter_cfg.c **** 
 215:.\Generated_Source\PSoC5/cyfitter_cfg.c **** /* IOPINS0_4 Address: CYREG_PRT4_DM0 Size (bytes): 8 */
ARM GAS  C:\Users\bryan.lee\AppData\Local\Temp\ccsOdVkx.s 			page 10


 216:.\Generated_Source\PSoC5/cyfitter_cfg.c **** #define BS_IOPINS0_4_VAL ((const uint8 CYFAR *)0x480005FCu)
 217:.\Generated_Source\PSoC5/cyfitter_cfg.c **** 
 218:.\Generated_Source\PSoC5/cyfitter_cfg.c **** /* IOPINS0_5 Address: CYREG_PRT5_DR Size (bytes): 10 */
 219:.\Generated_Source\PSoC5/cyfitter_cfg.c **** #define BS_IOPINS0_5_VAL ((const uint8 CYFAR *)0x48000604u)
 220:.\Generated_Source\PSoC5/cyfitter_cfg.c **** 
 221:.\Generated_Source\PSoC5/cyfitter_cfg.c **** /* IOPINS0_6 Address: CYREG_PRT6_DM0 Size (bytes): 8 */
 222:.\Generated_Source\PSoC5/cyfitter_cfg.c **** #define BS_IOPINS0_6_VAL ((const uint8 CYFAR *)0x48000610u)
 223:.\Generated_Source\PSoC5/cyfitter_cfg.c **** 
 224:.\Generated_Source\PSoC5/cyfitter_cfg.c **** /* IOPORT_3 Address: CYDEV_PRTDSI_PRT3_BASE Size (bytes): 7 */
 225:.\Generated_Source\PSoC5/cyfitter_cfg.c **** #define BS_IOPORT_3_VAL ((const uint8 CYFAR *)0x48000618u)
 226:.\Generated_Source\PSoC5/cyfitter_cfg.c **** 
 227:.\Generated_Source\PSoC5/cyfitter_cfg.c **** /* IOPORT_5 Address: CYDEV_PRTDSI_PRT5_BASE Size (bytes): 7 */
 228:.\Generated_Source\PSoC5/cyfitter_cfg.c **** #define BS_IOPORT_5_VAL ((const uint8 CYFAR *)0x48000620u)
 229:.\Generated_Source\PSoC5/cyfitter_cfg.c **** 
 230:.\Generated_Source\PSoC5/cyfitter_cfg.c **** 
 231:.\Generated_Source\PSoC5/cyfitter_cfg.c **** /*******************************************************************************
 232:.\Generated_Source\PSoC5/cyfitter_cfg.c **** * Function Name: cfg_write_bytes32
 233:.\Generated_Source\PSoC5/cyfitter_cfg.c **** ********************************************************************************
 234:.\Generated_Source\PSoC5/cyfitter_cfg.c **** * Summary:
 235:.\Generated_Source\PSoC5/cyfitter_cfg.c **** *  This function is used for setting up the chip configuration areas that
 236:.\Generated_Source\PSoC5/cyfitter_cfg.c **** *  contain relatively sparse data.
 237:.\Generated_Source\PSoC5/cyfitter_cfg.c **** *
 238:.\Generated_Source\PSoC5/cyfitter_cfg.c **** * Parameters:
 239:.\Generated_Source\PSoC5/cyfitter_cfg.c **** *   void
 240:.\Generated_Source\PSoC5/cyfitter_cfg.c **** *
 241:.\Generated_Source\PSoC5/cyfitter_cfg.c **** * Return:
 242:.\Generated_Source\PSoC5/cyfitter_cfg.c **** *   void
 243:.\Generated_Source\PSoC5/cyfitter_cfg.c **** *
 244:.\Generated_Source\PSoC5/cyfitter_cfg.c **** *******************************************************************************/
 245:.\Generated_Source\PSoC5/cyfitter_cfg.c **** static void cfg_write_bytes32(const uint32 addr_table[], const cy_cfg_addrvalue_t data_table[]);
 246:.\Generated_Source\PSoC5/cyfitter_cfg.c **** static void cfg_write_bytes32(const uint32 addr_table[], const cy_cfg_addrvalue_t data_table[])
 247:.\Generated_Source\PSoC5/cyfitter_cfg.c **** {
 295              		.loc 1 247 0
 296              		.cfi_startproc
 297              		@ args = 0, pretend = 0, frame = 24
 298              		@ frame_needed = 1, uses_anonymous_args = 0
 299              		@ link register save eliminated.
 300 0000 80B4     		push	{r7}
 301              	.LCFI18:
 302              		.cfi_def_cfa_offset 4
 303 0002 87B0     		sub	sp, sp, #28
 304              	.LCFI19:
 305              		.cfi_def_cfa_offset 32
 306 0004 00AF     		add	r7, sp, #0
 307              		.cfi_offset 7, -4
 308              	.LCFI20:
 309              		.cfi_def_cfa_register 7
 310 0006 7860     		str	r0, [r7, #4]
 311 0008 3960     		str	r1, [r7, #0]
 248:.\Generated_Source\PSoC5/cyfitter_cfg.c **** 	/* For 32-bit little-endian architectures */
 249:.\Generated_Source\PSoC5/cyfitter_cfg.c **** 	uint32 i, j = 0u;
 312              		.loc 1 249 0
 313 000a 4FF00003 		mov	r3, #0
 314 000e FB60     		str	r3, [r7, #12]
 250:.\Generated_Source\PSoC5/cyfitter_cfg.c **** 	for (i = 0u; i < CY_CFG_BASE_ADDR_COUNT; i++)
 315              		.loc 1 250 0
 316 0010 4FF00003 		mov	r3, #0
ARM GAS  C:\Users\bryan.lee\AppData\Local\Temp\ccsOdVkx.s 			page 11


 317 0014 BB60     		str	r3, [r7, #8]
 318 0016 2CE0     		b	.L18
 319              	.L21:
 320              	.LBB2:
 251:.\Generated_Source\PSoC5/cyfitter_cfg.c **** 	{
 252:.\Generated_Source\PSoC5/cyfitter_cfg.c **** 		uint32 baseAddr = addr_table[i];
 321              		.loc 1 252 0
 322 0018 BB68     		ldr	r3, [r7, #8]
 323 001a 4FEA8302 		lsl	r2, r3, #2
 324 001e 7B68     		ldr	r3, [r7, #4]
 325 0020 1344     		add	r3, r2, r3
 326 0022 1B68     		ldr	r3, [r3, #0]
 327 0024 3B61     		str	r3, [r7, #16]
 253:.\Generated_Source\PSoC5/cyfitter_cfg.c **** 		uint8 count = (uint8)baseAddr;
 328              		.loc 1 253 0
 329 0026 3B69     		ldr	r3, [r7, #16]
 330 0028 FB75     		strb	r3, [r7, #23]
 254:.\Generated_Source\PSoC5/cyfitter_cfg.c **** 		baseAddr &= 0xFFFFFF00u;
 331              		.loc 1 254 0
 332 002a 3B69     		ldr	r3, [r7, #16]
 333 002c 23F0FF03 		bic	r3, r3, #255
 334 0030 3B61     		str	r3, [r7, #16]
 255:.\Generated_Source\PSoC5/cyfitter_cfg.c **** 		while (count != 0u)
 335              		.loc 1 255 0
 336 0032 17E0     		b	.L19
 337              	.L20:
 256:.\Generated_Source\PSoC5/cyfitter_cfg.c **** 		{
 257:.\Generated_Source\PSoC5/cyfitter_cfg.c **** 			CY_SET_XTND_REG8((void CYFAR *)(baseAddr + data_table[j].offset), data_table[j].value);
 338              		.loc 1 257 0
 339 0034 FB68     		ldr	r3, [r7, #12]
 340 0036 4FEA4302 		lsl	r2, r3, #1
 341 003a 3B68     		ldr	r3, [r7, #0]
 342 003c 1344     		add	r3, r2, r3
 343 003e 1B78     		ldrb	r3, [r3, #0]	@ zero_extendqisi2
 344 0040 1A46     		mov	r2, r3
 345 0042 3B69     		ldr	r3, [r7, #16]
 346 0044 1344     		add	r3, r2, r3
 347 0046 FA68     		ldr	r2, [r7, #12]
 348 0048 4FEA4201 		lsl	r1, r2, #1
 349 004c 3A68     		ldr	r2, [r7, #0]
 350 004e 0A44     		add	r2, r1, r2
 351 0050 5278     		ldrb	r2, [r2, #1]	@ zero_extendqisi2
 352 0052 1A70     		strb	r2, [r3, #0]
 258:.\Generated_Source\PSoC5/cyfitter_cfg.c **** 			j++;
 353              		.loc 1 258 0
 354 0054 FB68     		ldr	r3, [r7, #12]
 355 0056 03F10103 		add	r3, r3, #1
 356 005a FB60     		str	r3, [r7, #12]
 259:.\Generated_Source\PSoC5/cyfitter_cfg.c **** 			count--;
 357              		.loc 1 259 0
 358 005c FB7D     		ldrb	r3, [r7, #23]
 359 005e 03F1FF33 		add	r3, r3, #-1
 360 0062 FB75     		strb	r3, [r7, #23]
 361              	.L19:
 362              		.loc 1 255 0
 363 0064 FB7D     		ldrb	r3, [r7, #23]	@ zero_extendqisi2
 364 0066 002B     		cmp	r3, #0
ARM GAS  C:\Users\bryan.lee\AppData\Local\Temp\ccsOdVkx.s 			page 12


 365 0068 E4D1     		bne	.L20
 366              	.LBE2:
 367              		.loc 1 250 0
 368 006a BB68     		ldr	r3, [r7, #8]
 369 006c 03F10103 		add	r3, r3, #1
 370 0070 BB60     		str	r3, [r7, #8]
 371              	.L18:
 372 0072 BB68     		ldr	r3, [r7, #8]
 373 0074 1E2B     		cmp	r3, #30
 374 0076 CFD9     		bls	.L21
 260:.\Generated_Source\PSoC5/cyfitter_cfg.c **** 		}
 261:.\Generated_Source\PSoC5/cyfitter_cfg.c **** 	}
 262:.\Generated_Source\PSoC5/cyfitter_cfg.c **** }
 375              		.loc 1 262 0
 376 0078 07F11C07 		add	r7, r7, #28
 377 007c BD46     		mov	sp, r7
 378 007e 80BC     		pop	{r7}
 379 0080 7047     		bx	lr
 380              		.cfi_endproc
 381              	.LFE6:
 382              		.size	cfg_write_bytes32, .-cfg_write_bytes32
 383 0082 00BF     		.section	.text.ClockSetup,"ax",%progbits
 384              		.align	2
 385              		.thumb
 386              		.thumb_func
 387              		.type	ClockSetup, %function
 388              	ClockSetup:
 389              	.LFB7:
 263:.\Generated_Source\PSoC5/cyfitter_cfg.c **** 
 264:.\Generated_Source\PSoC5/cyfitter_cfg.c **** /*******************************************************************************
 265:.\Generated_Source\PSoC5/cyfitter_cfg.c **** * Function Name: ClockSetup
 266:.\Generated_Source\PSoC5/cyfitter_cfg.c **** ********************************************************************************
 267:.\Generated_Source\PSoC5/cyfitter_cfg.c **** *
 268:.\Generated_Source\PSoC5/cyfitter_cfg.c **** * Summary:
 269:.\Generated_Source\PSoC5/cyfitter_cfg.c **** *  Performs the initialization of all of the clocks in the device based on the
 270:.\Generated_Source\PSoC5/cyfitter_cfg.c **** *  settings in the Clock tab of the DWR.  This includes enabling the requested
 271:.\Generated_Source\PSoC5/cyfitter_cfg.c **** *  clocks and setting the necessary dividers to produce the desired frequency. 
 272:.\Generated_Source\PSoC5/cyfitter_cfg.c **** *
 273:.\Generated_Source\PSoC5/cyfitter_cfg.c **** * Parameters:
 274:.\Generated_Source\PSoC5/cyfitter_cfg.c **** *  void
 275:.\Generated_Source\PSoC5/cyfitter_cfg.c **** *
 276:.\Generated_Source\PSoC5/cyfitter_cfg.c **** * Return:
 277:.\Generated_Source\PSoC5/cyfitter_cfg.c **** *  void
 278:.\Generated_Source\PSoC5/cyfitter_cfg.c **** *
 279:.\Generated_Source\PSoC5/cyfitter_cfg.c **** *******************************************************************************/
 280:.\Generated_Source\PSoC5/cyfitter_cfg.c **** static void ClockSetup(void);
 281:.\Generated_Source\PSoC5/cyfitter_cfg.c **** static void ClockSetup(void)
 282:.\Generated_Source\PSoC5/cyfitter_cfg.c **** {
 390              		.loc 1 282 0
 391              		.cfi_startproc
 392              		@ args = 0, pretend = 0, frame = 8
 393              		@ frame_needed = 1, uses_anonymous_args = 0
 394 0000 80B5     		push	{r7, lr}
 395              	.LCFI21:
 396              		.cfi_def_cfa_offset 8
 397 0002 82B0     		sub	sp, sp, #8
 398              	.LCFI22:
ARM GAS  C:\Users\bryan.lee\AppData\Local\Temp\ccsOdVkx.s 			page 13


 399              		.cfi_def_cfa_offset 16
 400 0004 00AF     		add	r7, sp, #0
 401              		.cfi_offset 14, -4
 402              		.cfi_offset 7, -8
 403              	.LCFI23:
 404              		.cfi_def_cfa_register 7
 283:.\Generated_Source\PSoC5/cyfitter_cfg.c **** 	uint8 x32TrHold;
 284:.\Generated_Source\PSoC5/cyfitter_cfg.c **** 	uint32 timeout;
 285:.\Generated_Source\PSoC5/cyfitter_cfg.c **** 
 286:.\Generated_Source\PSoC5/cyfitter_cfg.c **** 	x32TrHold = CY_GET_XTND_REG8((void CYFAR *)CYREG_X32_TR);
 405              		.loc 1 286 0
 406 0006 44F29863 		movw	r3, #:lower16:1073759896
 407 000a C4F20003 		movt	r3, #:upper16:1073759896
 408 000e 1B78     		ldrb	r3, [r3, #0]
 409 0010 FB70     		strb	r3, [r7, #3]
 287:.\Generated_Source\PSoC5/cyfitter_cfg.c **** 
 288:.\Generated_Source\PSoC5/cyfitter_cfg.c **** 	/* Configure Digital Clocks based on settings from Clock DWR */
 289:.\Generated_Source\PSoC5/cyfitter_cfg.c **** 	CY_SET_XTND_REG16((void CYFAR *)(CYREG_CLKDIST_DCFG0_CFG0), 0x0000u);
 410              		.loc 1 289 0
 411 0012 44F28003 		movw	r3, #:lower16:1073758336
 412 0016 C4F20003 		movt	r3, #:upper16:1073758336
 413 001a 4FF00002 		mov	r2, #0
 414 001e 1A80     		strh	r2, [r3, #0]	@ movhi
 290:.\Generated_Source\PSoC5/cyfitter_cfg.c **** 	CY_SET_XTND_REG8((void CYFAR *)(CYREG_CLKDIST_DCFG0_CFG0 + 0x2u), 0x1Du);
 415              		.loc 1 290 0
 416 0020 44F28203 		movw	r3, #:lower16:1073758338
 417 0024 C4F20003 		movt	r3, #:upper16:1073758338
 418 0028 4FF01D02 		mov	r2, #29
 419 002c 1A70     		strb	r2, [r3, #0]
 291:.\Generated_Source\PSoC5/cyfitter_cfg.c **** 	CY_SET_XTND_REG16((void CYFAR *)(CYREG_CLKDIST_DCFG1_CFG0), 0x0000u);
 420              		.loc 1 291 0
 421 002e 44F28403 		movw	r3, #:lower16:1073758340
 422 0032 C4F20003 		movt	r3, #:upper16:1073758340
 423 0036 4FF00002 		mov	r2, #0
 424 003a 1A80     		strh	r2, [r3, #0]	@ movhi
 292:.\Generated_Source\PSoC5/cyfitter_cfg.c **** 	CY_SET_XTND_REG8((void CYFAR *)(CYREG_CLKDIST_DCFG1_CFG0 + 0x2u), 0x1Du);
 425              		.loc 1 292 0
 426 003c 44F28603 		movw	r3, #:lower16:1073758342
 427 0040 C4F20003 		movt	r3, #:upper16:1073758342
 428 0044 4FF01D02 		mov	r2, #29
 429 0048 1A70     		strb	r2, [r3, #0]
 293:.\Generated_Source\PSoC5/cyfitter_cfg.c **** 	CY_SET_XTND_REG16((void CYFAR *)(CYREG_CLKDIST_DCFG2_CFG0), 0x0000u);
 430              		.loc 1 293 0
 431 004a 44F28803 		movw	r3, #:lower16:1073758344
 432 004e C4F20003 		movt	r3, #:upper16:1073758344
 433 0052 4FF00002 		mov	r2, #0
 434 0056 1A80     		strh	r2, [r3, #0]	@ movhi
 294:.\Generated_Source\PSoC5/cyfitter_cfg.c **** 	CY_SET_XTND_REG8((void CYFAR *)(CYREG_CLKDIST_DCFG2_CFG0 + 0x2u), 0x1Du);
 435              		.loc 1 294 0
 436 0058 44F28A03 		movw	r3, #:lower16:1073758346
 437 005c C4F20003 		movt	r3, #:upper16:1073758346
 438 0060 4FF01D02 		mov	r2, #29
 439 0064 1A70     		strb	r2, [r3, #0]
 295:.\Generated_Source\PSoC5/cyfitter_cfg.c **** 
 296:.\Generated_Source\PSoC5/cyfitter_cfg.c **** 	/* Configure ILO based on settings from Clock DWR */
 297:.\Generated_Source\PSoC5/cyfitter_cfg.c **** 	CY_SET_XTND_REG8((void CYFAR *)(CYREG_SLOWCLK_ILO_CR0), 0x02u);
 440              		.loc 1 297 0
ARM GAS  C:\Users\bryan.lee\AppData\Local\Temp\ccsOdVkx.s 			page 14


 441 0066 44F20033 		movw	r3, #:lower16:1073758976
 442 006a C4F20003 		movt	r3, #:upper16:1073758976
 443 006e 4FF00202 		mov	r2, #2
 444 0072 1A70     		strb	r2, [r3, #0]
 298:.\Generated_Source\PSoC5/cyfitter_cfg.c **** 	CY_SET_XTND_REG8((void CYFAR *)(CYREG_CLKDIST_CR), 0x08u);
 445              		.loc 1 298 0
 446 0074 44F20003 		movw	r3, #:lower16:1073758208
 447 0078 C4F20003 		movt	r3, #:upper16:1073758208
 448 007c 4FF00802 		mov	r2, #8
 449 0080 1A70     		strb	r2, [r3, #0]
 299:.\Generated_Source\PSoC5/cyfitter_cfg.c **** 
 300:.\Generated_Source\PSoC5/cyfitter_cfg.c **** 	/* Configure XTAL 32kHz based on settings from Clock DWR */
 301:.\Generated_Source\PSoC5/cyfitter_cfg.c **** 	CY_SET_XTND_REG8((void CYFAR *)(CYREG_SLOWCLK_X32_TST), 0xF3u);
 450              		.loc 1 301 0
 451 0082 44F20A33 		movw	r3, #:lower16:1073758986
 452 0086 C4F20003 		movt	r3, #:upper16:1073758986
 453 008a 6FF00C02 		mvn	r2, #12
 454 008e 1A70     		strb	r2, [r3, #0]
 302:.\Generated_Source\PSoC5/cyfitter_cfg.c **** 	CY_SET_XTND_REG8((void CYFAR *)(CYREG_X32_TR), 0x03u);
 455              		.loc 1 302 0
 456 0090 44F29863 		movw	r3, #:lower16:1073759896
 457 0094 C4F20003 		movt	r3, #:upper16:1073759896
 458 0098 4FF00302 		mov	r2, #3
 459 009c 1A70     		strb	r2, [r3, #0]
 303:.\Generated_Source\PSoC5/cyfitter_cfg.c **** 	CY_SET_XTND_REG8((void CYFAR *)(CYREG_SLOWCLK_X32_CFG), 0x84u);
 460              		.loc 1 303 0
 461 009e 44F20933 		movw	r3, #:lower16:1073758985
 462 00a2 C4F20003 		movt	r3, #:upper16:1073758985
 463 00a6 6FF07B02 		mvn	r2, #123
 464 00aa 1A70     		strb	r2, [r3, #0]
 304:.\Generated_Source\PSoC5/cyfitter_cfg.c **** 	CY_SET_XTND_REG8((void CYFAR *)(CYREG_SLOWCLK_X32_CR), 0x01u);
 465              		.loc 1 304 0
 466 00ac 44F20833 		movw	r3, #:lower16:1073758984
 467 00b0 C4F20003 		movt	r3, #:upper16:1073758984
 468 00b4 4FF00102 		mov	r2, #1
 469 00b8 1A70     		strb	r2, [r3, #0]
 305:.\Generated_Source\PSoC5/cyfitter_cfg.c **** 	/* Wait up to 1000000us for the XTAL 32kHz to lock */
 306:.\Generated_Source\PSoC5/cyfitter_cfg.c **** 	for (timeout = 1000000u / 10u; (timeout > 0u) && ((CY_GET_XTND_REG8((void CYFAR *)CYREG_SLOWCLK_X3
 470              		.loc 1 306 0
 471 00ba 48F2A063 		movw	r3, #:lower16:100000
 472 00be C0F20103 		movt	r3, #:upper16:100000
 473 00c2 7B60     		str	r3, [r7, #4]
 474 00c4 07E0     		b	.L24
 475              	.L26:
 307:.\Generated_Source\PSoC5/cyfitter_cfg.c **** 		
 308:.\Generated_Source\PSoC5/cyfitter_cfg.c **** 		CyDelayCycles(10u * 12u); /* Delay 10us based on 12MHz clock */
 476              		.loc 1 308 0
 477 00c6 4FF07800 		mov	r0, #120
 478 00ca FFF7FEFF 		bl	CyDelayCycles
 479              		.loc 1 306 0
 480 00ce 7B68     		ldr	r3, [r7, #4]
 481 00d0 03F1FF33 		add	r3, r3, #-1
 482 00d4 7B60     		str	r3, [r7, #4]
 483              	.L24:
 484 00d6 7B68     		ldr	r3, [r7, #4]
 485 00d8 002B     		cmp	r3, #0
 486 00da 09D0     		beq	.L25
ARM GAS  C:\Users\bryan.lee\AppData\Local\Temp\ccsOdVkx.s 			page 15


 487 00dc 44F20833 		movw	r3, #:lower16:1073758984
 488 00e0 C4F20003 		movt	r3, #:upper16:1073758984
 489 00e4 1B78     		ldrb	r3, [r3, #0]
 490 00e6 DBB2     		uxtb	r3, r3
 491 00e8 03F02003 		and	r3, r3, #32
 492 00ec 002B     		cmp	r3, #0
 493 00ee EAD0     		beq	.L26
 494              	.L25:
 309:.\Generated_Source\PSoC5/cyfitter_cfg.c **** 	}
 310:.\Generated_Source\PSoC5/cyfitter_cfg.c **** 	CY_SET_XTND_REG8((void CYFAR *)(CYREG_X32_TR), (x32TrHold));
 495              		.loc 1 310 0
 496 00f0 44F29863 		movw	r3, #:lower16:1073759896
 497 00f4 C4F20003 		movt	r3, #:upper16:1073759896
 498 00f8 FA78     		ldrb	r2, [r7, #3]
 499 00fa 1A70     		strb	r2, [r3, #0]
 311:.\Generated_Source\PSoC5/cyfitter_cfg.c **** 
 312:.\Generated_Source\PSoC5/cyfitter_cfg.c **** 	/* Configure IMO based on settings from Clock DWR */
 313:.\Generated_Source\PSoC5/cyfitter_cfg.c **** 	CY_SET_XTND_REG8((void CYFAR *)(CYREG_FASTCLK_IMO_CR), 0x03u);
 500              		.loc 1 313 0
 501 00fc 44F20023 		movw	r3, #:lower16:1073758720
 502 0100 C4F20003 		movt	r3, #:upper16:1073758720
 503 0104 4FF00302 		mov	r2, #3
 504 0108 1A70     		strb	r2, [r3, #0]
 314:.\Generated_Source\PSoC5/cyfitter_cfg.c **** 	CY_SET_XTND_REG8((void CYFAR *)(CYREG_IMO_TR1), (CY_GET_XTND_REG8((void CYFAR *)CYREG_FLSHID_CUST_
 505              		.loc 1 314 0
 506 010a 44F2A163 		movw	r3, #:lower16:1073759905
 507 010e C4F20003 		movt	r3, #:upper16:1073759905
 508 0112 40F20812 		movw	r2, #:lower16:1224737032
 509 0116 C4F60012 		movt	r2, #:upper16:1224737032
 510 011a 1278     		ldrb	r2, [r2, #0]
 511 011c D2B2     		uxtb	r2, r2
 512 011e 1A70     		strb	r2, [r3, #0]
 315:.\Generated_Source\PSoC5/cyfitter_cfg.c **** 
 316:.\Generated_Source\PSoC5/cyfitter_cfg.c **** 	/* Configure PLL based on settings from Clock DWR */
 317:.\Generated_Source\PSoC5/cyfitter_cfg.c **** 	CY_SET_XTND_REG16((void CYFAR *)(CYREG_FASTCLK_PLL_P), 0x0010u);
 513              		.loc 1 317 0
 514 0120 44F22223 		movw	r3, #:lower16:1073758754
 515 0124 C4F20003 		movt	r3, #:upper16:1073758754
 516 0128 4FF01002 		mov	r2, #16
 517 012c 1A80     		strh	r2, [r3, #0]	@ movhi
 318:.\Generated_Source\PSoC5/cyfitter_cfg.c **** 	CY_SET_XTND_REG16((void CYFAR *)(CYREG_FASTCLK_PLL_CFG0), 0x1051u);
 518              		.loc 1 318 0
 519 012e 44F22023 		movw	r3, #:lower16:1073758752
 520 0132 C4F20003 		movt	r3, #:upper16:1073758752
 521 0136 41F25102 		movw	r2, #4177
 522 013a 1A80     		strh	r2, [r3, #0]	@ movhi
 319:.\Generated_Source\PSoC5/cyfitter_cfg.c **** 	/* Wait 250us for the PLL to lock */
 320:.\Generated_Source\PSoC5/cyfitter_cfg.c **** 	CyDelayCycles(250u * 12u); /* Delay 250us based on 12MHz clock */
 523              		.loc 1 320 0
 524 013c 40F6B830 		movw	r0, #3000
 525 0140 FFF7FEFF 		bl	CyDelayCycles
 321:.\Generated_Source\PSoC5/cyfitter_cfg.c **** 
 322:.\Generated_Source\PSoC5/cyfitter_cfg.c **** 	/* Configure Bus/Master Clock based on settings from Clock DWR */
 323:.\Generated_Source\PSoC5/cyfitter_cfg.c **** 	CY_SET_XTND_REG8((void CYFAR *)(CYREG_CLKDIST_MSTR0), 0x03u);
 526              		.loc 1 323 0
 527 0144 44F20403 		movw	r3, #:lower16:1073758212
 528 0148 C4F20003 		movt	r3, #:upper16:1073758212
ARM GAS  C:\Users\bryan.lee\AppData\Local\Temp\ccsOdVkx.s 			page 16


 529 014c 4FF00302 		mov	r2, #3
 530 0150 1A70     		strb	r2, [r3, #0]
 324:.\Generated_Source\PSoC5/cyfitter_cfg.c **** 	CY_SET_XTND_REG8((void CYFAR *)(CYREG_CLKDIST_MSTR1), 0x01u);
 531              		.loc 1 324 0
 532 0152 44F20503 		movw	r3, #:lower16:1073758213
 533 0156 C4F20003 		movt	r3, #:upper16:1073758213
 534 015a 4FF00102 		mov	r2, #1
 535 015e 1A70     		strb	r2, [r3, #0]
 325:.\Generated_Source\PSoC5/cyfitter_cfg.c **** 	CY_SET_XTND_REG8((void CYFAR *)(CYREG_CLKDIST_MSTR0), 0x00u);
 536              		.loc 1 325 0
 537 0160 44F20403 		movw	r3, #:lower16:1073758212
 538 0164 C4F20003 		movt	r3, #:upper16:1073758212
 539 0168 4FF00002 		mov	r2, #0
 540 016c 1A70     		strb	r2, [r3, #0]
 326:.\Generated_Source\PSoC5/cyfitter_cfg.c **** 	CY_SET_XTND_REG8((void CYFAR *)(CYREG_CLKDIST_MSTR0), 0x07u);
 541              		.loc 1 326 0
 542 016e 44F20403 		movw	r3, #:lower16:1073758212
 543 0172 C4F20003 		movt	r3, #:upper16:1073758212
 544 0176 4FF00702 		mov	r2, #7
 545 017a 1A70     		strb	r2, [r3, #0]
 327:.\Generated_Source\PSoC5/cyfitter_cfg.c **** 	CY_SET_XTND_REG8((void CYFAR *)(CYREG_CLKDIST_BCFG0), 0x00u);
 546              		.loc 1 327 0
 547 017c 44F20603 		movw	r3, #:lower16:1073758214
 548 0180 C4F20003 		movt	r3, #:upper16:1073758214
 549 0184 4FF00002 		mov	r2, #0
 550 0188 1A70     		strb	r2, [r3, #0]
 328:.\Generated_Source\PSoC5/cyfitter_cfg.c **** 	CY_SET_XTND_REG8((void CYFAR *)(CYREG_CLKDIST_BCFG2), 0x48u);
 551              		.loc 1 328 0
 552 018a 44F20803 		movw	r3, #:lower16:1073758216
 553 018e C4F20003 		movt	r3, #:upper16:1073758216
 554 0192 4FF04802 		mov	r2, #72
 555 0196 1A70     		strb	r2, [r3, #0]
 329:.\Generated_Source\PSoC5/cyfitter_cfg.c **** 	CY_SET_XTND_REG8((void CYFAR *)(CYREG_CLKDIST_MSTR0), 0x00u);
 556              		.loc 1 329 0
 557 0198 44F20403 		movw	r3, #:lower16:1073758212
 558 019c C4F20003 		movt	r3, #:upper16:1073758212
 559 01a0 4FF00002 		mov	r2, #0
 560 01a4 1A70     		strb	r2, [r3, #0]
 330:.\Generated_Source\PSoC5/cyfitter_cfg.c **** 	CY_SET_XTND_REG8((void CYFAR *)(CYREG_CLKDIST_LD), 0x02u);
 561              		.loc 1 330 0
 562 01a6 44F20103 		movw	r3, #:lower16:1073758209
 563 01aa C4F20003 		movt	r3, #:upper16:1073758209
 564 01ae 4FF00202 		mov	r2, #2
 565 01b2 1A70     		strb	r2, [r3, #0]
 331:.\Generated_Source\PSoC5/cyfitter_cfg.c **** 
 332:.\Generated_Source\PSoC5/cyfitter_cfg.c **** 	CY_SET_XTND_REG8((void CYFAR *)(CYREG_PM_ACT_CFG2), ((CY_GET_XTND_REG8((void CYFAR *)CYREG_PM_ACT_
 566              		.loc 1 332 0
 567 01b4 44F2A233 		movw	r3, #:lower16:1073759138
 568 01b8 C4F20003 		movt	r3, #:upper16:1073759138
 569 01bc 44F2A232 		movw	r2, #:lower16:1073759138
 570 01c0 C4F20002 		movt	r2, #:upper16:1073759138
 571 01c4 1278     		ldrb	r2, [r2, #0]
 572 01c6 D2B2     		uxtb	r2, r2
 573 01c8 42F00702 		orr	r2, r2, #7
 574 01cc D2B2     		uxtb	r2, r2
 575 01ce 1A70     		strb	r2, [r3, #0]
 333:.\Generated_Source\PSoC5/cyfitter_cfg.c **** }
ARM GAS  C:\Users\bryan.lee\AppData\Local\Temp\ccsOdVkx.s 			page 17


 576              		.loc 1 333 0
 577 01d0 07F10807 		add	r7, r7, #8
 578 01d4 BD46     		mov	sp, r7
 579 01d6 80BD     		pop	{r7, pc}
 580              		.cfi_endproc
 581              	.LFE7:
 582              		.size	ClockSetup, .-ClockSetup
 583              		.section	.text.AnalogSetDefault,"ax",%progbits
 584              		.align	2
 585              		.thumb
 586              		.thumb_func
 587              		.type	AnalogSetDefault, %function
 588              	AnalogSetDefault:
 589              	.LFB8:
 334:.\Generated_Source\PSoC5/cyfitter_cfg.c **** 
 335:.\Generated_Source\PSoC5/cyfitter_cfg.c **** 
 336:.\Generated_Source\PSoC5/cyfitter_cfg.c **** /* Analog API Functions */
 337:.\Generated_Source\PSoC5/cyfitter_cfg.c **** 
 338:.\Generated_Source\PSoC5/cyfitter_cfg.c **** 
 339:.\Generated_Source\PSoC5/cyfitter_cfg.c **** /*******************************************************************************
 340:.\Generated_Source\PSoC5/cyfitter_cfg.c **** * Function Name: AnalogSetDefault
 341:.\Generated_Source\PSoC5/cyfitter_cfg.c **** ********************************************************************************
 342:.\Generated_Source\PSoC5/cyfitter_cfg.c **** *
 343:.\Generated_Source\PSoC5/cyfitter_cfg.c **** * Summary:
 344:.\Generated_Source\PSoC5/cyfitter_cfg.c **** *  Sets up the analog portions of the chip to default values based on chip
 345:.\Generated_Source\PSoC5/cyfitter_cfg.c **** *  configuration options from the project.
 346:.\Generated_Source\PSoC5/cyfitter_cfg.c **** *
 347:.\Generated_Source\PSoC5/cyfitter_cfg.c **** * Parameters:
 348:.\Generated_Source\PSoC5/cyfitter_cfg.c **** *  void
 349:.\Generated_Source\PSoC5/cyfitter_cfg.c **** *
 350:.\Generated_Source\PSoC5/cyfitter_cfg.c **** * Return:
 351:.\Generated_Source\PSoC5/cyfitter_cfg.c **** *  void
 352:.\Generated_Source\PSoC5/cyfitter_cfg.c **** *
 353:.\Generated_Source\PSoC5/cyfitter_cfg.c **** *******************************************************************************/
 354:.\Generated_Source\PSoC5/cyfitter_cfg.c **** static void AnalogSetDefault(void);
 355:.\Generated_Source\PSoC5/cyfitter_cfg.c **** static void AnalogSetDefault(void)
 356:.\Generated_Source\PSoC5/cyfitter_cfg.c **** {
 590              		.loc 1 356 0
 591              		.cfi_startproc
 592              		@ args = 0, pretend = 0, frame = 0
 593              		@ frame_needed = 1, uses_anonymous_args = 0
 594              		@ link register save eliminated.
 595 0000 80B4     		push	{r7}
 596              	.LCFI24:
 597              		.cfi_def_cfa_offset 4
 598 0002 00AF     		add	r7, sp, #0
 599              		.cfi_offset 7, -4
 600              	.LCFI25:
 601              		.cfi_def_cfa_register 7
 357:.\Generated_Source\PSoC5/cyfitter_cfg.c **** 	CY_SET_XTND_REG16((void CYFAR *)CYREG_PM_ACT_CFG10, 0x0310u);
 602              		.loc 1 357 0
 603 0004 44F2AA33 		movw	r3, #:lower16:1073759146
 604 0008 C4F20003 		movt	r3, #:upper16:1073759146
 605 000c 4FF44472 		mov	r2, #784
 606 0010 1A80     		strh	r2, [r3, #0]	@ movhi
 358:.\Generated_Source\PSoC5/cyfitter_cfg.c **** 	CY_SET_XTND_REG8((void CYFAR *)CYREG_PRT4_AG, 0xE0u);
 607              		.loc 1 358 0
ARM GAS  C:\Users\bryan.lee\AppData\Local\Temp\ccsOdVkx.s 			page 18


 608 0012 45F24D13 		movw	r3, #:lower16:1073762637
 609 0016 C4F20003 		movt	r3, #:upper16:1073762637
 610 001a 6FF01F02 		mvn	r2, #31
 611 001e 1A70     		strb	r2, [r3, #0]
 359:.\Generated_Source\PSoC5/cyfitter_cfg.c **** 	CY_SET_XTND_REG8((void CYFAR *)CYREG_PRT6_AG, 0x0Du);
 612              		.loc 1 359 0
 613 0020 45F26D13 		movw	r3, #:lower16:1073762669
 614 0024 C4F20003 		movt	r3, #:upper16:1073762669
 615 0028 4FF00D02 		mov	r2, #13
 616 002c 1A70     		strb	r2, [r3, #0]
 360:.\Generated_Source\PSoC5/cyfitter_cfg.c **** 	CY_SET_XTND_REG8((void CYFAR *)CYREG_DAC0_CR0, 0x1Eu);
 617              		.loc 1 360 0
 618 002e 45F62003 		movw	r3, #:lower16:1073764384
 619 0032 C4F20003 		movt	r3, #:upper16:1073764384
 620 0036 4FF01E02 		mov	r2, #30
 621 003a 1A70     		strb	r2, [r3, #0]
 361:.\Generated_Source\PSoC5/cyfitter_cfg.c **** 	CY_SET_XTND_REG8((void CYFAR *)CYREG_DAC1_CR0, 0x1Eu);
 622              		.loc 1 361 0
 623 003c 45F62403 		movw	r3, #:lower16:1073764388
 624 0040 C4F20003 		movt	r3, #:upper16:1073764388
 625 0044 4FF01E02 		mov	r2, #30
 626 0048 1A70     		strb	r2, [r3, #0]
 362:.\Generated_Source\PSoC5/cyfitter_cfg.c **** 	CY_SET_XTND_REG8((void CYFAR *)CYREG_DAC2_CR0, 0x1Eu);
 627              		.loc 1 362 0
 628 004a 45F62803 		movw	r3, #:lower16:1073764392
 629 004e C4F20003 		movt	r3, #:upper16:1073764392
 630 0052 4FF01E02 		mov	r2, #30
 631 0056 1A70     		strb	r2, [r3, #0]
 363:.\Generated_Source\PSoC5/cyfitter_cfg.c **** 	CY_SET_XTND_REG8((void CYFAR *)CYREG_DAC3_CR0, 0x1Eu);
 632              		.loc 1 363 0
 633 0058 45F62C03 		movw	r3, #:lower16:1073764396
 634 005c C4F20003 		movt	r3, #:upper16:1073764396
 635 0060 4FF01E02 		mov	r2, #30
 636 0064 1A70     		strb	r2, [r3, #0]
 364:.\Generated_Source\PSoC5/cyfitter_cfg.c **** 	CY_SET_XTND_REG8((void CYFAR *)CYREG_SAR0_CSR0, 0xC0u);
 637              		.loc 1 364 0
 638 0066 45F60013 		movw	r3, #:lower16:1073764608
 639 006a C4F20003 		movt	r3, #:upper16:1073764608
 640 006e 6FF03F02 		mvn	r2, #63
 641 0072 1A70     		strb	r2, [r3, #0]
 365:.\Generated_Source\PSoC5/cyfitter_cfg.c **** 	CY_SET_XTND_REG8((void CYFAR *)CYREG_SAR0_CSR3, 0x0Cu);
 642              		.loc 1 365 0
 643 0074 45F60313 		movw	r3, #:lower16:1073764611
 644 0078 C4F20003 		movt	r3, #:upper16:1073764611
 645 007c 4FF00C02 		mov	r2, #12
 646 0080 1A70     		strb	r2, [r3, #0]
 366:.\Generated_Source\PSoC5/cyfitter_cfg.c **** 	CY_SET_XTND_REG8((void CYFAR *)CYREG_SAR1_CSR0, 0xC0u);
 647              		.loc 1 366 0
 648 0082 45F60813 		movw	r3, #:lower16:1073764616
 649 0086 C4F20003 		movt	r3, #:upper16:1073764616
 650 008a 6FF03F02 		mvn	r2, #63
 651 008e 1A70     		strb	r2, [r3, #0]
 367:.\Generated_Source\PSoC5/cyfitter_cfg.c **** 	CY_SET_XTND_REG8((void CYFAR *)CYREG_SAR1_CSR3, 0x0Cu);
 652              		.loc 1 367 0
 653 0090 45F60B13 		movw	r3, #:lower16:1073764619
 654 0094 C4F20003 		movt	r3, #:upper16:1073764619
 655 0098 4FF00C02 		mov	r2, #12
ARM GAS  C:\Users\bryan.lee\AppData\Local\Temp\ccsOdVkx.s 			page 19


 656 009c 1A70     		strb	r2, [r3, #0]
 368:.\Generated_Source\PSoC5/cyfitter_cfg.c **** 	CY_SET_XTND_REG8((void CYFAR *)CYREG_SC0_SW4, 0x40u);
 657              		.loc 1 368 0
 658 009e 45F60423 		movw	r3, #:lower16:1073764868
 659 00a2 C4F20003 		movt	r3, #:upper16:1073764868
 660 00a6 4FF04002 		mov	r2, #64
 661 00aa 1A70     		strb	r2, [r3, #0]
 369:.\Generated_Source\PSoC5/cyfitter_cfg.c **** 	CY_SET_XTND_REG8((void CYFAR *)CYREG_SC0_SW8, 0x08u);
 662              		.loc 1 369 0
 663 00ac 45F60823 		movw	r3, #:lower16:1073764872
 664 00b0 C4F20003 		movt	r3, #:upper16:1073764872
 665 00b4 4FF00802 		mov	r2, #8
 666 00b8 1A70     		strb	r2, [r3, #0]
 370:.\Generated_Source\PSoC5/cyfitter_cfg.c **** 	CY_SET_XTND_REG8((void CYFAR *)CYREG_SC2_SW4, 0x20u);
 667              		.loc 1 370 0
 668 00ba 45F62423 		movw	r3, #:lower16:1073764900
 669 00be C4F20003 		movt	r3, #:upper16:1073764900
 670 00c2 4FF02002 		mov	r2, #32
 671 00c6 1A70     		strb	r2, [r3, #0]
 371:.\Generated_Source\PSoC5/cyfitter_cfg.c **** 	CY_SET_XTND_REG8((void CYFAR *)CYREG_SC2_SW8, 0x04u);
 672              		.loc 1 371 0
 673 00c8 45F62823 		movw	r3, #:lower16:1073764904
 674 00cc C4F20003 		movt	r3, #:upper16:1073764904
 675 00d0 4FF00402 		mov	r2, #4
 676 00d4 1A70     		strb	r2, [r3, #0]
 372:.\Generated_Source\PSoC5/cyfitter_cfg.c **** 	CY_SET_XTND_REG8((void CYFAR *)CYREG_SC3_SW4, 0x80u);
 677              		.loc 1 372 0
 678 00d6 45F63423 		movw	r3, #:lower16:1073764916
 679 00da C4F20003 		movt	r3, #:upper16:1073764916
 680 00de 6FF07F02 		mvn	r2, #127
 681 00e2 1A70     		strb	r2, [r3, #0]
 373:.\Generated_Source\PSoC5/cyfitter_cfg.c **** 	CY_SET_XTND_REG8((void CYFAR *)CYREG_SC3_SW8, 0x01u);
 682              		.loc 1 373 0
 683 00e4 45F63823 		movw	r3, #:lower16:1073764920
 684 00e8 C4F20003 		movt	r3, #:upper16:1073764920
 685 00ec 4FF00102 		mov	r2, #1
 686 00f0 1A70     		strb	r2, [r3, #0]
 374:.\Generated_Source\PSoC5/cyfitter_cfg.c **** 	CY_SET_XTND_REG8((void CYFAR *)CYREG_BUS_SW0, 0x81u);
 687              		.loc 1 374 0
 688 00f2 45F65833 		movw	r3, #:lower16:1073765208
 689 00f6 C4F20003 		movt	r3, #:upper16:1073765208
 690 00fa 6FF07E02 		mvn	r2, #126
 691 00fe 1A70     		strb	r2, [r3, #0]
 375:.\Generated_Source\PSoC5/cyfitter_cfg.c **** 	CY_SET_XTND_REG8((void CYFAR *)CYREG_PUMP_CR0, 0x44u);
 692              		.loc 1 375 0
 693 0100 45F67603 		movw	r3, #:lower16:1073764470
 694 0104 C4F20003 		movt	r3, #:upper16:1073764470
 695 0108 4FF04402 		mov	r2, #68
 696 010c 1A70     		strb	r2, [r3, #0]
 376:.\Generated_Source\PSoC5/cyfitter_cfg.c **** }
 697              		.loc 1 376 0
 698 010e BD46     		mov	sp, r7
 699 0110 80BC     		pop	{r7}
 700 0112 7047     		bx	lr
 701              		.cfi_endproc
 702              	.LFE8:
 703              		.size	AnalogSetDefault, .-AnalogSetDefault
ARM GAS  C:\Users\bryan.lee\AppData\Local\Temp\ccsOdVkx.s 			page 20


 704              		.section	.text.SetAnalogRoutingPumps,"ax",%progbits
 705              		.align	2
 706              		.global	SetAnalogRoutingPumps
 707              		.thumb
 708              		.thumb_func
 709              		.type	SetAnalogRoutingPumps, %function
 710              	SetAnalogRoutingPumps:
 711              	.LFB9:
 377:.\Generated_Source\PSoC5/cyfitter_cfg.c **** 
 378:.\Generated_Source\PSoC5/cyfitter_cfg.c **** 
 379:.\Generated_Source\PSoC5/cyfitter_cfg.c **** /*******************************************************************************
 380:.\Generated_Source\PSoC5/cyfitter_cfg.c **** * Function Name: SetAnalogRoutingPumps
 381:.\Generated_Source\PSoC5/cyfitter_cfg.c **** ********************************************************************************
 382:.\Generated_Source\PSoC5/cyfitter_cfg.c **** *
 383:.\Generated_Source\PSoC5/cyfitter_cfg.c **** * Summary:
 384:.\Generated_Source\PSoC5/cyfitter_cfg.c **** * Enables or disables the analog pumps feeding analog routing switches.
 385:.\Generated_Source\PSoC5/cyfitter_cfg.c **** * Intended to be called at startup, based on the Vdda system configuration;
 386:.\Generated_Source\PSoC5/cyfitter_cfg.c **** * may be called during operation when the user informs us that the Vdda voltage
 387:.\Generated_Source\PSoC5/cyfitter_cfg.c **** * crossed the pump threshold.
 388:.\Generated_Source\PSoC5/cyfitter_cfg.c **** *
 389:.\Generated_Source\PSoC5/cyfitter_cfg.c **** * Parameters:
 390:.\Generated_Source\PSoC5/cyfitter_cfg.c **** *  enabled - 1 to enable the pumps, 0 to disable the pumps
 391:.\Generated_Source\PSoC5/cyfitter_cfg.c **** *
 392:.\Generated_Source\PSoC5/cyfitter_cfg.c **** * Return:
 393:.\Generated_Source\PSoC5/cyfitter_cfg.c **** *  void
 394:.\Generated_Source\PSoC5/cyfitter_cfg.c **** *
 395:.\Generated_Source\PSoC5/cyfitter_cfg.c **** *******************************************************************************/
 396:.\Generated_Source\PSoC5/cyfitter_cfg.c **** void SetAnalogRoutingPumps(uint8 enabled)
 397:.\Generated_Source\PSoC5/cyfitter_cfg.c **** {
 712              		.loc 1 397 0
 713              		.cfi_startproc
 714              		@ args = 0, pretend = 0, frame = 16
 715              		@ frame_needed = 1, uses_anonymous_args = 0
 716              		@ link register save eliminated.
 717 0000 80B4     		push	{r7}
 718              	.LCFI26:
 719              		.cfi_def_cfa_offset 4
 720 0002 85B0     		sub	sp, sp, #20
 721              	.LCFI27:
 722              		.cfi_def_cfa_offset 24
 723 0004 00AF     		add	r7, sp, #0
 724              		.cfi_offset 7, -4
 725              	.LCFI28:
 726              		.cfi_def_cfa_register 7
 727 0006 0346     		mov	r3, r0
 728 0008 FB71     		strb	r3, [r7, #7]
 398:.\Generated_Source\PSoC5/cyfitter_cfg.c **** 	uint8 regValue = CY_GET_XTND_REG8((void CYFAR *)CYREG_PUMP_CR0);
 729              		.loc 1 398 0
 730 000a 45F67603 		movw	r3, #:lower16:1073764470
 731 000e C4F20003 		movt	r3, #:upper16:1073764470
 732 0012 1B78     		ldrb	r3, [r3, #0]
 733 0014 FB73     		strb	r3, [r7, #15]
 399:.\Generated_Source\PSoC5/cyfitter_cfg.c **** 	if (enabled != 0u)
 734              		.loc 1 399 0
 735 0016 FB79     		ldrb	r3, [r7, #7]	@ zero_extendqisi2
 736 0018 002B     		cmp	r3, #0
 737 001a 04D0     		beq	.L31
ARM GAS  C:\Users\bryan.lee\AppData\Local\Temp\ccsOdVkx.s 			page 21


 400:.\Generated_Source\PSoC5/cyfitter_cfg.c **** 	{
 401:.\Generated_Source\PSoC5/cyfitter_cfg.c **** 		regValue |= 0x22u;
 738              		.loc 1 401 0
 739 001c FB7B     		ldrb	r3, [r7, #15]
 740 001e 43F02203 		orr	r3, r3, #34
 741 0022 FB73     		strb	r3, [r7, #15]
 742 0024 03E0     		b	.L32
 743              	.L31:
 402:.\Generated_Source\PSoC5/cyfitter_cfg.c **** 	}
 403:.\Generated_Source\PSoC5/cyfitter_cfg.c **** 	else
 404:.\Generated_Source\PSoC5/cyfitter_cfg.c **** 	{
 405:.\Generated_Source\PSoC5/cyfitter_cfg.c **** 		regValue &= (uint8)~0x22u;
 744              		.loc 1 405 0
 745 0026 FB7B     		ldrb	r3, [r7, #15]
 746 0028 23F02203 		bic	r3, r3, #34
 747 002c FB73     		strb	r3, [r7, #15]
 748              	.L32:
 406:.\Generated_Source\PSoC5/cyfitter_cfg.c **** 	}
 407:.\Generated_Source\PSoC5/cyfitter_cfg.c **** 	CY_SET_XTND_REG8((void CYFAR *)CYREG_PUMP_CR0, regValue);
 749              		.loc 1 407 0
 750 002e 45F67603 		movw	r3, #:lower16:1073764470
 751 0032 C4F20003 		movt	r3, #:upper16:1073764470
 752 0036 FA7B     		ldrb	r2, [r7, #15]
 753 0038 1A70     		strb	r2, [r3, #0]
 408:.\Generated_Source\PSoC5/cyfitter_cfg.c **** }
 754              		.loc 1 408 0
 755 003a 07F11407 		add	r7, r7, #20
 756 003e BD46     		mov	sp, r7
 757 0040 80BC     		pop	{r7}
 758 0042 7047     		bx	lr
 759              		.cfi_endproc
 760              	.LFE9:
 761              		.size	SetAnalogRoutingPumps, .-SetAnalogRoutingPumps
 762              		.section	.text.cyfitter_cfg,"ax",%progbits
 763              		.align	2
 764              		.global	cyfitter_cfg
 765              		.thumb
 766              		.thumb_func
 767              		.type	cyfitter_cfg, %function
 768              	cyfitter_cfg:
 769              	.LFB10:
 409:.\Generated_Source\PSoC5/cyfitter_cfg.c **** 
 410:.\Generated_Source\PSoC5/cyfitter_cfg.c **** #define CY_AMUX_UNUSED CYREG_BOOST_SR
 411:.\Generated_Source\PSoC5/cyfitter_cfg.c **** 
 412:.\Generated_Source\PSoC5/cyfitter_cfg.c **** 
 413:.\Generated_Source\PSoC5/cyfitter_cfg.c **** /*******************************************************************************
 414:.\Generated_Source\PSoC5/cyfitter_cfg.c **** * Function Name: cyfitter_cfg
 415:.\Generated_Source\PSoC5/cyfitter_cfg.c **** ********************************************************************************
 416:.\Generated_Source\PSoC5/cyfitter_cfg.c **** * Summary:
 417:.\Generated_Source\PSoC5/cyfitter_cfg.c **** *  This function is called by the start-up code for the selected device. It
 418:.\Generated_Source\PSoC5/cyfitter_cfg.c **** *  performs all of the necessary device configuration based on the design
 419:.\Generated_Source\PSoC5/cyfitter_cfg.c **** *  settings.  This includes settings from the Design Wide Resources (DWR) such
 420:.\Generated_Source\PSoC5/cyfitter_cfg.c **** *  as Clocks and Pins as well as any component configuration that is necessary.
 421:.\Generated_Source\PSoC5/cyfitter_cfg.c **** *
 422:.\Generated_Source\PSoC5/cyfitter_cfg.c **** * Parameters:  
 423:.\Generated_Source\PSoC5/cyfitter_cfg.c **** *   void
 424:.\Generated_Source\PSoC5/cyfitter_cfg.c **** *
ARM GAS  C:\Users\bryan.lee\AppData\Local\Temp\ccsOdVkx.s 			page 22


 425:.\Generated_Source\PSoC5/cyfitter_cfg.c **** * Return:
 426:.\Generated_Source\PSoC5/cyfitter_cfg.c **** *   void
 427:.\Generated_Source\PSoC5/cyfitter_cfg.c **** *
 428:.\Generated_Source\PSoC5/cyfitter_cfg.c **** *******************************************************************************/
 429:.\Generated_Source\PSoC5/cyfitter_cfg.c **** 
 430:.\Generated_Source\PSoC5/cyfitter_cfg.c **** void cyfitter_cfg(void)
 431:.\Generated_Source\PSoC5/cyfitter_cfg.c **** {
 770              		.loc 1 431 0
 771              		.cfi_startproc
 772              		@ args = 0, pretend = 0, frame = 8
 773              		@ frame_needed = 1, uses_anonymous_args = 0
 774 0000 80B5     		push	{r7, lr}
 775              	.LCFI29:
 776              		.cfi_def_cfa_offset 8
 777 0002 82B0     		sub	sp, sp, #8
 778              	.LCFI30:
 779              		.cfi_def_cfa_offset 16
 780 0004 00AF     		add	r7, sp, #0
 781              		.cfi_offset 14, -4
 782              		.cfi_offset 7, -8
 783              	.LCFI31:
 784              		.cfi_def_cfa_register 7
 432:.\Generated_Source\PSoC5/cyfitter_cfg.c **** #ifdef CYGlobalIntDisable
 433:.\Generated_Source\PSoC5/cyfitter_cfg.c **** 	/* Disable interrupts by default. Let user enable if/when they want. */
 434:.\Generated_Source\PSoC5/cyfitter_cfg.c **** 	CYGlobalIntDisable
 785              		.loc 1 434 0
 786              	@ 434 ".\Generated_Source\PSoC5\cyfitter_cfg.c" 1
 787 0006 72B6     		CPSID   i
 788              	@ 0 "" 2
 435:.\Generated_Source\PSoC5/cyfitter_cfg.c **** #endif
 436:.\Generated_Source\PSoC5/cyfitter_cfg.c **** 
 437:.\Generated_Source\PSoC5/cyfitter_cfg.c **** 
 438:.\Generated_Source\PSoC5/cyfitter_cfg.c **** 	/* Set Flash Cycles based on max possible frequency in case a glitch occurs during ClockSetup(). *
 439:.\Generated_Source\PSoC5/cyfitter_cfg.c **** 	CY_SET_XTND_REG8((void CYFAR *)(CYREG_CACHE_CC_CTL), (((CYDEV_INSTRUCT_CACHE_ENABLED) != 0) ? 0x00
 789              		.loc 1 439 0
 790              		.thumb
 791 0008 44F60003 		movw	r3, #:lower16:1073760256
 792 000c C4F20003 		movt	r3, #:upper16:1073760256
 793 0010 4FF00002 		mov	r2, #0
 794 0014 1A70     		strb	r2, [r3, #0]
 440:.\Generated_Source\PSoC5/cyfitter_cfg.c **** 	/* Setup clocks based on selections from Clock DWR */
 441:.\Generated_Source\PSoC5/cyfitter_cfg.c **** 	ClockSetup();
 795              		.loc 1 441 0
 796 0016 FFF7FEFF 		bl	ClockSetup
 442:.\Generated_Source\PSoC5/cyfitter_cfg.c **** 	/* Set Flash Cycles based on newly configured 48.00MHz Bus Clock. */
 443:.\Generated_Source\PSoC5/cyfitter_cfg.c **** 	CY_SET_XTND_REG8((void CYFAR *)(CYREG_CACHE_CC_CTL), (((CYDEV_INSTRUCT_CACHE_ENABLED) != 0) ? 0xC0
 797              		.loc 1 443 0
 798 001a 44F60003 		movw	r3, #:lower16:1073760256
 799 001e C4F20003 		movt	r3, #:upper16:1073760256
 800 0022 6FF03F02 		mvn	r2, #63
 801 0026 1A70     		strb	r2, [r3, #0]
 444:.\Generated_Source\PSoC5/cyfitter_cfg.c **** 
 445:.\Generated_Source\PSoC5/cyfitter_cfg.c **** 	/* Disable DMA channels so they can be configured for chip initialization */
 446:.\Generated_Source\PSoC5/cyfitter_cfg.c **** 	CY_SET_XTND_REG8((void CYFAR *)(CYREG_PHUB_CH0_BASIC_CFG), 0x00u);
 802              		.loc 1 446 0
 803 0028 47F21003 		movw	r3, #:lower16:1073770512
 804 002c C4F20003 		movt	r3, #:upper16:1073770512
ARM GAS  C:\Users\bryan.lee\AppData\Local\Temp\ccsOdVkx.s 			page 23


 805 0030 4FF00002 		mov	r2, #0
 806 0034 1A70     		strb	r2, [r3, #0]
 447:.\Generated_Source\PSoC5/cyfitter_cfg.c **** 	CY_SET_XTND_REG8((void CYFAR *)(CYREG_PHUB_CH1_BASIC_CFG), 0x00u);
 807              		.loc 1 447 0
 808 0036 47F22003 		movw	r3, #:lower16:1073770528
 809 003a C4F20003 		movt	r3, #:upper16:1073770528
 810 003e 4FF00002 		mov	r2, #0
 811 0042 1A70     		strb	r2, [r3, #0]
 448:.\Generated_Source\PSoC5/cyfitter_cfg.c **** 
 449:.\Generated_Source\PSoC5/cyfitter_cfg.c **** 	/* Enable analog pulldown switches */
 450:.\Generated_Source\PSoC5/cyfitter_cfg.c **** 	CY_SET_XTND_REG8((void CYFAR *)(CYREG_ANAIF_CFG_MISC_CR0), 0x01u);
 812              		.loc 1 450 0
 813 0044 45F67C03 		movw	r3, #:lower16:1073764476
 814 0048 C4F20003 		movt	r3, #:upper16:1073764476
 815 004c 4FF00102 		mov	r2, #1
 816 0050 1A70     		strb	r2, [r3, #0]
 451:.\Generated_Source\PSoC5/cyfitter_cfg.c **** 
 452:.\Generated_Source\PSoC5/cyfitter_cfg.c **** 	/* Enable/Disable Debug functionality based on settings from System DWR */
 453:.\Generated_Source\PSoC5/cyfitter_cfg.c **** 	CY_SET_XTND_REG8((void CYFAR *)CYREG_MLOGIC_DBG_DBE, (CY_GET_XTND_REG8((void CYFAR *)CYREG_MLOGIC_
 817              		.loc 1 453 0
 818 0052 44F2E863 		movw	r3, #:lower16:1073759976
 819 0056 C4F20003 		movt	r3, #:upper16:1073759976
 820 005a 44F2E862 		movw	r2, #:lower16:1073759976
 821 005e C4F20002 		movt	r2, #:upper16:1073759976
 822 0062 1278     		ldrb	r2, [r2, #0]
 823 0064 D2B2     		uxtb	r2, r2
 824 0066 42F00102 		orr	r2, r2, #1
 825 006a D2B2     		uxtb	r2, r2
 826 006c 1A70     		strb	r2, [r3, #0]
 827              	.LBB3:
 454:.\Generated_Source\PSoC5/cyfitter_cfg.c **** 
 455:.\Generated_Source\PSoC5/cyfitter_cfg.c **** 	{
 456:.\Generated_Source\PSoC5/cyfitter_cfg.c **** 
 457:.\Generated_Source\PSoC5/cyfitter_cfg.c **** 		typedef struct {
 458:.\Generated_Source\PSoC5/cyfitter_cfg.c **** 			void CYFAR *address;
 459:.\Generated_Source\PSoC5/cyfitter_cfg.c **** 			uint16 size;
 460:.\Generated_Source\PSoC5/cyfitter_cfg.c **** 		} CYPACKED cfg_memset_t;
 461:.\Generated_Source\PSoC5/cyfitter_cfg.c **** 
 462:.\Generated_Source\PSoC5/cyfitter_cfg.c **** 		static const cfg_memset_t CYCODE cfg_memset_list [] = {
 463:.\Generated_Source\PSoC5/cyfitter_cfg.c **** 			/* address, size */
 464:.\Generated_Source\PSoC5/cyfitter_cfg.c **** 			{(void CYFAR *)(CYREG_TMR0_CFG0), 11u},
 465:.\Generated_Source\PSoC5/cyfitter_cfg.c **** 			{(void CYFAR *)(CYREG_PRT1_DR), 16u},
 466:.\Generated_Source\PSoC5/cyfitter_cfg.c **** 			{(void CYFAR *)(CYREG_PRT12_DR), 16u},
 467:.\Generated_Source\PSoC5/cyfitter_cfg.c **** 			{(void CYFAR *)(CYREG_PRT15_DR), 16u},
 468:.\Generated_Source\PSoC5/cyfitter_cfg.c **** 			{(void CYFAR *)(CYDEV_UCFG_B0_P0_U0_BASE), 4096u},
 469:.\Generated_Source\PSoC5/cyfitter_cfg.c **** 			{(void CYFAR *)(CYDEV_UCFG_B1_P2_U0_BASE), 2048u},
 470:.\Generated_Source\PSoC5/cyfitter_cfg.c **** 			{(void CYFAR *)(CYDEV_UCFG_DSI0_BASE), 2560u},
 471:.\Generated_Source\PSoC5/cyfitter_cfg.c **** 			{(void CYFAR *)(CYDEV_UCFG_DSI12_BASE), 512u},
 472:.\Generated_Source\PSoC5/cyfitter_cfg.c **** 		};
 473:.\Generated_Source\PSoC5/cyfitter_cfg.c **** 
 474:.\Generated_Source\PSoC5/cyfitter_cfg.c **** 		uint8 CYDATA i;
 475:.\Generated_Source\PSoC5/cyfitter_cfg.c **** 
 476:.\Generated_Source\PSoC5/cyfitter_cfg.c **** 		/* Zero out critical memory blocks before beginning configuration */
 477:.\Generated_Source\PSoC5/cyfitter_cfg.c **** 		for (i = 0u; i < (sizeof(cfg_memset_list)/sizeof(cfg_memset_list[0])); i++)
 828              		.loc 1 477 0
 829 006e 4FF00003 		mov	r3, #0
 830 0072 FB70     		strb	r3, [r7, #3]
ARM GAS  C:\Users\bryan.lee\AppData\Local\Temp\ccsOdVkx.s 			page 24


 831 0074 2FE0     		b	.L35
 832              	.L36:
 833              	.LBB4:
 478:.\Generated_Source\PSoC5/cyfitter_cfg.c **** 		{
 479:.\Generated_Source\PSoC5/cyfitter_cfg.c **** 			const cfg_memset_t CYCODE * CYDATA ms = &cfg_memset_list[i];
 834              		.loc 1 479 0
 835 0076 FA78     		ldrb	r2, [r7, #3]	@ zero_extendqisi2
 836 0078 1346     		mov	r3, r2
 837 007a 4FEA4303 		lsl	r3, r3, #1
 838 007e 1344     		add	r3, r3, r2
 839 0080 4FEA4303 		lsl	r3, r3, #1
 840 0084 1A46     		mov	r2, r3
 841 0086 40F20003 		movw	r3, #:lower16:cfg_memset_list.2129
 842 008a C0F20003 		movt	r3, #:upper16:cfg_memset_list.2129
 843 008e 1344     		add	r3, r2, r3
 844 0090 7B60     		str	r3, [r7, #4]
 480:.\Generated_Source\PSoC5/cyfitter_cfg.c **** 			CYMEMZERO(ms->address, (uint32)(ms->size));
 845              		.loc 1 480 0
 846 0092 7B68     		ldr	r3, [r7, #4]
 847 0094 1A78     		ldrb	r2, [r3, #0]	@ zero_extendqisi2
 848 0096 5978     		ldrb	r1, [r3, #1]	@ zero_extendqisi2
 849 0098 4FEA0121 		lsl	r1, r1, #8
 850 009c 41EA0202 		orr	r2, r1, r2
 851 00a0 9978     		ldrb	r1, [r3, #2]	@ zero_extendqisi2
 852 00a2 4FEA0141 		lsl	r1, r1, #16
 853 00a6 41EA0202 		orr	r2, r1, r2
 854 00aa DB78     		ldrb	r3, [r3, #3]	@ zero_extendqisi2
 855 00ac 4FEA0363 		lsl	r3, r3, #24
 856 00b0 43EA0203 		orr	r3, r3, r2
 857 00b4 1A46     		mov	r2, r3
 858 00b6 7B68     		ldr	r3, [r7, #4]
 859 00b8 1979     		ldrb	r1, [r3, #4]	@ zero_extendqisi2
 860 00ba 5B79     		ldrb	r3, [r3, #5]	@ zero_extendqisi2
 861 00bc 4FEA0323 		lsl	r3, r3, #8
 862 00c0 43EA0103 		orr	r3, r3, r1
 863 00c4 9BB2     		uxth	r3, r3
 864 00c6 1046     		mov	r0, r2
 865 00c8 1946     		mov	r1, r3
 866 00ca FFF7FEFF 		bl	CYMEMZERO
 867              	.LBE4:
 868              		.loc 1 477 0
 869 00ce FB78     		ldrb	r3, [r7, #3]
 870 00d0 03F10103 		add	r3, r3, #1
 871 00d4 FB70     		strb	r3, [r7, #3]
 872              	.L35:
 873 00d6 FB78     		ldrb	r3, [r7, #3]	@ zero_extendqisi2
 874 00d8 072B     		cmp	r3, #7
 875 00da CCD9     		bls	.L36
 481:.\Generated_Source\PSoC5/cyfitter_cfg.c **** 		}
 482:.\Generated_Source\PSoC5/cyfitter_cfg.c **** 
 483:.\Generated_Source\PSoC5/cyfitter_cfg.c **** 		cfg_write_bytes32(cy_cfg_addr_table, cy_cfg_data_table);
 876              		.loc 1 483 0
 877 00dc 4FF09040 		mov	r0, #1207959552
 878 00e0 40F27C01 		movw	r1, #:lower16:1207959676
 879 00e4 C4F60001 		movt	r1, #:upper16:1207959676
 880 00e8 FFF7FEFF 		bl	cfg_write_bytes32
 484:.\Generated_Source\PSoC5/cyfitter_cfg.c **** 
ARM GAS  C:\Users\bryan.lee\AppData\Local\Temp\ccsOdVkx.s 			page 25


 485:.\Generated_Source\PSoC5/cyfitter_cfg.c **** 		/* Perform normal device configuration. Order is not critical for these items. */
 486:.\Generated_Source\PSoC5/cyfitter_cfg.c **** 		CYMEMZERO8((void CYFAR *)(CYDEV_PRTDSI_PRT0_BASE), 7u);
 881              		.loc 1 486 0
 882 00ec 45F20020 		movw	r0, #:lower16:1073762816
 883 00f0 C4F20000 		movt	r0, #:upper16:1073762816
 884 00f4 4FF00701 		mov	r1, #7
 885 00f8 FFF7FEFF 		bl	CYMEMZERO8
 487:.\Generated_Source\PSoC5/cyfitter_cfg.c **** 		CYMEMZERO8((void CYFAR *)(CYDEV_PRTDSI_PRT1_BASE), 7u);
 886              		.loc 1 487 0
 887 00fc 45F20820 		movw	r0, #:lower16:1073762824
 888 0100 C4F20000 		movt	r0, #:upper16:1073762824
 889 0104 4FF00701 		mov	r1, #7
 890 0108 FFF7FEFF 		bl	CYMEMZERO8
 488:.\Generated_Source\PSoC5/cyfitter_cfg.c **** 		CYMEMZERO8((void CYFAR *)(CYDEV_PRTDSI_PRT2_BASE), 7u);
 891              		.loc 1 488 0
 892 010c 45F21020 		movw	r0, #:lower16:1073762832
 893 0110 C4F20000 		movt	r0, #:upper16:1073762832
 894 0114 4FF00701 		mov	r1, #7
 895 0118 FFF7FEFF 		bl	CYMEMZERO8
 489:.\Generated_Source\PSoC5/cyfitter_cfg.c **** 		CYCONFIGCPY8((void CYFAR *)(CYDEV_PRTDSI_PRT3_BASE), (const void CYFAR *)(BS_IOPORT_3_VAL), 7u);
 896              		.loc 1 489 0
 897 011c 45F21820 		movw	r0, #:lower16:1073762840
 898 0120 C4F20000 		movt	r0, #:upper16:1073762840
 899 0124 40F21861 		movw	r1, #:lower16:1207961112
 900 0128 C4F60001 		movt	r1, #:upper16:1207961112
 901 012c 4FF00702 		mov	r2, #7
 902 0130 FFF7FEFF 		bl	CYCONFIGCPY8
 490:.\Generated_Source\PSoC5/cyfitter_cfg.c **** 		CYMEMZERO8((void CYFAR *)(CYDEV_PRTDSI_PRT4_BASE), 7u);
 903              		.loc 1 490 0
 904 0134 45F22020 		movw	r0, #:lower16:1073762848
 905 0138 C4F20000 		movt	r0, #:upper16:1073762848
 906 013c 4FF00701 		mov	r1, #7
 907 0140 FFF7FEFF 		bl	CYMEMZERO8
 491:.\Generated_Source\PSoC5/cyfitter_cfg.c **** 		CYCONFIGCPY8((void CYFAR *)(CYDEV_PRTDSI_PRT5_BASE), (const void CYFAR *)(BS_IOPORT_5_VAL), 7u);
 908              		.loc 1 491 0
 909 0144 45F22820 		movw	r0, #:lower16:1073762856
 910 0148 C4F20000 		movt	r0, #:upper16:1073762856
 911 014c 40F22061 		movw	r1, #:lower16:1207961120
 912 0150 C4F60001 		movt	r1, #:upper16:1207961120
 913 0154 4FF00702 		mov	r2, #7
 914 0158 FFF7FEFF 		bl	CYCONFIGCPY8
 492:.\Generated_Source\PSoC5/cyfitter_cfg.c **** 		CYMEMZERO8((void CYFAR *)(CYDEV_PRTDSI_PRT6_BASE), 7u);
 915              		.loc 1 492 0
 916 015c 45F23020 		movw	r0, #:lower16:1073762864
 917 0160 C4F20000 		movt	r0, #:upper16:1073762864
 918 0164 4FF00701 		mov	r1, #7
 919 0168 FFF7FEFF 		bl	CYMEMZERO8
 493:.\Generated_Source\PSoC5/cyfitter_cfg.c **** 		CYMEMZERO8((void CYFAR *)(CYDEV_PRTDSI_PRT12_BASE), 6u);
 920              		.loc 1 493 0
 921 016c 45F26020 		movw	r0, #:lower16:1073762912
 922 0170 C4F20000 		movt	r0, #:upper16:1073762912
 923 0174 4FF00601 		mov	r1, #6
 924 0178 FFF7FEFF 		bl	CYMEMZERO8
 494:.\Generated_Source\PSoC5/cyfitter_cfg.c **** 		CYMEMZERO8((void CYFAR *)(CYDEV_PRTDSI_PRT15_BASE), 7u);
 925              		.loc 1 494 0
 926 017c 45F27820 		movw	r0, #:lower16:1073762936
 927 0180 C4F20000 		movt	r0, #:upper16:1073762936
ARM GAS  C:\Users\bryan.lee\AppData\Local\Temp\ccsOdVkx.s 			page 26


 928 0184 4FF00701 		mov	r1, #7
 929 0188 FFF7FEFF 		bl	CYMEMZERO8
 495:.\Generated_Source\PSoC5/cyfitter_cfg.c **** 
 496:.\Generated_Source\PSoC5/cyfitter_cfg.c **** 		/* Enable digital routing */
 497:.\Generated_Source\PSoC5/cyfitter_cfg.c **** 		CY_SET_XTND_REG8((void CYFAR *)CYREG_BCTL0_BANK_CTL, CY_GET_XTND_REG8((void CYFAR *)CYREG_BCTL0_B
 930              		.loc 1 497 0
 931 018c 45F20303 		movw	r3, #:lower16:1073827843
 932 0190 C4F20103 		movt	r3, #:upper16:1073827843
 933 0194 45F20302 		movw	r2, #:lower16:1073827843
 934 0198 C4F20102 		movt	r2, #:upper16:1073827843
 935 019c 1278     		ldrb	r2, [r2, #0]
 936 019e D2B2     		uxtb	r2, r2
 937 01a0 42F00202 		orr	r2, r2, #2
 938 01a4 D2B2     		uxtb	r2, r2
 939 01a6 1A70     		strb	r2, [r3, #0]
 498:.\Generated_Source\PSoC5/cyfitter_cfg.c **** 		CY_SET_XTND_REG8((void CYFAR *)CYREG_BCTL1_BANK_CTL, CY_GET_XTND_REG8((void CYFAR *)CYREG_BCTL1_B
 940              		.loc 1 498 0
 941 01a8 45F21303 		movw	r3, #:lower16:1073827859
 942 01ac C4F20103 		movt	r3, #:upper16:1073827859
 943 01b0 45F21302 		movw	r2, #:lower16:1073827859
 944 01b4 C4F20102 		movt	r2, #:upper16:1073827859
 945 01b8 1278     		ldrb	r2, [r2, #0]
 946 01ba D2B2     		uxtb	r2, r2
 947 01bc 42F00202 		orr	r2, r2, #2
 948 01c0 D2B2     		uxtb	r2, r2
 949 01c2 1A70     		strb	r2, [r3, #0]
 499:.\Generated_Source\PSoC5/cyfitter_cfg.c **** 
 500:.\Generated_Source\PSoC5/cyfitter_cfg.c **** 		/* Enable UDB array */
 501:.\Generated_Source\PSoC5/cyfitter_cfg.c **** 		CY_SET_XTND_REG8((void CYFAR *)CYREG_PM_ACT_CFG0, CY_GET_XTND_REG8((void CYFAR *)CYREG_PM_ACT_CFG
 950              		.loc 1 501 0
 951 01c4 44F2A033 		movw	r3, #:lower16:1073759136
 952 01c8 C4F20003 		movt	r3, #:upper16:1073759136
 953 01cc 44F2A032 		movw	r2, #:lower16:1073759136
 954 01d0 C4F20002 		movt	r2, #:upper16:1073759136
 955 01d4 1278     		ldrb	r2, [r2, #0]
 956 01d6 D2B2     		uxtb	r2, r2
 957 01d8 42F04002 		orr	r2, r2, #64
 958 01dc D2B2     		uxtb	r2, r2
 959 01de 1A70     		strb	r2, [r3, #0]
 502:.\Generated_Source\PSoC5/cyfitter_cfg.c **** 		CY_SET_XTND_REG8((void CYFAR *)CYREG_PM_AVAIL_CR2, CY_GET_XTND_REG8((void CYFAR *)CYREG_PM_AVAIL_
 960              		.loc 1 502 0
 961 01e0 44F2C233 		movw	r3, #:lower16:1073759170
 962 01e4 C4F20003 		movt	r3, #:upper16:1073759170
 963 01e8 44F2C232 		movw	r2, #:lower16:1073759170
 964 01ec C4F20002 		movt	r2, #:upper16:1073759170
 965 01f0 1278     		ldrb	r2, [r2, #0]
 966 01f2 D2B2     		uxtb	r2, r2
 967 01f4 42F01002 		orr	r2, r2, #16
 968 01f8 D2B2     		uxtb	r2, r2
 969 01fa 1A70     		strb	r2, [r3, #0]
 970              	.LBE3:
 503:.\Generated_Source\PSoC5/cyfitter_cfg.c **** 	}
 504:.\Generated_Source\PSoC5/cyfitter_cfg.c **** 
 505:.\Generated_Source\PSoC5/cyfitter_cfg.c **** 	/* Perform second pass device configuration. These items must be configured in specific order afte
 506:.\Generated_Source\PSoC5/cyfitter_cfg.c **** 	CYCONFIGCPY((void CYFAR *)(CYREG_PRT0_DR), (const void CYFAR *)(BS_IOPINS0_0_VAL), 10u);
 971              		.loc 1 506 0
 972 01fc 45F20010 		movw	r0, #:lower16:1073762560
ARM GAS  C:\Users\bryan.lee\AppData\Local\Temp\ccsOdVkx.s 			page 27


 973 0200 C4F20000 		movt	r0, #:upper16:1073762560
 974 0204 40F2DC51 		movw	r1, #:lower16:1207961052
 975 0208 C4F60001 		movt	r1, #:upper16:1207961052
 976 020c 4FF00A02 		mov	r2, #10
 977 0210 FFF7FEFF 		bl	CYCONFIGCPY
 507:.\Generated_Source\PSoC5/cyfitter_cfg.c **** 	CYCONFIGCPY((void CYFAR *)(CYREG_PRT2_DM0), (const void CYFAR *)(BS_IOPINS0_2_VAL), 8u);
 978              		.loc 1 507 0
 979 0214 45F22210 		movw	r0, #:lower16:1073762594
 980 0218 C4F20000 		movt	r0, #:upper16:1073762594
 981 021c 40F2E851 		movw	r1, #:lower16:1207961064
 982 0220 C4F60001 		movt	r1, #:upper16:1207961064
 983 0224 4FF00802 		mov	r2, #8
 984 0228 FFF7FEFF 		bl	CYCONFIGCPY
 508:.\Generated_Source\PSoC5/cyfitter_cfg.c **** 	CYCONFIGCPY((void CYFAR *)(CYREG_PRT3_DR), (const void CYFAR *)(BS_IOPINS0_3_VAL), 10u);
 985              		.loc 1 508 0
 986 022c 45F23010 		movw	r0, #:lower16:1073762608
 987 0230 C4F20000 		movt	r0, #:upper16:1073762608
 988 0234 40F2F051 		movw	r1, #:lower16:1207961072
 989 0238 C4F60001 		movt	r1, #:upper16:1207961072
 990 023c 4FF00A02 		mov	r2, #10
 991 0240 FFF7FEFF 		bl	CYCONFIGCPY
 509:.\Generated_Source\PSoC5/cyfitter_cfg.c **** 	CYCONFIGCPY((void CYFAR *)(CYREG_PRT4_DM0), (const void CYFAR *)(BS_IOPINS0_4_VAL), 8u);
 992              		.loc 1 509 0
 993 0244 45F24210 		movw	r0, #:lower16:1073762626
 994 0248 C4F20000 		movt	r0, #:upper16:1073762626
 995 024c 40F2FC51 		movw	r1, #:lower16:1207961084
 996 0250 C4F60001 		movt	r1, #:upper16:1207961084
 997 0254 4FF00802 		mov	r2, #8
 998 0258 FFF7FEFF 		bl	CYCONFIGCPY
 510:.\Generated_Source\PSoC5/cyfitter_cfg.c **** 	CYCONFIGCPY((void CYFAR *)(CYREG_PRT5_DR), (const void CYFAR *)(BS_IOPINS0_5_VAL), 10u);
 999              		.loc 1 510 0
 1000 025c 45F25010 		movw	r0, #:lower16:1073762640
 1001 0260 C4F20000 		movt	r0, #:upper16:1073762640
 1002 0264 40F20461 		movw	r1, #:lower16:1207961092
 1003 0268 C4F60001 		movt	r1, #:upper16:1207961092
 1004 026c 4FF00A02 		mov	r2, #10
 1005 0270 FFF7FEFF 		bl	CYCONFIGCPY
 511:.\Generated_Source\PSoC5/cyfitter_cfg.c **** 	CYCONFIGCPY((void CYFAR *)(CYREG_PRT6_DM0), (const void CYFAR *)(BS_IOPINS0_6_VAL), 8u);
 1006              		.loc 1 511 0
 1007 0274 45F26210 		movw	r0, #:lower16:1073762658
 1008 0278 C4F20000 		movt	r0, #:upper16:1073762658
 1009 027c 40F21061 		movw	r1, #:lower16:1207961104
 1010 0280 C4F60001 		movt	r1, #:upper16:1207961104
 1011 0284 4FF00802 		mov	r2, #8
 1012 0288 FFF7FEFF 		bl	CYCONFIGCPY
 512:.\Generated_Source\PSoC5/cyfitter_cfg.c **** 
 513:.\Generated_Source\PSoC5/cyfitter_cfg.c **** 
 514:.\Generated_Source\PSoC5/cyfitter_cfg.c **** 	/* Perform basic analog initialization to defaults */
 515:.\Generated_Source\PSoC5/cyfitter_cfg.c **** 	AnalogSetDefault();
 1013              		.loc 1 515 0
 1014 028c FFF7FEFF 		bl	AnalogSetDefault
 516:.\Generated_Source\PSoC5/cyfitter_cfg.c **** 
 517:.\Generated_Source\PSoC5/cyfitter_cfg.c **** 	/* Configure alternate active mode */
 518:.\Generated_Source\PSoC5/cyfitter_cfg.c **** 	CYCONFIGCPY((void CYFAR *)CYDEV_PM_STBY_BASE, (const void CYFAR *)CYDEV_PM_ACT_BASE, 12u);
 1015              		.loc 1 518 0
 1016 0290 44F2B030 		movw	r0, #:lower16:1073759152
 1017 0294 C4F20000 		movt	r0, #:upper16:1073759152
ARM GAS  C:\Users\bryan.lee\AppData\Local\Temp\ccsOdVkx.s 			page 28


 1018 0298 44F2A031 		movw	r1, #:lower16:1073759136
 1019 029c C4F20001 		movt	r1, #:upper16:1073759136
 1020 02a0 4FF00C02 		mov	r2, #12
 1021 02a4 FFF7FEFF 		bl	CYCONFIGCPY
 519:.\Generated_Source\PSoC5/cyfitter_cfg.c **** 	CY_SET_XTND_REG8((void CYFAR *)CYREG_PM_STBY_CFG0, CY_GET_XTND_REG8((void CYFAR *)CYREG_PM_STBY_CF
 1022              		.loc 1 519 0
 1023 02a8 44F2B033 		movw	r3, #:lower16:1073759152
 1024 02ac C4F20003 		movt	r3, #:upper16:1073759152
 1025 02b0 44F2B032 		movw	r2, #:lower16:1073759152
 1026 02b4 C4F20002 		movt	r2, #:upper16:1073759152
 1027 02b8 1278     		ldrb	r2, [r2, #0]
 1028 02ba D2B2     		uxtb	r2, r2
 1029 02bc 02F0FD02 		and	r2, r2, #253
 1030 02c0 1A70     		strb	r2, [r3, #0]
 520:.\Generated_Source\PSoC5/cyfitter_cfg.c **** }
 1031              		.loc 1 520 0
 1032 02c2 07F10807 		add	r7, r7, #8
 1033 02c6 BD46     		mov	sp, r7
 1034 02c8 80BD     		pop	{r7, pc}
 1035              		.cfi_endproc
 1036              	.LFE10:
 1037              		.size	cyfitter_cfg, .-cyfitter_cfg
 1038 02ca 00BF     		.section	.rodata
 1039              		.align	2
 1040              		.type	cfg_memset_list.2129, %object
 1041              		.size	cfg_memset_list.2129, 48
 1042              	cfg_memset_list.2129:
 1043 0000 004F0040 		.word	1073762048
 1044 0004 0B00     		.short	11
 1045 0006 10510040 		.4byte	1073762576
 1046 000a 1000     		.short	16
 1047 000c C0510040 		.word	1073762752
 1048 0010 1000     		.short	16
 1049 0012 F0510040 		.4byte	1073762800
 1050 0016 1000     		.short	16
 1051 0018 00000140 		.word	1073807360
 1052 001c 0010     		.short	4096
 1053 001e 00140140 		.4byte	1073812480
 1054 0022 0008     		.short	2048
 1055 0024 00400140 		.word	1073823744
 1056 0028 000A     		.short	2560
 1057 002a 004C0140 		.4byte	1073826816
 1058 002e 0002     		.short	512
 1059              		.text
 1060              	.Letext0: