ARM GAS  C:\Users\bryan.lee\AppData\Local\Temp\ccrVC9Te.s 			page 1


   1              		.syntax unified
   2              		.cpu cortex-m3
   3              		.fpu softvfp
   4              		.eabi_attribute 20, 1
   5              		.eabi_attribute 21, 1
   6              		.eabi_attribute 23, 3
   7              		.eabi_attribute 24, 1
   8              		.eabi_attribute 25, 1
   9              		.eabi_attribute 26, 1
  10              		.eabi_attribute 30, 6
  11              		.eabi_attribute 18, 4
  12              		.thumb
  13              		.file	"pgaPolarS_PM.c"
  20 0000 C4000000 		.text
  20      02007400 
  20      00000201 
  20      FB0E0D00 
  20      01010101 
  21              	.Ltext0:
  22              		.cfi_sections	.debug_frame
  23              		.bss
  24              		.align	2
  25              	pgaPolarS_backup:
  26 0000 00000000 		.space	4
  27              		.section	.text.pgaPolarS_SaveConfig,"ax",%progbits
  28              		.align	2
  29              		.global	pgaPolarS_SaveConfig
  30              		.thumb
  31              		.thumb_func
  32              		.type	pgaPolarS_SaveConfig, %function
  33              	pgaPolarS_SaveConfig:
  34              	.LFB0:
  35              		.file 1 ".\\Generated_Source\\PSoC5\\pgaPolarS_PM.c"
   1:.\Generated_Source\PSoC5/pgaPolarS_PM.c **** /*******************************************************************************
   2:.\Generated_Source\PSoC5/pgaPolarS_PM.c **** * File Name: pgaPolarS_PM.c  
   3:.\Generated_Source\PSoC5/pgaPolarS_PM.c **** * Version 2.0
   4:.\Generated_Source\PSoC5/pgaPolarS_PM.c **** *
   5:.\Generated_Source\PSoC5/pgaPolarS_PM.c **** * Description:
   6:.\Generated_Source\PSoC5/pgaPolarS_PM.c **** *  This file provides the power manager source code to the API for PGA 
   7:.\Generated_Source\PSoC5/pgaPolarS_PM.c **** *  Component.
   8:.\Generated_Source\PSoC5/pgaPolarS_PM.c **** *
   9:.\Generated_Source\PSoC5/pgaPolarS_PM.c **** * Note:
  10:.\Generated_Source\PSoC5/pgaPolarS_PM.c **** *
  11:.\Generated_Source\PSoC5/pgaPolarS_PM.c **** ********************************************************************************
  12:.\Generated_Source\PSoC5/pgaPolarS_PM.c **** * Copyright 2008-2012, Cypress Semiconductor Corporation.  All rights reserved.
  13:.\Generated_Source\PSoC5/pgaPolarS_PM.c **** * You may use this file only in accordance with the license, terms, conditions, 
  14:.\Generated_Source\PSoC5/pgaPolarS_PM.c **** * disclaimers, and limitations in the end user license agreement accompanying 
  15:.\Generated_Source\PSoC5/pgaPolarS_PM.c **** * the software package with which this file was provided.
  16:.\Generated_Source\PSoC5/pgaPolarS_PM.c **** *******************************************************************************/
  17:.\Generated_Source\PSoC5/pgaPolarS_PM.c **** 
  18:.\Generated_Source\PSoC5/pgaPolarS_PM.c **** #include "pgaPolarS.h"
ARM GAS  C:\Users\bryan.lee\AppData\Local\Temp\ccrVC9Te.s 			page 2


  19:.\Generated_Source\PSoC5/pgaPolarS_PM.c **** 
  20:.\Generated_Source\PSoC5/pgaPolarS_PM.c **** static pgaPolarS_BACKUP_STRUCT  pgaPolarS_backup;
  21:.\Generated_Source\PSoC5/pgaPolarS_PM.c **** 
  22:.\Generated_Source\PSoC5/pgaPolarS_PM.c **** 
  23:.\Generated_Source\PSoC5/pgaPolarS_PM.c **** /*******************************************************************************
  24:.\Generated_Source\PSoC5/pgaPolarS_PM.c **** * Function Name: pgaPolarS_SaveConfig
  25:.\Generated_Source\PSoC5/pgaPolarS_PM.c **** ********************************************************************************
  26:.\Generated_Source\PSoC5/pgaPolarS_PM.c **** *
  27:.\Generated_Source\PSoC5/pgaPolarS_PM.c **** * Summary:
  28:.\Generated_Source\PSoC5/pgaPolarS_PM.c **** *  Save the current user register configuration.
  29:.\Generated_Source\PSoC5/pgaPolarS_PM.c **** *
  30:.\Generated_Source\PSoC5/pgaPolarS_PM.c **** * Parameters:
  31:.\Generated_Source\PSoC5/pgaPolarS_PM.c **** *  void
  32:.\Generated_Source\PSoC5/pgaPolarS_PM.c **** *
  33:.\Generated_Source\PSoC5/pgaPolarS_PM.c **** * Return:
  34:.\Generated_Source\PSoC5/pgaPolarS_PM.c **** *  void
  35:.\Generated_Source\PSoC5/pgaPolarS_PM.c **** *
  36:.\Generated_Source\PSoC5/pgaPolarS_PM.c **** *******************************************************************************/
  37:.\Generated_Source\PSoC5/pgaPolarS_PM.c **** void pgaPolarS_SaveConfig(void) 
  38:.\Generated_Source\PSoC5/pgaPolarS_PM.c **** {
  36              		.loc 1 38 0
  37              		.cfi_startproc
  38              		@ args = 0, pretend = 0, frame = 0
  39              		@ frame_needed = 1, uses_anonymous_args = 0
  40              		@ link register save eliminated.
  41 0000 80B4     		push	{r7}
  42              	.LCFI0:
  43              		.cfi_def_cfa_offset 4
  44 0002 00AF     		add	r7, sp, #0
  45              		.cfi_offset 7, -4
  46              	.LCFI1:
  47              		.cfi_def_cfa_register 7
  39:.\Generated_Source\PSoC5/pgaPolarS_PM.c ****     /* Nothing to save as registers are System reset on retention flops */
  40:.\Generated_Source\PSoC5/pgaPolarS_PM.c **** }
  48              		.loc 1 40 0
  49 0004 BD46     		mov	sp, r7
  50 0006 80BC     		pop	{r7}
  51 0008 7047     		bx	lr
  52              		.cfi_endproc
  53              	.LFE0:
  54              		.size	pgaPolarS_SaveConfig, .-pgaPolarS_SaveConfig
  55 000a 00BF     		.section	.text.pgaPolarS_RestoreConfig,"ax",%progbits
  56              		.align	2
  57              		.global	pgaPolarS_RestoreConfig
  58              		.thumb
  59              		.thumb_func
  60              		.type	pgaPolarS_RestoreConfig, %function
  61              	pgaPolarS_RestoreConfig:
  62              	.LFB1:
  41:.\Generated_Source\PSoC5/pgaPolarS_PM.c **** 
  42:.\Generated_Source\PSoC5/pgaPolarS_PM.c **** 
  43:.\Generated_Source\PSoC5/pgaPolarS_PM.c **** /*******************************************************************************  
  44:.\Generated_Source\PSoC5/pgaPolarS_PM.c **** * Function Name: pgaPolarS_RestoreConfig
  45:.\Generated_Source\PSoC5/pgaPolarS_PM.c **** ********************************************************************************
  46:.\Generated_Source\PSoC5/pgaPolarS_PM.c **** *
  47:.\Generated_Source\PSoC5/pgaPolarS_PM.c **** * Summary:
  48:.\Generated_Source\PSoC5/pgaPolarS_PM.c **** *  Restore the register configurations.
ARM GAS  C:\Users\bryan.lee\AppData\Local\Temp\ccrVC9Te.s 			page 3


  49:.\Generated_Source\PSoC5/pgaPolarS_PM.c **** *
  50:.\Generated_Source\PSoC5/pgaPolarS_PM.c **** * Parameters:
  51:.\Generated_Source\PSoC5/pgaPolarS_PM.c **** *  void
  52:.\Generated_Source\PSoC5/pgaPolarS_PM.c **** *
  53:.\Generated_Source\PSoC5/pgaPolarS_PM.c **** * Return:
  54:.\Generated_Source\PSoC5/pgaPolarS_PM.c **** *  void
  55:.\Generated_Source\PSoC5/pgaPolarS_PM.c **** *
  56:.\Generated_Source\PSoC5/pgaPolarS_PM.c **** *******************************************************************************/
  57:.\Generated_Source\PSoC5/pgaPolarS_PM.c **** void pgaPolarS_RestoreConfig(void) 
  58:.\Generated_Source\PSoC5/pgaPolarS_PM.c **** {
  63              		.loc 1 58 0
  64              		.cfi_startproc
  65              		@ args = 0, pretend = 0, frame = 0
  66              		@ frame_needed = 1, uses_anonymous_args = 0
  67              		@ link register save eliminated.
  68 0000 80B4     		push	{r7}
  69              	.LCFI2:
  70              		.cfi_def_cfa_offset 4
  71 0002 00AF     		add	r7, sp, #0
  72              		.cfi_offset 7, -4
  73              	.LCFI3:
  74              		.cfi_def_cfa_register 7
  59:.\Generated_Source\PSoC5/pgaPolarS_PM.c ****     /* Nothing to restore */
  60:.\Generated_Source\PSoC5/pgaPolarS_PM.c **** }
  75              		.loc 1 60 0
  76 0004 BD46     		mov	sp, r7
  77 0006 80BC     		pop	{r7}
  78 0008 7047     		bx	lr
  79              		.cfi_endproc
  80              	.LFE1:
  81              		.size	pgaPolarS_RestoreConfig, .-pgaPolarS_RestoreConfig
  82 000a 00BF     		.section	.text.pgaPolarS_Sleep,"ax",%progbits
  83              		.align	2
  84              		.global	pgaPolarS_Sleep
  85              		.thumb
  86              		.thumb_func
  87              		.type	pgaPolarS_Sleep, %function
  88              	pgaPolarS_Sleep:
  89              	.LFB2:
  61:.\Generated_Source\PSoC5/pgaPolarS_PM.c **** 
  62:.\Generated_Source\PSoC5/pgaPolarS_PM.c **** 
  63:.\Generated_Source\PSoC5/pgaPolarS_PM.c **** /*******************************************************************************   
  64:.\Generated_Source\PSoC5/pgaPolarS_PM.c **** * Function Name: pgaPolarS_Sleep
  65:.\Generated_Source\PSoC5/pgaPolarS_PM.c **** ********************************************************************************
  66:.\Generated_Source\PSoC5/pgaPolarS_PM.c **** *
  67:.\Generated_Source\PSoC5/pgaPolarS_PM.c **** * Summary:
  68:.\Generated_Source\PSoC5/pgaPolarS_PM.c **** *  Disables block's operation and saves its configuration. Should be called 
  69:.\Generated_Source\PSoC5/pgaPolarS_PM.c **** *  just prior to entering sleep.
  70:.\Generated_Source\PSoC5/pgaPolarS_PM.c **** *
  71:.\Generated_Source\PSoC5/pgaPolarS_PM.c **** * Parameters:
  72:.\Generated_Source\PSoC5/pgaPolarS_PM.c **** *  None
  73:.\Generated_Source\PSoC5/pgaPolarS_PM.c **** *
  74:.\Generated_Source\PSoC5/pgaPolarS_PM.c **** * Return:
  75:.\Generated_Source\PSoC5/pgaPolarS_PM.c **** *  None
  76:.\Generated_Source\PSoC5/pgaPolarS_PM.c **** *
  77:.\Generated_Source\PSoC5/pgaPolarS_PM.c **** * Global variables:
  78:.\Generated_Source\PSoC5/pgaPolarS_PM.c **** *  pgaPolarS_backup: The structure field 'enableState' is modified 
ARM GAS  C:\Users\bryan.lee\AppData\Local\Temp\ccrVC9Te.s 			page 4


  79:.\Generated_Source\PSoC5/pgaPolarS_PM.c **** *  depending on the enable state of the block before entering to sleep mode.
  80:.\Generated_Source\PSoC5/pgaPolarS_PM.c **** *
  81:.\Generated_Source\PSoC5/pgaPolarS_PM.c **** *******************************************************************************/
  82:.\Generated_Source\PSoC5/pgaPolarS_PM.c **** void pgaPolarS_Sleep(void) 
  83:.\Generated_Source\PSoC5/pgaPolarS_PM.c **** {
  90              		.loc 1 83 0
  91              		.cfi_startproc
  92              		@ args = 0, pretend = 0, frame = 0
  93              		@ frame_needed = 1, uses_anonymous_args = 0
  94 0000 80B5     		push	{r7, lr}
  95              	.LCFI4:
  96              		.cfi_def_cfa_offset 8
  97 0002 00AF     		add	r7, sp, #0
  98              		.cfi_offset 14, -4
  99              		.cfi_offset 7, -8
 100              	.LCFI5:
 101              		.cfi_def_cfa_register 7
  84:.\Generated_Source\PSoC5/pgaPolarS_PM.c ****     /* Save PGA enable state */
  85:.\Generated_Source\PSoC5/pgaPolarS_PM.c ****     if((pgaPolarS_PM_ACT_CFG_REG & pgaPolarS_ACT_PWR_EN) != 0u)
 102              		.loc 1 85 0
 103 0004 44F2A933 		movw	r3, #:lower16:1073759145
 104 0008 C4F20003 		movt	r3, #:upper16:1073759145
 105 000c 1B78     		ldrb	r3, [r3, #0]
 106 000e DBB2     		uxtb	r3, r3
 107 0010 03F00103 		and	r3, r3, #1
 108 0014 DBB2     		uxtb	r3, r3
 109 0016 002B     		cmp	r3, #0
 110 0018 09D0     		beq	.L6
  86:.\Generated_Source\PSoC5/pgaPolarS_PM.c ****     {
  87:.\Generated_Source\PSoC5/pgaPolarS_PM.c ****         /* Component is enabled */
  88:.\Generated_Source\PSoC5/pgaPolarS_PM.c ****         pgaPolarS_backup.enableState = 1u;
 111              		.loc 1 88 0
 112 001a 40F20003 		movw	r3, #:lower16:pgaPolarS_backup
 113 001e C0F20003 		movt	r3, #:upper16:pgaPolarS_backup
 114 0022 4FF00102 		mov	r2, #1
 115 0026 1A70     		strb	r2, [r3, #0]
  89:.\Generated_Source\PSoC5/pgaPolarS_PM.c ****         /* Stop the configuration */
  90:.\Generated_Source\PSoC5/pgaPolarS_PM.c ****         pgaPolarS_Stop();
 116              		.loc 1 90 0
 117 0028 FFF7FEFF 		bl	pgaPolarS_Stop
 118 002c 06E0     		b	.L7
 119              	.L6:
  91:.\Generated_Source\PSoC5/pgaPolarS_PM.c ****     }
  92:.\Generated_Source\PSoC5/pgaPolarS_PM.c ****     else
  93:.\Generated_Source\PSoC5/pgaPolarS_PM.c ****     {
  94:.\Generated_Source\PSoC5/pgaPolarS_PM.c ****         /* Component is disabled */
  95:.\Generated_Source\PSoC5/pgaPolarS_PM.c ****         pgaPolarS_backup.enableState = 0u;
 120              		.loc 1 95 0
 121 002e 40F20003 		movw	r3, #:lower16:pgaPolarS_backup
 122 0032 C0F20003 		movt	r3, #:upper16:pgaPolarS_backup
 123 0036 4FF00002 		mov	r2, #0
 124 003a 1A70     		strb	r2, [r3, #0]
 125              	.L7:
  96:.\Generated_Source\PSoC5/pgaPolarS_PM.c ****     }
  97:.\Generated_Source\PSoC5/pgaPolarS_PM.c ****     /* Save the configuration */
  98:.\Generated_Source\PSoC5/pgaPolarS_PM.c ****     pgaPolarS_SaveConfig();
 126              		.loc 1 98 0
ARM GAS  C:\Users\bryan.lee\AppData\Local\Temp\ccrVC9Te.s 			page 5


 127 003c FFF7FEFF 		bl	pgaPolarS_SaveConfig
  99:.\Generated_Source\PSoC5/pgaPolarS_PM.c **** }
 128              		.loc 1 99 0
 129 0040 80BD     		pop	{r7, pc}
 130              		.cfi_endproc
 131              	.LFE2:
 132              		.size	pgaPolarS_Sleep, .-pgaPolarS_Sleep
 133 0042 00BF     		.section	.text.pgaPolarS_Wakeup,"ax",%progbits
 134              		.align	2
 135              		.global	pgaPolarS_Wakeup
 136              		.thumb
 137              		.thumb_func
 138              		.type	pgaPolarS_Wakeup, %function
 139              	pgaPolarS_Wakeup:
 140              	.LFB3:
 100:.\Generated_Source\PSoC5/pgaPolarS_PM.c **** 
 101:.\Generated_Source\PSoC5/pgaPolarS_PM.c **** 
 102:.\Generated_Source\PSoC5/pgaPolarS_PM.c **** /*******************************************************************************
 103:.\Generated_Source\PSoC5/pgaPolarS_PM.c **** * Function Name: pgaPolarS_Wakeup
 104:.\Generated_Source\PSoC5/pgaPolarS_PM.c **** ********************************************************************************
 105:.\Generated_Source\PSoC5/pgaPolarS_PM.c **** *
 106:.\Generated_Source\PSoC5/pgaPolarS_PM.c **** * Summary:
 107:.\Generated_Source\PSoC5/pgaPolarS_PM.c **** *  Enables block's operation and restores its configuration. Should be called
 108:.\Generated_Source\PSoC5/pgaPolarS_PM.c **** *  just after awaking from sleep.
 109:.\Generated_Source\PSoC5/pgaPolarS_PM.c **** *
 110:.\Generated_Source\PSoC5/pgaPolarS_PM.c **** * Parameters:
 111:.\Generated_Source\PSoC5/pgaPolarS_PM.c **** *  None
 112:.\Generated_Source\PSoC5/pgaPolarS_PM.c **** *
 113:.\Generated_Source\PSoC5/pgaPolarS_PM.c **** * Return:
 114:.\Generated_Source\PSoC5/pgaPolarS_PM.c **** *  void
 115:.\Generated_Source\PSoC5/pgaPolarS_PM.c **** *
 116:.\Generated_Source\PSoC5/pgaPolarS_PM.c **** * Global variables:
 117:.\Generated_Source\PSoC5/pgaPolarS_PM.c **** *  pgaPolarS_backup: The structure field 'enableState' is used to 
 118:.\Generated_Source\PSoC5/pgaPolarS_PM.c **** *  restore the enable state of block after wakeup from sleep mode.
 119:.\Generated_Source\PSoC5/pgaPolarS_PM.c **** * 
 120:.\Generated_Source\PSoC5/pgaPolarS_PM.c **** *******************************************************************************/
 121:.\Generated_Source\PSoC5/pgaPolarS_PM.c **** void pgaPolarS_Wakeup(void) 
 122:.\Generated_Source\PSoC5/pgaPolarS_PM.c **** {
 141              		.loc 1 122 0
 142              		.cfi_startproc
 143              		@ args = 0, pretend = 0, frame = 0
 144              		@ frame_needed = 1, uses_anonymous_args = 0
 145 0000 80B5     		push	{r7, lr}
 146              	.LCFI6:
 147              		.cfi_def_cfa_offset 8
 148 0002 00AF     		add	r7, sp, #0
 149              		.cfi_offset 14, -4
 150              		.cfi_offset 7, -8
 151              	.LCFI7:
 152              		.cfi_def_cfa_register 7
 123:.\Generated_Source\PSoC5/pgaPolarS_PM.c ****     /* Restore the configurations */
 124:.\Generated_Source\PSoC5/pgaPolarS_PM.c ****     pgaPolarS_RestoreConfig();
 153              		.loc 1 124 0
 154 0004 FFF7FEFF 		bl	pgaPolarS_RestoreConfig
 125:.\Generated_Source\PSoC5/pgaPolarS_PM.c ****      /* Enables the component operation */
 126:.\Generated_Source\PSoC5/pgaPolarS_PM.c ****     if(pgaPolarS_backup.enableState == 1u)
 155              		.loc 1 126 0
ARM GAS  C:\Users\bryan.lee\AppData\Local\Temp\ccrVC9Te.s 			page 6


 156 0008 40F20003 		movw	r3, #:lower16:pgaPolarS_backup
 157 000c C0F20003 		movt	r3, #:upper16:pgaPolarS_backup
 158 0010 1B78     		ldrb	r3, [r3, #0]	@ zero_extendqisi2
 159 0012 012B     		cmp	r3, #1
 160 0014 01D1     		bne	.L11
 127:.\Generated_Source\PSoC5/pgaPolarS_PM.c ****     {
 128:.\Generated_Source\PSoC5/pgaPolarS_PM.c ****         pgaPolarS_Enable();
 161              		.loc 1 128 0
 162 0016 FFF7FEFF 		bl	pgaPolarS_Enable
 163              	.L11:
 129:.\Generated_Source\PSoC5/pgaPolarS_PM.c ****     } /* Do nothing if component was disable before */
 130:.\Generated_Source\PSoC5/pgaPolarS_PM.c **** }
 164              		.loc 1 130 0
 165 001a 80BD     		pop	{r7, pc}
 166              		.cfi_endproc
 167              	.LFE3:
 168              		.size	pgaPolarS_Wakeup, .-pgaPolarS_Wakeup
 169              		.text
 170              	.Letext0: