ARM GAS  C:\Users\bryan.lee\AppData\Local\Temp\ccn3iPGN.s 			page 1


   1              		.syntax unified
   2              		.cpu cortex-m3
   3              		.fpu softvfp
   4              		.eabi_attribute 20, 1
   5              		.eabi_attribute 21, 1
   6              		.eabi_attribute 23, 3
   7              		.eabi_attribute 24, 1
   8              		.eabi_attribute 25, 1
   9              		.eabi_attribute 26, 1
  10              		.eabi_attribute 30, 6
  11              		.eabi_attribute 18, 4
  12              		.thumb
  13              		.file	"pgaPolarC.c"
  20 0000 09010000 		.text
  20      02007100 
  20      00000201 
  20      FB0E0D00 
  20      01010101 
  21              	.Ltext0:
  22              		.cfi_sections	.debug_frame
  23              		.bss
  24              		.align	2
  25              	pgaPolarC_P5backup:
  26 0000 00000000 		.space	4
  27              		.global	pgaPolarC_initVar
  28              		.type	pgaPolarC_initVar, %object
  29              		.size	pgaPolarC_initVar, 1
  30              	pgaPolarC_initVar:
  31 0004 00       		.space	1
  32 0005 000000   		.section	.text.pgaPolarC_Init,"ax",%progbits
  33              		.align	2
  34              		.global	pgaPolarC_Init
  35              		.thumb
  36              		.thumb_func
  37              		.type	pgaPolarC_Init, %function
  38              	pgaPolarC_Init:
  39              	.LFB0:
  40              		.file 1 ".\\Generated_Source\\PSoC5\\pgaPolarC.c"
   1:.\Generated_Source\PSoC5/pgaPolarC.c **** /*******************************************************************************
   2:.\Generated_Source\PSoC5/pgaPolarC.c **** * File Name: pgaPolarC.c  
   3:.\Generated_Source\PSoC5/pgaPolarC.c **** * Version 2.0
   4:.\Generated_Source\PSoC5/pgaPolarC.c **** *
   5:.\Generated_Source\PSoC5/pgaPolarC.c **** * Description:
   6:.\Generated_Source\PSoC5/pgaPolarC.c **** *  This file provides the source code to the API for the PGA 
   7:.\Generated_Source\PSoC5/pgaPolarC.c **** *  User Module.
   8:.\Generated_Source\PSoC5/pgaPolarC.c **** *
   9:.\Generated_Source\PSoC5/pgaPolarC.c **** * Note:
  10:.\Generated_Source\PSoC5/pgaPolarC.c **** *
  11:.\Generated_Source\PSoC5/pgaPolarC.c **** ********************************************************************************
  12:.\Generated_Source\PSoC5/pgaPolarC.c **** * Copyright 2008-2012, Cypress Semiconductor Corporation.  All rights reserved.
  13:.\Generated_Source\PSoC5/pgaPolarC.c **** * You may use this file only in accordance with the license, terms, conditions, 
ARM GAS  C:\Users\bryan.lee\AppData\Local\Temp\ccn3iPGN.s 			page 2


  14:.\Generated_Source\PSoC5/pgaPolarC.c **** * disclaimers, and limitations in the end user license agreement accompanying 
  15:.\Generated_Source\PSoC5/pgaPolarC.c **** * the software package with which this file was provided.
  16:.\Generated_Source\PSoC5/pgaPolarC.c **** *******************************************************************************/
  17:.\Generated_Source\PSoC5/pgaPolarC.c **** 
  18:.\Generated_Source\PSoC5/pgaPolarC.c **** #include "pgaPolarC.h"
  19:.\Generated_Source\PSoC5/pgaPolarC.c **** 
  20:.\Generated_Source\PSoC5/pgaPolarC.c **** #if (!CY_PSOC5A)
  21:.\Generated_Source\PSoC5/pgaPolarC.c ****     #if (CYDEV_VARIABLE_VDDA == 1u)
  22:.\Generated_Source\PSoC5/pgaPolarC.c ****         #include "CyScBoostClk.h"
  23:.\Generated_Source\PSoC5/pgaPolarC.c ****     #endif /* (CYDEV_VARIABLE_VDDA == 1u) */
  24:.\Generated_Source\PSoC5/pgaPolarC.c **** #endif /* (!CY_PSOC5A) */
  25:.\Generated_Source\PSoC5/pgaPolarC.c **** 
  26:.\Generated_Source\PSoC5/pgaPolarC.c **** #if (CY_PSOC5A)
  27:.\Generated_Source\PSoC5/pgaPolarC.c ****     static pgaPolarC_BACKUP_STRUCT  pgaPolarC_P5backup;
  28:.\Generated_Source\PSoC5/pgaPolarC.c **** #endif /* (CY_ PSOC5A) */
  29:.\Generated_Source\PSoC5/pgaPolarC.c **** 
  30:.\Generated_Source\PSoC5/pgaPolarC.c **** uint8 pgaPolarC_initVar = 0u;
  31:.\Generated_Source\PSoC5/pgaPolarC.c **** 
  32:.\Generated_Source\PSoC5/pgaPolarC.c **** 
  33:.\Generated_Source\PSoC5/pgaPolarC.c **** /*******************************************************************************   
  34:.\Generated_Source\PSoC5/pgaPolarC.c **** * Function Name: pgaPolarC_Init
  35:.\Generated_Source\PSoC5/pgaPolarC.c **** ********************************************************************************
  36:.\Generated_Source\PSoC5/pgaPolarC.c **** *
  37:.\Generated_Source\PSoC5/pgaPolarC.c **** * Summary:
  38:.\Generated_Source\PSoC5/pgaPolarC.c **** *  Initialize component's parameters to the parameters set by user in the 
  39:.\Generated_Source\PSoC5/pgaPolarC.c **** *  customizer of the component placed onto schematic. Usually called in 
  40:.\Generated_Source\PSoC5/pgaPolarC.c **** *  pgaPolarC_Start().
  41:.\Generated_Source\PSoC5/pgaPolarC.c **** *
  42:.\Generated_Source\PSoC5/pgaPolarC.c **** * Parameters:
  43:.\Generated_Source\PSoC5/pgaPolarC.c **** *  void
  44:.\Generated_Source\PSoC5/pgaPolarC.c **** *
  45:.\Generated_Source\PSoC5/pgaPolarC.c **** * Return:
  46:.\Generated_Source\PSoC5/pgaPolarC.c **** *  void
  47:.\Generated_Source\PSoC5/pgaPolarC.c **** *
  48:.\Generated_Source\PSoC5/pgaPolarC.c **** *******************************************************************************/
  49:.\Generated_Source\PSoC5/pgaPolarC.c **** void pgaPolarC_Init(void) 
  50:.\Generated_Source\PSoC5/pgaPolarC.c **** {
  41              		.loc 1 50 0
  42              		.cfi_startproc
  43              		@ args = 0, pretend = 0, frame = 0
  44              		@ frame_needed = 1, uses_anonymous_args = 0
  45 0000 80B5     		push	{r7, lr}
  46              	.LCFI0:
  47              		.cfi_def_cfa_offset 8
  48 0002 00AF     		add	r7, sp, #0
  49              		.cfi_offset 14, -4
  50              		.cfi_offset 7, -8
  51              	.LCFI1:
  52              		.cfi_def_cfa_register 7
  51:.\Generated_Source\PSoC5/pgaPolarC.c ****     /* Set PGA mode */
  52:.\Generated_Source\PSoC5/pgaPolarC.c ****     pgaPolarC_CR0_REG = pgaPolarC_MODE_PGA;      
  53              		.loc 1 52 0
  54 0004 45F60803 		movw	r3, #:lower16:1073764360
  55 0008 C4F20003 		movt	r3, #:upper16:1073764360
  56 000c 4FF00C02 		mov	r2, #12
  57 0010 1A70     		strb	r2, [r3, #0]
  53:.\Generated_Source\PSoC5/pgaPolarC.c ****     /* Set non-inverting PGA mode and reference mode */
ARM GAS  C:\Users\bryan.lee\AppData\Local\Temp\ccn3iPGN.s 			page 3


  54:.\Generated_Source\PSoC5/pgaPolarC.c ****     pgaPolarC_CR1_REG |= pgaPolarC_PGA_NINV;  
  58              		.loc 1 54 0
  59 0012 45F60903 		movw	r3, #:lower16:1073764361
  60 0016 C4F20003 		movt	r3, #:upper16:1073764361
  61 001a 45F60902 		movw	r2, #:lower16:1073764361
  62 001e C4F20002 		movt	r2, #:upper16:1073764361
  63 0022 1278     		ldrb	r2, [r2, #0]
  64 0024 D2B2     		uxtb	r2, r2
  65 0026 42F02002 		orr	r2, r2, #32
  66 002a D2B2     		uxtb	r2, r2
  67 002c 1A70     		strb	r2, [r3, #0]
  55:.\Generated_Source\PSoC5/pgaPolarC.c ****     /* Set default gain and ref mode */
  56:.\Generated_Source\PSoC5/pgaPolarC.c ****     pgaPolarC_CR2_REG = pgaPolarC_VREF_MODE;
  68              		.loc 1 56 0
  69 002e 45F60A03 		movw	r3, #:lower16:1073764362
  70 0032 C4F20003 		movt	r3, #:upper16:1073764362
  71 0036 6FF07F02 		mvn	r2, #127
  72 003a 1A70     		strb	r2, [r3, #0]
  57:.\Generated_Source\PSoC5/pgaPolarC.c ****     /* Set gain and compensation */
  58:.\Generated_Source\PSoC5/pgaPolarC.c ****     pgaPolarC_SetGain(pgaPolarC_DEFAULT_GAIN);
  73              		.loc 1 58 0
  74 003c 4FF00800 		mov	r0, #8
  75 0040 FFF7FEFF 		bl	pgaPolarC_SetGain
  59:.\Generated_Source\PSoC5/pgaPolarC.c ****     /* Set power */
  60:.\Generated_Source\PSoC5/pgaPolarC.c ****     pgaPolarC_SetPower(pgaPolarC_DEFAULT_POWER);
  76              		.loc 1 60 0
  77 0044 4FF00300 		mov	r0, #3
  78 0048 FFF7FEFF 		bl	pgaPolarC_SetPower
  61:.\Generated_Source\PSoC5/pgaPolarC.c **** }
  79              		.loc 1 61 0
  80 004c 80BD     		pop	{r7, pc}
  81              		.cfi_endproc
  82              	.LFE0:
  83              		.size	pgaPolarC_Init, .-pgaPolarC_Init
  84 004e 00BF     		.section	.text.pgaPolarC_Enable,"ax",%progbits
  85              		.align	2
  86              		.global	pgaPolarC_Enable
  87              		.thumb
  88              		.thumb_func
  89              		.type	pgaPolarC_Enable, %function
  90              	pgaPolarC_Enable:
  91              	.LFB1:
  62:.\Generated_Source\PSoC5/pgaPolarC.c **** 
  63:.\Generated_Source\PSoC5/pgaPolarC.c **** 
  64:.\Generated_Source\PSoC5/pgaPolarC.c **** /*******************************************************************************   
  65:.\Generated_Source\PSoC5/pgaPolarC.c **** * Function Name: pgaPolarC_Enable
  66:.\Generated_Source\PSoC5/pgaPolarC.c **** ********************************************************************************
  67:.\Generated_Source\PSoC5/pgaPolarC.c **** *
  68:.\Generated_Source\PSoC5/pgaPolarC.c **** * Summary:
  69:.\Generated_Source\PSoC5/pgaPolarC.c **** *  Enables the PGA block operation.
  70:.\Generated_Source\PSoC5/pgaPolarC.c **** *
  71:.\Generated_Source\PSoC5/pgaPolarC.c **** * Parameters:
  72:.\Generated_Source\PSoC5/pgaPolarC.c **** *  void
  73:.\Generated_Source\PSoC5/pgaPolarC.c **** *
  74:.\Generated_Source\PSoC5/pgaPolarC.c **** * Return:
  75:.\Generated_Source\PSoC5/pgaPolarC.c **** *  void
  76:.\Generated_Source\PSoC5/pgaPolarC.c **** *
ARM GAS  C:\Users\bryan.lee\AppData\Local\Temp\ccn3iPGN.s 			page 4


  77:.\Generated_Source\PSoC5/pgaPolarC.c **** *******************************************************************************/
  78:.\Generated_Source\PSoC5/pgaPolarC.c **** void pgaPolarC_Enable(void) 
  79:.\Generated_Source\PSoC5/pgaPolarC.c **** {
  92              		.loc 1 79 0
  93              		.cfi_startproc
  94              		@ args = 0, pretend = 0, frame = 0
  95              		@ frame_needed = 1, uses_anonymous_args = 0
  96              		@ link register save eliminated.
  97 0000 80B4     		push	{r7}
  98              	.LCFI2:
  99              		.cfi_def_cfa_offset 4
 100 0002 00AF     		add	r7, sp, #0
 101              		.cfi_offset 7, -4
 102              	.LCFI3:
 103              		.cfi_def_cfa_register 7
  80:.\Generated_Source\PSoC5/pgaPolarC.c ****     /* This is to restore the value of register CR1 and CR2 which is saved 
  81:.\Generated_Source\PSoC5/pgaPolarC.c ****       in prior to the modifications in stop() API */
  82:.\Generated_Source\PSoC5/pgaPolarC.c ****     #if (CY_PSOC5A)
  83:.\Generated_Source\PSoC5/pgaPolarC.c ****         if(pgaPolarC_P5backup.enableState == 1u)
 104              		.loc 1 83 0
 105 0004 40F20003 		movw	r3, #:lower16:pgaPolarC_P5backup
 106 0008 C0F20003 		movt	r3, #:upper16:pgaPolarC_P5backup
 107 000c 1B78     		ldrb	r3, [r3, #0]	@ zero_extendqisi2
 108 000e 012B     		cmp	r3, #1
 109 0010 1AD1     		bne	.L4
  84:.\Generated_Source\PSoC5/pgaPolarC.c ****         {
  85:.\Generated_Source\PSoC5/pgaPolarC.c ****             pgaPolarC_CR1_REG = pgaPolarC_P5backup.scCR1Reg;
 110              		.loc 1 85 0
 111 0012 45F60903 		movw	r3, #:lower16:1073764361
 112 0016 C4F20003 		movt	r3, #:upper16:1073764361
 113 001a 40F20002 		movw	r2, #:lower16:pgaPolarC_P5backup
 114 001e C0F20002 		movt	r2, #:upper16:pgaPolarC_P5backup
 115 0022 5278     		ldrb	r2, [r2, #1]	@ zero_extendqisi2
 116 0024 1A70     		strb	r2, [r3, #0]
  86:.\Generated_Source\PSoC5/pgaPolarC.c ****             pgaPolarC_CR2_REG = pgaPolarC_P5backup.scCR2Reg;
 117              		.loc 1 86 0
 118 0026 45F60A03 		movw	r3, #:lower16:1073764362
 119 002a C4F20003 		movt	r3, #:upper16:1073764362
 120 002e 40F20002 		movw	r2, #:lower16:pgaPolarC_P5backup
 121 0032 C0F20002 		movt	r2, #:upper16:pgaPolarC_P5backup
 122 0036 9278     		ldrb	r2, [r2, #2]	@ zero_extendqisi2
 123 0038 1A70     		strb	r2, [r3, #0]
  87:.\Generated_Source\PSoC5/pgaPolarC.c ****             pgaPolarC_P5backup.enableState = 0u;
 124              		.loc 1 87 0
 125 003a 40F20003 		movw	r3, #:lower16:pgaPolarC_P5backup
 126 003e C0F20003 		movt	r3, #:upper16:pgaPolarC_P5backup
 127 0042 4FF00002 		mov	r2, #0
 128 0046 1A70     		strb	r2, [r3, #0]
 129              	.L4:
  88:.\Generated_Source\PSoC5/pgaPolarC.c ****         }
  89:.\Generated_Source\PSoC5/pgaPolarC.c ****     #endif /* CY_PSOC5A */   
  90:.\Generated_Source\PSoC5/pgaPolarC.c **** 
  91:.\Generated_Source\PSoC5/pgaPolarC.c ****     /* Enable power to the Amp in Active mode*/
  92:.\Generated_Source\PSoC5/pgaPolarC.c ****     pgaPolarC_PM_ACT_CFG_REG |= pgaPolarC_ACT_PWR_EN;
 130              		.loc 1 92 0
 131 0048 44F2A933 		movw	r3, #:lower16:1073759145
 132 004c C4F20003 		movt	r3, #:upper16:1073759145
ARM GAS  C:\Users\bryan.lee\AppData\Local\Temp\ccn3iPGN.s 			page 5


 133 0050 44F2A932 		movw	r2, #:lower16:1073759145
 134 0054 C4F20002 		movt	r2, #:upper16:1073759145
 135 0058 1278     		ldrb	r2, [r2, #0]
 136 005a D2B2     		uxtb	r2, r2
 137 005c 42F00202 		orr	r2, r2, #2
 138 0060 D2B2     		uxtb	r2, r2
 139 0062 1A70     		strb	r2, [r3, #0]
  93:.\Generated_Source\PSoC5/pgaPolarC.c **** 
  94:.\Generated_Source\PSoC5/pgaPolarC.c ****     /* Enable power to the Amp in Alternative Active mode*/
  95:.\Generated_Source\PSoC5/pgaPolarC.c ****     pgaPolarC_PM_STBY_CFG_REG |= pgaPolarC_STBY_PWR_EN;
 140              		.loc 1 95 0
 141 0064 44F2B933 		movw	r3, #:lower16:1073759161
 142 0068 C4F20003 		movt	r3, #:upper16:1073759161
 143 006c 44F2B932 		movw	r2, #:lower16:1073759161
 144 0070 C4F20002 		movt	r2, #:upper16:1073759161
 145 0074 1278     		ldrb	r2, [r2, #0]
 146 0076 D2B2     		uxtb	r2, r2
 147 0078 42F00202 		orr	r2, r2, #2
 148 007c D2B2     		uxtb	r2, r2
 149 007e 1A70     		strb	r2, [r3, #0]
  96:.\Generated_Source\PSoC5/pgaPolarC.c ****     
  97:.\Generated_Source\PSoC5/pgaPolarC.c ****     pgaPolarC_PUMP_CR1_REG |= pgaPolarC_PUMP_CR1_SC_CLKSEL;
 150              		.loc 1 97 0
 151 0080 45F67703 		movw	r3, #:lower16:1073764471
 152 0084 C4F20003 		movt	r3, #:upper16:1073764471
 153 0088 45F67702 		movw	r2, #:lower16:1073764471
 154 008c C4F20002 		movt	r2, #:upper16:1073764471
 155 0090 1278     		ldrb	r2, [r2, #0]
 156 0092 D2B2     		uxtb	r2, r2
 157 0094 6FEA4262 		mvn	r2, r2, lsl #25
 158 0098 6FEA5262 		mvn	r2, r2, lsr #25
 159 009c D2B2     		uxtb	r2, r2
 160 009e 1A70     		strb	r2, [r3, #0]
  98:.\Generated_Source\PSoC5/pgaPolarC.c ****     
  99:.\Generated_Source\PSoC5/pgaPolarC.c ****     #if (!CY_PSOC5A)
 100:.\Generated_Source\PSoC5/pgaPolarC.c ****         #if (CYDEV_VARIABLE_VDDA == 1u)
 101:.\Generated_Source\PSoC5/pgaPolarC.c ****             if(CyScPumpEnabled == 1u)
 102:.\Generated_Source\PSoC5/pgaPolarC.c ****             {
 103:.\Generated_Source\PSoC5/pgaPolarC.c ****                 pgaPolarC_BSTCLK_REG &= (uint8)(~pgaPolarC_BST_CLK_INDEX_MASK);
 104:.\Generated_Source\PSoC5/pgaPolarC.c ****                 pgaPolarC_BSTCLK_REG |= pgaPolarC_BST_CLK_EN | CyScBoostClk__INDEX;
 105:.\Generated_Source\PSoC5/pgaPolarC.c ****                 pgaPolarC_SC_MISC_REG |= pgaPolarC_PUMP_FORCE;
 106:.\Generated_Source\PSoC5/pgaPolarC.c ****                 CyScBoostClk_Start();
 107:.\Generated_Source\PSoC5/pgaPolarC.c ****             }
 108:.\Generated_Source\PSoC5/pgaPolarC.c ****             else
 109:.\Generated_Source\PSoC5/pgaPolarC.c ****             {
 110:.\Generated_Source\PSoC5/pgaPolarC.c ****                 pgaPolarC_BSTCLK_REG &= (uint8)(~pgaPolarC_BST_CLK_EN);
 111:.\Generated_Source\PSoC5/pgaPolarC.c ****                 pgaPolarC_SC_MISC_REG &= (uint8)(~pgaPolarC_PUMP_FORCE);
 112:.\Generated_Source\PSoC5/pgaPolarC.c ****             }
 113:.\Generated_Source\PSoC5/pgaPolarC.c ****         #endif /* (CYDEV_VARIABLE_VDDA == 1u) */
 114:.\Generated_Source\PSoC5/pgaPolarC.c ****     #endif /* (!CY_PSOC5A) */
 115:.\Generated_Source\PSoC5/pgaPolarC.c **** }
 161              		.loc 1 115 0
 162 00a0 BD46     		mov	sp, r7
 163 00a2 80BC     		pop	{r7}
 164 00a4 7047     		bx	lr
 165              		.cfi_endproc
 166              	.LFE1:
ARM GAS  C:\Users\bryan.lee\AppData\Local\Temp\ccn3iPGN.s 			page 6


 167              		.size	pgaPolarC_Enable, .-pgaPolarC_Enable
 168 00a6 00BF     		.section	.text.pgaPolarC_Start,"ax",%progbits
 169              		.align	2
 170              		.global	pgaPolarC_Start
 171              		.thumb
 172              		.thumb_func
 173              		.type	pgaPolarC_Start, %function
 174              	pgaPolarC_Start:
 175              	.LFB2:
 116:.\Generated_Source\PSoC5/pgaPolarC.c **** 
 117:.\Generated_Source\PSoC5/pgaPolarC.c **** 
 118:.\Generated_Source\PSoC5/pgaPolarC.c **** /*******************************************************************************
 119:.\Generated_Source\PSoC5/pgaPolarC.c **** * Function Name: pgaPolarC_Start
 120:.\Generated_Source\PSoC5/pgaPolarC.c **** ********************************************************************************
 121:.\Generated_Source\PSoC5/pgaPolarC.c **** *
 122:.\Generated_Source\PSoC5/pgaPolarC.c **** * Summary:
 123:.\Generated_Source\PSoC5/pgaPolarC.c **** *  The start function initializes the PGA with the default values and sets
 124:.\Generated_Source\PSoC5/pgaPolarC.c **** *  the power to the given level. A power level of 0, is same as executing
 125:.\Generated_Source\PSoC5/pgaPolarC.c **** *  the stop function.
 126:.\Generated_Source\PSoC5/pgaPolarC.c **** *
 127:.\Generated_Source\PSoC5/pgaPolarC.c **** * Parameters:
 128:.\Generated_Source\PSoC5/pgaPolarC.c **** *  void
 129:.\Generated_Source\PSoC5/pgaPolarC.c **** *
 130:.\Generated_Source\PSoC5/pgaPolarC.c **** * Return:
 131:.\Generated_Source\PSoC5/pgaPolarC.c **** *  void
 132:.\Generated_Source\PSoC5/pgaPolarC.c **** *
 133:.\Generated_Source\PSoC5/pgaPolarC.c **** *******************************************************************************/
 134:.\Generated_Source\PSoC5/pgaPolarC.c **** void pgaPolarC_Start(void) 
 135:.\Generated_Source\PSoC5/pgaPolarC.c **** {
 176              		.loc 1 135 0
 177              		.cfi_startproc
 178              		@ args = 0, pretend = 0, frame = 0
 179              		@ frame_needed = 1, uses_anonymous_args = 0
 180 0000 80B5     		push	{r7, lr}
 181              	.LCFI4:
 182              		.cfi_def_cfa_offset 8
 183 0002 00AF     		add	r7, sp, #0
 184              		.cfi_offset 14, -4
 185              		.cfi_offset 7, -8
 186              	.LCFI5:
 187              		.cfi_def_cfa_register 7
 136:.\Generated_Source\PSoC5/pgaPolarC.c **** 
 137:.\Generated_Source\PSoC5/pgaPolarC.c ****     /* This is to restore the value of register CR1 and CR2 which is saved 
 138:.\Generated_Source\PSoC5/pgaPolarC.c ****       in prior to the modification in stop() API */
 139:.\Generated_Source\PSoC5/pgaPolarC.c **** 
 140:.\Generated_Source\PSoC5/pgaPolarC.c ****     if(pgaPolarC_initVar == 0u)
 188              		.loc 1 140 0
 189 0004 40F20003 		movw	r3, #:lower16:pgaPolarC_initVar
 190 0008 C0F20003 		movt	r3, #:upper16:pgaPolarC_initVar
 191 000c 1B78     		ldrb	r3, [r3, #0]	@ zero_extendqisi2
 192 000e 002B     		cmp	r3, #0
 193 0010 08D1     		bne	.L7
 141:.\Generated_Source\PSoC5/pgaPolarC.c ****     {
 142:.\Generated_Source\PSoC5/pgaPolarC.c ****         pgaPolarC_Init();
 194              		.loc 1 142 0
 195 0012 FFF7FEFF 		bl	pgaPolarC_Init
 143:.\Generated_Source\PSoC5/pgaPolarC.c ****         pgaPolarC_initVar = 1u;
ARM GAS  C:\Users\bryan.lee\AppData\Local\Temp\ccn3iPGN.s 			page 7


 196              		.loc 1 143 0
 197 0016 40F20003 		movw	r3, #:lower16:pgaPolarC_initVar
 198 001a C0F20003 		movt	r3, #:upper16:pgaPolarC_initVar
 199 001e 4FF00102 		mov	r2, #1
 200 0022 1A70     		strb	r2, [r3, #0]
 201              	.L7:
 144:.\Generated_Source\PSoC5/pgaPolarC.c ****     }
 145:.\Generated_Source\PSoC5/pgaPolarC.c **** 
 146:.\Generated_Source\PSoC5/pgaPolarC.c ****     pgaPolarC_Enable();
 202              		.loc 1 146 0
 203 0024 FFF7FEFF 		bl	pgaPolarC_Enable
 147:.\Generated_Source\PSoC5/pgaPolarC.c **** }
 204              		.loc 1 147 0
 205 0028 80BD     		pop	{r7, pc}
 206              		.cfi_endproc
 207              	.LFE2:
 208              		.size	pgaPolarC_Start, .-pgaPolarC_Start
 209 002a 00BF     		.section	.text.pgaPolarC_Stop,"ax",%progbits
 210              		.align	2
 211              		.global	pgaPolarC_Stop
 212              		.thumb
 213              		.thumb_func
 214              		.type	pgaPolarC_Stop, %function
 215              	pgaPolarC_Stop:
 216              	.LFB3:
 148:.\Generated_Source\PSoC5/pgaPolarC.c **** 
 149:.\Generated_Source\PSoC5/pgaPolarC.c **** 
 150:.\Generated_Source\PSoC5/pgaPolarC.c **** /*******************************************************************************
 151:.\Generated_Source\PSoC5/pgaPolarC.c **** * Function Name: pgaPolarC_Stop
 152:.\Generated_Source\PSoC5/pgaPolarC.c **** ********************************************************************************
 153:.\Generated_Source\PSoC5/pgaPolarC.c **** *
 154:.\Generated_Source\PSoC5/pgaPolarC.c **** * Summary:
 155:.\Generated_Source\PSoC5/pgaPolarC.c **** *  Powers down amplifier to lowest power state.
 156:.\Generated_Source\PSoC5/pgaPolarC.c **** *
 157:.\Generated_Source\PSoC5/pgaPolarC.c **** * Parameters:
 158:.\Generated_Source\PSoC5/pgaPolarC.c **** *  void
 159:.\Generated_Source\PSoC5/pgaPolarC.c **** *
 160:.\Generated_Source\PSoC5/pgaPolarC.c **** * Return:
 161:.\Generated_Source\PSoC5/pgaPolarC.c **** *  void
 162:.\Generated_Source\PSoC5/pgaPolarC.c **** *
 163:.\Generated_Source\PSoC5/pgaPolarC.c **** *******************************************************************************/
 164:.\Generated_Source\PSoC5/pgaPolarC.c **** void pgaPolarC_Stop(void) 
 165:.\Generated_Source\PSoC5/pgaPolarC.c **** { 
 217              		.loc 1 165 0
 218              		.cfi_startproc
 219              		@ args = 0, pretend = 0, frame = 0
 220              		@ frame_needed = 1, uses_anonymous_args = 0
 221              		@ link register save eliminated.
 222 0000 80B4     		push	{r7}
 223              	.LCFI6:
 224              		.cfi_def_cfa_offset 4
 225 0002 00AF     		add	r7, sp, #0
 226              		.cfi_offset 7, -4
 227              	.LCFI7:
 228              		.cfi_def_cfa_register 7
 166:.\Generated_Source\PSoC5/pgaPolarC.c ****     /* Disble power to the Amp in Active mode template */
 167:.\Generated_Source\PSoC5/pgaPolarC.c ****     pgaPolarC_PM_ACT_CFG_REG &= (uint8)(~pgaPolarC_ACT_PWR_EN);
ARM GAS  C:\Users\bryan.lee\AppData\Local\Temp\ccn3iPGN.s 			page 8


 229              		.loc 1 167 0
 230 0004 44F2A933 		movw	r3, #:lower16:1073759145
 231 0008 C4F20003 		movt	r3, #:upper16:1073759145
 232 000c 44F2A932 		movw	r2, #:lower16:1073759145
 233 0010 C4F20002 		movt	r2, #:upper16:1073759145
 234 0014 1278     		ldrb	r2, [r2, #0]
 235 0016 D2B2     		uxtb	r2, r2
 236 0018 02F0FD02 		and	r2, r2, #253
 237 001c 1A70     		strb	r2, [r3, #0]
 168:.\Generated_Source\PSoC5/pgaPolarC.c **** 
 169:.\Generated_Source\PSoC5/pgaPolarC.c ****     /* Disble power to the Amp in Alternative Active mode template */
 170:.\Generated_Source\PSoC5/pgaPolarC.c ****     pgaPolarC_PM_STBY_CFG_REG &= (uint8)(~pgaPolarC_STBY_PWR_EN);
 238              		.loc 1 170 0
 239 001e 44F2B933 		movw	r3, #:lower16:1073759161
 240 0022 C4F20003 		movt	r3, #:upper16:1073759161
 241 0026 44F2B932 		movw	r2, #:lower16:1073759161
 242 002a C4F20002 		movt	r2, #:upper16:1073759161
 243 002e 1278     		ldrb	r2, [r2, #0]
 244 0030 D2B2     		uxtb	r2, r2
 245 0032 02F0FD02 		and	r2, r2, #253
 246 0036 1A70     		strb	r2, [r3, #0]
 171:.\Generated_Source\PSoC5/pgaPolarC.c **** 
 172:.\Generated_Source\PSoC5/pgaPolarC.c ****     #if (!CY_PSOC5A)
 173:.\Generated_Source\PSoC5/pgaPolarC.c ****         #if (CYDEV_VARIABLE_VDDA == 1u)
 174:.\Generated_Source\PSoC5/pgaPolarC.c ****             pgaPolarC_BSTCLK_REG &= (uint8)(~pgaPolarC_BST_CLK_EN);
 175:.\Generated_Source\PSoC5/pgaPolarC.c ****             /* Disable pumps only if there aren't any SC block in use */
 176:.\Generated_Source\PSoC5/pgaPolarC.c ****             if ((pgaPolarC_PM_ACT_CFG_REG & pgaPolarC_PM_ACT_CFG_MASK) == 0u)
 177:.\Generated_Source\PSoC5/pgaPolarC.c ****             {
 178:.\Generated_Source\PSoC5/pgaPolarC.c ****                 pgaPolarC_SC_MISC_REG &= (uint8)(~pgaPolarC_PUMP_FORCE);
 179:.\Generated_Source\PSoC5/pgaPolarC.c ****                 pgaPolarC_PUMP_CR1_REG &= (uint8)(~pgaPolarC_PUMP_CR1_SC_CLKSEL);
 180:.\Generated_Source\PSoC5/pgaPolarC.c ****                 CyScBoostClk_Stop();
 181:.\Generated_Source\PSoC5/pgaPolarC.c ****             }
 182:.\Generated_Source\PSoC5/pgaPolarC.c ****         #endif /* CYDEV_VARIABLE_VDDA == 1u */
 183:.\Generated_Source\PSoC5/pgaPolarC.c ****     #endif /* (CY_PSOC3 || CY_PSOC5LP) */
 184:.\Generated_Source\PSoC5/pgaPolarC.c **** 
 185:.\Generated_Source\PSoC5/pgaPolarC.c ****     /* This sets PGA in zero current mode and output routes are valid */
 186:.\Generated_Source\PSoC5/pgaPolarC.c ****     #if (CY_PSOC5A)
 187:.\Generated_Source\PSoC5/pgaPolarC.c ****         pgaPolarC_P5backup.scCR1Reg = pgaPolarC_CR1_REG;
 247              		.loc 1 187 0
 248 0038 45F60903 		movw	r3, #:lower16:1073764361
 249 003c C4F20003 		movt	r3, #:upper16:1073764361
 250 0040 1B78     		ldrb	r3, [r3, #0]
 251 0042 DAB2     		uxtb	r2, r3
 252 0044 40F20003 		movw	r3, #:lower16:pgaPolarC_P5backup
 253 0048 C0F20003 		movt	r3, #:upper16:pgaPolarC_P5backup
 254 004c 5A70     		strb	r2, [r3, #1]
 188:.\Generated_Source\PSoC5/pgaPolarC.c ****         pgaPolarC_P5backup.scCR2Reg = pgaPolarC_CR2_REG;
 255              		.loc 1 188 0
 256 004e 45F60A03 		movw	r3, #:lower16:1073764362
 257 0052 C4F20003 		movt	r3, #:upper16:1073764362
 258 0056 1B78     		ldrb	r3, [r3, #0]
 259 0058 DAB2     		uxtb	r2, r3
 260 005a 40F20003 		movw	r3, #:lower16:pgaPolarC_P5backup
 261 005e C0F20003 		movt	r3, #:upper16:pgaPolarC_P5backup
 262 0062 9A70     		strb	r2, [r3, #2]
 189:.\Generated_Source\PSoC5/pgaPolarC.c ****         pgaPolarC_CR1_REG = 0x00u;
 263              		.loc 1 189 0
ARM GAS  C:\Users\bryan.lee\AppData\Local\Temp\ccn3iPGN.s 			page 9


 264 0064 45F60903 		movw	r3, #:lower16:1073764361
 265 0068 C4F20003 		movt	r3, #:upper16:1073764361
 266 006c 4FF00002 		mov	r2, #0
 267 0070 1A70     		strb	r2, [r3, #0]
 190:.\Generated_Source\PSoC5/pgaPolarC.c ****         pgaPolarC_CR2_REG = 0x00u;
 268              		.loc 1 190 0
 269 0072 45F60A03 		movw	r3, #:lower16:1073764362
 270 0076 C4F20003 		movt	r3, #:upper16:1073764362
 271 007a 4FF00002 		mov	r2, #0
 272 007e 1A70     		strb	r2, [r3, #0]
 191:.\Generated_Source\PSoC5/pgaPolarC.c ****         pgaPolarC_P5backup.enableState = 1u;
 273              		.loc 1 191 0
 274 0080 40F20003 		movw	r3, #:lower16:pgaPolarC_P5backup
 275 0084 C0F20003 		movt	r3, #:upper16:pgaPolarC_P5backup
 276 0088 4FF00102 		mov	r2, #1
 277 008c 1A70     		strb	r2, [r3, #0]
 192:.\Generated_Source\PSoC5/pgaPolarC.c ****     #endif /* CY_PSOC5A */
 193:.\Generated_Source\PSoC5/pgaPolarC.c **** }
 278              		.loc 1 193 0
 279 008e BD46     		mov	sp, r7
 280 0090 80BC     		pop	{r7}
 281 0092 7047     		bx	lr
 282              		.cfi_endproc
 283              	.LFE3:
 284              		.size	pgaPolarC_Stop, .-pgaPolarC_Stop
 285              		.section	.text.pgaPolarC_SetPower,"ax",%progbits
 286              		.align	2
 287              		.global	pgaPolarC_SetPower
 288              		.thumb
 289              		.thumb_func
 290              		.type	pgaPolarC_SetPower, %function
 291              	pgaPolarC_SetPower:
 292              	.LFB4:
 194:.\Generated_Source\PSoC5/pgaPolarC.c **** 
 195:.\Generated_Source\PSoC5/pgaPolarC.c **** 
 196:.\Generated_Source\PSoC5/pgaPolarC.c **** /*******************************************************************************
 197:.\Generated_Source\PSoC5/pgaPolarC.c **** * Function Name: pgaPolarC_SetPower
 198:.\Generated_Source\PSoC5/pgaPolarC.c **** ********************************************************************************
 199:.\Generated_Source\PSoC5/pgaPolarC.c **** *
 200:.\Generated_Source\PSoC5/pgaPolarC.c **** * Summary:
 201:.\Generated_Source\PSoC5/pgaPolarC.c **** *  Set the power of the PGA.
 202:.\Generated_Source\PSoC5/pgaPolarC.c **** *
 203:.\Generated_Source\PSoC5/pgaPolarC.c **** * Parameters:
 204:.\Generated_Source\PSoC5/pgaPolarC.c **** *  power: Sets power level between (0) and (3) high power
 205:.\Generated_Source\PSoC5/pgaPolarC.c **** *
 206:.\Generated_Source\PSoC5/pgaPolarC.c **** * Return:
 207:.\Generated_Source\PSoC5/pgaPolarC.c **** *  void
 208:.\Generated_Source\PSoC5/pgaPolarC.c **** *
 209:.\Generated_Source\PSoC5/pgaPolarC.c **** *******************************************************************************/
 210:.\Generated_Source\PSoC5/pgaPolarC.c **** void pgaPolarC_SetPower(uint8 power) 
 211:.\Generated_Source\PSoC5/pgaPolarC.c **** {
 293              		.loc 1 211 0
 294              		.cfi_startproc
 295              		@ args = 0, pretend = 0, frame = 16
 296              		@ frame_needed = 1, uses_anonymous_args = 0
 297              		@ link register save eliminated.
 298 0000 80B4     		push	{r7}
ARM GAS  C:\Users\bryan.lee\AppData\Local\Temp\ccn3iPGN.s 			page 10


 299              	.LCFI8:
 300              		.cfi_def_cfa_offset 4
 301 0002 85B0     		sub	sp, sp, #20
 302              	.LCFI9:
 303              		.cfi_def_cfa_offset 24
 304 0004 00AF     		add	r7, sp, #0
 305              		.cfi_offset 7, -4
 306              	.LCFI10:
 307              		.cfi_def_cfa_register 7
 308 0006 0346     		mov	r3, r0
 309 0008 FB71     		strb	r3, [r7, #7]
 212:.\Generated_Source\PSoC5/pgaPolarC.c ****     uint8 tmpCR;
 213:.\Generated_Source\PSoC5/pgaPolarC.c **** 
 214:.\Generated_Source\PSoC5/pgaPolarC.c ****     tmpCR = pgaPolarC_CR1_REG & (uint8)(~pgaPolarC_DRIVE_MASK);
 310              		.loc 1 214 0
 311 000a 45F60903 		movw	r3, #:lower16:1073764361
 312 000e C4F20003 		movt	r3, #:upper16:1073764361
 313 0012 1B78     		ldrb	r3, [r3, #0]
 314 0014 DBB2     		uxtb	r3, r3
 315 0016 23F00303 		bic	r3, r3, #3
 316 001a FB73     		strb	r3, [r7, #15]
 215:.\Generated_Source\PSoC5/pgaPolarC.c ****     tmpCR |= (power & pgaPolarC_DRIVE_MASK);
 317              		.loc 1 215 0
 318 001c FB79     		ldrb	r3, [r7, #7]	@ zero_extendqisi2
 319 001e 03F00303 		and	r3, r3, #3
 320 0022 FA7B     		ldrb	r2, [r7, #15]
 321 0024 43EA0203 		orr	r3, r3, r2
 322 0028 FB73     		strb	r3, [r7, #15]
 216:.\Generated_Source\PSoC5/pgaPolarC.c ****     pgaPolarC_CR1_REG = tmpCR;  
 323              		.loc 1 216 0
 324 002a 45F60903 		movw	r3, #:lower16:1073764361
 325 002e C4F20003 		movt	r3, #:upper16:1073764361
 326 0032 FA7B     		ldrb	r2, [r7, #15]
 327 0034 1A70     		strb	r2, [r3, #0]
 217:.\Generated_Source\PSoC5/pgaPolarC.c **** }
 328              		.loc 1 217 0
 329 0036 07F11407 		add	r7, r7, #20
 330 003a BD46     		mov	sp, r7
 331 003c 80BC     		pop	{r7}
 332 003e 7047     		bx	lr
 333              		.cfi_endproc
 334              	.LFE4:
 335              		.size	pgaPolarC_SetPower, .-pgaPolarC_SetPower
 336              		.section	.text.pgaPolarC_SetGain,"ax",%progbits
 337              		.align	2
 338              		.global	pgaPolarC_SetGain
 339              		.thumb
 340              		.thumb_func
 341              		.type	pgaPolarC_SetGain, %function
 342              	pgaPolarC_SetGain:
 343              	.LFB5:
 218:.\Generated_Source\PSoC5/pgaPolarC.c **** 
 219:.\Generated_Source\PSoC5/pgaPolarC.c **** 
 220:.\Generated_Source\PSoC5/pgaPolarC.c **** /*******************************************************************************
 221:.\Generated_Source\PSoC5/pgaPolarC.c **** * Function Name: pgaPolarC_SetGain
 222:.\Generated_Source\PSoC5/pgaPolarC.c **** ********************************************************************************
 223:.\Generated_Source\PSoC5/pgaPolarC.c **** *
ARM GAS  C:\Users\bryan.lee\AppData\Local\Temp\ccn3iPGN.s 			page 11


 224:.\Generated_Source\PSoC5/pgaPolarC.c **** * Summary:
 225:.\Generated_Source\PSoC5/pgaPolarC.c **** *  This function sets values of the input and feedback resistors to set a 
 226:.\Generated_Source\PSoC5/pgaPolarC.c **** *  specific gain of the amplifier.
 227:.\Generated_Source\PSoC5/pgaPolarC.c **** *
 228:.\Generated_Source\PSoC5/pgaPolarC.c **** * Parameters:
 229:.\Generated_Source\PSoC5/pgaPolarC.c **** *  gain: Gain value of PGA (See header file for gain values.)
 230:.\Generated_Source\PSoC5/pgaPolarC.c **** *
 231:.\Generated_Source\PSoC5/pgaPolarC.c **** * Return:
 232:.\Generated_Source\PSoC5/pgaPolarC.c **** *  void 
 233:.\Generated_Source\PSoC5/pgaPolarC.c **** *
 234:.\Generated_Source\PSoC5/pgaPolarC.c **** *******************************************************************************/
 235:.\Generated_Source\PSoC5/pgaPolarC.c **** void pgaPolarC_SetGain(uint8 gain) 
 236:.\Generated_Source\PSoC5/pgaPolarC.c **** {
 344              		.loc 1 236 0
 345              		.cfi_startproc
 346              		@ args = 0, pretend = 0, frame = 32
 347              		@ frame_needed = 1, uses_anonymous_args = 0
 348              		@ link register save eliminated.
 349 0000 80B4     		push	{r7}
 350              	.LCFI11:
 351              		.cfi_def_cfa_offset 4
 352 0002 89B0     		sub	sp, sp, #36
 353              	.LCFI12:
 354              		.cfi_def_cfa_offset 40
 355 0004 00AF     		add	r7, sp, #0
 356              		.cfi_offset 7, -4
 357              	.LCFI13:
 358              		.cfi_def_cfa_register 7
 359 0006 0346     		mov	r3, r0
 360 0008 FB71     		strb	r3, [r7, #7]
 237:.\Generated_Source\PSoC5/pgaPolarC.c ****     /* Constant array for gain settings */
 238:.\Generated_Source\PSoC5/pgaPolarC.c ****     const uint8 pgaPolarC_GainArray[9] = { 
 239:.\Generated_Source\PSoC5/pgaPolarC.c ****         (pgaPolarC_RVAL_0K   | pgaPolarC_R20_40B_40K | pgaPolarC_BIAS_LOW), /* G=1  */
 240:.\Generated_Source\PSoC5/pgaPolarC.c ****         (pgaPolarC_RVAL_40K  | pgaPolarC_R20_40B_40K | pgaPolarC_BIAS_LOW), /* G=2  */
 241:.\Generated_Source\PSoC5/pgaPolarC.c ****         (pgaPolarC_RVAL_120K | pgaPolarC_R20_40B_40K | pgaPolarC_BIAS_LOW), /* G=4  */
 242:.\Generated_Source\PSoC5/pgaPolarC.c ****         (pgaPolarC_RVAL_280K | pgaPolarC_R20_40B_40K | pgaPolarC_BIAS_LOW), /* G=8  */
 243:.\Generated_Source\PSoC5/pgaPolarC.c ****         (pgaPolarC_RVAL_600K | pgaPolarC_R20_40B_40K | pgaPolarC_BIAS_LOW), /* G=16 */
 244:.\Generated_Source\PSoC5/pgaPolarC.c ****         (pgaPolarC_RVAL_460K | pgaPolarC_R20_40B_40K | pgaPolarC_BIAS_LOW), /* G=24, Sets Rin as 20
 245:.\Generated_Source\PSoC5/pgaPolarC.c ****         (pgaPolarC_RVAL_620K | pgaPolarC_R20_40B_20K | pgaPolarC_BIAS_LOW), /* G=32 */
 246:.\Generated_Source\PSoC5/pgaPolarC.c ****         (pgaPolarC_RVAL_470K | pgaPolarC_R20_40B_20K | pgaPolarC_BIAS_LOW), /* G=48, Sets Rin as 10
 247:.\Generated_Source\PSoC5/pgaPolarC.c ****         (pgaPolarC_RVAL_490K | pgaPolarC_R20_40B_20K | pgaPolarC_BIAS_LOW)  /* G=50, Sets Rin as 10
 248:.\Generated_Source\PSoC5/pgaPolarC.c ****     };
 361              		.loc 1 248 0
 362 000a 40F20002 		movw	r2, #:lower16:C.1.2037
 363 000e C0F20002 		movt	r2, #:upper16:C.1.2037
 364 0012 07F11403 		add	r3, r7, #20
 365 0016 07CA     		ldmia	r2, {r0, r1, r2}
 366 0018 03C3     		stmia	r3!, {r0, r1}
 367 001a 1A70     		strb	r2, [r3, #0]
 249:.\Generated_Source\PSoC5/pgaPolarC.c ****     
 250:.\Generated_Source\PSoC5/pgaPolarC.c ****     /* Constant array for gain compenstion settings */
 251:.\Generated_Source\PSoC5/pgaPolarC.c ****     const uint8 pgaPolarC_GainComp[9] = { 
 252:.\Generated_Source\PSoC5/pgaPolarC.c ****         ( pgaPolarC_COMP_4P35PF  | (uint8)( pgaPolarC_REDC_00 >> 2 )), /* G=1  */
 253:.\Generated_Source\PSoC5/pgaPolarC.c ****         ( pgaPolarC_COMP_4P35PF  | (uint8)( pgaPolarC_REDC_01 >> 2 )), /* G=2  */
 254:.\Generated_Source\PSoC5/pgaPolarC.c ****         ( pgaPolarC_COMP_3P0PF   | (uint8)( pgaPolarC_REDC_01 >> 2 )), /* G=4  */
 255:.\Generated_Source\PSoC5/pgaPolarC.c ****         ( pgaPolarC_COMP_3P0PF   | (uint8)( pgaPolarC_REDC_01 >> 2 )), /* G=8  */
 256:.\Generated_Source\PSoC5/pgaPolarC.c ****         ( pgaPolarC_COMP_3P6PF   | (uint8)( pgaPolarC_REDC_01 >> 2 )), /* G=16 */
ARM GAS  C:\Users\bryan.lee\AppData\Local\Temp\ccn3iPGN.s 			page 12


 257:.\Generated_Source\PSoC5/pgaPolarC.c ****         ( pgaPolarC_COMP_3P6PF   | (uint8)( pgaPolarC_REDC_11 >> 2 )), /* G=24 */
 258:.\Generated_Source\PSoC5/pgaPolarC.c ****         ( pgaPolarC_COMP_3P6PF   | (uint8)( pgaPolarC_REDC_11 >> 2 )), /* G=32 */
 259:.\Generated_Source\PSoC5/pgaPolarC.c ****         ( pgaPolarC_COMP_3P6PF   | (uint8)( pgaPolarC_REDC_00 >> 2 )), /* G=48 */
 260:.\Generated_Source\PSoC5/pgaPolarC.c ****         ( pgaPolarC_COMP_3P6PF   | (uint8)( pgaPolarC_REDC_00 >> 2 ))  /* G=50 */
 261:.\Generated_Source\PSoC5/pgaPolarC.c ****     };
 368              		.loc 1 261 0
 369 001c 40F20002 		movw	r2, #:lower16:C.2.2038
 370 0020 C0F20002 		movt	r2, #:upper16:C.2.2038
 371 0024 07F10803 		add	r3, r7, #8
 372 0028 07CA     		ldmia	r2, {r0, r1, r2}
 373 002a 03C3     		stmia	r3!, {r0, r1}
 374 002c 1A70     		strb	r2, [r3, #0]
 262:.\Generated_Source\PSoC5/pgaPolarC.c ****     
 263:.\Generated_Source\PSoC5/pgaPolarC.c ****     /* Only set new gain if it is a valid gain */
 264:.\Generated_Source\PSoC5/pgaPolarC.c ****     if( gain <= pgaPolarC_GAIN_MAX)
 375              		.loc 1 264 0
 376 002e FB79     		ldrb	r3, [r7, #7]	@ zero_extendqisi2
 377 0030 082B     		cmp	r3, #8
 378 0032 52D8     		bhi	.L15
 265:.\Generated_Source\PSoC5/pgaPolarC.c ****     {
 266:.\Generated_Source\PSoC5/pgaPolarC.c ****         /* Clear resistors, redc, and bias */
 267:.\Generated_Source\PSoC5/pgaPolarC.c ****         pgaPolarC_CR2_REG &= (uint8)(~(pgaPolarC_RVAL_MASK | pgaPolarC_R20_40B_MASK | 
 379              		.loc 1 267 0
 380 0034 45F60A03 		movw	r3, #:lower16:1073764362
 381 0038 C4F20003 		movt	r3, #:upper16:1073764362
 382 003c 45F60A02 		movw	r2, #:lower16:1073764362
 383 0040 C4F20002 		movt	r2, #:upper16:1073764362
 384 0044 1278     		ldrb	r2, [r2, #0]
 385 0046 D2B2     		uxtb	r2, r2
 386 0048 02F08002 		and	r2, r2, #128
 387 004c 1A70     		strb	r2, [r3, #0]
 268:.\Generated_Source\PSoC5/pgaPolarC.c ****                                 pgaPolarC_REDC_MASK | pgaPolarC_BIAS_MASK ));
 269:.\Generated_Source\PSoC5/pgaPolarC.c **** 
 270:.\Generated_Source\PSoC5/pgaPolarC.c ****         /* Set gain value resistors, redc comp, and bias */
 271:.\Generated_Source\PSoC5/pgaPolarC.c ****         pgaPolarC_CR2_REG |= (pgaPolarC_GainArray[gain] |
 388              		.loc 1 271 0
 389 004e 45F60A03 		movw	r3, #:lower16:1073764362
 390 0052 C4F20003 		movt	r3, #:upper16:1073764362
 391 0056 45F60A02 		movw	r2, #:lower16:1073764362
 392 005a C4F20002 		movt	r2, #:upper16:1073764362
 393 005e 1278     		ldrb	r2, [r2, #0]
 394 0060 D1B2     		uxtb	r1, r2
 395 0062 FA79     		ldrb	r2, [r7, #7]	@ zero_extendqisi2
 396 0064 07F12000 		add	r0, r7, #32
 397 0068 0244     		add	r2, r0, r2
 398 006a 12F80C0C 		ldrb	r0, [r2, #-12]	@ zero_extendqisi2
 399 006e FA79     		ldrb	r2, [r7, #7]	@ zero_extendqisi2
 272:.\Generated_Source\PSoC5/pgaPolarC.c ****                                 ((uint8)(pgaPolarC_GainComp[gain] << 2 ) & pgaPolarC_REDC_MASK));
 400              		.loc 1 272 0
 401 0070 07F1200C 		add	ip, r7, #32
 402 0074 6244     		add	r2, ip, r2
 403 0076 12F8182C 		ldrb	r2, [r2, #-24]	@ zero_extendqisi2
 404              		.loc 1 271 0
 405 007a 4FEA8202 		lsl	r2, r2, #2
 406 007e D2B2     		uxtb	r2, r2
 407 0080 02F00C02 		and	r2, r2, #12
 408 0084 40EA0202 		orr	r2, r0, r2
ARM GAS  C:\Users\bryan.lee\AppData\Local\Temp\ccn3iPGN.s 			page 13


 409 0088 D2B2     		uxtb	r2, r2
 410 008a 41EA0202 		orr	r2, r1, r2
 411 008e D2B2     		uxtb	r2, r2
 412 0090 1A70     		strb	r2, [r3, #0]
 273:.\Generated_Source\PSoC5/pgaPolarC.c **** 
 274:.\Generated_Source\PSoC5/pgaPolarC.c ****         /* Clear sc_comp  */
 275:.\Generated_Source\PSoC5/pgaPolarC.c ****         pgaPolarC_CR1_REG &= (uint8)(~pgaPolarC_COMP_MASK);
 413              		.loc 1 275 0
 414 0092 45F60903 		movw	r3, #:lower16:1073764361
 415 0096 C4F20003 		movt	r3, #:upper16:1073764361
 416 009a 45F60902 		movw	r2, #:lower16:1073764361
 417 009e C4F20002 		movt	r2, #:upper16:1073764361
 418 00a2 1278     		ldrb	r2, [r2, #0]
 419 00a4 D2B2     		uxtb	r2, r2
 420 00a6 02F0F302 		and	r2, r2, #243
 421 00aa 1A70     		strb	r2, [r3, #0]
 276:.\Generated_Source\PSoC5/pgaPolarC.c ****         /* Set sc_comp  */
 277:.\Generated_Source\PSoC5/pgaPolarC.c ****         pgaPolarC_CR1_REG |= ( pgaPolarC_GainComp[gain] | pgaPolarC_COMP_MASK );
 422              		.loc 1 277 0
 423 00ac 45F60903 		movw	r3, #:lower16:1073764361
 424 00b0 C4F20003 		movt	r3, #:upper16:1073764361
 425 00b4 45F60902 		movw	r2, #:lower16:1073764361
 426 00b8 C4F20002 		movt	r2, #:upper16:1073764361
 427 00bc 1278     		ldrb	r2, [r2, #0]
 428 00be D1B2     		uxtb	r1, r2
 429 00c0 FA79     		ldrb	r2, [r7, #7]	@ zero_extendqisi2
 430 00c2 07F12000 		add	r0, r7, #32
 431 00c6 0244     		add	r2, r0, r2
 432 00c8 12F8182C 		ldrb	r2, [r2, #-24]	@ zero_extendqisi2
 433 00cc 41EA0202 		orr	r2, r1, r2
 434 00d0 D2B2     		uxtb	r2, r2
 435 00d2 42F00C02 		orr	r2, r2, #12
 436 00d6 D2B2     		uxtb	r2, r2
 437 00d8 1A70     		strb	r2, [r3, #0]
 438              	.L15:
 278:.\Generated_Source\PSoC5/pgaPolarC.c ****     }
 279:.\Generated_Source\PSoC5/pgaPolarC.c **** }
 439              		.loc 1 279 0
 440 00da 07F12407 		add	r7, r7, #36
 441 00de BD46     		mov	sp, r7
 442 00e0 80BC     		pop	{r7}
 443 00e2 7047     		bx	lr
 444              		.cfi_endproc
 445              	.LFE5:
 446              		.size	pgaPolarC_SetGain, .-pgaPolarC_SetGain
 447              		.section	.rodata
 448              		.align	2
 449              		.type	C.1.2037, %object
 450              		.size	C.1.2037, 9
 451              	C.1.2037:
 452 0000 01       		.byte	1
 453 0001 11       		.byte	17
 454 0002 21       		.byte	33
 455 0003 31       		.byte	49
 456 0004 41       		.byte	65
 457 0005 61       		.byte	97
 458 0006 53       		.byte	83
ARM GAS  C:\Users\bryan.lee\AppData\Local\Temp\ccn3iPGN.s 			page 14


 459 0007 63       		.byte	99
 460 0008 73       		.byte	115
 461 0009 000000   		.align	2
 462              		.type	C.2.2038, %object
 463              		.size	C.2.2038, 9
 464              	C.2.2038:
 465 000c 08       		.byte	8
 466 000d 09       		.byte	9
 467 000e 01       		.byte	1
 468 000f 01       		.byte	1
 469 0010 05       		.byte	5
 470 0011 07       		.byte	7
 471 0012 07       		.byte	7
 472 0013 04       		.byte	4
 473 0014 04       		.byte	4
 474 0015 000000   		.text
 475              	.Letext0: