ARM GAS  C:\Users\bryan.lee\AppData\Local\Temp\cc7tgPY9.s 			page 1


   1              		.syntax unified
   2              		.cpu cortex-m3
   3              		.fpu softvfp
   4              		.eabi_attribute 20, 1
   5              		.eabi_attribute 21, 1
   6              		.eabi_attribute 23, 3
   7              		.eabi_attribute 24, 1
   8              		.eabi_attribute 25, 1
   9              		.eabi_attribute 26, 1
  10              		.eabi_attribute 30, 6
  11              		.eabi_attribute 18, 4
  12              		.thumb
  13              		.file	"PWMPulseCapture.c"
  20 0000 AC010000 		.text
  20      02006800 
  20      00000201 
  20      FB0E0D00 
  20      01010101 
  21              	.Ltext0:
  22              		.cfi_sections	.debug_frame
  23              		.global	PWMPulseCapture_initVar
  24              		.bss
  25              		.type	PWMPulseCapture_initVar, %object
  26              		.size	PWMPulseCapture_initVar, 1
  27              	PWMPulseCapture_initVar:
  28 0000 00       		.space	1
  29              		.section	.text.PWMPulseCapture_Start,"ax",%progbits
  30              		.align	2
  31              		.global	PWMPulseCapture_Start
  32              		.thumb
  33              		.thumb_func
  34              		.type	PWMPulseCapture_Start, %function
  35              	PWMPulseCapture_Start:
  36              	.LFB0:
  37              		.file 1 ".\\Generated_Source\\PSoC5\\PWMPulseCapture.c"
   1:.\Generated_Source\PSoC5/PWMPulseCapture.c **** /*******************************************************************************
   2:.\Generated_Source\PSoC5/PWMPulseCapture.c **** * File Name: PWMPulseCapture.c  
   3:.\Generated_Source\PSoC5/PWMPulseCapture.c **** * Version 2.40
   4:.\Generated_Source\PSoC5/PWMPulseCapture.c **** *
   5:.\Generated_Source\PSoC5/PWMPulseCapture.c **** * Description:
   6:.\Generated_Source\PSoC5/PWMPulseCapture.c **** *  The PWM User Module consist of an 8 or 16-bit counter with two 8 or 16-bit
   7:.\Generated_Source\PSoC5/PWMPulseCapture.c **** *  comparitors. Each instance of this user module is capable of generating
   8:.\Generated_Source\PSoC5/PWMPulseCapture.c **** *  two PWM outputs with the same period. The pulse width is selectable between
   9:.\Generated_Source\PSoC5/PWMPulseCapture.c **** *  1 and 255/65535. The period is selectable between 2 and 255/65536 clocks. 
  10:.\Generated_Source\PSoC5/PWMPulseCapture.c **** *  The compare value output may be configured to be active when the present 
  11:.\Generated_Source\PSoC5/PWMPulseCapture.c **** *  counter is less than or less than/equal to the compare value.
  12:.\Generated_Source\PSoC5/PWMPulseCapture.c **** *  A terminal count output is also provided. It generates a pulse one clock
  13:.\Generated_Source\PSoC5/PWMPulseCapture.c **** *  width wide when the counter is equal to zero.
  14:.\Generated_Source\PSoC5/PWMPulseCapture.c **** *
  15:.\Generated_Source\PSoC5/PWMPulseCapture.c **** * Note:
  16:.\Generated_Source\PSoC5/PWMPulseCapture.c **** *
ARM GAS  C:\Users\bryan.lee\AppData\Local\Temp\cc7tgPY9.s 			page 2


  17:.\Generated_Source\PSoC5/PWMPulseCapture.c **** *******************************************************************************
  18:.\Generated_Source\PSoC5/PWMPulseCapture.c **** * Copyright 2008-2012, Cypress Semiconductor Corporation.  All rights reserved.
  19:.\Generated_Source\PSoC5/PWMPulseCapture.c **** * You may use this file only in accordance with the license, terms, conditions, 
  20:.\Generated_Source\PSoC5/PWMPulseCapture.c **** * disclaimers, and limitations in the end user license agreement accompanying 
  21:.\Generated_Source\PSoC5/PWMPulseCapture.c **** * the software package with which this file was provided.
  22:.\Generated_Source\PSoC5/PWMPulseCapture.c **** ********************************************************************************/
  23:.\Generated_Source\PSoC5/PWMPulseCapture.c **** 
  24:.\Generated_Source\PSoC5/PWMPulseCapture.c **** #include "cytypes.h"
  25:.\Generated_Source\PSoC5/PWMPulseCapture.c **** #include "PWMPulseCapture.h"
  26:.\Generated_Source\PSoC5/PWMPulseCapture.c **** 
  27:.\Generated_Source\PSoC5/PWMPulseCapture.c **** uint8 PWMPulseCapture_initVar = 0u;
  28:.\Generated_Source\PSoC5/PWMPulseCapture.c **** 
  29:.\Generated_Source\PSoC5/PWMPulseCapture.c **** 
  30:.\Generated_Source\PSoC5/PWMPulseCapture.c **** /*******************************************************************************
  31:.\Generated_Source\PSoC5/PWMPulseCapture.c **** * Function Name: PWMPulseCapture_Start
  32:.\Generated_Source\PSoC5/PWMPulseCapture.c **** ********************************************************************************
  33:.\Generated_Source\PSoC5/PWMPulseCapture.c **** *
  34:.\Generated_Source\PSoC5/PWMPulseCapture.c **** * Summary:
  35:.\Generated_Source\PSoC5/PWMPulseCapture.c **** *  The start function initializes the pwm with the default values, the 
  36:.\Generated_Source\PSoC5/PWMPulseCapture.c **** *  enables the counter to begin counting.  It does not enable interrupts,
  37:.\Generated_Source\PSoC5/PWMPulseCapture.c **** *  the EnableInt command should be called if interrupt generation is required.
  38:.\Generated_Source\PSoC5/PWMPulseCapture.c **** *
  39:.\Generated_Source\PSoC5/PWMPulseCapture.c **** * Parameters:  
  40:.\Generated_Source\PSoC5/PWMPulseCapture.c **** *  None  
  41:.\Generated_Source\PSoC5/PWMPulseCapture.c **** *
  42:.\Generated_Source\PSoC5/PWMPulseCapture.c **** * Return: 
  43:.\Generated_Source\PSoC5/PWMPulseCapture.c **** *  None
  44:.\Generated_Source\PSoC5/PWMPulseCapture.c **** *
  45:.\Generated_Source\PSoC5/PWMPulseCapture.c **** * Global variables:
  46:.\Generated_Source\PSoC5/PWMPulseCapture.c **** *  PWMPulseCapture_initVar: Is modified when this function is called for the 
  47:.\Generated_Source\PSoC5/PWMPulseCapture.c **** *   first time. Is used to ensure that initialization happens only once.
  48:.\Generated_Source\PSoC5/PWMPulseCapture.c **** *
  49:.\Generated_Source\PSoC5/PWMPulseCapture.c **** *******************************************************************************/
  50:.\Generated_Source\PSoC5/PWMPulseCapture.c **** void PWMPulseCapture_Start(void) 
  51:.\Generated_Source\PSoC5/PWMPulseCapture.c **** {
  38              		.loc 1 51 0
  39              		.cfi_startproc
  40              		@ args = 0, pretend = 0, frame = 0
  41              		@ frame_needed = 1, uses_anonymous_args = 0
  42 0000 80B5     		push	{r7, lr}
  43              	.LCFI0:
  44              		.cfi_def_cfa_offset 8
  45 0002 00AF     		add	r7, sp, #0
  46              		.cfi_offset 14, -4
  47              		.cfi_offset 7, -8
  48              	.LCFI1:
  49              		.cfi_def_cfa_register 7
  52:.\Generated_Source\PSoC5/PWMPulseCapture.c ****     /* If not Initialized then initialize all required hardware and software */
  53:.\Generated_Source\PSoC5/PWMPulseCapture.c ****     if(PWMPulseCapture_initVar == 0u)
  50              		.loc 1 53 0
  51 0004 40F20003 		movw	r3, #:lower16:PWMPulseCapture_initVar
  52 0008 C0F20003 		movt	r3, #:upper16:PWMPulseCapture_initVar
  53 000c 1B78     		ldrb	r3, [r3, #0]	@ zero_extendqisi2
  54 000e 002B     		cmp	r3, #0
  55 0010 08D1     		bne	.L2
  54:.\Generated_Source\PSoC5/PWMPulseCapture.c ****     {
  55:.\Generated_Source\PSoC5/PWMPulseCapture.c ****         PWMPulseCapture_Init();
ARM GAS  C:\Users\bryan.lee\AppData\Local\Temp\cc7tgPY9.s 			page 3


  56              		.loc 1 55 0
  57 0012 FFF7FEFF 		bl	PWMPulseCapture_Init
  56:.\Generated_Source\PSoC5/PWMPulseCapture.c ****         PWMPulseCapture_initVar = 1u;
  58              		.loc 1 56 0
  59 0016 40F20003 		movw	r3, #:lower16:PWMPulseCapture_initVar
  60 001a C0F20003 		movt	r3, #:upper16:PWMPulseCapture_initVar
  61 001e 4FF00102 		mov	r2, #1
  62 0022 1A70     		strb	r2, [r3, #0]
  63              	.L2:
  57:.\Generated_Source\PSoC5/PWMPulseCapture.c ****     }
  58:.\Generated_Source\PSoC5/PWMPulseCapture.c ****     PWMPulseCapture_Enable();
  64              		.loc 1 58 0
  65 0024 FFF7FEFF 		bl	PWMPulseCapture_Enable
  59:.\Generated_Source\PSoC5/PWMPulseCapture.c **** 
  60:.\Generated_Source\PSoC5/PWMPulseCapture.c **** }
  66              		.loc 1 60 0
  67 0028 80BD     		pop	{r7, pc}
  68              		.cfi_endproc
  69              	.LFE0:
  70              		.size	PWMPulseCapture_Start, .-PWMPulseCapture_Start
  71 002a 00BF     		.section	.text.PWMPulseCapture_Init,"ax",%progbits
  72              		.align	2
  73              		.global	PWMPulseCapture_Init
  74              		.thumb
  75              		.thumb_func
  76              		.type	PWMPulseCapture_Init, %function
  77              	PWMPulseCapture_Init:
  78              	.LFB1:
  61:.\Generated_Source\PSoC5/PWMPulseCapture.c **** 
  62:.\Generated_Source\PSoC5/PWMPulseCapture.c **** 
  63:.\Generated_Source\PSoC5/PWMPulseCapture.c **** /*******************************************************************************
  64:.\Generated_Source\PSoC5/PWMPulseCapture.c **** * Function Name: PWMPulseCapture_Init
  65:.\Generated_Source\PSoC5/PWMPulseCapture.c **** ********************************************************************************
  66:.\Generated_Source\PSoC5/PWMPulseCapture.c **** *
  67:.\Generated_Source\PSoC5/PWMPulseCapture.c **** * Summary:
  68:.\Generated_Source\PSoC5/PWMPulseCapture.c **** *  Initialize component's parameters to the parameters set by user in the 
  69:.\Generated_Source\PSoC5/PWMPulseCapture.c **** *  customizer of the component placed onto schematic. Usually called in 
  70:.\Generated_Source\PSoC5/PWMPulseCapture.c **** *  PWMPulseCapture_Start().
  71:.\Generated_Source\PSoC5/PWMPulseCapture.c **** *
  72:.\Generated_Source\PSoC5/PWMPulseCapture.c **** * Parameters:  
  73:.\Generated_Source\PSoC5/PWMPulseCapture.c **** *  None
  74:.\Generated_Source\PSoC5/PWMPulseCapture.c **** *
  75:.\Generated_Source\PSoC5/PWMPulseCapture.c **** * Return: 
  76:.\Generated_Source\PSoC5/PWMPulseCapture.c **** *  None
  77:.\Generated_Source\PSoC5/PWMPulseCapture.c **** *
  78:.\Generated_Source\PSoC5/PWMPulseCapture.c **** *******************************************************************************/
  79:.\Generated_Source\PSoC5/PWMPulseCapture.c **** void PWMPulseCapture_Init(void) 
  80:.\Generated_Source\PSoC5/PWMPulseCapture.c **** {
  79              		.loc 1 80 0
  80              		.cfi_startproc
  81              		@ args = 0, pretend = 0, frame = 8
  82              		@ frame_needed = 1, uses_anonymous_args = 0
  83 0000 80B5     		push	{r7, lr}
  84              	.LCFI2:
  85              		.cfi_def_cfa_offset 8
  86 0002 82B0     		sub	sp, sp, #8
  87              	.LCFI3:
ARM GAS  C:\Users\bryan.lee\AppData\Local\Temp\cc7tgPY9.s 			page 4


  88              		.cfi_def_cfa_offset 16
  89 0004 00AF     		add	r7, sp, #0
  90              		.cfi_offset 14, -4
  91              		.cfi_offset 7, -8
  92              	.LCFI4:
  93              		.cfi_def_cfa_register 7
  81:.\Generated_Source\PSoC5/PWMPulseCapture.c ****     #if (PWMPulseCapture_UsingFixedFunction || PWMPulseCapture_UseControl)
  82:.\Generated_Source\PSoC5/PWMPulseCapture.c ****         uint8 ctrl;
  83:.\Generated_Source\PSoC5/PWMPulseCapture.c ****     #endif /* (PWMPulseCapture_UsingFixedFunction || PWMPulseCapture_UseControl) */
  84:.\Generated_Source\PSoC5/PWMPulseCapture.c ****     
  85:.\Generated_Source\PSoC5/PWMPulseCapture.c ****     #if(!PWMPulseCapture_UsingFixedFunction) 
  86:.\Generated_Source\PSoC5/PWMPulseCapture.c ****         #if(PWMPulseCapture_UseStatus)
  87:.\Generated_Source\PSoC5/PWMPulseCapture.c ****             /* Interrupt State Backup for Critical Region*/
  88:.\Generated_Source\PSoC5/PWMPulseCapture.c ****             uint8 PWMPulseCapture_interruptState;
  89:.\Generated_Source\PSoC5/PWMPulseCapture.c ****         #endif /* (PWMPulseCapture_UseStatus) */
  90:.\Generated_Source\PSoC5/PWMPulseCapture.c ****     #endif /* (!PWMPulseCapture_UsingFixedFunction) */
  91:.\Generated_Source\PSoC5/PWMPulseCapture.c ****     
  92:.\Generated_Source\PSoC5/PWMPulseCapture.c ****     #if (PWMPulseCapture_UsingFixedFunction)
  93:.\Generated_Source\PSoC5/PWMPulseCapture.c ****         /* You are allowed to write the compare value (FF only) */
  94:.\Generated_Source\PSoC5/PWMPulseCapture.c ****         PWMPulseCapture_CONTROL |= PWMPulseCapture_CFG0_MODE;
  95:.\Generated_Source\PSoC5/PWMPulseCapture.c ****         #if (PWMPulseCapture_DeadBand2_4)
  96:.\Generated_Source\PSoC5/PWMPulseCapture.c ****             PWMPulseCapture_CONTROL |= PWMPulseCapture_CFG0_DB;
  97:.\Generated_Source\PSoC5/PWMPulseCapture.c ****         #endif /* (PWMPulseCapture_DeadBand2_4) */
  98:.\Generated_Source\PSoC5/PWMPulseCapture.c ****                 
  99:.\Generated_Source\PSoC5/PWMPulseCapture.c ****         /* Set the default Compare Mode */
 100:.\Generated_Source\PSoC5/PWMPulseCapture.c ****         #if(CY_PSOC5A)
 101:.\Generated_Source\PSoC5/PWMPulseCapture.c ****                 ctrl = PWMPulseCapture_CONTROL2 & ((uint8)(~PWMPulseCapture_CTRL_CMPMODE1_MASK));
 102:.\Generated_Source\PSoC5/PWMPulseCapture.c ****                 PWMPulseCapture_CONTROL2 = ctrl | PWMPulseCapture_DEFAULT_COMPARE1_MODE;
 103:.\Generated_Source\PSoC5/PWMPulseCapture.c ****         #endif /* (CY_PSOC5A) */
 104:.\Generated_Source\PSoC5/PWMPulseCapture.c ****         #if(CY_PSOC3 || CY_PSOC5LP)
 105:.\Generated_Source\PSoC5/PWMPulseCapture.c ****                 ctrl = PWMPulseCapture_CONTROL3 & ((uint8 )(~PWMPulseCapture_CTRL_CMPMODE1_MASK));
 106:.\Generated_Source\PSoC5/PWMPulseCapture.c ****                 PWMPulseCapture_CONTROL3 = ctrl | PWMPulseCapture_DEFAULT_COMPARE1_MODE;
 107:.\Generated_Source\PSoC5/PWMPulseCapture.c ****         #endif /* (CY_PSOC3 || CY_PSOC5LP) */
 108:.\Generated_Source\PSoC5/PWMPulseCapture.c ****         
 109:.\Generated_Source\PSoC5/PWMPulseCapture.c ****          /* Clear and Set SYNCTC and SYNCCMP bits of RT1 register */
 110:.\Generated_Source\PSoC5/PWMPulseCapture.c ****         PWMPulseCapture_RT1 &= ((uint8)(~PWMPulseCapture_RT1_MASK));
 111:.\Generated_Source\PSoC5/PWMPulseCapture.c ****         PWMPulseCapture_RT1 |= PWMPulseCapture_SYNC;     
 112:.\Generated_Source\PSoC5/PWMPulseCapture.c ****                 
 113:.\Generated_Source\PSoC5/PWMPulseCapture.c ****         /*Enable DSI Sync all all inputs of the PWM*/
 114:.\Generated_Source\PSoC5/PWMPulseCapture.c ****         PWMPulseCapture_RT1 &= ((uint8)(~PWMPulseCapture_SYNCDSI_MASK));
 115:.\Generated_Source\PSoC5/PWMPulseCapture.c ****         PWMPulseCapture_RT1 |= PWMPulseCapture_SYNCDSI_EN;
 116:.\Generated_Source\PSoC5/PWMPulseCapture.c ****        
 117:.\Generated_Source\PSoC5/PWMPulseCapture.c ****     #elif (PWMPulseCapture_UseControl)
 118:.\Generated_Source\PSoC5/PWMPulseCapture.c ****         /* Set the default compare mode defined in the parameter */
 119:.\Generated_Source\PSoC5/PWMPulseCapture.c ****         ctrl = PWMPulseCapture_CONTROL & ((uint8)(~PWMPulseCapture_CTRL_CMPMODE2_MASK)) & ((uint8)(
  94              		.loc 1 119 0
  95 0006 46F27653 		movw	r3, #:lower16:1073767798
  96 000a C4F20003 		movt	r3, #:upper16:1073767798
  97 000e 1B78     		ldrb	r3, [r3, #0]
  98 0010 DBB2     		uxtb	r3, r3
  99 0012 23F03F03 		bic	r3, r3, #63
 100 0016 BB71     		strb	r3, [r7, #6]
 120:.\Generated_Source\PSoC5/PWMPulseCapture.c ****         PWMPulseCapture_CONTROL = ctrl | PWMPulseCapture_DEFAULT_COMPARE2_MODE | 
 101              		.loc 1 120 0
 102 0018 46F27653 		movw	r3, #:lower16:1073767798
 103 001c C4F20003 		movt	r3, #:upper16:1073767798
 104 0020 BA79     		ldrb	r2, [r7, #6]
ARM GAS  C:\Users\bryan.lee\AppData\Local\Temp\cc7tgPY9.s 			page 5


 105 0022 42F00C02 		orr	r2, r2, #12
 106 0026 D2B2     		uxtb	r2, r2
 107 0028 1A70     		strb	r2, [r3, #0]
 121:.\Generated_Source\PSoC5/PWMPulseCapture.c ****                                    PWMPulseCapture_DEFAULT_COMPARE1_MODE;
 122:.\Generated_Source\PSoC5/PWMPulseCapture.c ****     #endif /* (PWMPulseCapture_UsingFixedFunction) */
 123:.\Generated_Source\PSoC5/PWMPulseCapture.c ****         
 124:.\Generated_Source\PSoC5/PWMPulseCapture.c ****     #if (!PWMPulseCapture_UsingFixedFunction)
 125:.\Generated_Source\PSoC5/PWMPulseCapture.c ****         #if (PWMPulseCapture_Resolution == 8)
 126:.\Generated_Source\PSoC5/PWMPulseCapture.c ****             /* Set FIFO 0 to 1 byte register for period*/
 127:.\Generated_Source\PSoC5/PWMPulseCapture.c ****             PWMPulseCapture_AUX_CONTROLDP0 |= (PWMPulseCapture_AUX_CTRL_FIFO0_CLR);
 128:.\Generated_Source\PSoC5/PWMPulseCapture.c ****         #else /* (PWMPulseCapture_Resolution == 16)*/
 129:.\Generated_Source\PSoC5/PWMPulseCapture.c ****             /* Set FIFO 0 to 1 byte register for period */
 130:.\Generated_Source\PSoC5/PWMPulseCapture.c ****             PWMPulseCapture_AUX_CONTROLDP0 |= (PWMPulseCapture_AUX_CTRL_FIFO0_CLR);
 108              		.loc 1 130 0
 109 002a 46F29653 		movw	r3, #:lower16:1073767830
 110 002e C4F20003 		movt	r3, #:upper16:1073767830
 111 0032 46F29652 		movw	r2, #:lower16:1073767830
 112 0036 C4F20002 		movt	r2, #:upper16:1073767830
 113 003a 1278     		ldrb	r2, [r2, #0]
 114 003c D2B2     		uxtb	r2, r2
 115 003e 42F00102 		orr	r2, r2, #1
 116 0042 D2B2     		uxtb	r2, r2
 117 0044 1A70     		strb	r2, [r3, #0]
 131:.\Generated_Source\PSoC5/PWMPulseCapture.c ****             PWMPulseCapture_AUX_CONTROLDP1 |= (PWMPulseCapture_AUX_CTRL_FIFO0_CLR);
 118              		.loc 1 131 0
 119 0046 46F29753 		movw	r3, #:lower16:1073767831
 120 004a C4F20003 		movt	r3, #:upper16:1073767831
 121 004e 46F29752 		movw	r2, #:lower16:1073767831
 122 0052 C4F20002 		movt	r2, #:upper16:1073767831
 123 0056 1278     		ldrb	r2, [r2, #0]
 124 0058 D2B2     		uxtb	r2, r2
 125 005a 42F00102 		orr	r2, r2, #1
 126 005e D2B2     		uxtb	r2, r2
 127 0060 1A70     		strb	r2, [r3, #0]
 132:.\Generated_Source\PSoC5/PWMPulseCapture.c ****         #endif /* (PWMPulseCapture_Resolution == 8) */
 133:.\Generated_Source\PSoC5/PWMPulseCapture.c **** 
 134:.\Generated_Source\PSoC5/PWMPulseCapture.c ****         PWMPulseCapture_WriteCounter(PWMPulseCapture_INIT_PERIOD_VALUE);
 128              		.loc 1 134 0
 129 0062 4FF6FF70 		movw	r0, #65535
 130 0066 FFF7FEFF 		bl	PWMPulseCapture_WriteCounter
 135:.\Generated_Source\PSoC5/PWMPulseCapture.c ****     #endif /* (!PWMPulseCapture_UsingFixedFunction) */
 136:.\Generated_Source\PSoC5/PWMPulseCapture.c ****         
 137:.\Generated_Source\PSoC5/PWMPulseCapture.c ****     PWMPulseCapture_WritePeriod(PWMPulseCapture_INIT_PERIOD_VALUE);
 131              		.loc 1 137 0
 132 006a 4FF6FF70 		movw	r0, #65535
 133 006e FFF7FEFF 		bl	PWMPulseCapture_WritePeriod
 138:.\Generated_Source\PSoC5/PWMPulseCapture.c **** 
 139:.\Generated_Source\PSoC5/PWMPulseCapture.c ****         #if (PWMPulseCapture_UseOneCompareMode)
 140:.\Generated_Source\PSoC5/PWMPulseCapture.c ****             PWMPulseCapture_WriteCompare(PWMPulseCapture_INIT_COMPARE_VALUE1);
 134              		.loc 1 140 0
 135 0072 4FF40040 		mov	r0, #32768
 136 0076 FFF7FEFF 		bl	PWMPulseCapture_WriteCompare
 141:.\Generated_Source\PSoC5/PWMPulseCapture.c ****         #else
 142:.\Generated_Source\PSoC5/PWMPulseCapture.c ****             PWMPulseCapture_WriteCompare1(PWMPulseCapture_INIT_COMPARE_VALUE1);
 143:.\Generated_Source\PSoC5/PWMPulseCapture.c ****             PWMPulseCapture_WriteCompare2(PWMPulseCapture_INIT_COMPARE_VALUE2);
 144:.\Generated_Source\PSoC5/PWMPulseCapture.c ****         #endif /* (PWMPulseCapture_UseOneCompareMode) */
 145:.\Generated_Source\PSoC5/PWMPulseCapture.c ****         
ARM GAS  C:\Users\bryan.lee\AppData\Local\Temp\cc7tgPY9.s 			page 6


 146:.\Generated_Source\PSoC5/PWMPulseCapture.c ****         #if (PWMPulseCapture_KillModeMinTime)
 147:.\Generated_Source\PSoC5/PWMPulseCapture.c ****             PWMPulseCapture_WriteKillTime(PWMPulseCapture_MinimumKillTime);
 148:.\Generated_Source\PSoC5/PWMPulseCapture.c ****         #endif /* (PWMPulseCapture_KillModeMinTime) */
 149:.\Generated_Source\PSoC5/PWMPulseCapture.c ****         
 150:.\Generated_Source\PSoC5/PWMPulseCapture.c ****         #if (PWMPulseCapture_DeadBandUsed)
 151:.\Generated_Source\PSoC5/PWMPulseCapture.c ****             PWMPulseCapture_WriteDeadTime(PWMPulseCapture_INIT_DEAD_TIME);
 152:.\Generated_Source\PSoC5/PWMPulseCapture.c ****         #endif /* (PWMPulseCapture_DeadBandUsed) */
 153:.\Generated_Source\PSoC5/PWMPulseCapture.c **** 
 154:.\Generated_Source\PSoC5/PWMPulseCapture.c ****     #if (PWMPulseCapture_UseStatus || PWMPulseCapture_UsingFixedFunction)
 155:.\Generated_Source\PSoC5/PWMPulseCapture.c ****         PWMPulseCapture_SetInterruptMode(PWMPulseCapture_INIT_INTERRUPTS_MODE);
 137              		.loc 1 155 0
 138 007a 4FF00100 		mov	r0, #1
 139 007e FFF7FEFF 		bl	PWMPulseCapture_SetInterruptMode
 156:.\Generated_Source\PSoC5/PWMPulseCapture.c ****     #endif /* (PWMPulseCapture_UseStatus || PWMPulseCapture_UsingFixedFunction) */
 157:.\Generated_Source\PSoC5/PWMPulseCapture.c ****         
 158:.\Generated_Source\PSoC5/PWMPulseCapture.c ****     #if (PWMPulseCapture_UsingFixedFunction)
 159:.\Generated_Source\PSoC5/PWMPulseCapture.c ****         /* Globally Enable the Fixed Function Block chosen */
 160:.\Generated_Source\PSoC5/PWMPulseCapture.c ****         PWMPulseCapture_GLOBAL_ENABLE |= PWMPulseCapture_BLOCK_EN_MASK;
 161:.\Generated_Source\PSoC5/PWMPulseCapture.c ****         /* Set the Interrupt source to come from the status register */
 162:.\Generated_Source\PSoC5/PWMPulseCapture.c ****         PWMPulseCapture_CONTROL2 |= PWMPulseCapture_CTRL2_IRQ_SEL;
 163:.\Generated_Source\PSoC5/PWMPulseCapture.c ****     #else
 164:.\Generated_Source\PSoC5/PWMPulseCapture.c ****         #if(PWMPulseCapture_UseStatus)
 165:.\Generated_Source\PSoC5/PWMPulseCapture.c ****             
 166:.\Generated_Source\PSoC5/PWMPulseCapture.c ****             /* CyEnterCriticalRegion and CyExitCriticalRegion are used to mark following region cri
 167:.\Generated_Source\PSoC5/PWMPulseCapture.c ****             /* Enter Critical Region*/
 168:.\Generated_Source\PSoC5/PWMPulseCapture.c ****             PWMPulseCapture_interruptState = CyEnterCriticalSection();
 140              		.loc 1 168 0
 141 0082 FFF7FEFF 		bl	CyEnterCriticalSection
 142 0086 0346     		mov	r3, r0
 143 0088 FB71     		strb	r3, [r7, #7]
 169:.\Generated_Source\PSoC5/PWMPulseCapture.c ****             /* Use the interrupt output of the status register for IRQ output */
 170:.\Generated_Source\PSoC5/PWMPulseCapture.c ****             PWMPulseCapture_STATUS_AUX_CTRL |= PWMPulseCapture_STATUS_ACTL_INT_EN_MASK;
 144              		.loc 1 170 0
 145 008a 46F29653 		movw	r3, #:lower16:1073767830
 146 008e C4F20003 		movt	r3, #:upper16:1073767830
 147 0092 46F29652 		movw	r2, #:lower16:1073767830
 148 0096 C4F20002 		movt	r2, #:upper16:1073767830
 149 009a 1278     		ldrb	r2, [r2, #0]
 150 009c D2B2     		uxtb	r2, r2
 151 009e 42F01002 		orr	r2, r2, #16
 152 00a2 D2B2     		uxtb	r2, r2
 153 00a4 1A70     		strb	r2, [r3, #0]
 171:.\Generated_Source\PSoC5/PWMPulseCapture.c ****             
 172:.\Generated_Source\PSoC5/PWMPulseCapture.c ****              /* Exit Critical Region*/
 173:.\Generated_Source\PSoC5/PWMPulseCapture.c ****             CyExitCriticalSection(PWMPulseCapture_interruptState);
 154              		.loc 1 173 0
 155 00a6 FB79     		ldrb	r3, [r7, #7]	@ zero_extendqisi2
 156 00a8 1846     		mov	r0, r3
 157 00aa FFF7FEFF 		bl	CyExitCriticalSection
 174:.\Generated_Source\PSoC5/PWMPulseCapture.c ****             
 175:.\Generated_Source\PSoC5/PWMPulseCapture.c ****             /* Clear the FIFO to enable the PWMPulseCapture_STATUS_FIFOFULL
 176:.\Generated_Source\PSoC5/PWMPulseCapture.c ****                    bit to be set on FIFO full. */
 177:.\Generated_Source\PSoC5/PWMPulseCapture.c ****             PWMPulseCapture_ClearFIFO();
 158              		.loc 1 177 0
 159 00ae FFF7FEFF 		bl	PWMPulseCapture_ClearFIFO
 178:.\Generated_Source\PSoC5/PWMPulseCapture.c ****         #endif /* (PWMPulseCapture_UseStatus) */
 179:.\Generated_Source\PSoC5/PWMPulseCapture.c ****     #endif /* (PWMPulseCapture_UsingFixedFunction) */
ARM GAS  C:\Users\bryan.lee\AppData\Local\Temp\cc7tgPY9.s 			page 7


 180:.\Generated_Source\PSoC5/PWMPulseCapture.c **** }
 160              		.loc 1 180 0
 161 00b2 07F10807 		add	r7, r7, #8
 162 00b6 BD46     		mov	sp, r7
 163 00b8 80BD     		pop	{r7, pc}
 164              		.cfi_endproc
 165              	.LFE1:
 166              		.size	PWMPulseCapture_Init, .-PWMPulseCapture_Init
 167 00ba 00BF     		.section	.text.PWMPulseCapture_Enable,"ax",%progbits
 168              		.align	2
 169              		.global	PWMPulseCapture_Enable
 170              		.thumb
 171              		.thumb_func
 172              		.type	PWMPulseCapture_Enable, %function
 173              	PWMPulseCapture_Enable:
 174              	.LFB2:
 181:.\Generated_Source\PSoC5/PWMPulseCapture.c **** 
 182:.\Generated_Source\PSoC5/PWMPulseCapture.c **** 
 183:.\Generated_Source\PSoC5/PWMPulseCapture.c **** /*******************************************************************************
 184:.\Generated_Source\PSoC5/PWMPulseCapture.c **** * Function Name: PWMPulseCapture_Enable
 185:.\Generated_Source\PSoC5/PWMPulseCapture.c **** ********************************************************************************
 186:.\Generated_Source\PSoC5/PWMPulseCapture.c **** *
 187:.\Generated_Source\PSoC5/PWMPulseCapture.c **** * Summary: 
 188:.\Generated_Source\PSoC5/PWMPulseCapture.c **** *  Enables the PWM block operation
 189:.\Generated_Source\PSoC5/PWMPulseCapture.c **** *
 190:.\Generated_Source\PSoC5/PWMPulseCapture.c **** * Parameters:  
 191:.\Generated_Source\PSoC5/PWMPulseCapture.c **** *  None
 192:.\Generated_Source\PSoC5/PWMPulseCapture.c **** *
 193:.\Generated_Source\PSoC5/PWMPulseCapture.c **** * Return: 
 194:.\Generated_Source\PSoC5/PWMPulseCapture.c **** *  None
 195:.\Generated_Source\PSoC5/PWMPulseCapture.c **** *
 196:.\Generated_Source\PSoC5/PWMPulseCapture.c **** * Side Effects: 
 197:.\Generated_Source\PSoC5/PWMPulseCapture.c **** *  This works only if software enable mode is chosen
 198:.\Generated_Source\PSoC5/PWMPulseCapture.c **** *
 199:.\Generated_Source\PSoC5/PWMPulseCapture.c **** *******************************************************************************/
 200:.\Generated_Source\PSoC5/PWMPulseCapture.c **** void PWMPulseCapture_Enable(void) 
 201:.\Generated_Source\PSoC5/PWMPulseCapture.c **** {
 175              		.loc 1 201 0
 176              		.cfi_startproc
 177              		@ args = 0, pretend = 0, frame = 0
 178              		@ frame_needed = 1, uses_anonymous_args = 0
 179              		@ link register save eliminated.
 180 0000 80B4     		push	{r7}
 181              	.LCFI5:
 182              		.cfi_def_cfa_offset 4
 183 0002 00AF     		add	r7, sp, #0
 184              		.cfi_offset 7, -4
 185              	.LCFI6:
 186              		.cfi_def_cfa_register 7
 202:.\Generated_Source\PSoC5/PWMPulseCapture.c ****     /* Globally Enable the Fixed Function Block chosen */
 203:.\Generated_Source\PSoC5/PWMPulseCapture.c ****     #if (PWMPulseCapture_UsingFixedFunction)
 204:.\Generated_Source\PSoC5/PWMPulseCapture.c ****         PWMPulseCapture_GLOBAL_ENABLE |= PWMPulseCapture_BLOCK_EN_MASK;
 205:.\Generated_Source\PSoC5/PWMPulseCapture.c ****         PWMPulseCapture_GLOBAL_STBY_ENABLE |= PWMPulseCapture_BLOCK_STBY_EN_MASK;
 206:.\Generated_Source\PSoC5/PWMPulseCapture.c ****     #endif /* (PWMPulseCapture_UsingFixedFunction) */
 207:.\Generated_Source\PSoC5/PWMPulseCapture.c ****     
 208:.\Generated_Source\PSoC5/PWMPulseCapture.c ****     /* Enable the PWM from the control register  */
 209:.\Generated_Source\PSoC5/PWMPulseCapture.c ****     #if (PWMPulseCapture_UseControl || PWMPulseCapture_UsingFixedFunction)
ARM GAS  C:\Users\bryan.lee\AppData\Local\Temp\cc7tgPY9.s 			page 8


 210:.\Generated_Source\PSoC5/PWMPulseCapture.c ****         PWMPulseCapture_CONTROL |= PWMPulseCapture_CTRL_ENABLE;
 187              		.loc 1 210 0
 188 0004 46F27653 		movw	r3, #:lower16:1073767798
 189 0008 C4F20003 		movt	r3, #:upper16:1073767798
 190 000c 46F27652 		movw	r2, #:lower16:1073767798
 191 0010 C4F20002 		movt	r2, #:upper16:1073767798
 192 0014 1278     		ldrb	r2, [r2, #0]
 193 0016 D2B2     		uxtb	r2, r2
 194 0018 6FEA4262 		mvn	r2, r2, lsl #25
 195 001c 6FEA5262 		mvn	r2, r2, lsr #25
 196 0020 D2B2     		uxtb	r2, r2
 197 0022 1A70     		strb	r2, [r3, #0]
 211:.\Generated_Source\PSoC5/PWMPulseCapture.c ****     #endif /* (PWMPulseCapture_UseControl || PWMPulseCapture_UsingFixedFunction) */
 212:.\Generated_Source\PSoC5/PWMPulseCapture.c **** }
 198              		.loc 1 212 0
 199 0024 BD46     		mov	sp, r7
 200 0026 80BC     		pop	{r7}
 201 0028 7047     		bx	lr
 202              		.cfi_endproc
 203              	.LFE2:
 204              		.size	PWMPulseCapture_Enable, .-PWMPulseCapture_Enable
 205 002a 00BF     		.section	.text.PWMPulseCapture_Stop,"ax",%progbits
 206              		.align	2
 207              		.global	PWMPulseCapture_Stop
 208              		.thumb
 209              		.thumb_func
 210              		.type	PWMPulseCapture_Stop, %function
 211              	PWMPulseCapture_Stop:
 212              	.LFB3:
 213:.\Generated_Source\PSoC5/PWMPulseCapture.c **** 
 214:.\Generated_Source\PSoC5/PWMPulseCapture.c **** 
 215:.\Generated_Source\PSoC5/PWMPulseCapture.c **** /*******************************************************************************
 216:.\Generated_Source\PSoC5/PWMPulseCapture.c **** * Function Name: PWMPulseCapture_Stop
 217:.\Generated_Source\PSoC5/PWMPulseCapture.c **** ********************************************************************************
 218:.\Generated_Source\PSoC5/PWMPulseCapture.c **** *
 219:.\Generated_Source\PSoC5/PWMPulseCapture.c **** * Summary:
 220:.\Generated_Source\PSoC5/PWMPulseCapture.c **** *  The stop function halts the PWM, but does not change any modes or disable
 221:.\Generated_Source\PSoC5/PWMPulseCapture.c **** *  interrupts.
 222:.\Generated_Source\PSoC5/PWMPulseCapture.c **** *
 223:.\Generated_Source\PSoC5/PWMPulseCapture.c **** * Parameters:  
 224:.\Generated_Source\PSoC5/PWMPulseCapture.c **** *  None  
 225:.\Generated_Source\PSoC5/PWMPulseCapture.c **** *
 226:.\Generated_Source\PSoC5/PWMPulseCapture.c **** * Return: 
 227:.\Generated_Source\PSoC5/PWMPulseCapture.c **** *  None
 228:.\Generated_Source\PSoC5/PWMPulseCapture.c **** *
 229:.\Generated_Source\PSoC5/PWMPulseCapture.c **** * Side Effects:
 230:.\Generated_Source\PSoC5/PWMPulseCapture.c **** *  If the Enable mode is set to Hardware only then this function
 231:.\Generated_Source\PSoC5/PWMPulseCapture.c **** *  has no effect on the operation of the PWM
 232:.\Generated_Source\PSoC5/PWMPulseCapture.c **** *
 233:.\Generated_Source\PSoC5/PWMPulseCapture.c **** *******************************************************************************/
 234:.\Generated_Source\PSoC5/PWMPulseCapture.c **** void PWMPulseCapture_Stop(void) 
 235:.\Generated_Source\PSoC5/PWMPulseCapture.c **** {
 213              		.loc 1 235 0
 214              		.cfi_startproc
 215              		@ args = 0, pretend = 0, frame = 0
 216              		@ frame_needed = 1, uses_anonymous_args = 0
 217              		@ link register save eliminated.
ARM GAS  C:\Users\bryan.lee\AppData\Local\Temp\cc7tgPY9.s 			page 9


 218 0000 80B4     		push	{r7}
 219              	.LCFI7:
 220              		.cfi_def_cfa_offset 4
 221 0002 00AF     		add	r7, sp, #0
 222              		.cfi_offset 7, -4
 223              	.LCFI8:
 224              		.cfi_def_cfa_register 7
 236:.\Generated_Source\PSoC5/PWMPulseCapture.c ****     #if (PWMPulseCapture_UseControl || PWMPulseCapture_UsingFixedFunction)
 237:.\Generated_Source\PSoC5/PWMPulseCapture.c ****         PWMPulseCapture_CONTROL &= ((uint8)(~PWMPulseCapture_CTRL_ENABLE));
 225              		.loc 1 237 0
 226 0004 46F27653 		movw	r3, #:lower16:1073767798
 227 0008 C4F20003 		movt	r3, #:upper16:1073767798
 228 000c 46F27652 		movw	r2, #:lower16:1073767798
 229 0010 C4F20002 		movt	r2, #:upper16:1073767798
 230 0014 1278     		ldrb	r2, [r2, #0]
 231 0016 D2B2     		uxtb	r2, r2
 232 0018 02F07F02 		and	r2, r2, #127
 233 001c 1A70     		strb	r2, [r3, #0]
 238:.\Generated_Source\PSoC5/PWMPulseCapture.c ****     #endif /* (PWMPulseCapture_UseControl || PWMPulseCapture_UsingFixedFunction) */
 239:.\Generated_Source\PSoC5/PWMPulseCapture.c ****     
 240:.\Generated_Source\PSoC5/PWMPulseCapture.c ****     /* Globally disable the Fixed Function Block chosen */
 241:.\Generated_Source\PSoC5/PWMPulseCapture.c ****     #if (PWMPulseCapture_UsingFixedFunction)
 242:.\Generated_Source\PSoC5/PWMPulseCapture.c ****         PWMPulseCapture_GLOBAL_ENABLE &= ((uint8)(~PWMPulseCapture_BLOCK_EN_MASK));
 243:.\Generated_Source\PSoC5/PWMPulseCapture.c ****         PWMPulseCapture_GLOBAL_STBY_ENABLE &= ((uint8)(~PWMPulseCapture_BLOCK_STBY_EN_MASK));
 244:.\Generated_Source\PSoC5/PWMPulseCapture.c ****     #endif /* (PWMPulseCapture_UsingFixedFunction) */
 245:.\Generated_Source\PSoC5/PWMPulseCapture.c **** }
 234              		.loc 1 245 0
 235 001e BD46     		mov	sp, r7
 236 0020 80BC     		pop	{r7}
 237 0022 7047     		bx	lr
 238              		.cfi_endproc
 239              	.LFE3:
 240              		.size	PWMPulseCapture_Stop, .-PWMPulseCapture_Stop
 241              		.section	.text.PWMPulseCapture_WriteCounter,"ax",%progbits
 242              		.align	2
 243              		.global	PWMPulseCapture_WriteCounter
 244              		.thumb
 245              		.thumb_func
 246              		.type	PWMPulseCapture_WriteCounter, %function
 247              	PWMPulseCapture_WriteCounter:
 248              	.LFB4:
 246:.\Generated_Source\PSoC5/PWMPulseCapture.c **** 
 247:.\Generated_Source\PSoC5/PWMPulseCapture.c **** 
 248:.\Generated_Source\PSoC5/PWMPulseCapture.c **** #if (PWMPulseCapture_UseOneCompareMode)
 249:.\Generated_Source\PSoC5/PWMPulseCapture.c **** 	#if (PWMPulseCapture_CompareMode1SW)
 250:.\Generated_Source\PSoC5/PWMPulseCapture.c **** 
 251:.\Generated_Source\PSoC5/PWMPulseCapture.c **** 
 252:.\Generated_Source\PSoC5/PWMPulseCapture.c **** 		/*******************************************************************************
 253:.\Generated_Source\PSoC5/PWMPulseCapture.c **** 		* Function Name: PWMPulseCapture_SetCompareMode
 254:.\Generated_Source\PSoC5/PWMPulseCapture.c **** 		********************************************************************************
 255:.\Generated_Source\PSoC5/PWMPulseCapture.c **** 		* 
 256:.\Generated_Source\PSoC5/PWMPulseCapture.c **** 		* Summary:
 257:.\Generated_Source\PSoC5/PWMPulseCapture.c **** 		*  This function writes the Compare Mode for the pwm output when in Dither mode,
 258:.\Generated_Source\PSoC5/PWMPulseCapture.c **** 		*  Center Align Mode or One Output Mode.
 259:.\Generated_Source\PSoC5/PWMPulseCapture.c **** 		*
 260:.\Generated_Source\PSoC5/PWMPulseCapture.c **** 		* Parameters:
 261:.\Generated_Source\PSoC5/PWMPulseCapture.c **** 		*  comparemode:  The new compare mode for the PWM output. Use the compare types
ARM GAS  C:\Users\bryan.lee\AppData\Local\Temp\cc7tgPY9.s 			page 10


 262:.\Generated_Source\PSoC5/PWMPulseCapture.c **** 		*                defined in the H file as input arguments.
 263:.\Generated_Source\PSoC5/PWMPulseCapture.c **** 		*
 264:.\Generated_Source\PSoC5/PWMPulseCapture.c **** 		* Return:
 265:.\Generated_Source\PSoC5/PWMPulseCapture.c **** 		*  None
 266:.\Generated_Source\PSoC5/PWMPulseCapture.c **** 		*
 267:.\Generated_Source\PSoC5/PWMPulseCapture.c **** 		*******************************************************************************/
 268:.\Generated_Source\PSoC5/PWMPulseCapture.c **** 		void PWMPulseCapture_SetCompareMode(uint8 comparemode) 
 269:.\Generated_Source\PSoC5/PWMPulseCapture.c **** 		{
 270:.\Generated_Source\PSoC5/PWMPulseCapture.c **** 		    #if(PWMPulseCapture_UsingFixedFunction)
 271:.\Generated_Source\PSoC5/PWMPulseCapture.c ****             
 272:.\Generated_Source\PSoC5/PWMPulseCapture.c ****                 #if(0 != PWMPulseCapture_CTRL_CMPMODE1_SHIFT)
 273:.\Generated_Source\PSoC5/PWMPulseCapture.c ****                     uint8 comparemodemasked = ((uint8)((uint8)comparemode << PWMPulseCapture_CTRL_C
 274:.\Generated_Source\PSoC5/PWMPulseCapture.c ****                 #else
 275:.\Generated_Source\PSoC5/PWMPulseCapture.c ****                     uint8 comparemodemasked = comparemode;
 276:.\Generated_Source\PSoC5/PWMPulseCapture.c ****                 #endif /* (0 != PWMPulseCapture_CTRL_CMPMODE1_SHIFT) */
 277:.\Generated_Source\PSoC5/PWMPulseCapture.c ****             
 278:.\Generated_Source\PSoC5/PWMPulseCapture.c **** 		        #if(CY_PSOC5A)
 279:.\Generated_Source\PSoC5/PWMPulseCapture.c **** 		            PWMPulseCapture_CONTROL2 &= ((uint8)(~PWMPulseCapture_CTRL_CMPMODE1_MASK)); /*Clear E
 280:.\Generated_Source\PSoC5/PWMPulseCapture.c **** 		            PWMPulseCapture_CONTROL2 |= comparemodemasked;  
 281:.\Generated_Source\PSoC5/PWMPulseCapture.c **** 		        #endif /* (CY_PSOC5A) */
 282:.\Generated_Source\PSoC5/PWMPulseCapture.c **** 		                
 283:.\Generated_Source\PSoC5/PWMPulseCapture.c **** 		        #if(CY_PSOC3 || CY_PSOC5LP)
 284:.\Generated_Source\PSoC5/PWMPulseCapture.c **** 		            PWMPulseCapture_CONTROL3 &= ((uint8)(~PWMPulseCapture_CTRL_CMPMODE1_MASK)); /*Clear E
 285:.\Generated_Source\PSoC5/PWMPulseCapture.c **** 		            PWMPulseCapture_CONTROL3 |= comparemodemasked;     
 286:.\Generated_Source\PSoC5/PWMPulseCapture.c **** 		        #endif /* (CY_PSOC3 || CY_PSOC5LP) */
 287:.\Generated_Source\PSoC5/PWMPulseCapture.c **** 		                
 288:.\Generated_Source\PSoC5/PWMPulseCapture.c **** 		    #elif (PWMPulseCapture_UseControl)
 289:.\Generated_Source\PSoC5/PWMPulseCapture.c **** 		        
 290:.\Generated_Source\PSoC5/PWMPulseCapture.c ****                 #if(0 != PWMPulseCapture_CTRL_CMPMODE1_SHIFT)
 291:.\Generated_Source\PSoC5/PWMPulseCapture.c ****                     uint8 comparemode1masked = ((uint8)((uint8)comparemode << PWMPulseCapture_CTRL_
 292:.\Generated_Source\PSoC5/PWMPulseCapture.c ****     		                                    PWMPulseCapture_CTRL_CMPMODE1_MASK;
 293:.\Generated_Source\PSoC5/PWMPulseCapture.c ****                 #else
 294:.\Generated_Source\PSoC5/PWMPulseCapture.c ****                     uint8 comparemode1masked = comparemode & PWMPulseCapture_CTRL_CMPMODE1_MASK;   
 295:.\Generated_Source\PSoC5/PWMPulseCapture.c ****                 #endif /* (0 != PWMPulseCapture_CTRL_CMPMODE1_SHIFT) */
 296:.\Generated_Source\PSoC5/PWMPulseCapture.c ****                 
 297:.\Generated_Source\PSoC5/PWMPulseCapture.c ****                 #if(0 != PWMPulseCapture_CTRL_CMPMODE2_SHIFT)                            
 298:.\Generated_Source\PSoC5/PWMPulseCapture.c ****     		        uint8 comparemode2masked = ((uint8)((uint8)comparemode << PWMPulseCapture_CTRL_CMPMOD
 299:.\Generated_Source\PSoC5/PWMPulseCapture.c ****     		                                   PWMPulseCapture_CTRL_CMPMODE2_MASK;
 300:.\Generated_Source\PSoC5/PWMPulseCapture.c ****                 #else
 301:.\Generated_Source\PSoC5/PWMPulseCapture.c ****     		        uint8 comparemode2masked = comparemode & PWMPulseCapture_CTRL_CMPMODE2_MASK;         
 302:.\Generated_Source\PSoC5/PWMPulseCapture.c ****                 #endif /* (0 != PWMPulseCapture_CTRL_CMPMODE2_SHIFT) */
 303:.\Generated_Source\PSoC5/PWMPulseCapture.c ****                 
 304:.\Generated_Source\PSoC5/PWMPulseCapture.c **** 		        /*Clear existing mode */
 305:.\Generated_Source\PSoC5/PWMPulseCapture.c **** 		        PWMPulseCapture_CONTROL &= ((uint8)(~(PWMPulseCapture_CTRL_CMPMODE1_MASK | PWMPulseCaptur
 306:.\Generated_Source\PSoC5/PWMPulseCapture.c **** 		        PWMPulseCapture_CONTROL |= (comparemode1masked | comparemode2masked);
 307:.\Generated_Source\PSoC5/PWMPulseCapture.c **** 		        
 308:.\Generated_Source\PSoC5/PWMPulseCapture.c **** 		    #else
 309:.\Generated_Source\PSoC5/PWMPulseCapture.c **** 		        uint8 temp = comparemode;
 310:.\Generated_Source\PSoC5/PWMPulseCapture.c **** 		    #endif /* (PWMPulseCapture_UsingFixedFunction) */
 311:.\Generated_Source\PSoC5/PWMPulseCapture.c **** 		}
 312:.\Generated_Source\PSoC5/PWMPulseCapture.c **** 	#endif /* PWMPulseCapture_CompareMode1SW */
 313:.\Generated_Source\PSoC5/PWMPulseCapture.c **** 
 314:.\Generated_Source\PSoC5/PWMPulseCapture.c **** #else /* UseOneCompareMode */
 315:.\Generated_Source\PSoC5/PWMPulseCapture.c **** 
 316:.\Generated_Source\PSoC5/PWMPulseCapture.c **** 	#if (PWMPulseCapture_CompareMode1SW)
 317:.\Generated_Source\PSoC5/PWMPulseCapture.c **** 
 318:.\Generated_Source\PSoC5/PWMPulseCapture.c **** 
ARM GAS  C:\Users\bryan.lee\AppData\Local\Temp\cc7tgPY9.s 			page 11


 319:.\Generated_Source\PSoC5/PWMPulseCapture.c **** 		/*******************************************************************************
 320:.\Generated_Source\PSoC5/PWMPulseCapture.c **** 		* Function Name: PWMPulseCapture_SetCompareMode1
 321:.\Generated_Source\PSoC5/PWMPulseCapture.c **** 		********************************************************************************
 322:.\Generated_Source\PSoC5/PWMPulseCapture.c **** 		* 
 323:.\Generated_Source\PSoC5/PWMPulseCapture.c **** 		* Summary:
 324:.\Generated_Source\PSoC5/PWMPulseCapture.c **** 		*  This function writes the Compare Mode for the pwm or pwm1 output
 325:.\Generated_Source\PSoC5/PWMPulseCapture.c **** 		*
 326:.\Generated_Source\PSoC5/PWMPulseCapture.c **** 		* Parameters:  
 327:.\Generated_Source\PSoC5/PWMPulseCapture.c **** 		*  comparemode:  The new compare mode for the PWM output. Use the compare types
 328:.\Generated_Source\PSoC5/PWMPulseCapture.c **** 		*                defined in the H file as input arguments.
 329:.\Generated_Source\PSoC5/PWMPulseCapture.c **** 		*
 330:.\Generated_Source\PSoC5/PWMPulseCapture.c **** 		* Return: 
 331:.\Generated_Source\PSoC5/PWMPulseCapture.c **** 		*  None
 332:.\Generated_Source\PSoC5/PWMPulseCapture.c **** 		*
 333:.\Generated_Source\PSoC5/PWMPulseCapture.c **** 		*******************************************************************************/
 334:.\Generated_Source\PSoC5/PWMPulseCapture.c **** 		void PWMPulseCapture_SetCompareMode1(uint8 comparemode) 
 335:.\Generated_Source\PSoC5/PWMPulseCapture.c **** 		{
 336:.\Generated_Source\PSoC5/PWMPulseCapture.c **** 		    #if(0 != PWMPulseCapture_CTRL_CMPMODE1_SHIFT)
 337:.\Generated_Source\PSoC5/PWMPulseCapture.c ****                 uint8 comparemodemasked = ((uint8)((uint8)comparemode << PWMPulseCapture_CTRL_CMPMO
 338:.\Generated_Source\PSoC5/PWMPulseCapture.c ****     		                               PWMPulseCapture_CTRL_CMPMODE1_MASK;
 339:.\Generated_Source\PSoC5/PWMPulseCapture.c **** 		    #else
 340:.\Generated_Source\PSoC5/PWMPulseCapture.c ****                 uint8 comparemodemasked = comparemode & PWMPulseCapture_CTRL_CMPMODE1_MASK;        
 341:.\Generated_Source\PSoC5/PWMPulseCapture.c ****             #endif /* (0 != PWMPulseCapture_CTRL_CMPMODE1_SHIFT) */
 342:.\Generated_Source\PSoC5/PWMPulseCapture.c ****                    
 343:.\Generated_Source\PSoC5/PWMPulseCapture.c **** 		    #if (PWMPulseCapture_UseControl)
 344:.\Generated_Source\PSoC5/PWMPulseCapture.c **** 		        PWMPulseCapture_CONTROL &= ((uint8)(~PWMPulseCapture_CTRL_CMPMODE1_MASK)); /*Clear existi
 345:.\Generated_Source\PSoC5/PWMPulseCapture.c **** 		        PWMPulseCapture_CONTROL |= comparemodemasked;
 346:.\Generated_Source\PSoC5/PWMPulseCapture.c **** 		    #endif /* (PWMPulseCapture_UseControl) */
 347:.\Generated_Source\PSoC5/PWMPulseCapture.c **** 		}
 348:.\Generated_Source\PSoC5/PWMPulseCapture.c **** 	#endif /* PWMPulseCapture_CompareMode1SW */
 349:.\Generated_Source\PSoC5/PWMPulseCapture.c **** 
 350:.\Generated_Source\PSoC5/PWMPulseCapture.c **** #if (PWMPulseCapture_CompareMode2SW)
 351:.\Generated_Source\PSoC5/PWMPulseCapture.c **** 
 352:.\Generated_Source\PSoC5/PWMPulseCapture.c **** 
 353:.\Generated_Source\PSoC5/PWMPulseCapture.c ****     /*******************************************************************************
 354:.\Generated_Source\PSoC5/PWMPulseCapture.c ****     * Function Name: PWMPulseCapture_SetCompareMode2
 355:.\Generated_Source\PSoC5/PWMPulseCapture.c ****     ********************************************************************************
 356:.\Generated_Source\PSoC5/PWMPulseCapture.c ****     * 
 357:.\Generated_Source\PSoC5/PWMPulseCapture.c ****     * Summary:
 358:.\Generated_Source\PSoC5/PWMPulseCapture.c ****     *  This function writes the Compare Mode for the pwm or pwm2 output
 359:.\Generated_Source\PSoC5/PWMPulseCapture.c ****     *
 360:.\Generated_Source\PSoC5/PWMPulseCapture.c ****     * Parameters:  
 361:.\Generated_Source\PSoC5/PWMPulseCapture.c ****     *  comparemode:  The new compare mode for the PWM output. Use the compare types
 362:.\Generated_Source\PSoC5/PWMPulseCapture.c ****     *                defined in the H file as input arguments.
 363:.\Generated_Source\PSoC5/PWMPulseCapture.c ****     *
 364:.\Generated_Source\PSoC5/PWMPulseCapture.c ****     * Return: 
 365:.\Generated_Source\PSoC5/PWMPulseCapture.c ****     *  None
 366:.\Generated_Source\PSoC5/PWMPulseCapture.c ****     *
 367:.\Generated_Source\PSoC5/PWMPulseCapture.c ****     *******************************************************************************/
 368:.\Generated_Source\PSoC5/PWMPulseCapture.c ****     void PWMPulseCapture_SetCompareMode2(uint8 comparemode) 
 369:.\Generated_Source\PSoC5/PWMPulseCapture.c ****     {
 370:.\Generated_Source\PSoC5/PWMPulseCapture.c **** 
 371:.\Generated_Source\PSoC5/PWMPulseCapture.c ****         #if(0 != PWMPulseCapture_CTRL_CMPMODE2_SHIFT)
 372:.\Generated_Source\PSoC5/PWMPulseCapture.c ****             uint8 comparemodemasked = ((uint8)((uint8)comparemode << PWMPulseCapture_CTRL_CMPMODE2_
 373:.\Generated_Source\PSoC5/PWMPulseCapture.c ****                                                  PWMPulseCapture_CTRL_CMPMODE2_MASK;
 374:.\Generated_Source\PSoC5/PWMPulseCapture.c ****         #else
 375:.\Generated_Source\PSoC5/PWMPulseCapture.c ****             uint8 comparemodemasked = comparemode & PWMPulseCapture_CTRL_CMPMODE2_MASK;            
ARM GAS  C:\Users\bryan.lee\AppData\Local\Temp\cc7tgPY9.s 			page 12


 376:.\Generated_Source\PSoC5/PWMPulseCapture.c ****         #endif /* (0 != PWMPulseCapture_CTRL_CMPMODE2_SHIFT) */
 377:.\Generated_Source\PSoC5/PWMPulseCapture.c ****         
 378:.\Generated_Source\PSoC5/PWMPulseCapture.c ****         #if (PWMPulseCapture_UseControl)
 379:.\Generated_Source\PSoC5/PWMPulseCapture.c ****             PWMPulseCapture_CONTROL &= ((uint8)(~PWMPulseCapture_CTRL_CMPMODE2_MASK)); /*Clear exis
 380:.\Generated_Source\PSoC5/PWMPulseCapture.c ****             PWMPulseCapture_CONTROL |= comparemodemasked;
 381:.\Generated_Source\PSoC5/PWMPulseCapture.c ****         #endif /* (PWMPulseCapture_UseControl) */
 382:.\Generated_Source\PSoC5/PWMPulseCapture.c ****     }
 383:.\Generated_Source\PSoC5/PWMPulseCapture.c ****     #endif /*PWMPulseCapture_CompareMode2SW */
 384:.\Generated_Source\PSoC5/PWMPulseCapture.c **** 
 385:.\Generated_Source\PSoC5/PWMPulseCapture.c **** #endif /* UseOneCompareMode */
 386:.\Generated_Source\PSoC5/PWMPulseCapture.c **** 
 387:.\Generated_Source\PSoC5/PWMPulseCapture.c **** 
 388:.\Generated_Source\PSoC5/PWMPulseCapture.c **** #if (!PWMPulseCapture_UsingFixedFunction)
 389:.\Generated_Source\PSoC5/PWMPulseCapture.c **** 
 390:.\Generated_Source\PSoC5/PWMPulseCapture.c **** 
 391:.\Generated_Source\PSoC5/PWMPulseCapture.c ****     /*******************************************************************************
 392:.\Generated_Source\PSoC5/PWMPulseCapture.c ****     * Function Name: PWMPulseCapture_WriteCounter
 393:.\Generated_Source\PSoC5/PWMPulseCapture.c ****     ********************************************************************************
 394:.\Generated_Source\PSoC5/PWMPulseCapture.c ****     * 
 395:.\Generated_Source\PSoC5/PWMPulseCapture.c ****     * Summary:
 396:.\Generated_Source\PSoC5/PWMPulseCapture.c ****     *  This function is used to change the counter value.
 397:.\Generated_Source\PSoC5/PWMPulseCapture.c ****     *
 398:.\Generated_Source\PSoC5/PWMPulseCapture.c ****     * Parameters:  
 399:.\Generated_Source\PSoC5/PWMPulseCapture.c ****     *  counter:  This value may be between 1 and (2^Resolution)-1.   
 400:.\Generated_Source\PSoC5/PWMPulseCapture.c ****     *
 401:.\Generated_Source\PSoC5/PWMPulseCapture.c ****     * Return: 
 402:.\Generated_Source\PSoC5/PWMPulseCapture.c ****     *  None
 403:.\Generated_Source\PSoC5/PWMPulseCapture.c ****     *
 404:.\Generated_Source\PSoC5/PWMPulseCapture.c ****     *******************************************************************************/
 405:.\Generated_Source\PSoC5/PWMPulseCapture.c ****     void PWMPulseCapture_WriteCounter(uint16 counter) \
 406:.\Generated_Source\PSoC5/PWMPulseCapture.c ****                                        
 407:.\Generated_Source\PSoC5/PWMPulseCapture.c ****     {
 249              		.loc 1 407 0
 250              		.cfi_startproc
 251              		@ args = 0, pretend = 0, frame = 8
 252              		@ frame_needed = 1, uses_anonymous_args = 0
 253              		@ link register save eliminated.
 254 0000 80B4     		push	{r7}
 255              	.LCFI9:
 256              		.cfi_def_cfa_offset 4
 257 0002 83B0     		sub	sp, sp, #12
 258              	.LCFI10:
 259              		.cfi_def_cfa_offset 16
 260 0004 00AF     		add	r7, sp, #0
 261              		.cfi_offset 7, -4
 262              	.LCFI11:
 263              		.cfi_def_cfa_register 7
 264 0006 0346     		mov	r3, r0
 265 0008 FB80     		strh	r3, [r7, #6]	@ movhi
 408:.\Generated_Source\PSoC5/PWMPulseCapture.c ****         CY_SET_REG16(PWMPulseCapture_COUNTER_LSB_PTR, counter);
 266              		.loc 1 408 0
 267 000a 46F60C23 		movw	r3, #:lower16:1073768972
 268 000e C4F20003 		movt	r3, #:upper16:1073768972
 269 0012 FA88     		ldrh	r2, [r7, #6]	@ movhi
 270 0014 1A80     		strh	r2, [r3, #0]	@ movhi
 409:.\Generated_Source\PSoC5/PWMPulseCapture.c ****     }
 271              		.loc 1 409 0
ARM GAS  C:\Users\bryan.lee\AppData\Local\Temp\cc7tgPY9.s 			page 13


 272 0016 07F10C07 		add	r7, r7, #12
 273 001a BD46     		mov	sp, r7
 274 001c 80BC     		pop	{r7}
 275 001e 7047     		bx	lr
 276              		.cfi_endproc
 277              	.LFE4:
 278              		.size	PWMPulseCapture_WriteCounter, .-PWMPulseCapture_WriteCounter
 279              		.section	.text.PWMPulseCapture_ReadCounter,"ax",%progbits
 280              		.align	2
 281              		.global	PWMPulseCapture_ReadCounter
 282              		.thumb
 283              		.thumb_func
 284              		.type	PWMPulseCapture_ReadCounter, %function
 285              	PWMPulseCapture_ReadCounter:
 286              	.LFB5:
 410:.\Generated_Source\PSoC5/PWMPulseCapture.c **** 
 411:.\Generated_Source\PSoC5/PWMPulseCapture.c **** 
 412:.\Generated_Source\PSoC5/PWMPulseCapture.c ****     /*******************************************************************************
 413:.\Generated_Source\PSoC5/PWMPulseCapture.c ****     * Function Name: PWMPulseCapture_ReadCounter
 414:.\Generated_Source\PSoC5/PWMPulseCapture.c ****     ********************************************************************************
 415:.\Generated_Source\PSoC5/PWMPulseCapture.c ****     * 
 416:.\Generated_Source\PSoC5/PWMPulseCapture.c ****     * Summary:
 417:.\Generated_Source\PSoC5/PWMPulseCapture.c ****     *  This function returns the current value of the counter.  It doesn't matter
 418:.\Generated_Source\PSoC5/PWMPulseCapture.c ****     *  if the counter is enabled or running.
 419:.\Generated_Source\PSoC5/PWMPulseCapture.c ****     *
 420:.\Generated_Source\PSoC5/PWMPulseCapture.c ****     * Parameters:  
 421:.\Generated_Source\PSoC5/PWMPulseCapture.c ****     *  None  
 422:.\Generated_Source\PSoC5/PWMPulseCapture.c ****     *
 423:.\Generated_Source\PSoC5/PWMPulseCapture.c ****     * Return: 
 424:.\Generated_Source\PSoC5/PWMPulseCapture.c ****     *  The current value of the counter.
 425:.\Generated_Source\PSoC5/PWMPulseCapture.c ****     *
 426:.\Generated_Source\PSoC5/PWMPulseCapture.c ****     *******************************************************************************/
 427:.\Generated_Source\PSoC5/PWMPulseCapture.c ****     uint16 PWMPulseCapture_ReadCounter(void) 
 428:.\Generated_Source\PSoC5/PWMPulseCapture.c ****     {
 287              		.loc 1 428 0
 288              		.cfi_startproc
 289              		@ args = 0, pretend = 0, frame = 0
 290              		@ frame_needed = 1, uses_anonymous_args = 0
 291              		@ link register save eliminated.
 292 0000 80B4     		push	{r7}
 293              	.LCFI12:
 294              		.cfi_def_cfa_offset 4
 295 0002 00AF     		add	r7, sp, #0
 296              		.cfi_offset 7, -4
 297              	.LCFI13:
 298              		.cfi_def_cfa_register 7
 429:.\Generated_Source\PSoC5/PWMPulseCapture.c ****         /* Force capture by reading Accumulator */
 430:.\Generated_Source\PSoC5/PWMPulseCapture.c ****         /* Must first do a software capture to be able to read the counter */
 431:.\Generated_Source\PSoC5/PWMPulseCapture.c ****         /* It is up to the user code to make sure there isn't already captured data in the FIFO */
 432:.\Generated_Source\PSoC5/PWMPulseCapture.c ****         (void)PWMPulseCapture_COUNTERCAP_LSB;
 299              		.loc 1 432 0
 300 0004 46F62C23 		movw	r3, #:lower16:1073769004
 301 0008 C4F20003 		movt	r3, #:upper16:1073769004
 302 000c 1B88     		ldrh	r3, [r3, #0]	@ movhi
 433:.\Generated_Source\PSoC5/PWMPulseCapture.c ****         
 434:.\Generated_Source\PSoC5/PWMPulseCapture.c ****         /* Read the data from the FIFO (or capture register for Fixed Function)*/
 435:.\Generated_Source\PSoC5/PWMPulseCapture.c ****         return (CY_GET_REG16(PWMPulseCapture_CAPTURE_LSB_PTR));
ARM GAS  C:\Users\bryan.lee\AppData\Local\Temp\cc7tgPY9.s 			page 14


 303              		.loc 1 435 0
 304 000e 46F6AC23 		movw	r3, #:lower16:1073769132
 305 0012 C4F20003 		movt	r3, #:upper16:1073769132
 306 0016 1B88     		ldrh	r3, [r3, #0]	@ movhi
 307 0018 9BB2     		uxth	r3, r3
 436:.\Generated_Source\PSoC5/PWMPulseCapture.c ****     }
 308              		.loc 1 436 0
 309 001a 1846     		mov	r0, r3
 310 001c BD46     		mov	sp, r7
 311 001e 80BC     		pop	{r7}
 312 0020 7047     		bx	lr
 313              		.cfi_endproc
 314              	.LFE5:
 315              		.size	PWMPulseCapture_ReadCounter, .-PWMPulseCapture_ReadCounter
 316 0022 00BF     		.section	.text.PWMPulseCapture_ClearFIFO,"ax",%progbits
 317              		.align	2
 318              		.global	PWMPulseCapture_ClearFIFO
 319              		.thumb
 320              		.thumb_func
 321              		.type	PWMPulseCapture_ClearFIFO, %function
 322              	PWMPulseCapture_ClearFIFO:
 323              	.LFB6:
 437:.\Generated_Source\PSoC5/PWMPulseCapture.c **** 
 438:.\Generated_Source\PSoC5/PWMPulseCapture.c ****         #if (PWMPulseCapture_UseStatus)
 439:.\Generated_Source\PSoC5/PWMPulseCapture.c **** 
 440:.\Generated_Source\PSoC5/PWMPulseCapture.c **** 
 441:.\Generated_Source\PSoC5/PWMPulseCapture.c ****             /*******************************************************************************
 442:.\Generated_Source\PSoC5/PWMPulseCapture.c ****             * Function Name: PWMPulseCapture_ClearFIFO
 443:.\Generated_Source\PSoC5/PWMPulseCapture.c ****             ********************************************************************************
 444:.\Generated_Source\PSoC5/PWMPulseCapture.c ****             * 
 445:.\Generated_Source\PSoC5/PWMPulseCapture.c ****             * Summary:
 446:.\Generated_Source\PSoC5/PWMPulseCapture.c ****             *  This function clears all capture data from the capture FIFO
 447:.\Generated_Source\PSoC5/PWMPulseCapture.c ****             *
 448:.\Generated_Source\PSoC5/PWMPulseCapture.c ****             * Parameters:  
 449:.\Generated_Source\PSoC5/PWMPulseCapture.c ****             *  None
 450:.\Generated_Source\PSoC5/PWMPulseCapture.c ****             *
 451:.\Generated_Source\PSoC5/PWMPulseCapture.c ****             * Return: 
 452:.\Generated_Source\PSoC5/PWMPulseCapture.c ****             *  None
 453:.\Generated_Source\PSoC5/PWMPulseCapture.c ****             *
 454:.\Generated_Source\PSoC5/PWMPulseCapture.c ****             *******************************************************************************/
 455:.\Generated_Source\PSoC5/PWMPulseCapture.c ****             void PWMPulseCapture_ClearFIFO(void) 
 456:.\Generated_Source\PSoC5/PWMPulseCapture.c ****             {
 324              		.loc 1 456 0
 325              		.cfi_startproc
 326              		@ args = 0, pretend = 0, frame = 0
 327              		@ frame_needed = 1, uses_anonymous_args = 0
 328 0000 80B5     		push	{r7, lr}
 329              	.LCFI14:
 330              		.cfi_def_cfa_offset 8
 331 0002 00AF     		add	r7, sp, #0
 332              		.cfi_offset 14, -4
 333              		.cfi_offset 7, -8
 334              	.LCFI15:
 335              		.cfi_def_cfa_register 7
 457:.\Generated_Source\PSoC5/PWMPulseCapture.c ****                 while(0u != (PWMPulseCapture_ReadStatusRegister() & PWMPulseCapture_STATUS_FIFONEMP
 336              		.loc 1 457 0
 337 0004 01E0     		b	.L15
ARM GAS  C:\Users\bryan.lee\AppData\Local\Temp\cc7tgPY9.s 			page 15


 338              	.L16:
 458:.\Generated_Source\PSoC5/PWMPulseCapture.c ****                 {
 459:.\Generated_Source\PSoC5/PWMPulseCapture.c ****                     (void)PWMPulseCapture_ReadCapture();
 339              		.loc 1 459 0
 340 0006 FFF7FEFF 		bl	PWMPulseCapture_ReadCapture
 341              	.L15:
 342              		.loc 1 457 0
 343 000a FFF7FEFF 		bl	PWMPulseCapture_ReadStatusRegister
 344 000e 0346     		mov	r3, r0
 345 0010 03F01003 		and	r3, r3, #16
 346 0014 002B     		cmp	r3, #0
 347 0016 F6D1     		bne	.L16
 460:.\Generated_Source\PSoC5/PWMPulseCapture.c ****                 }
 461:.\Generated_Source\PSoC5/PWMPulseCapture.c ****             }
 348              		.loc 1 461 0
 349 0018 80BD     		pop	{r7, pc}
 350              		.cfi_endproc
 351              	.LFE6:
 352              		.size	PWMPulseCapture_ClearFIFO, .-PWMPulseCapture_ClearFIFO
 353 001a 00BF     		.section	.text.PWMPulseCapture_WritePeriod,"ax",%progbits
 354              		.align	2
 355              		.global	PWMPulseCapture_WritePeriod
 356              		.thumb
 357              		.thumb_func
 358              		.type	PWMPulseCapture_WritePeriod, %function
 359              	PWMPulseCapture_WritePeriod:
 360              	.LFB7:
 462:.\Generated_Source\PSoC5/PWMPulseCapture.c **** 
 463:.\Generated_Source\PSoC5/PWMPulseCapture.c ****         #endif /* PWMPulseCapture_UseStatus */
 464:.\Generated_Source\PSoC5/PWMPulseCapture.c **** 
 465:.\Generated_Source\PSoC5/PWMPulseCapture.c **** #endif /* !PWMPulseCapture_UsingFixedFunction */
 466:.\Generated_Source\PSoC5/PWMPulseCapture.c **** 
 467:.\Generated_Source\PSoC5/PWMPulseCapture.c **** 
 468:.\Generated_Source\PSoC5/PWMPulseCapture.c **** /*******************************************************************************
 469:.\Generated_Source\PSoC5/PWMPulseCapture.c **** * Function Name: PWMPulseCapture_WritePeriod
 470:.\Generated_Source\PSoC5/PWMPulseCapture.c **** ********************************************************************************
 471:.\Generated_Source\PSoC5/PWMPulseCapture.c **** * 
 472:.\Generated_Source\PSoC5/PWMPulseCapture.c **** * Summary:
 473:.\Generated_Source\PSoC5/PWMPulseCapture.c **** *  This function is used to change the period of the counter.  The new period 
 474:.\Generated_Source\PSoC5/PWMPulseCapture.c **** *  will be loaded the next time terminal count is detected.
 475:.\Generated_Source\PSoC5/PWMPulseCapture.c **** *
 476:.\Generated_Source\PSoC5/PWMPulseCapture.c **** * Parameters:  
 477:.\Generated_Source\PSoC5/PWMPulseCapture.c **** *  period:  Period value. May be between 1 and (2^Resolution)-1.  A value of 0 
 478:.\Generated_Source\PSoC5/PWMPulseCapture.c **** *           will result in the counter remaining at zero.
 479:.\Generated_Source\PSoC5/PWMPulseCapture.c **** *
 480:.\Generated_Source\PSoC5/PWMPulseCapture.c **** * Return: 
 481:.\Generated_Source\PSoC5/PWMPulseCapture.c **** *  None
 482:.\Generated_Source\PSoC5/PWMPulseCapture.c **** *
 483:.\Generated_Source\PSoC5/PWMPulseCapture.c **** *******************************************************************************/
 484:.\Generated_Source\PSoC5/PWMPulseCapture.c **** void PWMPulseCapture_WritePeriod(uint16 period) 
 485:.\Generated_Source\PSoC5/PWMPulseCapture.c **** {
 361              		.loc 1 485 0
 362              		.cfi_startproc
 363              		@ args = 0, pretend = 0, frame = 8
 364              		@ frame_needed = 1, uses_anonymous_args = 0
 365              		@ link register save eliminated.
 366 0000 80B4     		push	{r7}
ARM GAS  C:\Users\bryan.lee\AppData\Local\Temp\cc7tgPY9.s 			page 16


 367              	.LCFI16:
 368              		.cfi_def_cfa_offset 4
 369 0002 83B0     		sub	sp, sp, #12
 370              	.LCFI17:
 371              		.cfi_def_cfa_offset 16
 372 0004 00AF     		add	r7, sp, #0
 373              		.cfi_offset 7, -4
 374              	.LCFI18:
 375              		.cfi_def_cfa_register 7
 376 0006 0346     		mov	r3, r0
 377 0008 FB80     		strh	r3, [r7, #6]	@ movhi
 486:.\Generated_Source\PSoC5/PWMPulseCapture.c ****     #if(PWMPulseCapture_UsingFixedFunction)
 487:.\Generated_Source\PSoC5/PWMPulseCapture.c ****         CY_SET_REG16(PWMPulseCapture_PERIOD_LSB_PTR, (uint16)period);
 488:.\Generated_Source\PSoC5/PWMPulseCapture.c ****     #else
 489:.\Generated_Source\PSoC5/PWMPulseCapture.c ****         CY_SET_REG16(PWMPulseCapture_PERIOD_LSB_PTR, period);
 378              		.loc 1 489 0
 379 000a 46F68C23 		movw	r3, #:lower16:1073769100
 380 000e C4F20003 		movt	r3, #:upper16:1073769100
 381 0012 FA88     		ldrh	r2, [r7, #6]	@ movhi
 382 0014 1A80     		strh	r2, [r3, #0]	@ movhi
 490:.\Generated_Source\PSoC5/PWMPulseCapture.c ****     #endif /* (PWMPulseCapture_UsingFixedFunction) */
 491:.\Generated_Source\PSoC5/PWMPulseCapture.c **** }
 383              		.loc 1 491 0
 384 0016 07F10C07 		add	r7, r7, #12
 385 001a BD46     		mov	sp, r7
 386 001c 80BC     		pop	{r7}
 387 001e 7047     		bx	lr
 388              		.cfi_endproc
 389              	.LFE7:
 390              		.size	PWMPulseCapture_WritePeriod, .-PWMPulseCapture_WritePeriod
 391              		.section	.text.PWMPulseCapture_WriteCompare,"ax",%progbits
 392              		.align	2
 393              		.global	PWMPulseCapture_WriteCompare
 394              		.thumb
 395              		.thumb_func
 396              		.type	PWMPulseCapture_WriteCompare, %function
 397              	PWMPulseCapture_WriteCompare:
 398              	.LFB8:
 492:.\Generated_Source\PSoC5/PWMPulseCapture.c **** 
 493:.\Generated_Source\PSoC5/PWMPulseCapture.c **** #if (PWMPulseCapture_UseOneCompareMode)
 494:.\Generated_Source\PSoC5/PWMPulseCapture.c **** 
 495:.\Generated_Source\PSoC5/PWMPulseCapture.c **** 
 496:.\Generated_Source\PSoC5/PWMPulseCapture.c ****     /*******************************************************************************
 497:.\Generated_Source\PSoC5/PWMPulseCapture.c ****     * Function Name: PWMPulseCapture_WriteCompare
 498:.\Generated_Source\PSoC5/PWMPulseCapture.c ****     ********************************************************************************
 499:.\Generated_Source\PSoC5/PWMPulseCapture.c ****     * 
 500:.\Generated_Source\PSoC5/PWMPulseCapture.c ****     * Summary:
 501:.\Generated_Source\PSoC5/PWMPulseCapture.c ****     *  This funtion is used to change the compare1 value when the PWM is in Dither
 502:.\Generated_Source\PSoC5/PWMPulseCapture.c ****     *  mode. The compare output will reflect the new value on the next UDB clock. 
 503:.\Generated_Source\PSoC5/PWMPulseCapture.c ****     *  The compare output will be driven high when the present counter value is 
 504:.\Generated_Source\PSoC5/PWMPulseCapture.c ****     *  compared to the compare value based on the compare mode defined in 
 505:.\Generated_Source\PSoC5/PWMPulseCapture.c ****     *  Dither Mode.
 506:.\Generated_Source\PSoC5/PWMPulseCapture.c ****     *
 507:.\Generated_Source\PSoC5/PWMPulseCapture.c ****     * Parameters:  
 508:.\Generated_Source\PSoC5/PWMPulseCapture.c ****     *  compare:  New compare value.  
 509:.\Generated_Source\PSoC5/PWMPulseCapture.c ****     *
 510:.\Generated_Source\PSoC5/PWMPulseCapture.c ****     * Return: 
ARM GAS  C:\Users\bryan.lee\AppData\Local\Temp\cc7tgPY9.s 			page 17


 511:.\Generated_Source\PSoC5/PWMPulseCapture.c ****     *  None
 512:.\Generated_Source\PSoC5/PWMPulseCapture.c ****     *
 513:.\Generated_Source\PSoC5/PWMPulseCapture.c ****     * Side Effects:
 514:.\Generated_Source\PSoC5/PWMPulseCapture.c ****     *  This function is only available if the PWM mode parameter is set to
 515:.\Generated_Source\PSoC5/PWMPulseCapture.c ****     *  Dither Mode, Center Aligned Mode or One Output Mode
 516:.\Generated_Source\PSoC5/PWMPulseCapture.c ****     *
 517:.\Generated_Source\PSoC5/PWMPulseCapture.c ****     *******************************************************************************/
 518:.\Generated_Source\PSoC5/PWMPulseCapture.c ****     void PWMPulseCapture_WriteCompare(uint16 compare) \
 519:.\Generated_Source\PSoC5/PWMPulseCapture.c ****                                        
 520:.\Generated_Source\PSoC5/PWMPulseCapture.c ****     {	
 399              		.loc 1 520 0
 400              		.cfi_startproc
 401              		@ args = 0, pretend = 0, frame = 8
 402              		@ frame_needed = 1, uses_anonymous_args = 0
 403              		@ link register save eliminated.
 404 0000 80B4     		push	{r7}
 405              	.LCFI19:
 406              		.cfi_def_cfa_offset 4
 407 0002 83B0     		sub	sp, sp, #12
 408              	.LCFI20:
 409              		.cfi_def_cfa_offset 16
 410 0004 00AF     		add	r7, sp, #0
 411              		.cfi_offset 7, -4
 412              	.LCFI21:
 413              		.cfi_def_cfa_register 7
 414 0006 0346     		mov	r3, r0
 415 0008 FB80     		strh	r3, [r7, #6]	@ movhi
 521:.\Generated_Source\PSoC5/PWMPulseCapture.c **** 		#if(PWMPulseCapture_UsingFixedFunction)
 522:.\Generated_Source\PSoC5/PWMPulseCapture.c **** 			CY_SET_REG16(PWMPulseCapture_COMPARE1_LSB_PTR, (uint16)compare);
 523:.\Generated_Source\PSoC5/PWMPulseCapture.c **** 		#else
 524:.\Generated_Source\PSoC5/PWMPulseCapture.c **** 	        CY_SET_REG16(PWMPulseCapture_COMPARE1_LSB_PTR, compare);	
 416              		.loc 1 524 0
 417 000a 46F64C23 		movw	r3, #:lower16:1073769036
 418 000e C4F20003 		movt	r3, #:upper16:1073769036
 419 0012 FA88     		ldrh	r2, [r7, #6]	@ movhi
 420 0014 1A80     		strh	r2, [r3, #0]	@ movhi
 525:.\Generated_Source\PSoC5/PWMPulseCapture.c **** 		#endif /* (PWMPulseCapture_UsingFixedFunction) */
 526:.\Generated_Source\PSoC5/PWMPulseCapture.c ****         
 527:.\Generated_Source\PSoC5/PWMPulseCapture.c ****         #if (PWMPulseCapture_PWMMode == PWMPulseCapture__B_PWM__DITHER)
 528:.\Generated_Source\PSoC5/PWMPulseCapture.c ****             #if(PWMPulseCapture_UsingFixedFunction)
 529:.\Generated_Source\PSoC5/PWMPulseCapture.c ****     			CY_SET_REG16(PWMPulseCapture_COMPARE2_LSB_PTR, (uint16)(compare + 1u));
 530:.\Generated_Source\PSoC5/PWMPulseCapture.c ****     		#else
 531:.\Generated_Source\PSoC5/PWMPulseCapture.c ****     	        CY_SET_REG16(PWMPulseCapture_COMPARE2_LSB_PTR, (compare + 1u));	
 532:.\Generated_Source\PSoC5/PWMPulseCapture.c ****     		#endif /* (PWMPulseCapture_UsingFixedFunction) */
 533:.\Generated_Source\PSoC5/PWMPulseCapture.c ****         #endif /* (PWMPulseCapture_PWMMode == PWMPulseCapture__B_PWM__DITHER) */
 534:.\Generated_Source\PSoC5/PWMPulseCapture.c ****     }
 421              		.loc 1 534 0
 422 0016 07F10C07 		add	r7, r7, #12
 423 001a BD46     		mov	sp, r7
 424 001c 80BC     		pop	{r7}
 425 001e 7047     		bx	lr
 426              		.cfi_endproc
 427              	.LFE8:
 428              		.size	PWMPulseCapture_WriteCompare, .-PWMPulseCapture_WriteCompare
 429              		.section	.text.PWMPulseCapture_SetInterruptMode,"ax",%progbits
 430              		.align	2
 431              		.global	PWMPulseCapture_SetInterruptMode
ARM GAS  C:\Users\bryan.lee\AppData\Local\Temp\cc7tgPY9.s 			page 18


 432              		.thumb
 433              		.thumb_func
 434              		.type	PWMPulseCapture_SetInterruptMode, %function
 435              	PWMPulseCapture_SetInterruptMode:
 436              	.LFB9:
 535:.\Generated_Source\PSoC5/PWMPulseCapture.c **** 
 536:.\Generated_Source\PSoC5/PWMPulseCapture.c **** 
 537:.\Generated_Source\PSoC5/PWMPulseCapture.c **** #else
 538:.\Generated_Source\PSoC5/PWMPulseCapture.c **** 
 539:.\Generated_Source\PSoC5/PWMPulseCapture.c **** 
 540:.\Generated_Source\PSoC5/PWMPulseCapture.c ****     /*******************************************************************************
 541:.\Generated_Source\PSoC5/PWMPulseCapture.c ****     * Function Name: PWMPulseCapture_WriteCompare1
 542:.\Generated_Source\PSoC5/PWMPulseCapture.c ****     ********************************************************************************
 543:.\Generated_Source\PSoC5/PWMPulseCapture.c ****     * 
 544:.\Generated_Source\PSoC5/PWMPulseCapture.c ****     * Summary:
 545:.\Generated_Source\PSoC5/PWMPulseCapture.c ****     *  This funtion is used to change the compare1 value.  The compare output will 
 546:.\Generated_Source\PSoC5/PWMPulseCapture.c ****     *  reflect the new value on the next UDB clock.  The compare output will be 
 547:.\Generated_Source\PSoC5/PWMPulseCapture.c ****     *  driven high when the present counter value is less than or less than or 
 548:.\Generated_Source\PSoC5/PWMPulseCapture.c ****     *  equal to the compare register, depending on the mode.
 549:.\Generated_Source\PSoC5/PWMPulseCapture.c ****     *
 550:.\Generated_Source\PSoC5/PWMPulseCapture.c ****     * Parameters:  
 551:.\Generated_Source\PSoC5/PWMPulseCapture.c ****     *  compare:  New compare value.  
 552:.\Generated_Source\PSoC5/PWMPulseCapture.c ****     *
 553:.\Generated_Source\PSoC5/PWMPulseCapture.c ****     * Return: 
 554:.\Generated_Source\PSoC5/PWMPulseCapture.c ****     *  None
 555:.\Generated_Source\PSoC5/PWMPulseCapture.c ****     *
 556:.\Generated_Source\PSoC5/PWMPulseCapture.c ****     *******************************************************************************/
 557:.\Generated_Source\PSoC5/PWMPulseCapture.c ****     void PWMPulseCapture_WriteCompare1(uint16 compare) \
 558:.\Generated_Source\PSoC5/PWMPulseCapture.c ****                                         
 559:.\Generated_Source\PSoC5/PWMPulseCapture.c ****     {
 560:.\Generated_Source\PSoC5/PWMPulseCapture.c ****         #if(PWMPulseCapture_UsingFixedFunction)
 561:.\Generated_Source\PSoC5/PWMPulseCapture.c ****             CY_SET_REG16(PWMPulseCapture_COMPARE1_LSB_PTR, (uint16)compare);
 562:.\Generated_Source\PSoC5/PWMPulseCapture.c ****         #else
 563:.\Generated_Source\PSoC5/PWMPulseCapture.c ****             CY_SET_REG16(PWMPulseCapture_COMPARE1_LSB_PTR, compare);
 564:.\Generated_Source\PSoC5/PWMPulseCapture.c ****         #endif /* (PWMPulseCapture_UsingFixedFunction) */
 565:.\Generated_Source\PSoC5/PWMPulseCapture.c ****     }
 566:.\Generated_Source\PSoC5/PWMPulseCapture.c **** 
 567:.\Generated_Source\PSoC5/PWMPulseCapture.c **** 
 568:.\Generated_Source\PSoC5/PWMPulseCapture.c ****     /*******************************************************************************
 569:.\Generated_Source\PSoC5/PWMPulseCapture.c ****     * Function Name: PWMPulseCapture_WriteCompare2
 570:.\Generated_Source\PSoC5/PWMPulseCapture.c ****     ********************************************************************************
 571:.\Generated_Source\PSoC5/PWMPulseCapture.c ****     * 
 572:.\Generated_Source\PSoC5/PWMPulseCapture.c ****     * Summary:
 573:.\Generated_Source\PSoC5/PWMPulseCapture.c ****     *  This funtion is used to change the compare value, for compare1 output.  
 574:.\Generated_Source\PSoC5/PWMPulseCapture.c ****     *  The compare output will reflect the new value on the next UDB clock.  
 575:.\Generated_Source\PSoC5/PWMPulseCapture.c ****     *  The compare output will be driven high when the present counter value is 
 576:.\Generated_Source\PSoC5/PWMPulseCapture.c ****     *  less than or less than or equal to the compare register, depending on the 
 577:.\Generated_Source\PSoC5/PWMPulseCapture.c ****     *  mode.
 578:.\Generated_Source\PSoC5/PWMPulseCapture.c ****     *
 579:.\Generated_Source\PSoC5/PWMPulseCapture.c ****     * Parameters:  
 580:.\Generated_Source\PSoC5/PWMPulseCapture.c ****     *  compare:  New compare value.  
 581:.\Generated_Source\PSoC5/PWMPulseCapture.c ****     *
 582:.\Generated_Source\PSoC5/PWMPulseCapture.c ****     * Return: 
 583:.\Generated_Source\PSoC5/PWMPulseCapture.c ****     *  None
 584:.\Generated_Source\PSoC5/PWMPulseCapture.c ****     *
 585:.\Generated_Source\PSoC5/PWMPulseCapture.c ****     *******************************************************************************/
 586:.\Generated_Source\PSoC5/PWMPulseCapture.c ****     void PWMPulseCapture_WriteCompare2(uint16 compare) \
ARM GAS  C:\Users\bryan.lee\AppData\Local\Temp\cc7tgPY9.s 			page 19


 587:.\Generated_Source\PSoC5/PWMPulseCapture.c ****                                         
 588:.\Generated_Source\PSoC5/PWMPulseCapture.c ****     {
 589:.\Generated_Source\PSoC5/PWMPulseCapture.c ****         #if(PWMPulseCapture_UsingFixedFunction)
 590:.\Generated_Source\PSoC5/PWMPulseCapture.c ****             CY_SET_REG16(PWMPulseCapture_COMPARE2_LSB_PTR, compare);
 591:.\Generated_Source\PSoC5/PWMPulseCapture.c ****         #else
 592:.\Generated_Source\PSoC5/PWMPulseCapture.c ****             CY_SET_REG16(PWMPulseCapture_COMPARE2_LSB_PTR, compare);
 593:.\Generated_Source\PSoC5/PWMPulseCapture.c ****         #endif /* (PWMPulseCapture_UsingFixedFunction) */
 594:.\Generated_Source\PSoC5/PWMPulseCapture.c ****     }
 595:.\Generated_Source\PSoC5/PWMPulseCapture.c **** #endif /* UseOneCompareMode */
 596:.\Generated_Source\PSoC5/PWMPulseCapture.c **** 
 597:.\Generated_Source\PSoC5/PWMPulseCapture.c **** #if (PWMPulseCapture_DeadBandUsed)
 598:.\Generated_Source\PSoC5/PWMPulseCapture.c **** 
 599:.\Generated_Source\PSoC5/PWMPulseCapture.c **** 
 600:.\Generated_Source\PSoC5/PWMPulseCapture.c ****     /*******************************************************************************
 601:.\Generated_Source\PSoC5/PWMPulseCapture.c ****     * Function Name: PWMPulseCapture_WriteDeadTime
 602:.\Generated_Source\PSoC5/PWMPulseCapture.c ****     ********************************************************************************
 603:.\Generated_Source\PSoC5/PWMPulseCapture.c ****     * 
 604:.\Generated_Source\PSoC5/PWMPulseCapture.c ****     * Summary:
 605:.\Generated_Source\PSoC5/PWMPulseCapture.c ****     *  This function writes the dead-band counts to the corresponding register
 606:.\Generated_Source\PSoC5/PWMPulseCapture.c ****     *
 607:.\Generated_Source\PSoC5/PWMPulseCapture.c ****     * Parameters:  
 608:.\Generated_Source\PSoC5/PWMPulseCapture.c ****     *  deadtime:  Number of counts for dead time 
 609:.\Generated_Source\PSoC5/PWMPulseCapture.c ****     *
 610:.\Generated_Source\PSoC5/PWMPulseCapture.c ****     * Return: 
 611:.\Generated_Source\PSoC5/PWMPulseCapture.c ****     *  None
 612:.\Generated_Source\PSoC5/PWMPulseCapture.c ****     *
 613:.\Generated_Source\PSoC5/PWMPulseCapture.c ****     *******************************************************************************/
 614:.\Generated_Source\PSoC5/PWMPulseCapture.c ****     void PWMPulseCapture_WriteDeadTime(uint8 deadtime) 
 615:.\Generated_Source\PSoC5/PWMPulseCapture.c ****     {
 616:.\Generated_Source\PSoC5/PWMPulseCapture.c ****         /* If using the Dead Band 1-255 mode then just write the register */
 617:.\Generated_Source\PSoC5/PWMPulseCapture.c ****         #if(!PWMPulseCapture_DeadBand2_4)
 618:.\Generated_Source\PSoC5/PWMPulseCapture.c ****             CY_SET_REG8(PWMPulseCapture_DEADBAND_COUNT_PTR, deadtime);
 619:.\Generated_Source\PSoC5/PWMPulseCapture.c ****         #else
 620:.\Generated_Source\PSoC5/PWMPulseCapture.c ****             /* Otherwise the data has to be masked and offset */        
 621:.\Generated_Source\PSoC5/PWMPulseCapture.c ****             /* Clear existing data */
 622:.\Generated_Source\PSoC5/PWMPulseCapture.c ****             PWMPulseCapture_DEADBAND_COUNT &= ((uint8)(~PWMPulseCapture_DEADBAND_COUNT_MASK));
 623:.\Generated_Source\PSoC5/PWMPulseCapture.c ****             
 624:.\Generated_Source\PSoC5/PWMPulseCapture.c ****             /* Set new dead time */
 625:.\Generated_Source\PSoC5/PWMPulseCapture.c ****             #if(PWMPulseCapture_DEADBAND_COUNT_SHIFT)        
 626:.\Generated_Source\PSoC5/PWMPulseCapture.c ****                 PWMPulseCapture_DEADBAND_COUNT |= ((uint8)((uint8)deadtime << PWMPulseCapture_DEADB
 627:.\Generated_Source\PSoC5/PWMPulseCapture.c ****                                                     PWMPulseCapture_DEADBAND_COUNT_MASK;
 628:.\Generated_Source\PSoC5/PWMPulseCapture.c ****             #else
 629:.\Generated_Source\PSoC5/PWMPulseCapture.c ****                 PWMPulseCapture_DEADBAND_COUNT |= deadtime & PWMPulseCapture_DEADBAND_COUNT_MASK;  
 630:.\Generated_Source\PSoC5/PWMPulseCapture.c ****             #endif /* (PWMPulseCapture_DEADBAND_COUNT_SHIFT) */
 631:.\Generated_Source\PSoC5/PWMPulseCapture.c ****         
 632:.\Generated_Source\PSoC5/PWMPulseCapture.c ****         #endif /* (!PWMPulseCapture_DeadBand2_4) */
 633:.\Generated_Source\PSoC5/PWMPulseCapture.c ****     }
 634:.\Generated_Source\PSoC5/PWMPulseCapture.c **** 
 635:.\Generated_Source\PSoC5/PWMPulseCapture.c **** 
 636:.\Generated_Source\PSoC5/PWMPulseCapture.c ****     /*******************************************************************************
 637:.\Generated_Source\PSoC5/PWMPulseCapture.c ****     * Function Name: PWMPulseCapture_ReadDeadTime
 638:.\Generated_Source\PSoC5/PWMPulseCapture.c ****     ********************************************************************************
 639:.\Generated_Source\PSoC5/PWMPulseCapture.c ****     * 
 640:.\Generated_Source\PSoC5/PWMPulseCapture.c ****     * Summary:
 641:.\Generated_Source\PSoC5/PWMPulseCapture.c ****     *  This function reads the dead-band counts from the corresponding register
 642:.\Generated_Source\PSoC5/PWMPulseCapture.c ****     *
 643:.\Generated_Source\PSoC5/PWMPulseCapture.c ****     * Parameters:  
ARM GAS  C:\Users\bryan.lee\AppData\Local\Temp\cc7tgPY9.s 			page 20


 644:.\Generated_Source\PSoC5/PWMPulseCapture.c ****     *  None
 645:.\Generated_Source\PSoC5/PWMPulseCapture.c ****     *
 646:.\Generated_Source\PSoC5/PWMPulseCapture.c ****     * Return: 
 647:.\Generated_Source\PSoC5/PWMPulseCapture.c ****     *  Dead Band Counts
 648:.\Generated_Source\PSoC5/PWMPulseCapture.c ****     *
 649:.\Generated_Source\PSoC5/PWMPulseCapture.c ****     *******************************************************************************/
 650:.\Generated_Source\PSoC5/PWMPulseCapture.c ****     uint8 PWMPulseCapture_ReadDeadTime(void) 
 651:.\Generated_Source\PSoC5/PWMPulseCapture.c ****     {
 652:.\Generated_Source\PSoC5/PWMPulseCapture.c ****         /* If using the Dead Band 1-255 mode then just read the register */
 653:.\Generated_Source\PSoC5/PWMPulseCapture.c ****         #if(!PWMPulseCapture_DeadBand2_4)
 654:.\Generated_Source\PSoC5/PWMPulseCapture.c ****             return (CY_GET_REG8(PWMPulseCapture_DEADBAND_COUNT_PTR));
 655:.\Generated_Source\PSoC5/PWMPulseCapture.c ****         #else
 656:.\Generated_Source\PSoC5/PWMPulseCapture.c ****         
 657:.\Generated_Source\PSoC5/PWMPulseCapture.c ****             /* Otherwise the data has to be masked and offset */
 658:.\Generated_Source\PSoC5/PWMPulseCapture.c ****             #if(PWMPulseCapture_DEADBAND_COUNT_SHIFT)      
 659:.\Generated_Source\PSoC5/PWMPulseCapture.c ****                 return ((uint8)(((uint8)(PWMPulseCapture_DEADBAND_COUNT & PWMPulseCapture_DEADBAND_
 660:.\Generated_Source\PSoC5/PWMPulseCapture.c ****                                                                            PWMPulseCapture_DEADBAND
 661:.\Generated_Source\PSoC5/PWMPulseCapture.c ****             #else
 662:.\Generated_Source\PSoC5/PWMPulseCapture.c ****                 return (PWMPulseCapture_DEADBAND_COUNT & PWMPulseCapture_DEADBAND_COUNT_MASK);
 663:.\Generated_Source\PSoC5/PWMPulseCapture.c ****             #endif /* (PWMPulseCapture_DEADBAND_COUNT_SHIFT) */
 664:.\Generated_Source\PSoC5/PWMPulseCapture.c ****         #endif /* (!PWMPulseCapture_DeadBand2_4) */
 665:.\Generated_Source\PSoC5/PWMPulseCapture.c ****     }
 666:.\Generated_Source\PSoC5/PWMPulseCapture.c **** #endif /* DeadBandUsed */
 667:.\Generated_Source\PSoC5/PWMPulseCapture.c **** 
 668:.\Generated_Source\PSoC5/PWMPulseCapture.c **** #if (PWMPulseCapture_UseStatus || PWMPulseCapture_UsingFixedFunction)
 669:.\Generated_Source\PSoC5/PWMPulseCapture.c **** 
 670:.\Generated_Source\PSoC5/PWMPulseCapture.c **** 
 671:.\Generated_Source\PSoC5/PWMPulseCapture.c ****     /*******************************************************************************
 672:.\Generated_Source\PSoC5/PWMPulseCapture.c ****     * Function Name: PWMPulseCapture_SetInterruptMode
 673:.\Generated_Source\PSoC5/PWMPulseCapture.c ****     ********************************************************************************
 674:.\Generated_Source\PSoC5/PWMPulseCapture.c ****     * 
 675:.\Generated_Source\PSoC5/PWMPulseCapture.c ****     * Summary:
 676:.\Generated_Source\PSoC5/PWMPulseCapture.c ****     *  This function configures the interrupts mask control of theinterrupt 
 677:.\Generated_Source\PSoC5/PWMPulseCapture.c ****     *  source status register.
 678:.\Generated_Source\PSoC5/PWMPulseCapture.c ****     *
 679:.\Generated_Source\PSoC5/PWMPulseCapture.c ****     * Parameters:  
 680:.\Generated_Source\PSoC5/PWMPulseCapture.c ****     *  uint8 interruptMode: Bit field containing the interrupt sources enabled 
 681:.\Generated_Source\PSoC5/PWMPulseCapture.c ****     *
 682:.\Generated_Source\PSoC5/PWMPulseCapture.c ****     * Return: 
 683:.\Generated_Source\PSoC5/PWMPulseCapture.c ****     *  None
 684:.\Generated_Source\PSoC5/PWMPulseCapture.c ****     *
 685:.\Generated_Source\PSoC5/PWMPulseCapture.c ****     *******************************************************************************/
 686:.\Generated_Source\PSoC5/PWMPulseCapture.c ****     void PWMPulseCapture_SetInterruptMode(uint8 interruptMode)  
 687:.\Generated_Source\PSoC5/PWMPulseCapture.c ****     {
 437              		.loc 1 687 0
 438              		.cfi_startproc
 439              		@ args = 0, pretend = 0, frame = 8
 440              		@ frame_needed = 1, uses_anonymous_args = 0
 441              		@ link register save eliminated.
 442 0000 80B4     		push	{r7}
 443              	.LCFI22:
 444              		.cfi_def_cfa_offset 4
 445 0002 83B0     		sub	sp, sp, #12
 446              	.LCFI23:
 447              		.cfi_def_cfa_offset 16
 448 0004 00AF     		add	r7, sp, #0
 449              		.cfi_offset 7, -4
ARM GAS  C:\Users\bryan.lee\AppData\Local\Temp\cc7tgPY9.s 			page 21


 450              	.LCFI24:
 451              		.cfi_def_cfa_register 7
 452 0006 0346     		mov	r3, r0
 453 0008 FB71     		strb	r3, [r7, #7]
 688:.\Generated_Source\PSoC5/PWMPulseCapture.c ****     	CY_SET_REG8(PWMPulseCapture_STATUS_MASK_PTR, interruptMode);
 454              		.loc 1 688 0
 455 000a 46F28653 		movw	r3, #:lower16:1073767814
 456 000e C4F20003 		movt	r3, #:upper16:1073767814
 457 0012 FA79     		ldrb	r2, [r7, #7]
 458 0014 1A70     		strb	r2, [r3, #0]
 689:.\Generated_Source\PSoC5/PWMPulseCapture.c ****     }
 459              		.loc 1 689 0
 460 0016 07F10C07 		add	r7, r7, #12
 461 001a BD46     		mov	sp, r7
 462 001c 80BC     		pop	{r7}
 463 001e 7047     		bx	lr
 464              		.cfi_endproc
 465              	.LFE9:
 466              		.size	PWMPulseCapture_SetInterruptMode, .-PWMPulseCapture_SetInterruptMode
 467              		.section	.text.PWMPulseCapture_ReadStatusRegister,"ax",%progbits
 468              		.align	2
 469              		.global	PWMPulseCapture_ReadStatusRegister
 470              		.thumb
 471              		.thumb_func
 472              		.type	PWMPulseCapture_ReadStatusRegister, %function
 473              	PWMPulseCapture_ReadStatusRegister:
 474              	.LFB10:
 690:.\Generated_Source\PSoC5/PWMPulseCapture.c **** 
 691:.\Generated_Source\PSoC5/PWMPulseCapture.c **** 
 692:.\Generated_Source\PSoC5/PWMPulseCapture.c ****     /*******************************************************************************
 693:.\Generated_Source\PSoC5/PWMPulseCapture.c ****     * Function Name: PWMPulseCapture_ReadStatusRegister
 694:.\Generated_Source\PSoC5/PWMPulseCapture.c ****     ********************************************************************************
 695:.\Generated_Source\PSoC5/PWMPulseCapture.c ****     * 
 696:.\Generated_Source\PSoC5/PWMPulseCapture.c ****     * Summary:
 697:.\Generated_Source\PSoC5/PWMPulseCapture.c ****     *  This function returns the current state of the status register. 
 698:.\Generated_Source\PSoC5/PWMPulseCapture.c ****     *
 699:.\Generated_Source\PSoC5/PWMPulseCapture.c ****     * Parameters:  
 700:.\Generated_Source\PSoC5/PWMPulseCapture.c ****     *  None
 701:.\Generated_Source\PSoC5/PWMPulseCapture.c ****     *
 702:.\Generated_Source\PSoC5/PWMPulseCapture.c ****     * Return: 
 703:.\Generated_Source\PSoC5/PWMPulseCapture.c ****     *  uint8 : Current status register value. The status register bits are:
 704:.\Generated_Source\PSoC5/PWMPulseCapture.c ****     *  [7:6] : Unused(0)
 705:.\Generated_Source\PSoC5/PWMPulseCapture.c ****     *  [5]   : Kill event output
 706:.\Generated_Source\PSoC5/PWMPulseCapture.c ****     *  [4]   : FIFO not empty
 707:.\Generated_Source\PSoC5/PWMPulseCapture.c ****     *  [3]   : FIFO full
 708:.\Generated_Source\PSoC5/PWMPulseCapture.c ****     *  [2]   : Terminal count
 709:.\Generated_Source\PSoC5/PWMPulseCapture.c ****     *  [1]   : Compare output 2
 710:.\Generated_Source\PSoC5/PWMPulseCapture.c ****     *  [0]   : Compare output 1
 711:.\Generated_Source\PSoC5/PWMPulseCapture.c ****     *
 712:.\Generated_Source\PSoC5/PWMPulseCapture.c ****     *******************************************************************************/
 713:.\Generated_Source\PSoC5/PWMPulseCapture.c ****     uint8 PWMPulseCapture_ReadStatusRegister(void)   
 714:.\Generated_Source\PSoC5/PWMPulseCapture.c ****     {
 475              		.loc 1 714 0
 476              		.cfi_startproc
 477              		@ args = 0, pretend = 0, frame = 8
 478              		@ frame_needed = 1, uses_anonymous_args = 0
 479              		@ link register save eliminated.
ARM GAS  C:\Users\bryan.lee\AppData\Local\Temp\cc7tgPY9.s 			page 22


 480 0000 80B4     		push	{r7}
 481              	.LCFI25:
 482              		.cfi_def_cfa_offset 4
 483 0002 83B0     		sub	sp, sp, #12
 484              	.LCFI26:
 485              		.cfi_def_cfa_offset 16
 486 0004 00AF     		add	r7, sp, #0
 487              		.cfi_offset 7, -4
 488              	.LCFI27:
 489              		.cfi_def_cfa_register 7
 715:.\Generated_Source\PSoC5/PWMPulseCapture.c ****     	uint8 result;
 716:.\Generated_Source\PSoC5/PWMPulseCapture.c ****     	
 717:.\Generated_Source\PSoC5/PWMPulseCapture.c ****     	result = CY_GET_REG8(PWMPulseCapture_STATUS_PTR);
 490              		.loc 1 717 0
 491 0006 46F26653 		movw	r3, #:lower16:1073767782
 492 000a C4F20003 		movt	r3, #:upper16:1073767782
 493 000e 1B78     		ldrb	r3, [r3, #0]
 494 0010 FB71     		strb	r3, [r7, #7]
 718:.\Generated_Source\PSoC5/PWMPulseCapture.c ****     	return (result);
 495              		.loc 1 718 0
 496 0012 FB79     		ldrb	r3, [r7, #7]	@ zero_extendqisi2
 719:.\Generated_Source\PSoC5/PWMPulseCapture.c ****     }
 497              		.loc 1 719 0
 498 0014 1846     		mov	r0, r3
 499 0016 07F10C07 		add	r7, r7, #12
 500 001a BD46     		mov	sp, r7
 501 001c 80BC     		pop	{r7}
 502 001e 7047     		bx	lr
 503              		.cfi_endproc
 504              	.LFE10:
 505              		.size	PWMPulseCapture_ReadStatusRegister, .-PWMPulseCapture_ReadStatusRegister
 506              		.section	.text.PWMPulseCapture_ReadControlRegister,"ax",%progbits
 507              		.align	2
 508              		.global	PWMPulseCapture_ReadControlRegister
 509              		.thumb
 510              		.thumb_func
 511              		.type	PWMPulseCapture_ReadControlRegister, %function
 512              	PWMPulseCapture_ReadControlRegister:
 513              	.LFB11:
 720:.\Generated_Source\PSoC5/PWMPulseCapture.c **** 
 721:.\Generated_Source\PSoC5/PWMPulseCapture.c **** #endif /* (PWMPulseCapture_UseStatus || PWMPulseCapture_UsingFixedFunction) */
 722:.\Generated_Source\PSoC5/PWMPulseCapture.c **** 
 723:.\Generated_Source\PSoC5/PWMPulseCapture.c **** 
 724:.\Generated_Source\PSoC5/PWMPulseCapture.c **** #if (PWMPulseCapture_UseControl)
 725:.\Generated_Source\PSoC5/PWMPulseCapture.c **** 
 726:.\Generated_Source\PSoC5/PWMPulseCapture.c **** 
 727:.\Generated_Source\PSoC5/PWMPulseCapture.c ****     /*******************************************************************************
 728:.\Generated_Source\PSoC5/PWMPulseCapture.c ****     * Function Name: PWMPulseCapture_ReadControlRegister
 729:.\Generated_Source\PSoC5/PWMPulseCapture.c ****     ********************************************************************************
 730:.\Generated_Source\PSoC5/PWMPulseCapture.c ****     * 
 731:.\Generated_Source\PSoC5/PWMPulseCapture.c ****     * Summary:
 732:.\Generated_Source\PSoC5/PWMPulseCapture.c ****     *  Returns the current state of the control register. This API is available 
 733:.\Generated_Source\PSoC5/PWMPulseCapture.c ****     *  only if the control register is not removed.
 734:.\Generated_Source\PSoC5/PWMPulseCapture.c ****     *
 735:.\Generated_Source\PSoC5/PWMPulseCapture.c ****     * Parameters:  
 736:.\Generated_Source\PSoC5/PWMPulseCapture.c ****     *  None 
 737:.\Generated_Source\PSoC5/PWMPulseCapture.c ****     *
ARM GAS  C:\Users\bryan.lee\AppData\Local\Temp\cc7tgPY9.s 			page 23


 738:.\Generated_Source\PSoC5/PWMPulseCapture.c ****     * Return: 
 739:.\Generated_Source\PSoC5/PWMPulseCapture.c ****     *  uint8 : Current control register value
 740:.\Generated_Source\PSoC5/PWMPulseCapture.c ****     *
 741:.\Generated_Source\PSoC5/PWMPulseCapture.c ****     *******************************************************************************/    
 742:.\Generated_Source\PSoC5/PWMPulseCapture.c ****     uint8 PWMPulseCapture_ReadControlRegister(void) 
 743:.\Generated_Source\PSoC5/PWMPulseCapture.c ****     {
 514              		.loc 1 743 0
 515              		.cfi_startproc
 516              		@ args = 0, pretend = 0, frame = 8
 517              		@ frame_needed = 1, uses_anonymous_args = 0
 518              		@ link register save eliminated.
 519 0000 80B4     		push	{r7}
 520              	.LCFI28:
 521              		.cfi_def_cfa_offset 4
 522 0002 83B0     		sub	sp, sp, #12
 523              	.LCFI29:
 524              		.cfi_def_cfa_offset 16
 525 0004 00AF     		add	r7, sp, #0
 526              		.cfi_offset 7, -4
 527              	.LCFI30:
 528              		.cfi_def_cfa_register 7
 744:.\Generated_Source\PSoC5/PWMPulseCapture.c ****     	uint8 result;
 745:.\Generated_Source\PSoC5/PWMPulseCapture.c ****     	
 746:.\Generated_Source\PSoC5/PWMPulseCapture.c ****     	result = CY_GET_REG8(PWMPulseCapture_CONTROL_PTR);
 529              		.loc 1 746 0
 530 0006 46F27653 		movw	r3, #:lower16:1073767798
 531 000a C4F20003 		movt	r3, #:upper16:1073767798
 532 000e 1B78     		ldrb	r3, [r3, #0]
 533 0010 FB71     		strb	r3, [r7, #7]
 747:.\Generated_Source\PSoC5/PWMPulseCapture.c ****     	return (result);
 534              		.loc 1 747 0
 535 0012 FB79     		ldrb	r3, [r7, #7]	@ zero_extendqisi2
 748:.\Generated_Source\PSoC5/PWMPulseCapture.c ****     }
 536              		.loc 1 748 0
 537 0014 1846     		mov	r0, r3
 538 0016 07F10C07 		add	r7, r7, #12
 539 001a BD46     		mov	sp, r7
 540 001c 80BC     		pop	{r7}
 541 001e 7047     		bx	lr
 542              		.cfi_endproc
 543              	.LFE11:
 544              		.size	PWMPulseCapture_ReadControlRegister, .-PWMPulseCapture_ReadControlRegister
 545              		.section	.text.PWMPulseCapture_WriteControlRegister,"ax",%progbits
 546              		.align	2
 547              		.global	PWMPulseCapture_WriteControlRegister
 548              		.thumb
 549              		.thumb_func
 550              		.type	PWMPulseCapture_WriteControlRegister, %function
 551              	PWMPulseCapture_WriteControlRegister:
 552              	.LFB12:
 749:.\Generated_Source\PSoC5/PWMPulseCapture.c **** 
 750:.\Generated_Source\PSoC5/PWMPulseCapture.c **** 
 751:.\Generated_Source\PSoC5/PWMPulseCapture.c ****     /*******************************************************************************
 752:.\Generated_Source\PSoC5/PWMPulseCapture.c ****     * Function Name: PWMPulseCapture_WriteControlRegister
 753:.\Generated_Source\PSoC5/PWMPulseCapture.c ****     ********************************************************************************
 754:.\Generated_Source\PSoC5/PWMPulseCapture.c ****     * 
 755:.\Generated_Source\PSoC5/PWMPulseCapture.c ****     * Summary:
ARM GAS  C:\Users\bryan.lee\AppData\Local\Temp\cc7tgPY9.s 			page 24


 756:.\Generated_Source\PSoC5/PWMPulseCapture.c ****     *  Sets the bit field of the control register. This API is available only if 
 757:.\Generated_Source\PSoC5/PWMPulseCapture.c ****     *  the control register is not removed.
 758:.\Generated_Source\PSoC5/PWMPulseCapture.c ****     *
 759:.\Generated_Source\PSoC5/PWMPulseCapture.c ****     * Parameters:  
 760:.\Generated_Source\PSoC5/PWMPulseCapture.c ****     *  uint8 control: Control register bit field, The status register bits are:
 761:.\Generated_Source\PSoC5/PWMPulseCapture.c ****     *  [7]   : PWM Enable
 762:.\Generated_Source\PSoC5/PWMPulseCapture.c ****     *  [6]   : Reset
 763:.\Generated_Source\PSoC5/PWMPulseCapture.c ****     *  [5:3] : Compare Mode2
 764:.\Generated_Source\PSoC5/PWMPulseCapture.c ****     *  [2:0] : Compare Mode2
 765:.\Generated_Source\PSoC5/PWMPulseCapture.c ****     *
 766:.\Generated_Source\PSoC5/PWMPulseCapture.c ****     * Return: 
 767:.\Generated_Source\PSoC5/PWMPulseCapture.c ****     *  None
 768:.\Generated_Source\PSoC5/PWMPulseCapture.c ****     *
 769:.\Generated_Source\PSoC5/PWMPulseCapture.c ****     *******************************************************************************/  
 770:.\Generated_Source\PSoC5/PWMPulseCapture.c ****     void PWMPulseCapture_WriteControlRegister(uint8 control) 
 771:.\Generated_Source\PSoC5/PWMPulseCapture.c ****     {
 553              		.loc 1 771 0
 554              		.cfi_startproc
 555              		@ args = 0, pretend = 0, frame = 8
 556              		@ frame_needed = 1, uses_anonymous_args = 0
 557              		@ link register save eliminated.
 558 0000 80B4     		push	{r7}
 559              	.LCFI31:
 560              		.cfi_def_cfa_offset 4
 561 0002 83B0     		sub	sp, sp, #12
 562              	.LCFI32:
 563              		.cfi_def_cfa_offset 16
 564 0004 00AF     		add	r7, sp, #0
 565              		.cfi_offset 7, -4
 566              	.LCFI33:
 567              		.cfi_def_cfa_register 7
 568 0006 0346     		mov	r3, r0
 569 0008 FB71     		strb	r3, [r7, #7]
 772:.\Generated_Source\PSoC5/PWMPulseCapture.c ****     	CY_SET_REG8(PWMPulseCapture_CONTROL_PTR, control);
 570              		.loc 1 772 0
 571 000a 46F27653 		movw	r3, #:lower16:1073767798
 572 000e C4F20003 		movt	r3, #:upper16:1073767798
 573 0012 FA79     		ldrb	r2, [r7, #7]
 574 0014 1A70     		strb	r2, [r3, #0]
 773:.\Generated_Source\PSoC5/PWMPulseCapture.c ****     }
 575              		.loc 1 773 0
 576 0016 07F10C07 		add	r7, r7, #12
 577 001a BD46     		mov	sp, r7
 578 001c 80BC     		pop	{r7}
 579 001e 7047     		bx	lr
 580              		.cfi_endproc
 581              	.LFE12:
 582              		.size	PWMPulseCapture_WriteControlRegister, .-PWMPulseCapture_WriteControlRegister
 583              		.section	.text.PWMPulseCapture_ReadCapture,"ax",%progbits
 584              		.align	2
 585              		.global	PWMPulseCapture_ReadCapture
 586              		.thumb
 587              		.thumb_func
 588              		.type	PWMPulseCapture_ReadCapture, %function
 589              	PWMPulseCapture_ReadCapture:
 590              	.LFB13:
 774:.\Generated_Source\PSoC5/PWMPulseCapture.c **** 	
ARM GAS  C:\Users\bryan.lee\AppData\Local\Temp\cc7tgPY9.s 			page 25


 775:.\Generated_Source\PSoC5/PWMPulseCapture.c **** #endif /* (PWMPulseCapture_UseControl) */
 776:.\Generated_Source\PSoC5/PWMPulseCapture.c **** 
 777:.\Generated_Source\PSoC5/PWMPulseCapture.c **** 
 778:.\Generated_Source\PSoC5/PWMPulseCapture.c **** #if (!PWMPulseCapture_UsingFixedFunction)
 779:.\Generated_Source\PSoC5/PWMPulseCapture.c **** 
 780:.\Generated_Source\PSoC5/PWMPulseCapture.c **** 
 781:.\Generated_Source\PSoC5/PWMPulseCapture.c ****     /*******************************************************************************
 782:.\Generated_Source\PSoC5/PWMPulseCapture.c ****     * Function Name: PWMPulseCapture_ReadCapture
 783:.\Generated_Source\PSoC5/PWMPulseCapture.c ****     ********************************************************************************
 784:.\Generated_Source\PSoC5/PWMPulseCapture.c ****     * 
 785:.\Generated_Source\PSoC5/PWMPulseCapture.c ****     * Summary:
 786:.\Generated_Source\PSoC5/PWMPulseCapture.c ****     *  Reads the capture value from the capture FIFO.
 787:.\Generated_Source\PSoC5/PWMPulseCapture.c ****     *
 788:.\Generated_Source\PSoC5/PWMPulseCapture.c ****     * Parameters:  
 789:.\Generated_Source\PSoC5/PWMPulseCapture.c ****     *  None
 790:.\Generated_Source\PSoC5/PWMPulseCapture.c ****     *
 791:.\Generated_Source\PSoC5/PWMPulseCapture.c ****     * Return: 
 792:.\Generated_Source\PSoC5/PWMPulseCapture.c ****     *  uint8/uint16: The current capture value
 793:.\Generated_Source\PSoC5/PWMPulseCapture.c ****     *
 794:.\Generated_Source\PSoC5/PWMPulseCapture.c ****     *******************************************************************************/  
 795:.\Generated_Source\PSoC5/PWMPulseCapture.c ****     uint16 PWMPulseCapture_ReadCapture(void)  
 796:.\Generated_Source\PSoC5/PWMPulseCapture.c ****     {
 591              		.loc 1 796 0
 592              		.cfi_startproc
 593              		@ args = 0, pretend = 0, frame = 0
 594              		@ frame_needed = 1, uses_anonymous_args = 0
 595              		@ link register save eliminated.
 596 0000 80B4     		push	{r7}
 597              	.LCFI34:
 598              		.cfi_def_cfa_offset 4
 599 0002 00AF     		add	r7, sp, #0
 600              		.cfi_offset 7, -4
 601              	.LCFI35:
 602              		.cfi_def_cfa_register 7
 797:.\Generated_Source\PSoC5/PWMPulseCapture.c ****     	return (CY_GET_REG16(PWMPulseCapture_CAPTURE_LSB_PTR));
 603              		.loc 1 797 0
 604 0004 46F6AC23 		movw	r3, #:lower16:1073769132
 605 0008 C4F20003 		movt	r3, #:upper16:1073769132
 606 000c 1B88     		ldrh	r3, [r3, #0]	@ movhi
 607 000e 9BB2     		uxth	r3, r3
 798:.\Generated_Source\PSoC5/PWMPulseCapture.c ****     }
 608              		.loc 1 798 0
 609 0010 1846     		mov	r0, r3
 610 0012 BD46     		mov	sp, r7
 611 0014 80BC     		pop	{r7}
 612 0016 7047     		bx	lr
 613              		.cfi_endproc
 614              	.LFE13:
 615              		.size	PWMPulseCapture_ReadCapture, .-PWMPulseCapture_ReadCapture
 616              		.section	.text.PWMPulseCapture_ReadCompare,"ax",%progbits
 617              		.align	2
 618              		.global	PWMPulseCapture_ReadCompare
 619              		.thumb
 620              		.thumb_func
 621              		.type	PWMPulseCapture_ReadCompare, %function
 622              	PWMPulseCapture_ReadCompare:
 623              	.LFB14:
ARM GAS  C:\Users\bryan.lee\AppData\Local\Temp\cc7tgPY9.s 			page 26


 799:.\Generated_Source\PSoC5/PWMPulseCapture.c **** 	
 800:.\Generated_Source\PSoC5/PWMPulseCapture.c **** #endif /* (!PWMPulseCapture_UsingFixedFunction) */
 801:.\Generated_Source\PSoC5/PWMPulseCapture.c **** 
 802:.\Generated_Source\PSoC5/PWMPulseCapture.c **** 
 803:.\Generated_Source\PSoC5/PWMPulseCapture.c **** #if (PWMPulseCapture_UseOneCompareMode)
 804:.\Generated_Source\PSoC5/PWMPulseCapture.c **** 
 805:.\Generated_Source\PSoC5/PWMPulseCapture.c **** 
 806:.\Generated_Source\PSoC5/PWMPulseCapture.c ****     /*******************************************************************************
 807:.\Generated_Source\PSoC5/PWMPulseCapture.c ****     * Function Name: PWMPulseCapture_ReadCompare
 808:.\Generated_Source\PSoC5/PWMPulseCapture.c ****     ********************************************************************************
 809:.\Generated_Source\PSoC5/PWMPulseCapture.c ****     * 
 810:.\Generated_Source\PSoC5/PWMPulseCapture.c ****     * Summary:
 811:.\Generated_Source\PSoC5/PWMPulseCapture.c ****     *  Reads the compare value for the compare output when the PWM Mode parameter is 
 812:.\Generated_Source\PSoC5/PWMPulseCapture.c ****     *  set to Dither mode, Center Aligned mode, or One Output mode.
 813:.\Generated_Source\PSoC5/PWMPulseCapture.c ****     *
 814:.\Generated_Source\PSoC5/PWMPulseCapture.c ****     * Parameters:  
 815:.\Generated_Source\PSoC5/PWMPulseCapture.c ****     *  None
 816:.\Generated_Source\PSoC5/PWMPulseCapture.c ****     *
 817:.\Generated_Source\PSoC5/PWMPulseCapture.c ****     * Return: 
 818:.\Generated_Source\PSoC5/PWMPulseCapture.c ****     *  uint8/uint16: Current compare value
 819:.\Generated_Source\PSoC5/PWMPulseCapture.c ****     *
 820:.\Generated_Source\PSoC5/PWMPulseCapture.c ****     *******************************************************************************/  
 821:.\Generated_Source\PSoC5/PWMPulseCapture.c ****     uint16 PWMPulseCapture_ReadCompare(void)  
 822:.\Generated_Source\PSoC5/PWMPulseCapture.c ****     {
 624              		.loc 1 822 0
 625              		.cfi_startproc
 626              		@ args = 0, pretend = 0, frame = 0
 627              		@ frame_needed = 1, uses_anonymous_args = 0
 628              		@ link register save eliminated.
 629 0000 80B4     		push	{r7}
 630              	.LCFI36:
 631              		.cfi_def_cfa_offset 4
 632 0002 00AF     		add	r7, sp, #0
 633              		.cfi_offset 7, -4
 634              	.LCFI37:
 635              		.cfi_def_cfa_register 7
 823:.\Generated_Source\PSoC5/PWMPulseCapture.c **** 		#if(PWMPulseCapture_UsingFixedFunction)
 824:.\Generated_Source\PSoC5/PWMPulseCapture.c ****             return ((uint16)CY_GET_REG16(PWMPulseCapture_COMPARE1_LSB_PTR));
 825:.\Generated_Source\PSoC5/PWMPulseCapture.c ****         #else
 826:.\Generated_Source\PSoC5/PWMPulseCapture.c ****             return (CY_GET_REG16(PWMPulseCapture_COMPARE1_LSB_PTR));
 636              		.loc 1 826 0
 637 0004 46F64C23 		movw	r3, #:lower16:1073769036
 638 0008 C4F20003 		movt	r3, #:upper16:1073769036
 639 000c 1B88     		ldrh	r3, [r3, #0]	@ movhi
 640 000e 9BB2     		uxth	r3, r3
 827:.\Generated_Source\PSoC5/PWMPulseCapture.c ****         #endif /* (PWMPulseCapture_UsingFixedFunction) */
 828:.\Generated_Source\PSoC5/PWMPulseCapture.c ****     }
 641              		.loc 1 828 0
 642 0010 1846     		mov	r0, r3
 643 0012 BD46     		mov	sp, r7
 644 0014 80BC     		pop	{r7}
 645 0016 7047     		bx	lr
 646              		.cfi_endproc
 647              	.LFE14:
 648              		.size	PWMPulseCapture_ReadCompare, .-PWMPulseCapture_ReadCompare
 649              		.section	.text.PWMPulseCapture_ReadPeriod,"ax",%progbits
 650              		.align	2
ARM GAS  C:\Users\bryan.lee\AppData\Local\Temp\cc7tgPY9.s 			page 27


 651              		.global	PWMPulseCapture_ReadPeriod
 652              		.thumb
 653              		.thumb_func
 654              		.type	PWMPulseCapture_ReadPeriod, %function
 655              	PWMPulseCapture_ReadPeriod:
 656              	.LFB15:
 829:.\Generated_Source\PSoC5/PWMPulseCapture.c **** 
 830:.\Generated_Source\PSoC5/PWMPulseCapture.c **** #else
 831:.\Generated_Source\PSoC5/PWMPulseCapture.c **** 
 832:.\Generated_Source\PSoC5/PWMPulseCapture.c **** 
 833:.\Generated_Source\PSoC5/PWMPulseCapture.c ****     /*******************************************************************************
 834:.\Generated_Source\PSoC5/PWMPulseCapture.c ****     * Function Name: PWMPulseCapture_ReadCompare1
 835:.\Generated_Source\PSoC5/PWMPulseCapture.c ****     ********************************************************************************
 836:.\Generated_Source\PSoC5/PWMPulseCapture.c ****     * 
 837:.\Generated_Source\PSoC5/PWMPulseCapture.c ****     * Summary:
 838:.\Generated_Source\PSoC5/PWMPulseCapture.c ****     *  Reads the compare value for the compare1 output.
 839:.\Generated_Source\PSoC5/PWMPulseCapture.c ****     *
 840:.\Generated_Source\PSoC5/PWMPulseCapture.c ****     * Parameters:  
 841:.\Generated_Source\PSoC5/PWMPulseCapture.c ****     *  None
 842:.\Generated_Source\PSoC5/PWMPulseCapture.c ****     *
 843:.\Generated_Source\PSoC5/PWMPulseCapture.c ****     * Return: 
 844:.\Generated_Source\PSoC5/PWMPulseCapture.c ****     *  uint8/uint16: Current compare value.
 845:.\Generated_Source\PSoC5/PWMPulseCapture.c ****     *
 846:.\Generated_Source\PSoC5/PWMPulseCapture.c ****     *******************************************************************************/  
 847:.\Generated_Source\PSoC5/PWMPulseCapture.c ****     uint16 PWMPulseCapture_ReadCompare1(void) 
 848:.\Generated_Source\PSoC5/PWMPulseCapture.c ****     {
 849:.\Generated_Source\PSoC5/PWMPulseCapture.c **** 		return (CY_GET_REG16(PWMPulseCapture_COMPARE1_LSB_PTR));
 850:.\Generated_Source\PSoC5/PWMPulseCapture.c ****     }
 851:.\Generated_Source\PSoC5/PWMPulseCapture.c **** 
 852:.\Generated_Source\PSoC5/PWMPulseCapture.c **** 
 853:.\Generated_Source\PSoC5/PWMPulseCapture.c ****     /*******************************************************************************
 854:.\Generated_Source\PSoC5/PWMPulseCapture.c ****     * Function Name: PWMPulseCapture_ReadCompare2
 855:.\Generated_Source\PSoC5/PWMPulseCapture.c ****     ********************************************************************************
 856:.\Generated_Source\PSoC5/PWMPulseCapture.c ****     * 
 857:.\Generated_Source\PSoC5/PWMPulseCapture.c ****     * Summary:
 858:.\Generated_Source\PSoC5/PWMPulseCapture.c ****     *  Reads the compare value for the compare2 output.
 859:.\Generated_Source\PSoC5/PWMPulseCapture.c ****     *
 860:.\Generated_Source\PSoC5/PWMPulseCapture.c ****     * Parameters:  
 861:.\Generated_Source\PSoC5/PWMPulseCapture.c ****     *  None
 862:.\Generated_Source\PSoC5/PWMPulseCapture.c ****     *
 863:.\Generated_Source\PSoC5/PWMPulseCapture.c ****     * Return: 
 864:.\Generated_Source\PSoC5/PWMPulseCapture.c ****     *  uint8/uint16: Current compare value.
 865:.\Generated_Source\PSoC5/PWMPulseCapture.c ****     *
 866:.\Generated_Source\PSoC5/PWMPulseCapture.c ****     *******************************************************************************/  
 867:.\Generated_Source\PSoC5/PWMPulseCapture.c ****     uint16 PWMPulseCapture_ReadCompare2(void)  
 868:.\Generated_Source\PSoC5/PWMPulseCapture.c ****     {
 869:.\Generated_Source\PSoC5/PWMPulseCapture.c **** 		return (CY_GET_REG16(PWMPulseCapture_COMPARE2_LSB_PTR));
 870:.\Generated_Source\PSoC5/PWMPulseCapture.c ****     }
 871:.\Generated_Source\PSoC5/PWMPulseCapture.c **** 
 872:.\Generated_Source\PSoC5/PWMPulseCapture.c **** #endif /* (PWMPulseCapture_UseOneCompareMode) */
 873:.\Generated_Source\PSoC5/PWMPulseCapture.c **** 
 874:.\Generated_Source\PSoC5/PWMPulseCapture.c **** 
 875:.\Generated_Source\PSoC5/PWMPulseCapture.c **** /*******************************************************************************
 876:.\Generated_Source\PSoC5/PWMPulseCapture.c **** * Function Name: PWMPulseCapture_ReadPeriod
 877:.\Generated_Source\PSoC5/PWMPulseCapture.c **** ********************************************************************************
 878:.\Generated_Source\PSoC5/PWMPulseCapture.c **** * 
 879:.\Generated_Source\PSoC5/PWMPulseCapture.c **** * Summary:
ARM GAS  C:\Users\bryan.lee\AppData\Local\Temp\cc7tgPY9.s 			page 28


 880:.\Generated_Source\PSoC5/PWMPulseCapture.c **** *  Reads the period value used by the PWM hardware.
 881:.\Generated_Source\PSoC5/PWMPulseCapture.c **** *
 882:.\Generated_Source\PSoC5/PWMPulseCapture.c **** * Parameters:  
 883:.\Generated_Source\PSoC5/PWMPulseCapture.c **** *  None
 884:.\Generated_Source\PSoC5/PWMPulseCapture.c **** *
 885:.\Generated_Source\PSoC5/PWMPulseCapture.c **** * Return: 
 886:.\Generated_Source\PSoC5/PWMPulseCapture.c **** *  uint8/16: Period value
 887:.\Generated_Source\PSoC5/PWMPulseCapture.c **** *
 888:.\Generated_Source\PSoC5/PWMPulseCapture.c **** *******************************************************************************/ 
 889:.\Generated_Source\PSoC5/PWMPulseCapture.c **** uint16 PWMPulseCapture_ReadPeriod(void) 
 890:.\Generated_Source\PSoC5/PWMPulseCapture.c **** {
 657              		.loc 1 890 0
 658              		.cfi_startproc
 659              		@ args = 0, pretend = 0, frame = 0
 660              		@ frame_needed = 1, uses_anonymous_args = 0
 661              		@ link register save eliminated.
 662 0000 80B4     		push	{r7}
 663              	.LCFI38:
 664              		.cfi_def_cfa_offset 4
 665 0002 00AF     		add	r7, sp, #0
 666              		.cfi_offset 7, -4
 667              	.LCFI39:
 668              		.cfi_def_cfa_register 7
 891:.\Generated_Source\PSoC5/PWMPulseCapture.c **** 	#if(PWMPulseCapture_UsingFixedFunction)
 892:.\Generated_Source\PSoC5/PWMPulseCapture.c ****         return ((uint16)CY_GET_REG16(PWMPulseCapture_PERIOD_LSB_PTR));
 893:.\Generated_Source\PSoC5/PWMPulseCapture.c ****     #else
 894:.\Generated_Source\PSoC5/PWMPulseCapture.c ****         return (CY_GET_REG16(PWMPulseCapture_PERIOD_LSB_PTR));
 669              		.loc 1 894 0
 670 0004 46F68C23 		movw	r3, #:lower16:1073769100
 671 0008 C4F20003 		movt	r3, #:upper16:1073769100
 672 000c 1B88     		ldrh	r3, [r3, #0]	@ movhi
 673 000e 9BB2     		uxth	r3, r3
 895:.\Generated_Source\PSoC5/PWMPulseCapture.c ****     #endif /* (PWMPulseCapture_UsingFixedFunction) */
 896:.\Generated_Source\PSoC5/PWMPulseCapture.c **** }
 674              		.loc 1 896 0
 675 0010 1846     		mov	r0, r3
 676 0012 BD46     		mov	sp, r7
 677 0014 80BC     		pop	{r7}
 678 0016 7047     		bx	lr
 679              		.cfi_endproc
 680              	.LFE15:
 681              		.size	PWMPulseCapture_ReadPeriod, .-PWMPulseCapture_ReadPeriod
 682              		.text
 683              	.Letext0: