ARM GAS  C:\Users\bryan.lee\AppData\Local\Temp\cccgOAOa.s 			page 1


   1              		.syntax unified
   2              		.cpu cortex-m3
   3              		.fpu softvfp
   4              		.eabi_attribute 20, 1
   5              		.eabi_attribute 21, 1
   6              		.eabi_attribute 23, 3
   7              		.eabi_attribute 24, 1
   8              		.eabi_attribute 25, 1
   9              		.eabi_attribute 26, 1
  10              		.eabi_attribute 30, 6
  11              		.eabi_attribute 18, 4
  12              		.thumb
  13              		.file	"PWMPulseCapture_PM.c"
  20 0000 E4000000 		.text
  20      02008000 
  20      00000201 
  20      FB0E0D00 
  20      01010101 
  21              	.Ltext0:
  22              		.cfi_sections	.debug_frame
  23              		.bss
  24              		.align	2
  25              	PWMPulseCapture_backup:
  26 0000 00000000 		.space	12
  26      00000000 
  26      00000000 
  27              		.section	.text.PWMPulseCapture_SaveConfig,"ax",%progbits
  28              		.align	2
  29              		.global	PWMPulseCapture_SaveConfig
  30              		.thumb
  31              		.thumb_func
  32              		.type	PWMPulseCapture_SaveConfig, %function
  33              	PWMPulseCapture_SaveConfig:
  34              	.LFB0:
  35              		.file 1 ".\\Generated_Source\\PSoC5\\PWMPulseCapture_PM.c"
   1:.\Generated_Source\PSoC5/PWMPulseCapture_PM.c **** /*******************************************************************************
   2:.\Generated_Source\PSoC5/PWMPulseCapture_PM.c **** * File Name: PWMPulseCapture_PM.c
   3:.\Generated_Source\PSoC5/PWMPulseCapture_PM.c **** * Version 2.40
   4:.\Generated_Source\PSoC5/PWMPulseCapture_PM.c **** *
   5:.\Generated_Source\PSoC5/PWMPulseCapture_PM.c **** * Description:
   6:.\Generated_Source\PSoC5/PWMPulseCapture_PM.c **** *  This file provides the power management source code to API for the
   7:.\Generated_Source\PSoC5/PWMPulseCapture_PM.c **** *  PWM.
   8:.\Generated_Source\PSoC5/PWMPulseCapture_PM.c **** *
   9:.\Generated_Source\PSoC5/PWMPulseCapture_PM.c **** * Note:
  10:.\Generated_Source\PSoC5/PWMPulseCapture_PM.c **** *
  11:.\Generated_Source\PSoC5/PWMPulseCapture_PM.c **** ********************************************************************************
  12:.\Generated_Source\PSoC5/PWMPulseCapture_PM.c **** * Copyright 2008-2012, Cypress Semiconductor Corporation.  All rights reserved.
  13:.\Generated_Source\PSoC5/PWMPulseCapture_PM.c **** * You may use this file only in accordance with the license, terms, conditions,
  14:.\Generated_Source\PSoC5/PWMPulseCapture_PM.c **** * disclaimers, and limitations in the end user license agreement accompanying
  15:.\Generated_Source\PSoC5/PWMPulseCapture_PM.c **** * the software package with which this file was provided.
  16:.\Generated_Source\PSoC5/PWMPulseCapture_PM.c **** *******************************************************************************/
ARM GAS  C:\Users\bryan.lee\AppData\Local\Temp\cccgOAOa.s 			page 2


  17:.\Generated_Source\PSoC5/PWMPulseCapture_PM.c **** #include "cytypes.h"
  18:.\Generated_Source\PSoC5/PWMPulseCapture_PM.c **** #include "PWMPulseCapture.h"
  19:.\Generated_Source\PSoC5/PWMPulseCapture_PM.c **** 
  20:.\Generated_Source\PSoC5/PWMPulseCapture_PM.c **** static PWMPulseCapture_backupStruct PWMPulseCapture_backup;
  21:.\Generated_Source\PSoC5/PWMPulseCapture_PM.c **** 
  22:.\Generated_Source\PSoC5/PWMPulseCapture_PM.c **** 
  23:.\Generated_Source\PSoC5/PWMPulseCapture_PM.c **** /*******************************************************************************
  24:.\Generated_Source\PSoC5/PWMPulseCapture_PM.c **** * Function Name: PWMPulseCapture_SaveConfig
  25:.\Generated_Source\PSoC5/PWMPulseCapture_PM.c **** ********************************************************************************
  26:.\Generated_Source\PSoC5/PWMPulseCapture_PM.c **** *
  27:.\Generated_Source\PSoC5/PWMPulseCapture_PM.c **** * Summary:
  28:.\Generated_Source\PSoC5/PWMPulseCapture_PM.c **** *  Saves the current user configuration of the component.
  29:.\Generated_Source\PSoC5/PWMPulseCapture_PM.c **** *  
  30:.\Generated_Source\PSoC5/PWMPulseCapture_PM.c **** * Parameters:  
  31:.\Generated_Source\PSoC5/PWMPulseCapture_PM.c **** *  None
  32:.\Generated_Source\PSoC5/PWMPulseCapture_PM.c **** *
  33:.\Generated_Source\PSoC5/PWMPulseCapture_PM.c **** * Return: 
  34:.\Generated_Source\PSoC5/PWMPulseCapture_PM.c **** *  None
  35:.\Generated_Source\PSoC5/PWMPulseCapture_PM.c **** *
  36:.\Generated_Source\PSoC5/PWMPulseCapture_PM.c **** * Global variables:
  37:.\Generated_Source\PSoC5/PWMPulseCapture_PM.c **** *  PWMPulseCapture_backup:  Variables of this global structure are modified to 
  38:.\Generated_Source\PSoC5/PWMPulseCapture_PM.c **** *  store the values of non retention configuration registers when Sleep() API is 
  39:.\Generated_Source\PSoC5/PWMPulseCapture_PM.c **** *  called.
  40:.\Generated_Source\PSoC5/PWMPulseCapture_PM.c **** *
  41:.\Generated_Source\PSoC5/PWMPulseCapture_PM.c **** *******************************************************************************/
  42:.\Generated_Source\PSoC5/PWMPulseCapture_PM.c **** void PWMPulseCapture_SaveConfig(void) 
  43:.\Generated_Source\PSoC5/PWMPulseCapture_PM.c **** {
  36              		.loc 1 43 0
  37              		.cfi_startproc
  38              		@ args = 0, pretend = 0, frame = 0
  39              		@ frame_needed = 1, uses_anonymous_args = 0
  40 0000 80B5     		push	{r7, lr}
  41              	.LCFI0:
  42              		.cfi_def_cfa_offset 8
  43 0002 00AF     		add	r7, sp, #0
  44              		.cfi_offset 14, -4
  45              		.cfi_offset 7, -8
  46              	.LCFI1:
  47              		.cfi_def_cfa_register 7
  44:.\Generated_Source\PSoC5/PWMPulseCapture_PM.c ****     
  45:.\Generated_Source\PSoC5/PWMPulseCapture_PM.c ****     #if(!PWMPulseCapture_UsingFixedFunction)
  46:.\Generated_Source\PSoC5/PWMPulseCapture_PM.c ****         #if (CY_UDB_V0)
  47:.\Generated_Source\PSoC5/PWMPulseCapture_PM.c ****             PWMPulseCapture_backup.PWMUdb = PWMPulseCapture_ReadCounter();
  48              		.loc 1 47 0
  49 0004 FFF7FEFF 		bl	PWMPulseCapture_ReadCounter
  50 0008 0346     		mov	r3, r0
  51 000a 1A46     		mov	r2, r3
  52 000c 40F20003 		movw	r3, #:lower16:PWMPulseCapture_backup
  53 0010 C0F20003 		movt	r3, #:upper16:PWMPulseCapture_backup
  54 0014 5A80     		strh	r2, [r3, #2]	@ movhi
  48:.\Generated_Source\PSoC5/PWMPulseCapture_PM.c ****             PWMPulseCapture_backup.PWMPeriod = PWMPulseCapture_ReadPeriod();
  55              		.loc 1 48 0
  56 0016 FFF7FEFF 		bl	PWMPulseCapture_ReadPeriod
  57 001a 0346     		mov	r3, r0
  58 001c 1A46     		mov	r2, r3
  59 001e 40F20003 		movw	r3, #:lower16:PWMPulseCapture_backup
  60 0022 C0F20003 		movt	r3, #:upper16:PWMPulseCapture_backup
ARM GAS  C:\Users\bryan.lee\AppData\Local\Temp\cccgOAOa.s 			page 3


  61 0026 9A80     		strh	r2, [r3, #4]	@ movhi
  49:.\Generated_Source\PSoC5/PWMPulseCapture_PM.c ****             #if (PWMPulseCapture_UseStatus)
  50:.\Generated_Source\PSoC5/PWMPulseCapture_PM.c ****                 PWMPulseCapture_backup.InterruptMaskValue = PWMPulseCapture_STATUS_MASK;
  62              		.loc 1 50 0
  63 0028 46F28653 		movw	r3, #:lower16:1073767814
  64 002c C4F20003 		movt	r3, #:upper16:1073767814
  65 0030 1B78     		ldrb	r3, [r3, #0]
  66 0032 DAB2     		uxtb	r2, r3
  67 0034 40F20003 		movw	r3, #:lower16:PWMPulseCapture_backup
  68 0038 C0F20003 		movt	r3, #:upper16:PWMPulseCapture_backup
  69 003c 9A71     		strb	r2, [r3, #6]
  51:.\Generated_Source\PSoC5/PWMPulseCapture_PM.c ****             #endif /* (PWMPulseCapture_UseStatus) */
  52:.\Generated_Source\PSoC5/PWMPulseCapture_PM.c ****             
  53:.\Generated_Source\PSoC5/PWMPulseCapture_PM.c ****             #if(PWMPulseCapture_UseOneCompareMode)
  54:.\Generated_Source\PSoC5/PWMPulseCapture_PM.c ****                 PWMPulseCapture_backup.PWMCompareValue = PWMPulseCapture_ReadCompare();
  70              		.loc 1 54 0
  71 003e FFF7FEFF 		bl	PWMPulseCapture_ReadCompare
  72 0042 0346     		mov	r3, r0
  73 0044 1A46     		mov	r2, r3
  74 0046 40F20003 		movw	r3, #:lower16:PWMPulseCapture_backup
  75 004a C0F20003 		movt	r3, #:upper16:PWMPulseCapture_backup
  76 004e 1A81     		strh	r2, [r3, #8]	@ movhi
  55:.\Generated_Source\PSoC5/PWMPulseCapture_PM.c ****             #else
  56:.\Generated_Source\PSoC5/PWMPulseCapture_PM.c ****                 PWMPulseCapture_backup.PWMCompareValue1 = PWMPulseCapture_ReadCompare1();
  57:.\Generated_Source\PSoC5/PWMPulseCapture_PM.c ****                 PWMPulseCapture_backup.PWMCompareValue2 = PWMPulseCapture_ReadCompare2();
  58:.\Generated_Source\PSoC5/PWMPulseCapture_PM.c ****             #endif /* (PWMPulseCapture_UseOneCompareMode) */
  59:.\Generated_Source\PSoC5/PWMPulseCapture_PM.c ****             
  60:.\Generated_Source\PSoC5/PWMPulseCapture_PM.c ****            #if(PWMPulseCapture_DeadBandUsed)
  61:.\Generated_Source\PSoC5/PWMPulseCapture_PM.c ****                 PWMPulseCapture_backup.PWMdeadBandValue = PWMPulseCapture_ReadDeadTime();
  62:.\Generated_Source\PSoC5/PWMPulseCapture_PM.c ****             #endif /* (PWMPulseCapture_DeadBandUsed) */
  63:.\Generated_Source\PSoC5/PWMPulseCapture_PM.c ****           
  64:.\Generated_Source\PSoC5/PWMPulseCapture_PM.c ****             #if ( PWMPulseCapture_KillModeMinTime)
  65:.\Generated_Source\PSoC5/PWMPulseCapture_PM.c ****                 PWMPulseCapture_backup.PWMKillCounterPeriod = PWMPulseCapture_ReadKillTime();
  66:.\Generated_Source\PSoC5/PWMPulseCapture_PM.c ****             #endif /* ( PWMPulseCapture_KillModeMinTime) */
  67:.\Generated_Source\PSoC5/PWMPulseCapture_PM.c ****         #endif /* (CY_UDB_V0) */
  68:.\Generated_Source\PSoC5/PWMPulseCapture_PM.c ****         
  69:.\Generated_Source\PSoC5/PWMPulseCapture_PM.c ****         #if (CY_UDB_V1)
  70:.\Generated_Source\PSoC5/PWMPulseCapture_PM.c ****             #if(!PWMPulseCapture_PWMModeIsCenterAligned)
  71:.\Generated_Source\PSoC5/PWMPulseCapture_PM.c ****                 PWMPulseCapture_backup.PWMPeriod = PWMPulseCapture_ReadPeriod();
  72:.\Generated_Source\PSoC5/PWMPulseCapture_PM.c ****             #endif /* (!PWMPulseCapture_PWMModeIsCenterAligned) */
  73:.\Generated_Source\PSoC5/PWMPulseCapture_PM.c ****             PWMPulseCapture_backup.PWMUdb = PWMPulseCapture_ReadCounter();
  74:.\Generated_Source\PSoC5/PWMPulseCapture_PM.c ****             #if (PWMPulseCapture_UseStatus)
  75:.\Generated_Source\PSoC5/PWMPulseCapture_PM.c ****                 PWMPulseCapture_backup.InterruptMaskValue = PWMPulseCapture_STATUS_MASK;
  76:.\Generated_Source\PSoC5/PWMPulseCapture_PM.c ****             #endif /* (PWMPulseCapture_UseStatus) */
  77:.\Generated_Source\PSoC5/PWMPulseCapture_PM.c ****             
  78:.\Generated_Source\PSoC5/PWMPulseCapture_PM.c ****             #if(PWMPulseCapture_DeadBandMode == PWMPulseCapture__B_PWM__DBM_256_CLOCKS || \
  79:.\Generated_Source\PSoC5/PWMPulseCapture_PM.c ****                 PWMPulseCapture_DeadBandMode == PWMPulseCapture__B_PWM__DBM_2_4_CLOCKS)
  80:.\Generated_Source\PSoC5/PWMPulseCapture_PM.c ****                 PWMPulseCapture_backup.PWMdeadBandValue = PWMPulseCapture_ReadDeadTime();
  81:.\Generated_Source\PSoC5/PWMPulseCapture_PM.c ****             #endif /*  deadband count is either 2-4 clocks or 256 clocks */
  82:.\Generated_Source\PSoC5/PWMPulseCapture_PM.c ****             
  83:.\Generated_Source\PSoC5/PWMPulseCapture_PM.c ****             #if(PWMPulseCapture_KillModeMinTime)
  84:.\Generated_Source\PSoC5/PWMPulseCapture_PM.c ****                  PWMPulseCapture_backup.PWMKillCounterPeriod = PWMPulseCapture_ReadKillTime();
  85:.\Generated_Source\PSoC5/PWMPulseCapture_PM.c ****             #endif /* (PWMPulseCapture_KillModeMinTime) */
  86:.\Generated_Source\PSoC5/PWMPulseCapture_PM.c ****         #endif /* (CY_UDB_V1) */
  87:.\Generated_Source\PSoC5/PWMPulseCapture_PM.c ****         
  88:.\Generated_Source\PSoC5/PWMPulseCapture_PM.c ****         #if(PWMPulseCapture_UseControl)
  89:.\Generated_Source\PSoC5/PWMPulseCapture_PM.c ****             PWMPulseCapture_backup.PWMControlRegister = PWMPulseCapture_ReadControlRegister();
ARM GAS  C:\Users\bryan.lee\AppData\Local\Temp\cccgOAOa.s 			page 4


  77              		.loc 1 89 0
  78 0050 FFF7FEFF 		bl	PWMPulseCapture_ReadControlRegister
  79 0054 0346     		mov	r3, r0
  80 0056 1A46     		mov	r2, r3
  81 0058 40F20003 		movw	r3, #:lower16:PWMPulseCapture_backup
  82 005c C0F20003 		movt	r3, #:upper16:PWMPulseCapture_backup
  83 0060 9A72     		strb	r2, [r3, #10]
  90:.\Generated_Source\PSoC5/PWMPulseCapture_PM.c ****         #endif /* (PWMPulseCapture_UseControl) */
  91:.\Generated_Source\PSoC5/PWMPulseCapture_PM.c ****     #endif  /* (!PWMPulseCapture_UsingFixedFunction) */
  92:.\Generated_Source\PSoC5/PWMPulseCapture_PM.c **** }
  84              		.loc 1 92 0
  85 0062 80BD     		pop	{r7, pc}
  86              		.cfi_endproc
  87              	.LFE0:
  88              		.size	PWMPulseCapture_SaveConfig, .-PWMPulseCapture_SaveConfig
  89              		.section	.text.PWMPulseCapture_RestoreConfig,"ax",%progbits
  90              		.align	2
  91              		.global	PWMPulseCapture_RestoreConfig
  92              		.thumb
  93              		.thumb_func
  94              		.type	PWMPulseCapture_RestoreConfig, %function
  95              	PWMPulseCapture_RestoreConfig:
  96              	.LFB1:
  93:.\Generated_Source\PSoC5/PWMPulseCapture_PM.c **** 
  94:.\Generated_Source\PSoC5/PWMPulseCapture_PM.c **** 
  95:.\Generated_Source\PSoC5/PWMPulseCapture_PM.c **** /*******************************************************************************
  96:.\Generated_Source\PSoC5/PWMPulseCapture_PM.c **** * Function Name: PWMPulseCapture_RestoreConfig
  97:.\Generated_Source\PSoC5/PWMPulseCapture_PM.c **** ********************************************************************************
  98:.\Generated_Source\PSoC5/PWMPulseCapture_PM.c **** * 
  99:.\Generated_Source\PSoC5/PWMPulseCapture_PM.c **** * Summary:
 100:.\Generated_Source\PSoC5/PWMPulseCapture_PM.c **** *  Restores the current user configuration of the component.
 101:.\Generated_Source\PSoC5/PWMPulseCapture_PM.c **** *
 102:.\Generated_Source\PSoC5/PWMPulseCapture_PM.c **** * Parameters:  
 103:.\Generated_Source\PSoC5/PWMPulseCapture_PM.c **** *  None
 104:.\Generated_Source\PSoC5/PWMPulseCapture_PM.c **** *
 105:.\Generated_Source\PSoC5/PWMPulseCapture_PM.c **** * Return: 
 106:.\Generated_Source\PSoC5/PWMPulseCapture_PM.c **** *  None
 107:.\Generated_Source\PSoC5/PWMPulseCapture_PM.c **** *
 108:.\Generated_Source\PSoC5/PWMPulseCapture_PM.c **** * Global variables:
 109:.\Generated_Source\PSoC5/PWMPulseCapture_PM.c **** *  PWMPulseCapture_backup:  Variables of this global structure are used to  
 110:.\Generated_Source\PSoC5/PWMPulseCapture_PM.c **** *  restore the values of non retention registers on wakeup from sleep mode.
 111:.\Generated_Source\PSoC5/PWMPulseCapture_PM.c **** *
 112:.\Generated_Source\PSoC5/PWMPulseCapture_PM.c **** *******************************************************************************/
 113:.\Generated_Source\PSoC5/PWMPulseCapture_PM.c **** void PWMPulseCapture_RestoreConfig(void) 
 114:.\Generated_Source\PSoC5/PWMPulseCapture_PM.c **** {
  97              		.loc 1 114 0
  98              		.cfi_startproc
  99              		@ args = 0, pretend = 0, frame = 8
 100              		@ frame_needed = 1, uses_anonymous_args = 0
 101 0000 80B5     		push	{r7, lr}
 102              	.LCFI2:
 103              		.cfi_def_cfa_offset 8
 104 0002 82B0     		sub	sp, sp, #8
 105              	.LCFI3:
 106              		.cfi_def_cfa_offset 16
 107 0004 00AF     		add	r7, sp, #0
 108              		.cfi_offset 14, -4
ARM GAS  C:\Users\bryan.lee\AppData\Local\Temp\cccgOAOa.s 			page 5


 109              		.cfi_offset 7, -8
 110              	.LCFI4:
 111              		.cfi_def_cfa_register 7
 115:.\Generated_Source\PSoC5/PWMPulseCapture_PM.c ****         #if(!PWMPulseCapture_UsingFixedFunction)
 116:.\Generated_Source\PSoC5/PWMPulseCapture_PM.c ****             #if (CY_UDB_V0)
 117:.\Generated_Source\PSoC5/PWMPulseCapture_PM.c ****                 /* Interrupt State Backup for Critical Region*/
 118:.\Generated_Source\PSoC5/PWMPulseCapture_PM.c ****                 uint8 PWMPulseCapture_interruptState;
 119:.\Generated_Source\PSoC5/PWMPulseCapture_PM.c ****                 /* Enter Critical Region*/
 120:.\Generated_Source\PSoC5/PWMPulseCapture_PM.c ****                 PWMPulseCapture_interruptState = CyEnterCriticalSection();
 112              		.loc 1 120 0
 113 0006 FFF7FEFF 		bl	CyEnterCriticalSection
 114 000a 0346     		mov	r3, r0
 115 000c FB71     		strb	r3, [r7, #7]
 121:.\Generated_Source\PSoC5/PWMPulseCapture_PM.c ****                 #if (PWMPulseCapture_UseStatus)
 122:.\Generated_Source\PSoC5/PWMPulseCapture_PM.c ****                     /* Use the interrupt output of the status register for IRQ output */
 123:.\Generated_Source\PSoC5/PWMPulseCapture_PM.c ****                     PWMPulseCapture_STATUS_AUX_CTRL |= PWMPulseCapture_STATUS_ACTL_INT_EN_MASK;
 116              		.loc 1 123 0
 117 000e 46F29653 		movw	r3, #:lower16:1073767830
 118 0012 C4F20003 		movt	r3, #:upper16:1073767830
 119 0016 46F29652 		movw	r2, #:lower16:1073767830
 120 001a C4F20002 		movt	r2, #:upper16:1073767830
 121 001e 1278     		ldrb	r2, [r2, #0]
 122 0020 D2B2     		uxtb	r2, r2
 123 0022 42F01002 		orr	r2, r2, #16
 124 0026 D2B2     		uxtb	r2, r2
 125 0028 1A70     		strb	r2, [r3, #0]
 124:.\Generated_Source\PSoC5/PWMPulseCapture_PM.c ****                     
 125:.\Generated_Source\PSoC5/PWMPulseCapture_PM.c ****                     PWMPulseCapture_STATUS_MASK = PWMPulseCapture_backup.InterruptMaskValue;
 126              		.loc 1 125 0
 127 002a 46F28653 		movw	r3, #:lower16:1073767814
 128 002e C4F20003 		movt	r3, #:upper16:1073767814
 129 0032 40F20002 		movw	r2, #:lower16:PWMPulseCapture_backup
 130 0036 C0F20002 		movt	r2, #:upper16:PWMPulseCapture_backup
 131 003a 9279     		ldrb	r2, [r2, #6]	@ zero_extendqisi2
 132 003c 1A70     		strb	r2, [r3, #0]
 126:.\Generated_Source\PSoC5/PWMPulseCapture_PM.c ****                 #endif /* (PWMPulseCapture_UseStatus) */
 127:.\Generated_Source\PSoC5/PWMPulseCapture_PM.c ****                 
 128:.\Generated_Source\PSoC5/PWMPulseCapture_PM.c ****                 #if (PWMPulseCapture_Resolution == 8)
 129:.\Generated_Source\PSoC5/PWMPulseCapture_PM.c ****                     /* Set FIFO 0 to 1 byte register for period*/
 130:.\Generated_Source\PSoC5/PWMPulseCapture_PM.c ****                     PWMPulseCapture_AUX_CONTROLDP0 |= (PWMPulseCapture_AUX_CTRL_FIFO0_CLR);
 131:.\Generated_Source\PSoC5/PWMPulseCapture_PM.c ****                 #else /* (PWMPulseCapture_Resolution == 16)*/
 132:.\Generated_Source\PSoC5/PWMPulseCapture_PM.c ****                     /* Set FIFO 0 to 1 byte register for period */
 133:.\Generated_Source\PSoC5/PWMPulseCapture_PM.c ****                     PWMPulseCapture_AUX_CONTROLDP0 |= (PWMPulseCapture_AUX_CTRL_FIFO0_CLR);
 133              		.loc 1 133 0
 134 003e 46F29653 		movw	r3, #:lower16:1073767830
 135 0042 C4F20003 		movt	r3, #:upper16:1073767830
 136 0046 46F29652 		movw	r2, #:lower16:1073767830
 137 004a C4F20002 		movt	r2, #:upper16:1073767830
 138 004e 1278     		ldrb	r2, [r2, #0]
 139 0050 D2B2     		uxtb	r2, r2
 140 0052 42F00102 		orr	r2, r2, #1
 141 0056 D2B2     		uxtb	r2, r2
 142 0058 1A70     		strb	r2, [r3, #0]
 134:.\Generated_Source\PSoC5/PWMPulseCapture_PM.c ****                     PWMPulseCapture_AUX_CONTROLDP1 |= (PWMPulseCapture_AUX_CTRL_FIFO0_CLR);
 143              		.loc 1 134 0
 144 005a 46F29753 		movw	r3, #:lower16:1073767831
 145 005e C4F20003 		movt	r3, #:upper16:1073767831
ARM GAS  C:\Users\bryan.lee\AppData\Local\Temp\cccgOAOa.s 			page 6


 146 0062 46F29752 		movw	r2, #:lower16:1073767831
 147 0066 C4F20002 		movt	r2, #:upper16:1073767831
 148 006a 1278     		ldrb	r2, [r2, #0]
 149 006c D2B2     		uxtb	r2, r2
 150 006e 42F00102 		orr	r2, r2, #1
 151 0072 D2B2     		uxtb	r2, r2
 152 0074 1A70     		strb	r2, [r3, #0]
 135:.\Generated_Source\PSoC5/PWMPulseCapture_PM.c ****                 #endif /* (PWMPulseCapture_Resolution == 8) */
 136:.\Generated_Source\PSoC5/PWMPulseCapture_PM.c ****                 /* Exit Critical Region*/
 137:.\Generated_Source\PSoC5/PWMPulseCapture_PM.c ****                 CyExitCriticalSection(PWMPulseCapture_interruptState);
 153              		.loc 1 137 0
 154 0076 FB79     		ldrb	r3, [r7, #7]	@ zero_extendqisi2
 155 0078 1846     		mov	r0, r3
 156 007a FFF7FEFF 		bl	CyExitCriticalSection
 138:.\Generated_Source\PSoC5/PWMPulseCapture_PM.c ****                 
 139:.\Generated_Source\PSoC5/PWMPulseCapture_PM.c ****                 PWMPulseCapture_WriteCounter(PWMPulseCapture_backup.PWMUdb);
 157              		.loc 1 139 0
 158 007e 40F20003 		movw	r3, #:lower16:PWMPulseCapture_backup
 159 0082 C0F20003 		movt	r3, #:upper16:PWMPulseCapture_backup
 160 0086 5B88     		ldrh	r3, [r3, #2]
 161 0088 1846     		mov	r0, r3
 162 008a FFF7FEFF 		bl	PWMPulseCapture_WriteCounter
 140:.\Generated_Source\PSoC5/PWMPulseCapture_PM.c ****                 PWMPulseCapture_WritePeriod(PWMPulseCapture_backup.PWMPeriod);
 163              		.loc 1 140 0
 164 008e 40F20003 		movw	r3, #:lower16:PWMPulseCapture_backup
 165 0092 C0F20003 		movt	r3, #:upper16:PWMPulseCapture_backup
 166 0096 9B88     		ldrh	r3, [r3, #4]
 167 0098 1846     		mov	r0, r3
 168 009a FFF7FEFF 		bl	PWMPulseCapture_WritePeriod
 141:.\Generated_Source\PSoC5/PWMPulseCapture_PM.c ****                 
 142:.\Generated_Source\PSoC5/PWMPulseCapture_PM.c ****                 #if(PWMPulseCapture_UseOneCompareMode)
 143:.\Generated_Source\PSoC5/PWMPulseCapture_PM.c ****                     PWMPulseCapture_WriteCompare(PWMPulseCapture_backup.PWMCompareValue);
 169              		.loc 1 143 0
 170 009e 40F20003 		movw	r3, #:lower16:PWMPulseCapture_backup
 171 00a2 C0F20003 		movt	r3, #:upper16:PWMPulseCapture_backup
 172 00a6 1B89     		ldrh	r3, [r3, #8]
 173 00a8 1846     		mov	r0, r3
 174 00aa FFF7FEFF 		bl	PWMPulseCapture_WriteCompare
 144:.\Generated_Source\PSoC5/PWMPulseCapture_PM.c ****                 #else
 145:.\Generated_Source\PSoC5/PWMPulseCapture_PM.c ****                     PWMPulseCapture_WriteCompare1(PWMPulseCapture_backup.PWMCompareValue1);
 146:.\Generated_Source\PSoC5/PWMPulseCapture_PM.c ****                     PWMPulseCapture_WriteCompare2(PWMPulseCapture_backup.PWMCompareValue2);
 147:.\Generated_Source\PSoC5/PWMPulseCapture_PM.c ****                 #endif /* (PWMPulseCapture_UseOneCompareMode) */
 148:.\Generated_Source\PSoC5/PWMPulseCapture_PM.c ****                 
 149:.\Generated_Source\PSoC5/PWMPulseCapture_PM.c ****                #if(PWMPulseCapture_DeadBandMode == PWMPulseCapture__B_PWM__DBM_256_CLOCKS || \
 150:.\Generated_Source\PSoC5/PWMPulseCapture_PM.c ****                    PWMPulseCapture_DeadBandMode == PWMPulseCapture__B_PWM__DBM_2_4_CLOCKS)
 151:.\Generated_Source\PSoC5/PWMPulseCapture_PM.c ****                     PWMPulseCapture_WriteDeadTime(PWMPulseCapture_backup.PWMdeadBandValue);
 152:.\Generated_Source\PSoC5/PWMPulseCapture_PM.c ****                 #endif /* deadband count is either 2-4 clocks or 256 clocks */
 153:.\Generated_Source\PSoC5/PWMPulseCapture_PM.c ****             
 154:.\Generated_Source\PSoC5/PWMPulseCapture_PM.c ****                 #if ( PWMPulseCapture_KillModeMinTime)
 155:.\Generated_Source\PSoC5/PWMPulseCapture_PM.c ****                     PWMPulseCapture_WriteKillTime(PWMPulseCapture_backup.PWMKillCounterPeriod);
 156:.\Generated_Source\PSoC5/PWMPulseCapture_PM.c ****                 #endif /* ( PWMPulseCapture_KillModeMinTime) */
 157:.\Generated_Source\PSoC5/PWMPulseCapture_PM.c ****             #endif /* (CY_UDB_V0) */
 158:.\Generated_Source\PSoC5/PWMPulseCapture_PM.c ****             
 159:.\Generated_Source\PSoC5/PWMPulseCapture_PM.c ****             #if (CY_UDB_V1)
 160:.\Generated_Source\PSoC5/PWMPulseCapture_PM.c ****                 #if(!PWMPulseCapture_PWMModeIsCenterAligned)
 161:.\Generated_Source\PSoC5/PWMPulseCapture_PM.c ****                     PWMPulseCapture_WritePeriod(PWMPulseCapture_backup.PWMPeriod);
 162:.\Generated_Source\PSoC5/PWMPulseCapture_PM.c ****                 #endif /* (!PWMPulseCapture_PWMModeIsCenterAligned) */
ARM GAS  C:\Users\bryan.lee\AppData\Local\Temp\cccgOAOa.s 			page 7


 163:.\Generated_Source\PSoC5/PWMPulseCapture_PM.c ****                 PWMPulseCapture_WriteCounter(PWMPulseCapture_backup.PWMUdb);
 164:.\Generated_Source\PSoC5/PWMPulseCapture_PM.c ****                 #if (PWMPulseCapture_UseStatus)
 165:.\Generated_Source\PSoC5/PWMPulseCapture_PM.c ****                     PWMPulseCapture_STATUS_MASK = PWMPulseCapture_backup.InterruptMaskValue;
 166:.\Generated_Source\PSoC5/PWMPulseCapture_PM.c ****                 #endif /* (PWMPulseCapture_UseStatus) */
 167:.\Generated_Source\PSoC5/PWMPulseCapture_PM.c ****                 
 168:.\Generated_Source\PSoC5/PWMPulseCapture_PM.c ****                 #if(PWMPulseCapture_DeadBandMode == PWMPulseCapture__B_PWM__DBM_256_CLOCKS || \
 169:.\Generated_Source\PSoC5/PWMPulseCapture_PM.c ****                     PWMPulseCapture_DeadBandMode == PWMPulseCapture__B_PWM__DBM_2_4_CLOCKS)
 170:.\Generated_Source\PSoC5/PWMPulseCapture_PM.c ****                     PWMPulseCapture_WriteDeadTime(PWMPulseCapture_backup.PWMdeadBandValue);
 171:.\Generated_Source\PSoC5/PWMPulseCapture_PM.c ****                 #endif /* deadband count is either 2-4 clocks or 256 clocks */
 172:.\Generated_Source\PSoC5/PWMPulseCapture_PM.c ****                 
 173:.\Generated_Source\PSoC5/PWMPulseCapture_PM.c ****                 #if(PWMPulseCapture_KillModeMinTime)
 174:.\Generated_Source\PSoC5/PWMPulseCapture_PM.c ****                     PWMPulseCapture_WriteKillTime(PWMPulseCapture_backup.PWMKillCounterPeriod);
 175:.\Generated_Source\PSoC5/PWMPulseCapture_PM.c ****                 #endif /* (PWMPulseCapture_KillModeMinTime) */
 176:.\Generated_Source\PSoC5/PWMPulseCapture_PM.c ****             #endif /* (CY_UDB_V1) */
 177:.\Generated_Source\PSoC5/PWMPulseCapture_PM.c ****             
 178:.\Generated_Source\PSoC5/PWMPulseCapture_PM.c ****             #if(PWMPulseCapture_UseControl)
 179:.\Generated_Source\PSoC5/PWMPulseCapture_PM.c ****                 PWMPulseCapture_WriteControlRegister(PWMPulseCapture_backup.PWMControlRegister); 
 175              		.loc 1 179 0
 176 00ae 40F20003 		movw	r3, #:lower16:PWMPulseCapture_backup
 177 00b2 C0F20003 		movt	r3, #:upper16:PWMPulseCapture_backup
 178 00b6 9B7A     		ldrb	r3, [r3, #10]	@ zero_extendqisi2
 179 00b8 1846     		mov	r0, r3
 180 00ba FFF7FEFF 		bl	PWMPulseCapture_WriteControlRegister
 180:.\Generated_Source\PSoC5/PWMPulseCapture_PM.c ****             #endif /* (PWMPulseCapture_UseControl) */
 181:.\Generated_Source\PSoC5/PWMPulseCapture_PM.c ****         #endif  /* (!PWMPulseCapture_UsingFixedFunction) */
 182:.\Generated_Source\PSoC5/PWMPulseCapture_PM.c ****     }
 181              		.loc 1 182 0
 182 00be 07F10807 		add	r7, r7, #8
 183 00c2 BD46     		mov	sp, r7
 184 00c4 80BD     		pop	{r7, pc}
 185              		.cfi_endproc
 186              	.LFE1:
 187              		.size	PWMPulseCapture_RestoreConfig, .-PWMPulseCapture_RestoreConfig
 188 00c6 00BF     		.section	.text.PWMPulseCapture_Sleep,"ax",%progbits
 189              		.align	2
 190              		.global	PWMPulseCapture_Sleep
 191              		.thumb
 192              		.thumb_func
 193              		.type	PWMPulseCapture_Sleep, %function
 194              	PWMPulseCapture_Sleep:
 195              	.LFB2:
 183:.\Generated_Source\PSoC5/PWMPulseCapture_PM.c **** 
 184:.\Generated_Source\PSoC5/PWMPulseCapture_PM.c **** 
 185:.\Generated_Source\PSoC5/PWMPulseCapture_PM.c **** /*******************************************************************************
 186:.\Generated_Source\PSoC5/PWMPulseCapture_PM.c **** * Function Name: PWMPulseCapture_Sleep
 187:.\Generated_Source\PSoC5/PWMPulseCapture_PM.c **** ********************************************************************************
 188:.\Generated_Source\PSoC5/PWMPulseCapture_PM.c **** * 
 189:.\Generated_Source\PSoC5/PWMPulseCapture_PM.c **** * Summary:
 190:.\Generated_Source\PSoC5/PWMPulseCapture_PM.c **** *  Disables block's operation and saves the user configuration. Should be called 
 191:.\Generated_Source\PSoC5/PWMPulseCapture_PM.c **** *  just prior to entering sleep.
 192:.\Generated_Source\PSoC5/PWMPulseCapture_PM.c **** *  
 193:.\Generated_Source\PSoC5/PWMPulseCapture_PM.c **** * Parameters:  
 194:.\Generated_Source\PSoC5/PWMPulseCapture_PM.c **** *  None
 195:.\Generated_Source\PSoC5/PWMPulseCapture_PM.c **** *
 196:.\Generated_Source\PSoC5/PWMPulseCapture_PM.c **** * Return: 
 197:.\Generated_Source\PSoC5/PWMPulseCapture_PM.c **** *  None
 198:.\Generated_Source\PSoC5/PWMPulseCapture_PM.c **** *
ARM GAS  C:\Users\bryan.lee\AppData\Local\Temp\cccgOAOa.s 			page 8


 199:.\Generated_Source\PSoC5/PWMPulseCapture_PM.c **** * Global variables:
 200:.\Generated_Source\PSoC5/PWMPulseCapture_PM.c **** *  PWMPulseCapture_backup.PWMEnableState:  Is modified depending on the enable 
 201:.\Generated_Source\PSoC5/PWMPulseCapture_PM.c **** *  state of the block before entering sleep mode.
 202:.\Generated_Source\PSoC5/PWMPulseCapture_PM.c **** *
 203:.\Generated_Source\PSoC5/PWMPulseCapture_PM.c **** *******************************************************************************/
 204:.\Generated_Source\PSoC5/PWMPulseCapture_PM.c **** void PWMPulseCapture_Sleep(void) 
 205:.\Generated_Source\PSoC5/PWMPulseCapture_PM.c **** {
 196              		.loc 1 205 0
 197              		.cfi_startproc
 198              		@ args = 0, pretend = 0, frame = 0
 199              		@ frame_needed = 1, uses_anonymous_args = 0
 200 0000 80B5     		push	{r7, lr}
 201              	.LCFI5:
 202              		.cfi_def_cfa_offset 8
 203 0002 00AF     		add	r7, sp, #0
 204              		.cfi_offset 14, -4
 205              		.cfi_offset 7, -8
 206              	.LCFI6:
 207              		.cfi_def_cfa_register 7
 206:.\Generated_Source\PSoC5/PWMPulseCapture_PM.c ****     #if(PWMPulseCapture_UseControl)
 207:.\Generated_Source\PSoC5/PWMPulseCapture_PM.c ****         if(PWMPulseCapture_CTRL_ENABLE == (PWMPulseCapture_CONTROL & PWMPulseCapture_CTRL_ENABLE))
 208              		.loc 1 207 0
 209 0004 46F27653 		movw	r3, #:lower16:1073767798
 210 0008 C4F20003 		movt	r3, #:upper16:1073767798
 211 000c 1B78     		ldrb	r3, [r3, #0]
 212 000e DBB2     		uxtb	r3, r3
 213 0010 5BB2     		sxtb	r3, r3
 214 0012 002B     		cmp	r3, #0
 215 0014 07DA     		bge	.L6
 208:.\Generated_Source\PSoC5/PWMPulseCapture_PM.c ****         {
 209:.\Generated_Source\PSoC5/PWMPulseCapture_PM.c ****             /*Component is enabled */
 210:.\Generated_Source\PSoC5/PWMPulseCapture_PM.c ****             PWMPulseCapture_backup.PWMEnableState = 1u;
 216              		.loc 1 210 0
 217 0016 40F20003 		movw	r3, #:lower16:PWMPulseCapture_backup
 218 001a C0F20003 		movt	r3, #:upper16:PWMPulseCapture_backup
 219 001e 4FF00102 		mov	r2, #1
 220 0022 1A70     		strb	r2, [r3, #0]
 221 0024 06E0     		b	.L7
 222              	.L6:
 211:.\Generated_Source\PSoC5/PWMPulseCapture_PM.c ****         }
 212:.\Generated_Source\PSoC5/PWMPulseCapture_PM.c ****         else
 213:.\Generated_Source\PSoC5/PWMPulseCapture_PM.c ****         {
 214:.\Generated_Source\PSoC5/PWMPulseCapture_PM.c ****             /* Component is disabled */
 215:.\Generated_Source\PSoC5/PWMPulseCapture_PM.c ****             PWMPulseCapture_backup.PWMEnableState = 0u;
 223              		.loc 1 215 0
 224 0026 40F20003 		movw	r3, #:lower16:PWMPulseCapture_backup
 225 002a C0F20003 		movt	r3, #:upper16:PWMPulseCapture_backup
 226 002e 4FF00002 		mov	r2, #0
 227 0032 1A70     		strb	r2, [r3, #0]
 228              	.L7:
 216:.\Generated_Source\PSoC5/PWMPulseCapture_PM.c ****         }
 217:.\Generated_Source\PSoC5/PWMPulseCapture_PM.c ****     #endif /* (PWMPulseCapture_UseControl) */
 218:.\Generated_Source\PSoC5/PWMPulseCapture_PM.c **** 
 219:.\Generated_Source\PSoC5/PWMPulseCapture_PM.c ****     /* Stop component */
 220:.\Generated_Source\PSoC5/PWMPulseCapture_PM.c ****     PWMPulseCapture_Stop();
 229              		.loc 1 220 0
 230 0034 FFF7FEFF 		bl	PWMPulseCapture_Stop
ARM GAS  C:\Users\bryan.lee\AppData\Local\Temp\cccgOAOa.s 			page 9


 221:.\Generated_Source\PSoC5/PWMPulseCapture_PM.c ****     
 222:.\Generated_Source\PSoC5/PWMPulseCapture_PM.c ****     /* Save registers configuration */
 223:.\Generated_Source\PSoC5/PWMPulseCapture_PM.c ****     PWMPulseCapture_SaveConfig();
 231              		.loc 1 223 0
 232 0038 FFF7FEFF 		bl	PWMPulseCapture_SaveConfig
 224:.\Generated_Source\PSoC5/PWMPulseCapture_PM.c **** }
 233              		.loc 1 224 0
 234 003c 80BD     		pop	{r7, pc}
 235              		.cfi_endproc
 236              	.LFE2:
 237              		.size	PWMPulseCapture_Sleep, .-PWMPulseCapture_Sleep
 238 003e 00BF     		.section	.text.PWMPulseCapture_Wakeup,"ax",%progbits
 239              		.align	2
 240              		.global	PWMPulseCapture_Wakeup
 241              		.thumb
 242              		.thumb_func
 243              		.type	PWMPulseCapture_Wakeup, %function
 244              	PWMPulseCapture_Wakeup:
 245              	.LFB3:
 225:.\Generated_Source\PSoC5/PWMPulseCapture_PM.c **** 
 226:.\Generated_Source\PSoC5/PWMPulseCapture_PM.c **** 
 227:.\Generated_Source\PSoC5/PWMPulseCapture_PM.c **** /*******************************************************************************
 228:.\Generated_Source\PSoC5/PWMPulseCapture_PM.c **** * Function Name: PWMPulseCapture_Wakeup
 229:.\Generated_Source\PSoC5/PWMPulseCapture_PM.c **** ********************************************************************************
 230:.\Generated_Source\PSoC5/PWMPulseCapture_PM.c **** * 
 231:.\Generated_Source\PSoC5/PWMPulseCapture_PM.c **** * Summary:
 232:.\Generated_Source\PSoC5/PWMPulseCapture_PM.c **** *  Restores and enables the user configuration. Should be called just after 
 233:.\Generated_Source\PSoC5/PWMPulseCapture_PM.c **** *  awaking from sleep.
 234:.\Generated_Source\PSoC5/PWMPulseCapture_PM.c **** *  
 235:.\Generated_Source\PSoC5/PWMPulseCapture_PM.c **** * Parameters:  
 236:.\Generated_Source\PSoC5/PWMPulseCapture_PM.c **** *  None
 237:.\Generated_Source\PSoC5/PWMPulseCapture_PM.c **** *
 238:.\Generated_Source\PSoC5/PWMPulseCapture_PM.c **** * Return: 
 239:.\Generated_Source\PSoC5/PWMPulseCapture_PM.c **** *  None
 240:.\Generated_Source\PSoC5/PWMPulseCapture_PM.c **** *
 241:.\Generated_Source\PSoC5/PWMPulseCapture_PM.c **** * Global variables:
 242:.\Generated_Source\PSoC5/PWMPulseCapture_PM.c **** *  PWMPulseCapture_backup.pwmEnable:  Is used to restore the enable state of 
 243:.\Generated_Source\PSoC5/PWMPulseCapture_PM.c **** *  block on wakeup from sleep mode.
 244:.\Generated_Source\PSoC5/PWMPulseCapture_PM.c **** *
 245:.\Generated_Source\PSoC5/PWMPulseCapture_PM.c **** *******************************************************************************/
 246:.\Generated_Source\PSoC5/PWMPulseCapture_PM.c **** void PWMPulseCapture_Wakeup(void) 
 247:.\Generated_Source\PSoC5/PWMPulseCapture_PM.c **** {
 246              		.loc 1 247 0
 247              		.cfi_startproc
 248              		@ args = 0, pretend = 0, frame = 0
 249              		@ frame_needed = 1, uses_anonymous_args = 0
 250 0000 80B5     		push	{r7, lr}
 251              	.LCFI7:
 252              		.cfi_def_cfa_offset 8
 253 0002 00AF     		add	r7, sp, #0
 254              		.cfi_offset 14, -4
 255              		.cfi_offset 7, -8
 256              	.LCFI8:
 257              		.cfi_def_cfa_register 7
 248:.\Generated_Source\PSoC5/PWMPulseCapture_PM.c ****      /* Restore registers values */
 249:.\Generated_Source\PSoC5/PWMPulseCapture_PM.c ****     PWMPulseCapture_RestoreConfig();
 258              		.loc 1 249 0
ARM GAS  C:\Users\bryan.lee\AppData\Local\Temp\cccgOAOa.s 			page 10


 259 0004 FFF7FEFF 		bl	PWMPulseCapture_RestoreConfig
 250:.\Generated_Source\PSoC5/PWMPulseCapture_PM.c ****     
 251:.\Generated_Source\PSoC5/PWMPulseCapture_PM.c ****     if(PWMPulseCapture_backup.PWMEnableState != 0u)
 260              		.loc 1 251 0
 261 0008 40F20003 		movw	r3, #:lower16:PWMPulseCapture_backup
 262 000c C0F20003 		movt	r3, #:upper16:PWMPulseCapture_backup
 263 0010 1B78     		ldrb	r3, [r3, #0]	@ zero_extendqisi2
 264 0012 002B     		cmp	r3, #0
 265 0014 01D0     		beq	.L11
 252:.\Generated_Source\PSoC5/PWMPulseCapture_PM.c ****     {
 253:.\Generated_Source\PSoC5/PWMPulseCapture_PM.c ****         /* Enable component's operation */
 254:.\Generated_Source\PSoC5/PWMPulseCapture_PM.c ****         PWMPulseCapture_Enable();
 266              		.loc 1 254 0
 267 0016 FFF7FEFF 		bl	PWMPulseCapture_Enable
 268              	.L11:
 255:.\Generated_Source\PSoC5/PWMPulseCapture_PM.c ****     } /* Do nothing if component's block was disabled before */
 256:.\Generated_Source\PSoC5/PWMPulseCapture_PM.c ****     
 257:.\Generated_Source\PSoC5/PWMPulseCapture_PM.c **** }
 269              		.loc 1 257 0
 270 001a 80BD     		pop	{r7, pc}
 271              		.cfi_endproc
 272              	.LFE3:
 273              		.size	PWMPulseCapture_Wakeup, .-PWMPulseCapture_Wakeup
 274              		.text
 275              	.Letext0: