ARM GAS  C:\Users\Bryan.Lee\AppData\Local\Temp\ccsw8nsd.s 			page 1


   1              		.syntax unified
   2              		.cpu cortex-m3
   3              		.fpu softvfp
   4              		.eabi_attribute 20, 1
   5              		.eabi_attribute 21, 1
   6              		.eabi_attribute 23, 3
   7              		.eabi_attribute 24, 1
   8              		.eabi_attribute 25, 1
   9              		.eabi_attribute 26, 1
  10              		.eabi_attribute 30, 6
  11              		.eabi_attribute 18, 4
  12              		.thumb
  13              		.file	"Receiver.c"
  20 0000 5A010000 		.text
  20      02006100 
  20      00000201 
  20      FB0E0D00 
  20      01010101 
  21              	.Ltext0:
  22              		.cfi_sections	.debug_frame
  23              		.global	Receiver_initVar
  24              		.bss
  25              		.type	Receiver_initVar, %object
  26              		.size	Receiver_initVar, 1
  27              	Receiver_initVar:
  28 0000 00       		.space	1
  29              		.section	.text.Receiver_Start,"ax",%progbits
  30              		.align	2
  31              		.global	Receiver_Start
  32              		.thumb
  33              		.thumb_func
  34              		.type	Receiver_Start, %function
  35              	Receiver_Start:
  36              	.LFB0:
  37              		.file 1 ".\\Generated_Source\\PSoC5\\Receiver.c"
   1:.\Generated_Source\PSoC5/Receiver.c **** /*******************************************************************************
   2:.\Generated_Source\PSoC5/Receiver.c **** * File Name: Receiver.c
   3:.\Generated_Source\PSoC5/Receiver.c **** * Version 2.10
   4:.\Generated_Source\PSoC5/Receiver.c **** *
   5:.\Generated_Source\PSoC5/Receiver.c **** * Description:
   6:.\Generated_Source\PSoC5/Receiver.c **** *  This file provides the API source code for the Shift Register component.
   7:.\Generated_Source\PSoC5/Receiver.c **** *
   8:.\Generated_Source\PSoC5/Receiver.c **** * Note: none
   9:.\Generated_Source\PSoC5/Receiver.c **** *
  10:.\Generated_Source\PSoC5/Receiver.c **** ********************************************************************************
  11:.\Generated_Source\PSoC5/Receiver.c **** * Copyright 2008-2012, Cypress Semiconductor Corporation.  All rights reserved.
  12:.\Generated_Source\PSoC5/Receiver.c **** * You may use this file only in accordance with the license, terms, conditions,
  13:.\Generated_Source\PSoC5/Receiver.c **** * disclaimers, and limitations in the end user license agreement accompanying
  14:.\Generated_Source\PSoC5/Receiver.c **** * the software package with which this file was provided.
  15:.\Generated_Source\PSoC5/Receiver.c **** ********************************************************************************/
  16:.\Generated_Source\PSoC5/Receiver.c **** 
ARM GAS  C:\Users\Bryan.Lee\AppData\Local\Temp\ccsw8nsd.s 			page 2


  17:.\Generated_Source\PSoC5/Receiver.c **** 
  18:.\Generated_Source\PSoC5/Receiver.c **** #include "Receiver.h"
  19:.\Generated_Source\PSoC5/Receiver.c **** #include "CyLib.h"
  20:.\Generated_Source\PSoC5/Receiver.c **** 
  21:.\Generated_Source\PSoC5/Receiver.c **** 
  22:.\Generated_Source\PSoC5/Receiver.c **** uint8 Receiver_initVar = 0u;
  23:.\Generated_Source\PSoC5/Receiver.c **** 
  24:.\Generated_Source\PSoC5/Receiver.c **** 
  25:.\Generated_Source\PSoC5/Receiver.c **** /*******************************************************************************
  26:.\Generated_Source\PSoC5/Receiver.c **** * Function Name: Receiver_Start
  27:.\Generated_Source\PSoC5/Receiver.c **** ********************************************************************************
  28:.\Generated_Source\PSoC5/Receiver.c **** *
  29:.\Generated_Source\PSoC5/Receiver.c **** * Summary:
  30:.\Generated_Source\PSoC5/Receiver.c **** *  Starts the Shift Register.
  31:.\Generated_Source\PSoC5/Receiver.c **** *
  32:.\Generated_Source\PSoC5/Receiver.c **** * Parameters:
  33:.\Generated_Source\PSoC5/Receiver.c **** *  None.
  34:.\Generated_Source\PSoC5/Receiver.c **** *
  35:.\Generated_Source\PSoC5/Receiver.c **** * Return:
  36:.\Generated_Source\PSoC5/Receiver.c **** *  None.
  37:.\Generated_Source\PSoC5/Receiver.c **** *
  38:.\Generated_Source\PSoC5/Receiver.c **** * Global Variables:
  39:.\Generated_Source\PSoC5/Receiver.c **** *  Receiver_initVar - used to check initial configuration, modified on 
  40:.\Generated_Source\PSoC5/Receiver.c **** *  first function call.
  41:.\Generated_Source\PSoC5/Receiver.c **** *
  42:.\Generated_Source\PSoC5/Receiver.c **** * Reentrant:
  43:.\Generated_Source\PSoC5/Receiver.c **** *  No.
  44:.\Generated_Source\PSoC5/Receiver.c **** *
  45:.\Generated_Source\PSoC5/Receiver.c **** *******************************************************************************/
  46:.\Generated_Source\PSoC5/Receiver.c **** void Receiver_Start(void) 
  47:.\Generated_Source\PSoC5/Receiver.c **** {
  38              		.loc 1 47 0
  39              		.cfi_startproc
  40              		@ args = 0, pretend = 0, frame = 0
  41              		@ frame_needed = 1, uses_anonymous_args = 0
  42 0000 80B5     		push	{r7, lr}
  43              	.LCFI0:
  44              		.cfi_def_cfa_offset 8
  45 0002 00AF     		add	r7, sp, #0
  46              		.cfi_offset 14, -4
  47              		.cfi_offset 7, -8
  48              	.LCFI1:
  49              		.cfi_def_cfa_register 7
  48:.\Generated_Source\PSoC5/Receiver.c ****     if (Receiver_initVar == 0u)
  50              		.loc 1 48 0
  51 0004 40F20003 		movw	r3, #:lower16:Receiver_initVar
  52 0008 C0F20003 		movt	r3, #:upper16:Receiver_initVar
  53 000c 1B78     		ldrb	r3, [r3, #0]	@ zero_extendqisi2
  54 000e 002B     		cmp	r3, #0
  55 0010 08D1     		bne	.L2
  49:.\Generated_Source\PSoC5/Receiver.c ****     {
  50:.\Generated_Source\PSoC5/Receiver.c ****         Receiver_Init();
  56              		.loc 1 50 0
  57 0012 FFF7FEFF 		bl	Receiver_Init
  51:.\Generated_Source\PSoC5/Receiver.c ****         /* variable _initVar is set to indicate the fact of initialization */
  52:.\Generated_Source\PSoC5/Receiver.c ****         Receiver_initVar = 1u; 
  58              		.loc 1 52 0
ARM GAS  C:\Users\Bryan.Lee\AppData\Local\Temp\ccsw8nsd.s 			page 3


  59 0016 40F20003 		movw	r3, #:lower16:Receiver_initVar
  60 001a C0F20003 		movt	r3, #:upper16:Receiver_initVar
  61 001e 4FF00102 		mov	r2, #1
  62 0022 1A70     		strb	r2, [r3, #0]
  63              	.L2:
  53:.\Generated_Source\PSoC5/Receiver.c ****     }
  54:.\Generated_Source\PSoC5/Receiver.c **** 
  55:.\Generated_Source\PSoC5/Receiver.c ****     Receiver_Enable();
  64              		.loc 1 55 0
  65 0024 FFF7FEFF 		bl	Receiver_Enable
  56:.\Generated_Source\PSoC5/Receiver.c **** }
  66              		.loc 1 56 0
  67 0028 80BD     		pop	{r7, pc}
  68              		.cfi_endproc
  69              	.LFE0:
  70              		.size	Receiver_Start, .-Receiver_Start
  71 002a 00BF     		.section	.text.Receiver_Enable,"ax",%progbits
  72              		.align	2
  73              		.global	Receiver_Enable
  74              		.thumb
  75              		.thumb_func
  76              		.type	Receiver_Enable, %function
  77              	Receiver_Enable:
  78              	.LFB1:
  57:.\Generated_Source\PSoC5/Receiver.c **** 
  58:.\Generated_Source\PSoC5/Receiver.c **** 
  59:.\Generated_Source\PSoC5/Receiver.c **** /*******************************************************************************
  60:.\Generated_Source\PSoC5/Receiver.c **** * Function Name: Receiver_Enable
  61:.\Generated_Source\PSoC5/Receiver.c **** ********************************************************************************
  62:.\Generated_Source\PSoC5/Receiver.c **** *
  63:.\Generated_Source\PSoC5/Receiver.c **** * Summary:
  64:.\Generated_Source\PSoC5/Receiver.c **** *  Enables the Shift Register.
  65:.\Generated_Source\PSoC5/Receiver.c **** *
  66:.\Generated_Source\PSoC5/Receiver.c **** * Parameters:
  67:.\Generated_Source\PSoC5/Receiver.c **** *  void.
  68:.\Generated_Source\PSoC5/Receiver.c **** *
  69:.\Generated_Source\PSoC5/Receiver.c **** * Return:
  70:.\Generated_Source\PSoC5/Receiver.c **** *  void.
  71:.\Generated_Source\PSoC5/Receiver.c **** *
  72:.\Generated_Source\PSoC5/Receiver.c **** *******************************************************************************/
  73:.\Generated_Source\PSoC5/Receiver.c **** void Receiver_Enable(void) 
  74:.\Generated_Source\PSoC5/Receiver.c **** {
  79              		.loc 1 74 0
  80              		.cfi_startproc
  81              		@ args = 0, pretend = 0, frame = 0
  82              		@ frame_needed = 1, uses_anonymous_args = 0
  83 0000 80B5     		push	{r7, lr}
  84              	.LCFI2:
  85              		.cfi_def_cfa_offset 8
  86 0002 00AF     		add	r7, sp, #0
  87              		.cfi_offset 14, -4
  88              		.cfi_offset 7, -8
  89              	.LCFI3:
  90              		.cfi_def_cfa_register 7
  75:.\Generated_Source\PSoC5/Receiver.c ****     /* changing address in Datapath Control Store
  76:.\Generated_Source\PSoC5/Receiver.c ****        from NOP to component state machine commands space */
  77:.\Generated_Source\PSoC5/Receiver.c ****     Receiver_SR_CONTROL |= Receiver_CLK_EN; 
ARM GAS  C:\Users\Bryan.Lee\AppData\Local\Temp\ccsw8nsd.s 			page 4


  91              		.loc 1 77 0
  92 0004 46F27D43 		movw	r3, #:lower16:1073767549
  93 0008 C4F20003 		movt	r3, #:upper16:1073767549
  94 000c 46F27D42 		movw	r2, #:lower16:1073767549
  95 0010 C4F20002 		movt	r2, #:upper16:1073767549
  96 0014 1278     		ldrb	r2, [r2, #0]
  97 0016 D2B2     		uxtb	r2, r2
  98 0018 42F00102 		orr	r2, r2, #1
  99 001c D2B2     		uxtb	r2, r2
 100 001e 1A70     		strb	r2, [r3, #0]
  78:.\Generated_Source\PSoC5/Receiver.c ****     
  79:.\Generated_Source\PSoC5/Receiver.c ****     Receiver_EnableInt();
 101              		.loc 1 79 0
 102 0020 FFF7FEFF 		bl	Receiver_EnableInt
  80:.\Generated_Source\PSoC5/Receiver.c **** }
 103              		.loc 1 80 0
 104 0024 80BD     		pop	{r7, pc}
 105              		.cfi_endproc
 106              	.LFE1:
 107              		.size	Receiver_Enable, .-Receiver_Enable
 108 0026 00BF     		.section	.text.Receiver_Init,"ax",%progbits
 109              		.align	2
 110              		.global	Receiver_Init
 111              		.thumb
 112              		.thumb_func
 113              		.type	Receiver_Init, %function
 114              	Receiver_Init:
 115              	.LFB2:
  81:.\Generated_Source\PSoC5/Receiver.c **** 
  82:.\Generated_Source\PSoC5/Receiver.c **** 
  83:.\Generated_Source\PSoC5/Receiver.c **** /*******************************************************************************
  84:.\Generated_Source\PSoC5/Receiver.c **** * Function Name: Receiver_Init
  85:.\Generated_Source\PSoC5/Receiver.c **** ********************************************************************************
  86:.\Generated_Source\PSoC5/Receiver.c **** *
  87:.\Generated_Source\PSoC5/Receiver.c **** * Summary:
  88:.\Generated_Source\PSoC5/Receiver.c **** *  Initializes Tx and/or Rx interrupt sources with initial values.
  89:.\Generated_Source\PSoC5/Receiver.c **** *
  90:.\Generated_Source\PSoC5/Receiver.c **** * Parameters:
  91:.\Generated_Source\PSoC5/Receiver.c **** *  void.
  92:.\Generated_Source\PSoC5/Receiver.c **** *
  93:.\Generated_Source\PSoC5/Receiver.c **** * Return:
  94:.\Generated_Source\PSoC5/Receiver.c **** *  void.
  95:.\Generated_Source\PSoC5/Receiver.c **** *
  96:.\Generated_Source\PSoC5/Receiver.c **** *******************************************************************************/
  97:.\Generated_Source\PSoC5/Receiver.c **** void Receiver_Init(void) 
  98:.\Generated_Source\PSoC5/Receiver.c **** {
 116              		.loc 1 98 0
 117              		.cfi_startproc
 118              		@ args = 0, pretend = 0, frame = 0
 119              		@ frame_needed = 1, uses_anonymous_args = 0
 120 0000 80B5     		push	{r7, lr}
 121              	.LCFI4:
 122              		.cfi_def_cfa_offset 8
 123 0002 00AF     		add	r7, sp, #0
 124              		.cfi_offset 14, -4
 125              		.cfi_offset 7, -8
 126              	.LCFI5:
ARM GAS  C:\Users\Bryan.Lee\AppData\Local\Temp\ccsw8nsd.s 			page 5


 127              		.cfi_def_cfa_register 7
  99:.\Generated_Source\PSoC5/Receiver.c ****     Receiver_SetIntMode(Receiver_INT_SRC);
 128              		.loc 1 99 0
 129 0004 4FF00200 		mov	r0, #2
 130 0008 FFF7FEFF 		bl	Receiver_SetIntMode
 100:.\Generated_Source\PSoC5/Receiver.c **** }
 131              		.loc 1 100 0
 132 000c 80BD     		pop	{r7, pc}
 133              		.cfi_endproc
 134              	.LFE2:
 135              		.size	Receiver_Init, .-Receiver_Init
 136 000e 00BF     		.section	.text.Receiver_Stop,"ax",%progbits
 137              		.align	2
 138              		.global	Receiver_Stop
 139              		.thumb
 140              		.thumb_func
 141              		.type	Receiver_Stop, %function
 142              	Receiver_Stop:
 143              	.LFB3:
 101:.\Generated_Source\PSoC5/Receiver.c **** 
 102:.\Generated_Source\PSoC5/Receiver.c **** 
 103:.\Generated_Source\PSoC5/Receiver.c **** /*******************************************************************************
 104:.\Generated_Source\PSoC5/Receiver.c **** * Function Name: Receiver_Stop
 105:.\Generated_Source\PSoC5/Receiver.c **** ********************************************************************************
 106:.\Generated_Source\PSoC5/Receiver.c **** *
 107:.\Generated_Source\PSoC5/Receiver.c **** * Summary:
 108:.\Generated_Source\PSoC5/Receiver.c **** *  Disables the Shift Register
 109:.\Generated_Source\PSoC5/Receiver.c **** *
 110:.\Generated_Source\PSoC5/Receiver.c **** * Parameters:
 111:.\Generated_Source\PSoC5/Receiver.c **** *  None.
 112:.\Generated_Source\PSoC5/Receiver.c **** *
 113:.\Generated_Source\PSoC5/Receiver.c **** * Return:
 114:.\Generated_Source\PSoC5/Receiver.c **** *  None.
 115:.\Generated_Source\PSoC5/Receiver.c **** *
 116:.\Generated_Source\PSoC5/Receiver.c **** *******************************************************************************/
 117:.\Generated_Source\PSoC5/Receiver.c **** void Receiver_Stop(void) 
 118:.\Generated_Source\PSoC5/Receiver.c **** {
 144              		.loc 1 118 0
 145              		.cfi_startproc
 146              		@ args = 0, pretend = 0, frame = 0
 147              		@ frame_needed = 1, uses_anonymous_args = 0
 148 0000 80B5     		push	{r7, lr}
 149              	.LCFI6:
 150              		.cfi_def_cfa_offset 8
 151 0002 00AF     		add	r7, sp, #0
 152              		.cfi_offset 14, -4
 153              		.cfi_offset 7, -8
 154              	.LCFI7:
 155              		.cfi_def_cfa_register 7
 119:.\Generated_Source\PSoC5/Receiver.c ****     /*changing Datapath Control Store address to NOP space*/
 120:.\Generated_Source\PSoC5/Receiver.c ****     Receiver_SR_CONTROL &= ~Receiver_CLK_EN; 
 156              		.loc 1 120 0
 157 0004 46F27D43 		movw	r3, #:lower16:1073767549
 158 0008 C4F20003 		movt	r3, #:upper16:1073767549
 159 000c 46F27D42 		movw	r2, #:lower16:1073767549
 160 0010 C4F20002 		movt	r2, #:upper16:1073767549
 161 0014 1278     		ldrb	r2, [r2, #0]
ARM GAS  C:\Users\Bryan.Lee\AppData\Local\Temp\ccsw8nsd.s 			page 6


 162 0016 D2B2     		uxtb	r2, r2
 163 0018 02F0FE02 		and	r2, r2, #254
 164 001c 1A70     		strb	r2, [r3, #0]
 121:.\Generated_Source\PSoC5/Receiver.c ****     Receiver_DisableInt();
 165              		.loc 1 121 0
 166 001e FFF7FEFF 		bl	Receiver_DisableInt
 122:.\Generated_Source\PSoC5/Receiver.c **** }
 167              		.loc 1 122 0
 168 0022 80BD     		pop	{r7, pc}
 169              		.cfi_endproc
 170              	.LFE3:
 171              		.size	Receiver_Stop, .-Receiver_Stop
 172              		.section	.text.Receiver_EnableInt,"ax",%progbits
 173              		.align	2
 174              		.global	Receiver_EnableInt
 175              		.thumb
 176              		.thumb_func
 177              		.type	Receiver_EnableInt, %function
 178              	Receiver_EnableInt:
 179              	.LFB4:
 123:.\Generated_Source\PSoC5/Receiver.c **** 
 124:.\Generated_Source\PSoC5/Receiver.c **** 
 125:.\Generated_Source\PSoC5/Receiver.c **** /*******************************************************************************
 126:.\Generated_Source\PSoC5/Receiver.c **** * Function Name: Receiver_EnableInt
 127:.\Generated_Source\PSoC5/Receiver.c **** ********************************************************************************
 128:.\Generated_Source\PSoC5/Receiver.c **** *
 129:.\Generated_Source\PSoC5/Receiver.c **** * Summary:
 130:.\Generated_Source\PSoC5/Receiver.c **** *  Enables the Shift Register interrupt.
 131:.\Generated_Source\PSoC5/Receiver.c **** *
 132:.\Generated_Source\PSoC5/Receiver.c **** * Parameters:
 133:.\Generated_Source\PSoC5/Receiver.c **** *  None.
 134:.\Generated_Source\PSoC5/Receiver.c **** *
 135:.\Generated_Source\PSoC5/Receiver.c **** * Return:
 136:.\Generated_Source\PSoC5/Receiver.c **** *  None.
 137:.\Generated_Source\PSoC5/Receiver.c **** *
 138:.\Generated_Source\PSoC5/Receiver.c **** *******************************************************************************/
 139:.\Generated_Source\PSoC5/Receiver.c **** void Receiver_EnableInt(void) 
 140:.\Generated_Source\PSoC5/Receiver.c **** {
 180              		.loc 1 140 0
 181              		.cfi_startproc
 182              		@ args = 0, pretend = 0, frame = 8
 183              		@ frame_needed = 1, uses_anonymous_args = 0
 184 0000 80B5     		push	{r7, lr}
 185              	.LCFI8:
 186              		.cfi_def_cfa_offset 8
 187 0002 82B0     		sub	sp, sp, #8
 188              	.LCFI9:
 189              		.cfi_def_cfa_offset 16
 190 0004 00AF     		add	r7, sp, #0
 191              		.cfi_offset 14, -4
 192              		.cfi_offset 7, -8
 193              	.LCFI10:
 194              		.cfi_def_cfa_register 7
 141:.\Generated_Source\PSoC5/Receiver.c ****     uint8 interruptState = CyEnterCriticalSection();
 195              		.loc 1 141 0
 196 0006 FFF7FEFF 		bl	CyEnterCriticalSection
 197 000a 0346     		mov	r3, r0
ARM GAS  C:\Users\Bryan.Lee\AppData\Local\Temp\ccsw8nsd.s 			page 7


 198 000c FB71     		strb	r3, [r7, #7]
 142:.\Generated_Source\PSoC5/Receiver.c ****     Receiver_SR_AUX_CONTROL |= Receiver_INTERRUPTS_ENABLE;
 199              		.loc 1 142 0
 200 000e 46F29D43 		movw	r3, #:lower16:1073767581
 201 0012 C4F20003 		movt	r3, #:upper16:1073767581
 202 0016 46F29D42 		movw	r2, #:lower16:1073767581
 203 001a C4F20002 		movt	r2, #:upper16:1073767581
 204 001e 1278     		ldrb	r2, [r2, #0]
 205 0020 D2B2     		uxtb	r2, r2
 206 0022 42F01002 		orr	r2, r2, #16
 207 0026 D2B2     		uxtb	r2, r2
 208 0028 1A70     		strb	r2, [r3, #0]
 143:.\Generated_Source\PSoC5/Receiver.c ****     CyExitCriticalSection(interruptState);
 209              		.loc 1 143 0
 210 002a FB79     		ldrb	r3, [r7, #7]	@ zero_extendqisi2
 211 002c 1846     		mov	r0, r3
 212 002e FFF7FEFF 		bl	CyExitCriticalSection
 144:.\Generated_Source\PSoC5/Receiver.c **** }
 213              		.loc 1 144 0
 214 0032 07F10807 		add	r7, r7, #8
 215 0036 BD46     		mov	sp, r7
 216 0038 80BD     		pop	{r7, pc}
 217              		.cfi_endproc
 218              	.LFE4:
 219              		.size	Receiver_EnableInt, .-Receiver_EnableInt
 220 003a 00BF     		.section	.text.Receiver_DisableInt,"ax",%progbits
 221              		.align	2
 222              		.global	Receiver_DisableInt
 223              		.thumb
 224              		.thumb_func
 225              		.type	Receiver_DisableInt, %function
 226              	Receiver_DisableInt:
 227              	.LFB5:
 145:.\Generated_Source\PSoC5/Receiver.c **** 
 146:.\Generated_Source\PSoC5/Receiver.c **** 
 147:.\Generated_Source\PSoC5/Receiver.c **** /*******************************************************************************
 148:.\Generated_Source\PSoC5/Receiver.c **** * Function Name: Receiver_DisableInt
 149:.\Generated_Source\PSoC5/Receiver.c **** ********************************************************************************
 150:.\Generated_Source\PSoC5/Receiver.c **** *
 151:.\Generated_Source\PSoC5/Receiver.c **** * Summary:
 152:.\Generated_Source\PSoC5/Receiver.c **** *  Disables the Shift Register interrupt.
 153:.\Generated_Source\PSoC5/Receiver.c **** *
 154:.\Generated_Source\PSoC5/Receiver.c **** * Parameters:
 155:.\Generated_Source\PSoC5/Receiver.c **** *  None.
 156:.\Generated_Source\PSoC5/Receiver.c **** *
 157:.\Generated_Source\PSoC5/Receiver.c **** * Return:
 158:.\Generated_Source\PSoC5/Receiver.c **** *  None.
 159:.\Generated_Source\PSoC5/Receiver.c **** *
 160:.\Generated_Source\PSoC5/Receiver.c **** *******************************************************************************/
 161:.\Generated_Source\PSoC5/Receiver.c **** void Receiver_DisableInt(void) 
 162:.\Generated_Source\PSoC5/Receiver.c **** {
 228              		.loc 1 162 0
 229              		.cfi_startproc
 230              		@ args = 0, pretend = 0, frame = 8
 231              		@ frame_needed = 1, uses_anonymous_args = 0
 232 0000 80B5     		push	{r7, lr}
 233              	.LCFI11:
ARM GAS  C:\Users\Bryan.Lee\AppData\Local\Temp\ccsw8nsd.s 			page 8


 234              		.cfi_def_cfa_offset 8
 235 0002 82B0     		sub	sp, sp, #8
 236              	.LCFI12:
 237              		.cfi_def_cfa_offset 16
 238 0004 00AF     		add	r7, sp, #0
 239              		.cfi_offset 14, -4
 240              		.cfi_offset 7, -8
 241              	.LCFI13:
 242              		.cfi_def_cfa_register 7
 163:.\Generated_Source\PSoC5/Receiver.c ****     uint8 interruptState = CyEnterCriticalSection();
 243              		.loc 1 163 0
 244 0006 FFF7FEFF 		bl	CyEnterCriticalSection
 245 000a 0346     		mov	r3, r0
 246 000c FB71     		strb	r3, [r7, #7]
 164:.\Generated_Source\PSoC5/Receiver.c ****     Receiver_SR_AUX_CONTROL &= ~Receiver_INTERRUPTS_ENABLE;
 247              		.loc 1 164 0
 248 000e 46F29D43 		movw	r3, #:lower16:1073767581
 249 0012 C4F20003 		movt	r3, #:upper16:1073767581
 250 0016 46F29D42 		movw	r2, #:lower16:1073767581
 251 001a C4F20002 		movt	r2, #:upper16:1073767581
 252 001e 1278     		ldrb	r2, [r2, #0]
 253 0020 D2B2     		uxtb	r2, r2
 254 0022 02F0EF02 		and	r2, r2, #239
 255 0026 1A70     		strb	r2, [r3, #0]
 165:.\Generated_Source\PSoC5/Receiver.c ****     CyExitCriticalSection(interruptState);
 256              		.loc 1 165 0
 257 0028 FB79     		ldrb	r3, [r7, #7]	@ zero_extendqisi2
 258 002a 1846     		mov	r0, r3
 259 002c FFF7FEFF 		bl	CyExitCriticalSection
 166:.\Generated_Source\PSoC5/Receiver.c **** }
 260              		.loc 1 166 0
 261 0030 07F10807 		add	r7, r7, #8
 262 0034 BD46     		mov	sp, r7
 263 0036 80BD     		pop	{r7, pc}
 264              		.cfi_endproc
 265              	.LFE5:
 266              		.size	Receiver_DisableInt, .-Receiver_DisableInt
 267              		.section	.text.Receiver_GetFIFOStatus,"ax",%progbits
 268              		.align	2
 269              		.global	Receiver_GetFIFOStatus
 270              		.thumb
 271              		.thumb_func
 272              		.type	Receiver_GetFIFOStatus, %function
 273              	Receiver_GetFIFOStatus:
 274              	.LFB6:
 167:.\Generated_Source\PSoC5/Receiver.c **** 
 168:.\Generated_Source\PSoC5/Receiver.c **** 
 169:.\Generated_Source\PSoC5/Receiver.c **** /*******************************************************************************
 170:.\Generated_Source\PSoC5/Receiver.c **** * Function Name: Receiver_GetFIFOStatus
 171:.\Generated_Source\PSoC5/Receiver.c **** ********************************************************************************
 172:.\Generated_Source\PSoC5/Receiver.c **** *
 173:.\Generated_Source\PSoC5/Receiver.c **** * Summary:
 174:.\Generated_Source\PSoC5/Receiver.c **** *  Returns current status of input or output FIFO.
 175:.\Generated_Source\PSoC5/Receiver.c **** *
 176:.\Generated_Source\PSoC5/Receiver.c **** * Parameters:
 177:.\Generated_Source\PSoC5/Receiver.c **** *  fifoId.
 178:.\Generated_Source\PSoC5/Receiver.c **** *
ARM GAS  C:\Users\Bryan.Lee\AppData\Local\Temp\ccsw8nsd.s 			page 9


 179:.\Generated_Source\PSoC5/Receiver.c **** * Return:
 180:.\Generated_Source\PSoC5/Receiver.c **** *  FIFO status.
 181:.\Generated_Source\PSoC5/Receiver.c **** *
 182:.\Generated_Source\PSoC5/Receiver.c **** *******************************************************************************/
 183:.\Generated_Source\PSoC5/Receiver.c **** uint8 Receiver_GetFIFOStatus(uint8 fifoId) 
 184:.\Generated_Source\PSoC5/Receiver.c **** {
 275              		.loc 1 184 0
 276              		.cfi_startproc
 277              		@ args = 0, pretend = 0, frame = 16
 278              		@ frame_needed = 1, uses_anonymous_args = 0
 279              		@ link register save eliminated.
 280 0000 80B4     		push	{r7}
 281              	.LCFI14:
 282              		.cfi_def_cfa_offset 4
 283 0002 85B0     		sub	sp, sp, #20
 284              	.LCFI15:
 285              		.cfi_def_cfa_offset 24
 286 0004 00AF     		add	r7, sp, #0
 287              		.cfi_offset 7, -4
 288              	.LCFI16:
 289              		.cfi_def_cfa_register 7
 290 0006 0346     		mov	r3, r0
 291 0008 FB71     		strb	r3, [r7, #7]
 185:.\Generated_Source\PSoC5/Receiver.c ****     uint8 result;
 186:.\Generated_Source\PSoC5/Receiver.c **** 
 187:.\Generated_Source\PSoC5/Receiver.c ****     result = Receiver_RET_FIFO_NOT_DEFINED; /*default status value*/
 292              		.loc 1 187 0
 293 000a 6FF00103 		mvn	r3, #1
 294 000e FB73     		strb	r3, [r7, #15]
 188:.\Generated_Source\PSoC5/Receiver.c **** 
 189:.\Generated_Source\PSoC5/Receiver.c ****     #if (Receiver_USE_INPUT_FIFO == 1u)
 190:.\Generated_Source\PSoC5/Receiver.c ****         
 191:.\Generated_Source\PSoC5/Receiver.c ****         if(fifoId == Receiver_IN_FIFO)
 192:.\Generated_Source\PSoC5/Receiver.c ****         {    
 193:.\Generated_Source\PSoC5/Receiver.c ****             switch((Receiver_SR_STATUS & Receiver_IN_FIFO_MASK) >> 
 194:.\Generated_Source\PSoC5/Receiver.c ****                     Receiver_IN_FIFO_SHFT_MASK)
 195:.\Generated_Source\PSoC5/Receiver.c ****             {
 196:.\Generated_Source\PSoC5/Receiver.c ****                 case Receiver_IN_FIFO_FULL :
 197:.\Generated_Source\PSoC5/Receiver.c ****                     result = Receiver_RET_FIFO_FULL;
 198:.\Generated_Source\PSoC5/Receiver.c ****                     break;
 199:.\Generated_Source\PSoC5/Receiver.c **** 
 200:.\Generated_Source\PSoC5/Receiver.c ****                 case Receiver_IN_FIFO_EMPTY :
 201:.\Generated_Source\PSoC5/Receiver.c ****                     result = Receiver_RET_FIFO_EMPTY;
 202:.\Generated_Source\PSoC5/Receiver.c ****                     break;
 203:.\Generated_Source\PSoC5/Receiver.c **** 
 204:.\Generated_Source\PSoC5/Receiver.c ****                 case Receiver_IN_FIFO_NOT_EMPTY :
 205:.\Generated_Source\PSoC5/Receiver.c ****                     result = Receiver_RET_FIFO_NOT_EMPTY;
 206:.\Generated_Source\PSoC5/Receiver.c ****                     break;
 207:.\Generated_Source\PSoC5/Receiver.c ****                 default:
 208:.\Generated_Source\PSoC5/Receiver.c ****                     result = Receiver_RET_FIFO_EMPTY;
 209:.\Generated_Source\PSoC5/Receiver.c ****             }
 210:.\Generated_Source\PSoC5/Receiver.c ****         }
 211:.\Generated_Source\PSoC5/Receiver.c ****     #endif/*(Receiver_USE_INPUT_FIFO == 1u)*/
 212:.\Generated_Source\PSoC5/Receiver.c ****     
 213:.\Generated_Source\PSoC5/Receiver.c ****     if(fifoId == Receiver_OUT_FIFO)
 295              		.loc 1 213 0
 296 0010 FB79     		ldrb	r3, [r7, #7]	@ zero_extendqisi2
ARM GAS  C:\Users\Bryan.Lee\AppData\Local\Temp\ccsw8nsd.s 			page 10


 297 0012 022B     		cmp	r3, #2
 298 0014 1FD1     		bne	.L15
 214:.\Generated_Source\PSoC5/Receiver.c ****     {
 215:.\Generated_Source\PSoC5/Receiver.c ****         switch((Receiver_SR_STATUS & Receiver_OUT_FIFO_MASK) >> 
 299              		.loc 1 215 0
 300 0016 46F26D43 		movw	r3, #:lower16:1073767533
 301 001a C4F20003 		movt	r3, #:upper16:1073767533
 302 001e 1B78     		ldrb	r3, [r3, #0]
 303 0020 DBB2     		uxtb	r3, r3
 304 0022 03F06003 		and	r3, r3, #96
 305 0026 4FEA5313 		lsr	r3, r3, #5
 216:.\Generated_Source\PSoC5/Receiver.c ****                 Receiver_OUT_FIFO_SHFT_MASK)
 306              		.loc 1 216 0
 307 002a 012B     		cmp	r3, #1
 308 002c 04D0     		beq	.L18
 309 002e 012B     		cmp	r3, #1
 310 0030 06D3     		bcc	.L17
 311 0032 022B     		cmp	r3, #2
 312 0034 08D0     		beq	.L19
 313 0036 0BE0     		b	.L21
 314              	.L18:
 217:.\Generated_Source\PSoC5/Receiver.c ****         {
 218:.\Generated_Source\PSoC5/Receiver.c ****             case Receiver_OUT_FIFO_FULL :
 219:.\Generated_Source\PSoC5/Receiver.c ****                 result = Receiver_RET_FIFO_FULL;
 315              		.loc 1 219 0
 316 0038 4FF00003 		mov	r3, #0
 317 003c FB73     		strb	r3, [r7, #15]
 220:.\Generated_Source\PSoC5/Receiver.c ****                 break;
 318              		.loc 1 220 0
 319 003e 0AE0     		b	.L15
 320              	.L17:
 221:.\Generated_Source\PSoC5/Receiver.c **** 
 222:.\Generated_Source\PSoC5/Receiver.c ****             case Receiver_OUT_FIFO_EMPTY :
 223:.\Generated_Source\PSoC5/Receiver.c ****                 result = Receiver_RET_FIFO_EMPTY;
 321              		.loc 1 223 0
 322 0040 4FF00203 		mov	r3, #2
 323 0044 FB73     		strb	r3, [r7, #15]
 224:.\Generated_Source\PSoC5/Receiver.c ****                 break;
 324              		.loc 1 224 0
 325 0046 06E0     		b	.L15
 326              	.L19:
 225:.\Generated_Source\PSoC5/Receiver.c **** 
 226:.\Generated_Source\PSoC5/Receiver.c ****             case Receiver_OUT_FIFO_NOT_EMPTY :
 227:.\Generated_Source\PSoC5/Receiver.c ****                 result = Receiver_RET_FIFO_NOT_EMPTY;
 327              		.loc 1 227 0
 328 0048 4FF00103 		mov	r3, #1
 329 004c FB73     		strb	r3, [r7, #15]
 228:.\Generated_Source\PSoC5/Receiver.c ****                 break;
 330              		.loc 1 228 0
 331 004e 02E0     		b	.L15
 332              	.L21:
 229:.\Generated_Source\PSoC5/Receiver.c **** 
 230:.\Generated_Source\PSoC5/Receiver.c ****             default:
 231:.\Generated_Source\PSoC5/Receiver.c ****                 result = Receiver_RET_FIFO_FULL;
 333              		.loc 1 231 0
 334 0050 4FF00003 		mov	r3, #0
 335 0054 FB73     		strb	r3, [r7, #15]
ARM GAS  C:\Users\Bryan.Lee\AppData\Local\Temp\ccsw8nsd.s 			page 11


 336              	.L15:
 232:.\Generated_Source\PSoC5/Receiver.c ****         }
 233:.\Generated_Source\PSoC5/Receiver.c ****     }
 234:.\Generated_Source\PSoC5/Receiver.c **** 
 235:.\Generated_Source\PSoC5/Receiver.c ****     return (result);
 337              		.loc 1 235 0
 338 0056 FB7B     		ldrb	r3, [r7, #15]	@ zero_extendqisi2
 236:.\Generated_Source\PSoC5/Receiver.c **** }
 339              		.loc 1 236 0
 340 0058 1846     		mov	r0, r3
 341 005a 07F11407 		add	r7, r7, #20
 342 005e BD46     		mov	sp, r7
 343 0060 80BC     		pop	{r7}
 344 0062 7047     		bx	lr
 345              		.cfi_endproc
 346              	.LFE6:
 347              		.size	Receiver_GetFIFOStatus, .-Receiver_GetFIFOStatus
 348              		.section	.text.Receiver_SetIntMode,"ax",%progbits
 349              		.align	2
 350              		.global	Receiver_SetIntMode
 351              		.thumb
 352              		.thumb_func
 353              		.type	Receiver_SetIntMode, %function
 354              	Receiver_SetIntMode:
 355              	.LFB7:
 237:.\Generated_Source\PSoC5/Receiver.c **** 
 238:.\Generated_Source\PSoC5/Receiver.c **** 
 239:.\Generated_Source\PSoC5/Receiver.c **** /*******************************************************************************
 240:.\Generated_Source\PSoC5/Receiver.c **** * Function Name: Receiver_SetIntMode
 241:.\Generated_Source\PSoC5/Receiver.c **** ********************************************************************************
 242:.\Generated_Source\PSoC5/Receiver.c **** *
 243:.\Generated_Source\PSoC5/Receiver.c **** * Summary:
 244:.\Generated_Source\PSoC5/Receiver.c **** *  Sets the Interrupt Source for the Shift Register interrupt. Multiple
 245:.\Generated_Source\PSoC5/Receiver.c **** *  sources may be ORed together
 246:.\Generated_Source\PSoC5/Receiver.c **** *
 247:.\Generated_Source\PSoC5/Receiver.c **** * Parameters:
 248:.\Generated_Source\PSoC5/Receiver.c **** *  interruptSource: Byte containing the constant for the selected interrupt
 249:.\Generated_Source\PSoC5/Receiver.c **** *  source/s.
 250:.\Generated_Source\PSoC5/Receiver.c **** *
 251:.\Generated_Source\PSoC5/Receiver.c **** * Return:
 252:.\Generated_Source\PSoC5/Receiver.c **** *  None.
 253:.\Generated_Source\PSoC5/Receiver.c **** *
 254:.\Generated_Source\PSoC5/Receiver.c **** *******************************************************************************/
 255:.\Generated_Source\PSoC5/Receiver.c **** void Receiver_SetIntMode(uint8 interruptSource) 
 256:.\Generated_Source\PSoC5/Receiver.c **** {
 356              		.loc 1 256 0
 357              		.cfi_startproc
 358              		@ args = 0, pretend = 0, frame = 8
 359              		@ frame_needed = 1, uses_anonymous_args = 0
 360              		@ link register save eliminated.
 361 0000 80B4     		push	{r7}
 362              	.LCFI17:
 363              		.cfi_def_cfa_offset 4
 364 0002 83B0     		sub	sp, sp, #12
 365              	.LCFI18:
 366              		.cfi_def_cfa_offset 16
 367 0004 00AF     		add	r7, sp, #0
ARM GAS  C:\Users\Bryan.Lee\AppData\Local\Temp\ccsw8nsd.s 			page 12


 368              		.cfi_offset 7, -4
 369              	.LCFI19:
 370              		.cfi_def_cfa_register 7
 371 0006 0346     		mov	r3, r0
 372 0008 FB71     		strb	r3, [r7, #7]
 257:.\Generated_Source\PSoC5/Receiver.c ****     Receiver_SR_STATUS_MASK = (Receiver_SR_STATUS_MASK & ~Receiver_INTS_EN_MASK) | \
 373              		.loc 1 257 0
 374 000a 46F28D43 		movw	r3, #:lower16:1073767565
 375 000e C4F20003 		movt	r3, #:upper16:1073767565
 376 0012 46F28D42 		movw	r2, #:lower16:1073767565
 377 0016 C4F20002 		movt	r2, #:upper16:1073767565
 378 001a 1278     		ldrb	r2, [r2, #0]
 379 001c D2B2     		uxtb	r2, r2
 380 001e 1146     		mov	r1, r2
 381 0020 01F0F801 		and	r1, r1, #248
 382 0024 FA79     		ldrb	r2, [r7, #7]	@ zero_extendqisi2
 383 0026 02F00702 		and	r2, r2, #7
 384 002a 41EA0202 		orr	r2, r1, r2
 385 002e D2B2     		uxtb	r2, r2
 386 0030 1A70     		strb	r2, [r3, #0]
 258:.\Generated_Source\PSoC5/Receiver.c ****                                       (interruptSource & Receiver_INTS_EN_MASK);
 259:.\Generated_Source\PSoC5/Receiver.c **** }
 387              		.loc 1 259 0
 388 0032 07F10C07 		add	r7, r7, #12
 389 0036 BD46     		mov	sp, r7
 390 0038 80BC     		pop	{r7}
 391 003a 7047     		bx	lr
 392              		.cfi_endproc
 393              	.LFE7:
 394              		.size	Receiver_SetIntMode, .-Receiver_SetIntMode
 395              		.section	.text.Receiver_GetIntStatus,"ax",%progbits
 396              		.align	2
 397              		.global	Receiver_GetIntStatus
 398              		.thumb
 399              		.thumb_func
 400              		.type	Receiver_GetIntStatus, %function
 401              	Receiver_GetIntStatus:
 402              	.LFB8:
 260:.\Generated_Source\PSoC5/Receiver.c **** 
 261:.\Generated_Source\PSoC5/Receiver.c **** 
 262:.\Generated_Source\PSoC5/Receiver.c **** /*******************************************************************************
 263:.\Generated_Source\PSoC5/Receiver.c **** * Function Name: Receiver_GetIntStatus
 264:.\Generated_Source\PSoC5/Receiver.c **** ********************************************************************************
 265:.\Generated_Source\PSoC5/Receiver.c **** *
 266:.\Generated_Source\PSoC5/Receiver.c **** * Summary:
 267:.\Generated_Source\PSoC5/Receiver.c **** *  Gets the Shift Register Interrupt status.
 268:.\Generated_Source\PSoC5/Receiver.c **** *
 269:.\Generated_Source\PSoC5/Receiver.c **** * Parameters:
 270:.\Generated_Source\PSoC5/Receiver.c **** *  None.
 271:.\Generated_Source\PSoC5/Receiver.c **** *
 272:.\Generated_Source\PSoC5/Receiver.c **** * Return:
 273:.\Generated_Source\PSoC5/Receiver.c **** *  Byte containing the constant for the selected interrupt source/s.
 274:.\Generated_Source\PSoC5/Receiver.c **** *
 275:.\Generated_Source\PSoC5/Receiver.c **** *******************************************************************************/
 276:.\Generated_Source\PSoC5/Receiver.c **** uint8 Receiver_GetIntStatus(void) 
 277:.\Generated_Source\PSoC5/Receiver.c **** {
 403              		.loc 1 277 0
ARM GAS  C:\Users\Bryan.Lee\AppData\Local\Temp\ccsw8nsd.s 			page 13


 404              		.cfi_startproc
 405              		@ args = 0, pretend = 0, frame = 0
 406              		@ frame_needed = 1, uses_anonymous_args = 0
 407              		@ link register save eliminated.
 408 0000 80B4     		push	{r7}
 409              	.LCFI20:
 410              		.cfi_def_cfa_offset 4
 411 0002 00AF     		add	r7, sp, #0
 412              		.cfi_offset 7, -4
 413              	.LCFI21:
 414              		.cfi_def_cfa_register 7
 278:.\Generated_Source\PSoC5/Receiver.c ****     return(Receiver_SR_STATUS & Receiver_INTS_EN_MASK);
 415              		.loc 1 278 0
 416 0004 46F26D43 		movw	r3, #:lower16:1073767533
 417 0008 C4F20003 		movt	r3, #:upper16:1073767533
 418 000c 1B78     		ldrb	r3, [r3, #0]
 419 000e DBB2     		uxtb	r3, r3
 420 0010 03F00703 		and	r3, r3, #7
 279:.\Generated_Source\PSoC5/Receiver.c **** }
 421              		.loc 1 279 0
 422 0014 1846     		mov	r0, r3
 423 0016 BD46     		mov	sp, r7
 424 0018 80BC     		pop	{r7}
 425 001a 7047     		bx	lr
 426              		.cfi_endproc
 427              	.LFE8:
 428              		.size	Receiver_GetIntStatus, .-Receiver_GetIntStatus
 429              		.section	.text.Receiver_WriteRegValue,"ax",%progbits
 430              		.align	2
 431              		.global	Receiver_WriteRegValue
 432              		.thumb
 433              		.thumb_func
 434              		.type	Receiver_WriteRegValue, %function
 435              	Receiver_WriteRegValue:
 436              	.LFB9:
 280:.\Generated_Source\PSoC5/Receiver.c **** 
 281:.\Generated_Source\PSoC5/Receiver.c **** 
 282:.\Generated_Source\PSoC5/Receiver.c **** /*******************************************************************************
 283:.\Generated_Source\PSoC5/Receiver.c **** * Function Name: Receiver_WriteRegValue
 284:.\Generated_Source\PSoC5/Receiver.c **** ********************************************************************************
 285:.\Generated_Source\PSoC5/Receiver.c **** *
 286:.\Generated_Source\PSoC5/Receiver.c **** * Summary:
 287:.\Generated_Source\PSoC5/Receiver.c **** *  Send state directly to shift register
 288:.\Generated_Source\PSoC5/Receiver.c **** *
 289:.\Generated_Source\PSoC5/Receiver.c **** * Parameters:
 290:.\Generated_Source\PSoC5/Receiver.c **** *  shiftData: containing shift register state.
 291:.\Generated_Source\PSoC5/Receiver.c **** *
 292:.\Generated_Source\PSoC5/Receiver.c **** * Return:
 293:.\Generated_Source\PSoC5/Receiver.c **** *  None.
 294:.\Generated_Source\PSoC5/Receiver.c **** *
 295:.\Generated_Source\PSoC5/Receiver.c **** *******************************************************************************/
 296:.\Generated_Source\PSoC5/Receiver.c **** void Receiver_WriteRegValue(uint8 shiftData) \
 297:.\Generated_Source\PSoC5/Receiver.c ****                 
 298:.\Generated_Source\PSoC5/Receiver.c **** {
 437              		.loc 1 298 0
 438              		.cfi_startproc
 439              		@ args = 0, pretend = 0, frame = 8
ARM GAS  C:\Users\Bryan.Lee\AppData\Local\Temp\ccsw8nsd.s 			page 14


 440              		@ frame_needed = 1, uses_anonymous_args = 0
 441              		@ link register save eliminated.
 442 0000 80B4     		push	{r7}
 443              	.LCFI22:
 444              		.cfi_def_cfa_offset 4
 445 0002 83B0     		sub	sp, sp, #12
 446              	.LCFI23:
 447              		.cfi_def_cfa_offset 16
 448 0004 00AF     		add	r7, sp, #0
 449              		.cfi_offset 7, -4
 450              	.LCFI24:
 451              		.cfi_def_cfa_register 7
 452 0006 0346     		mov	r3, r0
 453 0008 FB71     		strb	r3, [r7, #7]
 299:.\Generated_Source\PSoC5/Receiver.c ****     CY_SET_REG8(Receiver_SHIFT_REG_LSB_PTR, shiftData);
 454              		.loc 1 299 0
 455 000a 46F20D43 		movw	r3, #:lower16:1073767437
 456 000e C4F20003 		movt	r3, #:upper16:1073767437
 457 0012 FA79     		ldrb	r2, [r7, #7]
 458 0014 1A70     		strb	r2, [r3, #0]
 300:.\Generated_Source\PSoC5/Receiver.c **** }
 459              		.loc 1 300 0
 460 0016 07F10C07 		add	r7, r7, #12
 461 001a BD46     		mov	sp, r7
 462 001c 80BC     		pop	{r7}
 463 001e 7047     		bx	lr
 464              		.cfi_endproc
 465              	.LFE9:
 466              		.size	Receiver_WriteRegValue, .-Receiver_WriteRegValue
 467              		.section	.text.Receiver_ReadData,"ax",%progbits
 468              		.align	2
 469              		.global	Receiver_ReadData
 470              		.thumb
 471              		.thumb_func
 472              		.type	Receiver_ReadData, %function
 473              	Receiver_ReadData:
 474              	.LFB10:
 301:.\Generated_Source\PSoC5/Receiver.c **** 
 302:.\Generated_Source\PSoC5/Receiver.c **** 
 303:.\Generated_Source\PSoC5/Receiver.c **** #if (Receiver_USE_INPUT_FIFO == 1u) /* if input FIFO is used */
 304:.\Generated_Source\PSoC5/Receiver.c **** 
 305:.\Generated_Source\PSoC5/Receiver.c ****     /*******************************************************************************
 306:.\Generated_Source\PSoC5/Receiver.c ****     * Function Name: Receiver_WriteData
 307:.\Generated_Source\PSoC5/Receiver.c ****     ********************************************************************************
 308:.\Generated_Source\PSoC5/Receiver.c ****     *
 309:.\Generated_Source\PSoC5/Receiver.c ****     * Summary:
 310:.\Generated_Source\PSoC5/Receiver.c ****     *  Send state to FIFO for later transfer to shift register based on the Load
 311:.\Generated_Source\PSoC5/Receiver.c ****     *  input
 312:.\Generated_Source\PSoC5/Receiver.c ****     *
 313:.\Generated_Source\PSoC5/Receiver.c ****     * Parameters:
 314:.\Generated_Source\PSoC5/Receiver.c ****     *  shiftData: containing shift register state.
 315:.\Generated_Source\PSoC5/Receiver.c ****     *
 316:.\Generated_Source\PSoC5/Receiver.c ****     * Return:
 317:.\Generated_Source\PSoC5/Receiver.c ****     *  Indicates: successful execution of function
 318:.\Generated_Source\PSoC5/Receiver.c ****     *  when FIFO is empty; and error when
 319:.\Generated_Source\PSoC5/Receiver.c ****     *  FIFO is full.
 320:.\Generated_Source\PSoC5/Receiver.c ****     *
ARM GAS  C:\Users\Bryan.Lee\AppData\Local\Temp\ccsw8nsd.s 			page 15


 321:.\Generated_Source\PSoC5/Receiver.c ****     * Reentrant:
 322:.\Generated_Source\PSoC5/Receiver.c ****     *  No.
 323:.\Generated_Source\PSoC5/Receiver.c ****     *
 324:.\Generated_Source\PSoC5/Receiver.c ****     *******************************************************************************/
 325:.\Generated_Source\PSoC5/Receiver.c ****     uint8 Receiver_WriteData(uint8 shiftData) \
 326:.\Generated_Source\PSoC5/Receiver.c ****                     
 327:.\Generated_Source\PSoC5/Receiver.c ****     {
 328:.\Generated_Source\PSoC5/Receiver.c ****         uint8 result;
 329:.\Generated_Source\PSoC5/Receiver.c ****     
 330:.\Generated_Source\PSoC5/Receiver.c ****         result = CYRET_INVALID_STATE;/*default result state*/
 331:.\Generated_Source\PSoC5/Receiver.c ****     
 332:.\Generated_Source\PSoC5/Receiver.c ****         /*write data to input FIFO if FIFO is not full*/
 333:.\Generated_Source\PSoC5/Receiver.c ****         if((Receiver_GetFIFOStatus(Receiver_IN_FIFO)) != Receiver_RET_FIFO_FULL)
 334:.\Generated_Source\PSoC5/Receiver.c ****         {
 335:.\Generated_Source\PSoC5/Receiver.c ****             CY_SET_REG8(Receiver_IN_FIFO_VAL_LSB_PTR, shiftData);
 336:.\Generated_Source\PSoC5/Receiver.c ****             result = CYRET_SUCCESS; /*return 'success' status*/
 337:.\Generated_Source\PSoC5/Receiver.c ****         }
 338:.\Generated_Source\PSoC5/Receiver.c ****         return(result);
 339:.\Generated_Source\PSoC5/Receiver.c ****     }
 340:.\Generated_Source\PSoC5/Receiver.c **** 
 341:.\Generated_Source\PSoC5/Receiver.c **** 
 342:.\Generated_Source\PSoC5/Receiver.c **** #endif/*(Receiver_USE_INPUT_FIFO == 1u)*/
 343:.\Generated_Source\PSoC5/Receiver.c **** 
 344:.\Generated_Source\PSoC5/Receiver.c **** #if (Receiver_USE_OUTPUT_FIFO == 1u)/*if output FIFO is used*/
 345:.\Generated_Source\PSoC5/Receiver.c **** 
 346:.\Generated_Source\PSoC5/Receiver.c ****     /*******************************************************************************
 347:.\Generated_Source\PSoC5/Receiver.c ****     * Function Name: Receiver_ReadData
 348:.\Generated_Source\PSoC5/Receiver.c ****     ********************************************************************************
 349:.\Generated_Source\PSoC5/Receiver.c ****     *
 350:.\Generated_Source\PSoC5/Receiver.c ****     * Summary:
 351:.\Generated_Source\PSoC5/Receiver.c ****     *  Returns state in FIFO due to Store input.
 352:.\Generated_Source\PSoC5/Receiver.c ****     *
 353:.\Generated_Source\PSoC5/Receiver.c ****     * Parameters:
 354:.\Generated_Source\PSoC5/Receiver.c ****     *  None.
 355:.\Generated_Source\PSoC5/Receiver.c ****     *
 356:.\Generated_Source\PSoC5/Receiver.c ****     * Return:
 357:.\Generated_Source\PSoC5/Receiver.c ****     *  Shift Register state
 358:.\Generated_Source\PSoC5/Receiver.c ****     *
 359:.\Generated_Source\PSoC5/Receiver.c ****     * Reentrant:
 360:.\Generated_Source\PSoC5/Receiver.c ****     *  No.
 361:.\Generated_Source\PSoC5/Receiver.c ****     *
 362:.\Generated_Source\PSoC5/Receiver.c ****     *******************************************************************************/
 363:.\Generated_Source\PSoC5/Receiver.c ****     uint8 Receiver_ReadData(void) \
 364:.\Generated_Source\PSoC5/Receiver.c ****             
 365:.\Generated_Source\PSoC5/Receiver.c ****     {
 475              		.loc 1 365 0
 476              		.cfi_startproc
 477              		@ args = 0, pretend = 0, frame = 0
 478              		@ frame_needed = 1, uses_anonymous_args = 0
 479              		@ link register save eliminated.
 480 0000 80B4     		push	{r7}
 481              	.LCFI25:
 482              		.cfi_def_cfa_offset 4
 483 0002 00AF     		add	r7, sp, #0
 484              		.cfi_offset 7, -4
 485              	.LCFI26:
 486              		.cfi_def_cfa_register 7
ARM GAS  C:\Users\Bryan.Lee\AppData\Local\Temp\ccsw8nsd.s 			page 16


 366:.\Generated_Source\PSoC5/Receiver.c ****         return(CY_GET_REG8(Receiver_OUT_FIFO_VAL_LSB_PTR));
 487              		.loc 1 366 0
 488 0004 46F25D43 		movw	r3, #:lower16:1073767517
 489 0008 C4F20003 		movt	r3, #:upper16:1073767517
 490 000c 1B78     		ldrb	r3, [r3, #0]
 491 000e DBB2     		uxtb	r3, r3
 367:.\Generated_Source\PSoC5/Receiver.c ****     }
 492              		.loc 1 367 0
 493 0010 1846     		mov	r0, r3
 494 0012 BD46     		mov	sp, r7
 495 0014 80BC     		pop	{r7}
 496 0016 7047     		bx	lr
 497              		.cfi_endproc
 498              	.LFE10:
 499              		.size	Receiver_ReadData, .-Receiver_ReadData
 500              		.section	.text.Receiver_ReadRegValue,"ax",%progbits
 501              		.align	2
 502              		.global	Receiver_ReadRegValue
 503              		.thumb
 504              		.thumb_func
 505              		.type	Receiver_ReadRegValue, %function
 506              	Receiver_ReadRegValue:
 507              	.LFB11:
 368:.\Generated_Source\PSoC5/Receiver.c **** 
 369:.\Generated_Source\PSoC5/Receiver.c **** #endif/*(Receiver_USE_OUTPUT_FIFO == 1u)*/
 370:.\Generated_Source\PSoC5/Receiver.c **** 
 371:.\Generated_Source\PSoC5/Receiver.c **** 
 372:.\Generated_Source\PSoC5/Receiver.c **** /*******************************************************************************
 373:.\Generated_Source\PSoC5/Receiver.c **** * Function Name: Receiver_ReadRegValue
 374:.\Generated_Source\PSoC5/Receiver.c **** ********************************************************************************
 375:.\Generated_Source\PSoC5/Receiver.c **** *
 376:.\Generated_Source\PSoC5/Receiver.c **** * Summary:
 377:.\Generated_Source\PSoC5/Receiver.c **** *  Directly returns current state in shift register, not data in FIFO due
 378:.\Generated_Source\PSoC5/Receiver.c **** *  to Store input.
 379:.\Generated_Source\PSoC5/Receiver.c **** *
 380:.\Generated_Source\PSoC5/Receiver.c **** * Parameters:
 381:.\Generated_Source\PSoC5/Receiver.c **** *  None.
 382:.\Generated_Source\PSoC5/Receiver.c **** *
 383:.\Generated_Source\PSoC5/Receiver.c **** * Return:
 384:.\Generated_Source\PSoC5/Receiver.c **** *  Shift Register state
 385:.\Generated_Source\PSoC5/Receiver.c **** *
 386:.\Generated_Source\PSoC5/Receiver.c **** *  Clears output FIFO.
 387:.\Generated_Source\PSoC5/Receiver.c **** *
 388:.\Generated_Source\PSoC5/Receiver.c **** * Reentrant:
 389:.\Generated_Source\PSoC5/Receiver.c **** *  No.
 390:.\Generated_Source\PSoC5/Receiver.c **** *
 391:.\Generated_Source\PSoC5/Receiver.c **** *******************************************************************************/
 392:.\Generated_Source\PSoC5/Receiver.c **** uint8 Receiver_ReadRegValue(void) 
 393:.\Generated_Source\PSoC5/Receiver.c **** {
 508              		.loc 1 393 0
 509              		.cfi_startproc
 510              		@ args = 0, pretend = 0, frame = 8
 511              		@ frame_needed = 1, uses_anonymous_args = 0
 512 0000 80B5     		push	{r7, lr}
 513              	.LCFI27:
 514              		.cfi_def_cfa_offset 8
 515 0002 82B0     		sub	sp, sp, #8
ARM GAS  C:\Users\Bryan.Lee\AppData\Local\Temp\ccsw8nsd.s 			page 17


 516              	.LCFI28:
 517              		.cfi_def_cfa_offset 16
 518 0004 00AF     		add	r7, sp, #0
 519              		.cfi_offset 14, -4
 520              		.cfi_offset 7, -8
 521              	.LCFI29:
 522              		.cfi_def_cfa_register 7
 394:.\Generated_Source\PSoC5/Receiver.c ****     uint8 result;
 395:.\Generated_Source\PSoC5/Receiver.c **** 
 396:.\Generated_Source\PSoC5/Receiver.c ****     /* Clear FIFO before software capture */
 397:.\Generated_Source\PSoC5/Receiver.c **** 
 398:.\Generated_Source\PSoC5/Receiver.c ****     while(Receiver_GetFIFOStatus(Receiver_OUT_FIFO) != Receiver_RET_FIFO_EMPTY)
 523              		.loc 1 398 0
 524 0006 05E0     		b	.L31
 525              	.L32:
 399:.\Generated_Source\PSoC5/Receiver.c ****     {
 400:.\Generated_Source\PSoC5/Receiver.c ****         result = CY_GET_REG8(Receiver_OUT_FIFO_VAL_LSB_PTR);
 526              		.loc 1 400 0
 527 0008 46F25D43 		movw	r3, #:lower16:1073767517
 528 000c C4F20003 		movt	r3, #:upper16:1073767517
 529 0010 1B78     		ldrb	r3, [r3, #0]
 530 0012 FB71     		strb	r3, [r7, #7]
 531              	.L31:
 532              		.loc 1 398 0
 533 0014 4FF00200 		mov	r0, #2
 534 0018 FFF7FEFF 		bl	Receiver_GetFIFOStatus
 535 001c 0346     		mov	r3, r0
 536 001e 022B     		cmp	r3, #2
 537 0020 F2D1     		bne	.L32
 401:.\Generated_Source\PSoC5/Receiver.c ****     }
 402:.\Generated_Source\PSoC5/Receiver.c ****     
 403:.\Generated_Source\PSoC5/Receiver.c ****     /* Capture A1 to output FIFO */
 404:.\Generated_Source\PSoC5/Receiver.c ****     result = CY_GET_REG8(Receiver_SHIFT_REG_VALUE_LSB_PTR);
 538              		.loc 1 404 0
 539 0022 46F21D43 		movw	r3, #:lower16:1073767453
 540 0026 C4F20003 		movt	r3, #:upper16:1073767453
 541 002a 1B78     		ldrb	r3, [r3, #0]
 542 002c FB71     		strb	r3, [r7, #7]
 405:.\Generated_Source\PSoC5/Receiver.c ****     
 406:.\Generated_Source\PSoC5/Receiver.c ****     /* Read output FIFO */
 407:.\Generated_Source\PSoC5/Receiver.c ****     result = CY_GET_REG8(Receiver_OUT_FIFO_VAL_LSB_PTR);
 543              		.loc 1 407 0
 544 002e 46F25D43 		movw	r3, #:lower16:1073767517
 545 0032 C4F20003 		movt	r3, #:upper16:1073767517
 546 0036 1B78     		ldrb	r3, [r3, #0]
 547 0038 FB71     		strb	r3, [r7, #7]
 408:.\Generated_Source\PSoC5/Receiver.c ****     result = result & Receiver_SR_MASK;
 409:.\Generated_Source\PSoC5/Receiver.c **** 
 410:.\Generated_Source\PSoC5/Receiver.c ****     return(result);
 548              		.loc 1 410 0
 549 003a FB79     		ldrb	r3, [r7, #7]	@ zero_extendqisi2
 411:.\Generated_Source\PSoC5/Receiver.c **** }
 550              		.loc 1 411 0
 551 003c 1846     		mov	r0, r3
 552 003e 07F10807 		add	r7, r7, #8
 553 0042 BD46     		mov	sp, r7
 554 0044 80BD     		pop	{r7, pc}
ARM GAS  C:\Users\Bryan.Lee\AppData\Local\Temp\ccsw8nsd.s 			page 18


 555              		.cfi_endproc
 556              	.LFE11:
 557              		.size	Receiver_ReadRegValue, .-Receiver_ReadRegValue
 558 0046 00BF     		.text
 559              	.Letext0: