ARM GAS  C:\Users\bryan.lee\AppData\Local\Temp\ccUza5Fx.s 			page 1


   1              		.syntax unified
   2              		.cpu cortex-m3
   3              		.fpu softvfp
   4              		.eabi_attribute 20, 1
   5              		.eabi_attribute 21, 1
   6              		.eabi_attribute 23, 3
   7              		.eabi_attribute 24, 1
   8              		.eabi_attribute 25, 1
   9              		.eabi_attribute 26, 1
  10              		.eabi_attribute 30, 6
  11              		.eabi_attribute 18, 4
  12              		.thumb
  13              		.file	"statusButton.c"
  20 0000 C7000000 		.text
  20      02006500 
  20      00000201 
  20      FB0E0D00 
  20      01010101 
  21              	.Ltext0:
  22              		.cfi_sections	.debug_frame
  23              		.section	.text.statusButton_Read,"ax",%progbits
  24              		.align	2
  25              		.global	statusButton_Read
  26              		.thumb
  27              		.thumb_func
  28              		.type	statusButton_Read, %function
  29              	statusButton_Read:
  30              	.LFB0:
  31              		.file 1 ".\\Generated_Source\\PSoC5\\statusButton.c"
   1:.\Generated_Source\PSoC5/statusButton.c **** /*******************************************************************************
   2:.\Generated_Source\PSoC5/statusButton.c **** * File Name: statusButton.c  
   3:.\Generated_Source\PSoC5/statusButton.c **** * Version 1.80
   4:.\Generated_Source\PSoC5/statusButton.c **** *
   5:.\Generated_Source\PSoC5/statusButton.c **** * Description:
   6:.\Generated_Source\PSoC5/statusButton.c **** *  This file contains API to enable firmware to read the value of a Status 
   7:.\Generated_Source\PSoC5/statusButton.c **** *  Register.
   8:.\Generated_Source\PSoC5/statusButton.c **** *
   9:.\Generated_Source\PSoC5/statusButton.c **** * Note:
  10:.\Generated_Source\PSoC5/statusButton.c **** *
  11:.\Generated_Source\PSoC5/statusButton.c **** ********************************************************************************
  12:.\Generated_Source\PSoC5/statusButton.c **** * Copyright 2008-2012, Cypress Semiconductor Corporation.  All rights reserved.
  13:.\Generated_Source\PSoC5/statusButton.c **** * You may use this file only in accordance with the license, terms, conditions, 
  14:.\Generated_Source\PSoC5/statusButton.c **** * disclaimers, and limitations in the end user license agreement accompanying 
  15:.\Generated_Source\PSoC5/statusButton.c **** * the software package with which this file was provided.
  16:.\Generated_Source\PSoC5/statusButton.c **** *******************************************************************************/
  17:.\Generated_Source\PSoC5/statusButton.c **** 
  18:.\Generated_Source\PSoC5/statusButton.c **** #include "statusButton.h"
  19:.\Generated_Source\PSoC5/statusButton.c **** 
  20:.\Generated_Source\PSoC5/statusButton.c **** #if !defined(statusButton_sts_sts_reg__REMOVED) /* Check for removal by optimization */
  21:.\Generated_Source\PSoC5/statusButton.c **** 
  22:.\Generated_Source\PSoC5/statusButton.c **** 
ARM GAS  C:\Users\bryan.lee\AppData\Local\Temp\ccUza5Fx.s 			page 2


  23:.\Generated_Source\PSoC5/statusButton.c **** /*******************************************************************************
  24:.\Generated_Source\PSoC5/statusButton.c **** * Function Name: statusButton_Read
  25:.\Generated_Source\PSoC5/statusButton.c **** ********************************************************************************
  26:.\Generated_Source\PSoC5/statusButton.c **** *
  27:.\Generated_Source\PSoC5/statusButton.c **** * Summary:
  28:.\Generated_Source\PSoC5/statusButton.c **** *  Reads the current value assigned to the Status Register.
  29:.\Generated_Source\PSoC5/statusButton.c **** *
  30:.\Generated_Source\PSoC5/statusButton.c **** * Parameters:
  31:.\Generated_Source\PSoC5/statusButton.c **** *  None.
  32:.\Generated_Source\PSoC5/statusButton.c **** *
  33:.\Generated_Source\PSoC5/statusButton.c **** * Return:
  34:.\Generated_Source\PSoC5/statusButton.c **** *  The current value in the Status Register.
  35:.\Generated_Source\PSoC5/statusButton.c **** *
  36:.\Generated_Source\PSoC5/statusButton.c **** *******************************************************************************/
  37:.\Generated_Source\PSoC5/statusButton.c **** uint8 statusButton_Read(void) 
  38:.\Generated_Source\PSoC5/statusButton.c **** { 
  32              		.loc 1 38 0
  33              		.cfi_startproc
  34              		@ args = 0, pretend = 0, frame = 0
  35              		@ frame_needed = 1, uses_anonymous_args = 0
  36              		@ link register save eliminated.
  37 0000 80B4     		push	{r7}
  38              	.LCFI0:
  39              		.cfi_def_cfa_offset 4
  40 0002 00AF     		add	r7, sp, #0
  41              		.cfi_offset 7, -4
  42              	.LCFI1:
  43              		.cfi_def_cfa_register 7
  39:.\Generated_Source\PSoC5/statusButton.c ****     return statusButton_Status;
  44              		.loc 1 39 0
  45 0004 46F26753 		movw	r3, #:lower16:1073767783
  46 0008 C4F20003 		movt	r3, #:upper16:1073767783
  47 000c 1B78     		ldrb	r3, [r3, #0]
  48 000e DBB2     		uxtb	r3, r3
  40:.\Generated_Source\PSoC5/statusButton.c **** }
  49              		.loc 1 40 0
  50 0010 1846     		mov	r0, r3
  51 0012 BD46     		mov	sp, r7
  52 0014 80BC     		pop	{r7}
  53 0016 7047     		bx	lr
  54              		.cfi_endproc
  55              	.LFE0:
  56              		.size	statusButton_Read, .-statusButton_Read
  57              		.section	.text.statusButton_InterruptEnable,"ax",%progbits
  58              		.align	2
  59              		.global	statusButton_InterruptEnable
  60              		.thumb
  61              		.thumb_func
  62              		.type	statusButton_InterruptEnable, %function
  63              	statusButton_InterruptEnable:
  64              	.LFB1:
  41:.\Generated_Source\PSoC5/statusButton.c **** 
  42:.\Generated_Source\PSoC5/statusButton.c **** 
  43:.\Generated_Source\PSoC5/statusButton.c **** /*******************************************************************************
  44:.\Generated_Source\PSoC5/statusButton.c **** * Function Name: statusButton_InterruptEnable
  45:.\Generated_Source\PSoC5/statusButton.c **** ********************************************************************************
  46:.\Generated_Source\PSoC5/statusButton.c **** *
ARM GAS  C:\Users\bryan.lee\AppData\Local\Temp\ccUza5Fx.s 			page 3


  47:.\Generated_Source\PSoC5/statusButton.c **** * Summary:
  48:.\Generated_Source\PSoC5/statusButton.c **** *  Enables the Status Register interrupt.
  49:.\Generated_Source\PSoC5/statusButton.c **** *
  50:.\Generated_Source\PSoC5/statusButton.c **** * Parameters:
  51:.\Generated_Source\PSoC5/statusButton.c **** *  None.
  52:.\Generated_Source\PSoC5/statusButton.c **** *
  53:.\Generated_Source\PSoC5/statusButton.c **** * Return:
  54:.\Generated_Source\PSoC5/statusButton.c **** *  None.
  55:.\Generated_Source\PSoC5/statusButton.c **** *
  56:.\Generated_Source\PSoC5/statusButton.c **** *******************************************************************************/
  57:.\Generated_Source\PSoC5/statusButton.c **** void statusButton_InterruptEnable(void) 
  58:.\Generated_Source\PSoC5/statusButton.c **** {
  65              		.loc 1 58 0
  66              		.cfi_startproc
  67              		@ args = 0, pretend = 0, frame = 8
  68              		@ frame_needed = 1, uses_anonymous_args = 0
  69 0000 80B5     		push	{r7, lr}
  70              	.LCFI2:
  71              		.cfi_def_cfa_offset 8
  72 0002 82B0     		sub	sp, sp, #8
  73              	.LCFI3:
  74              		.cfi_def_cfa_offset 16
  75 0004 00AF     		add	r7, sp, #0
  76              		.cfi_offset 14, -4
  77              		.cfi_offset 7, -8
  78              	.LCFI4:
  79              		.cfi_def_cfa_register 7
  59:.\Generated_Source\PSoC5/statusButton.c ****     uint8 interruptState;
  60:.\Generated_Source\PSoC5/statusButton.c ****     interruptState = CyEnterCriticalSection();
  80              		.loc 1 60 0
  81 0006 FFF7FEFF 		bl	CyEnterCriticalSection
  82 000a 0346     		mov	r3, r0
  83 000c FB71     		strb	r3, [r7, #7]
  61:.\Generated_Source\PSoC5/statusButton.c ****     statusButton_Status_Aux_Ctrl |= statusButton_STATUS_INTR_ENBL;
  84              		.loc 1 61 0
  85 000e 46F29753 		movw	r3, #:lower16:1073767831
  86 0012 C4F20003 		movt	r3, #:upper16:1073767831
  87 0016 46F29752 		movw	r2, #:lower16:1073767831
  88 001a C4F20002 		movt	r2, #:upper16:1073767831
  89 001e 1278     		ldrb	r2, [r2, #0]
  90 0020 D2B2     		uxtb	r2, r2
  91 0022 42F01002 		orr	r2, r2, #16
  92 0026 D2B2     		uxtb	r2, r2
  93 0028 1A70     		strb	r2, [r3, #0]
  62:.\Generated_Source\PSoC5/statusButton.c ****     CyExitCriticalSection(interruptState);
  94              		.loc 1 62 0
  95 002a FB79     		ldrb	r3, [r7, #7]	@ zero_extendqisi2
  96 002c 1846     		mov	r0, r3
  97 002e FFF7FEFF 		bl	CyExitCriticalSection
  63:.\Generated_Source\PSoC5/statusButton.c **** }
  98              		.loc 1 63 0
  99 0032 07F10807 		add	r7, r7, #8
 100 0036 BD46     		mov	sp, r7
 101 0038 80BD     		pop	{r7, pc}
 102              		.cfi_endproc
 103              	.LFE1:
 104              		.size	statusButton_InterruptEnable, .-statusButton_InterruptEnable
ARM GAS  C:\Users\bryan.lee\AppData\Local\Temp\ccUza5Fx.s 			page 4


 105 003a 00BF     		.section	.text.statusButton_InterruptDisable,"ax",%progbits
 106              		.align	2
 107              		.global	statusButton_InterruptDisable
 108              		.thumb
 109              		.thumb_func
 110              		.type	statusButton_InterruptDisable, %function
 111              	statusButton_InterruptDisable:
 112              	.LFB2:
  64:.\Generated_Source\PSoC5/statusButton.c **** 
  65:.\Generated_Source\PSoC5/statusButton.c **** 
  66:.\Generated_Source\PSoC5/statusButton.c **** /*******************************************************************************
  67:.\Generated_Source\PSoC5/statusButton.c **** * Function Name: statusButton_InterruptDisable
  68:.\Generated_Source\PSoC5/statusButton.c **** ********************************************************************************
  69:.\Generated_Source\PSoC5/statusButton.c **** *
  70:.\Generated_Source\PSoC5/statusButton.c **** * Summary:
  71:.\Generated_Source\PSoC5/statusButton.c **** *  Disables the Status Register interrupt.
  72:.\Generated_Source\PSoC5/statusButton.c **** *
  73:.\Generated_Source\PSoC5/statusButton.c **** * Parameters:
  74:.\Generated_Source\PSoC5/statusButton.c **** *  None.
  75:.\Generated_Source\PSoC5/statusButton.c **** *
  76:.\Generated_Source\PSoC5/statusButton.c **** * Return:
  77:.\Generated_Source\PSoC5/statusButton.c **** *  None.
  78:.\Generated_Source\PSoC5/statusButton.c **** *
  79:.\Generated_Source\PSoC5/statusButton.c **** *******************************************************************************/
  80:.\Generated_Source\PSoC5/statusButton.c **** void statusButton_InterruptDisable(void) 
  81:.\Generated_Source\PSoC5/statusButton.c **** {
 113              		.loc 1 81 0
 114              		.cfi_startproc
 115              		@ args = 0, pretend = 0, frame = 8
 116              		@ frame_needed = 1, uses_anonymous_args = 0
 117 0000 80B5     		push	{r7, lr}
 118              	.LCFI5:
 119              		.cfi_def_cfa_offset 8
 120 0002 82B0     		sub	sp, sp, #8
 121              	.LCFI6:
 122              		.cfi_def_cfa_offset 16
 123 0004 00AF     		add	r7, sp, #0
 124              		.cfi_offset 14, -4
 125              		.cfi_offset 7, -8
 126              	.LCFI7:
 127              		.cfi_def_cfa_register 7
  82:.\Generated_Source\PSoC5/statusButton.c ****     uint8 interruptState;
  83:.\Generated_Source\PSoC5/statusButton.c ****     interruptState = CyEnterCriticalSection();
 128              		.loc 1 83 0
 129 0006 FFF7FEFF 		bl	CyEnterCriticalSection
 130 000a 0346     		mov	r3, r0
 131 000c FB71     		strb	r3, [r7, #7]
  84:.\Generated_Source\PSoC5/statusButton.c ****     statusButton_Status_Aux_Ctrl &= (uint8)(~statusButton_STATUS_INTR_ENBL);
 132              		.loc 1 84 0
 133 000e 46F29753 		movw	r3, #:lower16:1073767831
 134 0012 C4F20003 		movt	r3, #:upper16:1073767831
 135 0016 46F29752 		movw	r2, #:lower16:1073767831
 136 001a C4F20002 		movt	r2, #:upper16:1073767831
 137 001e 1278     		ldrb	r2, [r2, #0]
 138 0020 D2B2     		uxtb	r2, r2
 139 0022 02F0EF02 		and	r2, r2, #239
 140 0026 1A70     		strb	r2, [r3, #0]
ARM GAS  C:\Users\bryan.lee\AppData\Local\Temp\ccUza5Fx.s 			page 5


  85:.\Generated_Source\PSoC5/statusButton.c ****     CyExitCriticalSection(interruptState);
 141              		.loc 1 85 0
 142 0028 FB79     		ldrb	r3, [r7, #7]	@ zero_extendqisi2
 143 002a 1846     		mov	r0, r3
 144 002c FFF7FEFF 		bl	CyExitCriticalSection
  86:.\Generated_Source\PSoC5/statusButton.c **** }
 145              		.loc 1 86 0
 146 0030 07F10807 		add	r7, r7, #8
 147 0034 BD46     		mov	sp, r7
 148 0036 80BD     		pop	{r7, pc}
 149              		.cfi_endproc
 150              	.LFE2:
 151              		.size	statusButton_InterruptDisable, .-statusButton_InterruptDisable
 152              		.section	.text.statusButton_WriteMask,"ax",%progbits
 153              		.align	2
 154              		.global	statusButton_WriteMask
 155              		.thumb
 156              		.thumb_func
 157              		.type	statusButton_WriteMask, %function
 158              	statusButton_WriteMask:
 159              	.LFB3:
  87:.\Generated_Source\PSoC5/statusButton.c **** 
  88:.\Generated_Source\PSoC5/statusButton.c **** 
  89:.\Generated_Source\PSoC5/statusButton.c **** /*******************************************************************************
  90:.\Generated_Source\PSoC5/statusButton.c **** * Function Name: statusButton_WriteMask
  91:.\Generated_Source\PSoC5/statusButton.c **** ********************************************************************************
  92:.\Generated_Source\PSoC5/statusButton.c **** *
  93:.\Generated_Source\PSoC5/statusButton.c **** * Summary:
  94:.\Generated_Source\PSoC5/statusButton.c **** *  Writes the current mask value assigned to the Status Register.
  95:.\Generated_Source\PSoC5/statusButton.c **** *
  96:.\Generated_Source\PSoC5/statusButton.c **** * Parameters:
  97:.\Generated_Source\PSoC5/statusButton.c **** *  mask:  Value to write into the mask register.
  98:.\Generated_Source\PSoC5/statusButton.c **** *
  99:.\Generated_Source\PSoC5/statusButton.c **** * Return:
 100:.\Generated_Source\PSoC5/statusButton.c **** *  None.
 101:.\Generated_Source\PSoC5/statusButton.c **** *
 102:.\Generated_Source\PSoC5/statusButton.c **** *******************************************************************************/
 103:.\Generated_Source\PSoC5/statusButton.c **** void statusButton_WriteMask(uint8 mask) 
 104:.\Generated_Source\PSoC5/statusButton.c **** {
 160              		.loc 1 104 0
 161              		.cfi_startproc
 162              		@ args = 0, pretend = 0, frame = 8
 163              		@ frame_needed = 1, uses_anonymous_args = 0
 164              		@ link register save eliminated.
 165 0000 80B4     		push	{r7}
 166              	.LCFI8:
 167              		.cfi_def_cfa_offset 4
 168 0002 83B0     		sub	sp, sp, #12
 169              	.LCFI9:
 170              		.cfi_def_cfa_offset 16
 171 0004 00AF     		add	r7, sp, #0
 172              		.cfi_offset 7, -4
 173              	.LCFI10:
 174              		.cfi_def_cfa_register 7
 175 0006 0346     		mov	r3, r0
 176 0008 FB71     		strb	r3, [r7, #7]
 105:.\Generated_Source\PSoC5/statusButton.c ****     #if(statusButton_INPUTS < 8u)
ARM GAS  C:\Users\bryan.lee\AppData\Local\Temp\ccUza5Fx.s 			page 6


 106:.\Generated_Source\PSoC5/statusButton.c ****     	mask &= (uint8)((((uint8)1u) << statusButton_INPUTS) - 1u);
 107:.\Generated_Source\PSoC5/statusButton.c **** 	#endif /* End statusButton_INPUTS < 8u */
 108:.\Generated_Source\PSoC5/statusButton.c ****     statusButton_Status_Mask = mask;
 177              		.loc 1 108 0
 178 000a 46F28753 		movw	r3, #:lower16:1073767815
 179 000e C4F20003 		movt	r3, #:upper16:1073767815
 180 0012 FA79     		ldrb	r2, [r7, #7]
 181 0014 1A70     		strb	r2, [r3, #0]
 109:.\Generated_Source\PSoC5/statusButton.c **** }
 182              		.loc 1 109 0
 183 0016 07F10C07 		add	r7, r7, #12
 184 001a BD46     		mov	sp, r7
 185 001c 80BC     		pop	{r7}
 186 001e 7047     		bx	lr
 187              		.cfi_endproc
 188              	.LFE3:
 189              		.size	statusButton_WriteMask, .-statusButton_WriteMask
 190              		.section	.text.statusButton_ReadMask,"ax",%progbits
 191              		.align	2
 192              		.global	statusButton_ReadMask
 193              		.thumb
 194              		.thumb_func
 195              		.type	statusButton_ReadMask, %function
 196              	statusButton_ReadMask:
 197              	.LFB4:
 110:.\Generated_Source\PSoC5/statusButton.c **** 
 111:.\Generated_Source\PSoC5/statusButton.c **** 
 112:.\Generated_Source\PSoC5/statusButton.c **** /*******************************************************************************
 113:.\Generated_Source\PSoC5/statusButton.c **** * Function Name: statusButton_ReadMask
 114:.\Generated_Source\PSoC5/statusButton.c **** ********************************************************************************
 115:.\Generated_Source\PSoC5/statusButton.c **** *
 116:.\Generated_Source\PSoC5/statusButton.c **** * Summary:
 117:.\Generated_Source\PSoC5/statusButton.c **** *  Reads the current interrupt mask assigned to the Status Register.
 118:.\Generated_Source\PSoC5/statusButton.c **** *
 119:.\Generated_Source\PSoC5/statusButton.c **** * Parameters:
 120:.\Generated_Source\PSoC5/statusButton.c **** *  None.
 121:.\Generated_Source\PSoC5/statusButton.c **** *
 122:.\Generated_Source\PSoC5/statusButton.c **** * Return:
 123:.\Generated_Source\PSoC5/statusButton.c **** *  The value of the interrupt mask of the Status Register.
 124:.\Generated_Source\PSoC5/statusButton.c **** *
 125:.\Generated_Source\PSoC5/statusButton.c **** *******************************************************************************/
 126:.\Generated_Source\PSoC5/statusButton.c **** uint8 statusButton_ReadMask(void) 
 127:.\Generated_Source\PSoC5/statusButton.c **** {
 198              		.loc 1 127 0
 199              		.cfi_startproc
 200              		@ args = 0, pretend = 0, frame = 0
 201              		@ frame_needed = 1, uses_anonymous_args = 0
 202              		@ link register save eliminated.
 203 0000 80B4     		push	{r7}
 204              	.LCFI11:
 205              		.cfi_def_cfa_offset 4
 206 0002 00AF     		add	r7, sp, #0
 207              		.cfi_offset 7, -4
 208              	.LCFI12:
 209              		.cfi_def_cfa_register 7
 128:.\Generated_Source\PSoC5/statusButton.c ****     return statusButton_Status_Mask;
 210              		.loc 1 128 0
ARM GAS  C:\Users\bryan.lee\AppData\Local\Temp\ccUza5Fx.s 			page 7


 211 0004 46F28753 		movw	r3, #:lower16:1073767815
 212 0008 C4F20003 		movt	r3, #:upper16:1073767815
 213 000c 1B78     		ldrb	r3, [r3, #0]
 214 000e DBB2     		uxtb	r3, r3
 129:.\Generated_Source\PSoC5/statusButton.c **** }
 215              		.loc 1 129 0
 216 0010 1846     		mov	r0, r3
 217 0012 BD46     		mov	sp, r7
 218 0014 80BC     		pop	{r7}
 219 0016 7047     		bx	lr
 220              		.cfi_endproc
 221              	.LFE4:
 222              		.size	statusButton_ReadMask, .-statusButton_ReadMask
 223              		.text
 224              	.Letext0: