ARM GAS  C:\Users\bryan.lee\AppData\Local\Temp\ccUtJjDa.s 			page 1


   1              		.syntax unified
   2              		.cpu cortex-m3
   3              		.fpu softvfp
   4              		.eabi_attribute 20, 1
   5              		.eabi_attribute 21, 1
   6              		.eabi_attribute 23, 3
   7              		.eabi_attribute 24, 1
   8              		.eabi_attribute 25, 1
   9              		.eabi_attribute 26, 1
  10              		.eabi_attribute 30, 6
  11              		.eabi_attribute 34, 1
  12              		.eabi_attribute 18, 4
  13              		.thumb
  14              		.syntax unified
  15              		.file	"main.c"
  16              		.text
  17              	.Ltext0:
  18              		.cfi_sections	.debug_frame
  19              		.comm	pinDMK,4,4
  20              		.comm	CaptureFlag,4,4
  21              		.comm	statusButtonRead,1,1
  22              		.comm	Polar_C_Pulse_Count,1,1
  23              		.comm	Polar_S_Pulse_Count,1,1
  24              		.comm	ANTplus_Pulse_Count,1,1
  25              		.comm	ShiftData,255,4
  26              		.section	.text.InitializeHardware,"ax",%progbits
  27              		.align	2
  28              		.global	InitializeHardware
  29              		.thumb
  30              		.thumb_func
  31              		.type	InitializeHardware, %function
  32              	InitializeHardware:
  33              	.LFB63:
  34              		.file 1 "main.c"
   1:main.c        **** /* ========================================
   2:main.c        ****  *
   3:main.c        ****  * Copyright YOUR COMPANY, THE YEAR
   4:main.c        ****  * All Rights Reserved
   5:main.c        ****  * UNPUBLISHED, LICENSED SOFTWARE.
   6:main.c        ****  *
   7:main.c        ****  * CONFIDENTIAL AND PROPRIETARY INFORMATION
   8:main.c        ****  * WHICH IS THE PROPERTY OF your company.
   9:main.c        ****  *
  10:main.c        ****  * ========================================
  11:main.c        **** */
  12:main.c        **** #include <device.h>
  13:main.c        **** 
  14:main.c        **** #define forever 1
  15:main.c        **** 
  16:main.c        **** CY_ISR_PROTO(StoreISR);
  17:main.c        **** CY_ISR(PulseCapture);
  18:main.c        **** 
  19:main.c        **** 
  20:main.c        **** 
  21:main.c        **** int pinDMK;
  22:main.c        **** int CaptureFlag;
  23:main.c        **** uint8 statusButtonRead; //0xFF starting point
ARM GAS  C:\Users\bryan.lee\AppData\Local\Temp\ccUtJjDa.s 			page 2


  24:main.c        **** uint8 Polar_C_Pulse_Count;
  25:main.c        **** uint8 Polar_S_Pulse_Count;
  26:main.c        **** uint8 ANTplus_Pulse_Count;
  27:main.c        **** uint8 ShiftData[255];
  28:main.c        **** 
  29:main.c        **** 
  30:main.c        **** 
  31:main.c        **** void InitializeHardware()
  32:main.c        **** {
  35              		.loc 1 32 0
  36              		.cfi_startproc
  37              		@ args = 0, pretend = 0, frame = 0
  38              		@ frame_needed = 1, uses_anonymous_args = 0
  39 0000 80B5     		push	{r7, lr}
  40              		.cfi_def_cfa_offset 8
  41              		.cfi_offset 7, -8
  42              		.cfi_offset 14, -4
  43 0002 00AF     		add	r7, sp, #0
  44              		.cfi_def_cfa_register 7
  33:main.c        **** 	CyGlobalIntEnable;                                   //ISR
  45              		.loc 1 33 0
  46              		.syntax unified
  47              	@ 33 "main.c" 1
  48 0004 62B6     		CPSIE   i
  49              	@ 0 "" 2
  34:main.c        **** 	isrStoreInt_StartEx(StoreISR);
  50              		.loc 1 34 0
  51              		.thumb
  52              		.syntax unified
  53 0006 1348     		ldr	r0, .L2
  54 0008 FFF7FEFF 		bl	isrStoreInt_StartEx
  35:main.c        ****     isrPulseCapture_StartEx(PulseCapture);
  55              		.loc 1 35 0
  56 000c 1248     		ldr	r0, .L2+4
  57 000e FFF7FEFF 		bl	isrPulseCapture_StartEx
  36:main.c        ****     
  37:main.c        ****     
  38:main.c        ****     lcdDisplay_Start();
  58              		.loc 1 38 0
  59 0012 FFF7FEFF 		bl	lcdDisplay_Start
  39:main.c        ****     lcdDisplay_ClearDisplay();
  60              		.loc 1 39 0
  61 0016 0120     		movs	r0, #1
  62 0018 FFF7FEFF 		bl	lcdDisplay_WriteControl
  40:main.c        ****     pgaPolarC_Start();                                   //Polar Chest Pulse buffer
  63              		.loc 1 40 0
  64 001c FFF7FEFF 		bl	pgaPolarC_Start
  41:main.c        ****     counterPolarC_Start();
  65              		.loc 1 41 0
  66 0020 FFF7FEFF 		bl	counterPolarC_Start
  42:main.c        ****     pgaPolarS_Start();                                   //Polar Hand Pulse buffer
  67              		.loc 1 42 0
  68 0024 FFF7FEFF 		bl	pgaPolarS_Start
  43:main.c        ****     counterPolarS_Start();
  69              		.loc 1 43 0
  70 0028 FFF7FEFF 		bl	counterPolarS_Start
  44:main.c        ****     pgaANTPlus_Start();                                  //ANT+ Chest Pulse buffer
ARM GAS  C:\Users\bryan.lee\AppData\Local\Temp\ccUtJjDa.s 			page 3


  71              		.loc 1 44 0
  72 002c FFF7FEFF 		bl	pgaANTPlus_Start
  45:main.c        ****     counterANTPlus_Start();
  73              		.loc 1 45 0
  74 0030 FFF7FEFF 		bl	counterANTPlus_Start
  46:main.c        ****     PWMPulseCapture_Start();                             //Capture Clock
  75              		.loc 1 46 0
  76 0034 FFF7FEFF 		bl	PWMPulseCapture_Start
  47:main.c        **** 	counterShift_Start();                                //Membrane Button Read components
  77              		.loc 1 47 0
  78 0038 FFF7FEFF 		bl	counterShift_Start
  48:main.c        ****     shiftregSender_Start();
  79              		.loc 1 48 0
  80 003c FFF7FEFF 		bl	shiftregSender_Start
  49:main.c        ****     shiftregSender_WriteData(0x00);
  81              		.loc 1 49 0
  82 0040 0020     		movs	r0, #0
  83 0042 FFF7FEFF 		bl	shiftregSender_WriteData
  50:main.c        ****     CyDelay(250);
  84              		.loc 1 50 0
  85 0046 FA20     		movs	r0, #250
  86 0048 FFF7FEFF 		bl	CyDelay
  51:main.c        ****     shiftregReceiver_Start();	 
  87              		.loc 1 51 0
  88 004c FFF7FEFF 		bl	shiftregReceiver_Start
  52:main.c        **** }
  89              		.loc 1 52 0
  90 0050 00BF     		nop
  91 0052 80BD     		pop	{r7, pc}
  92              	.L3:
  93              		.align	2
  94              	.L2:
  95 0054 00000000 		.word	StoreISR
  96 0058 00000000 		.word	PulseCapture
  97              		.cfi_endproc
  98              	.LFE63:
  99              		.size	InitializeHardware, .-InitializeHardware
 100              		.section	.rodata
 101              		.align	2
 102              	.LC0:
 103 0000 42455441 		.ascii	"BETA\000"
 103      00
 104 0005 000000   		.align	2
 105              	.LC1:
 106 0008 444D4B3A 		.ascii	"DMK:\000"
 106      00
 107 000d 000000   		.align	2
 108              	.LC2:
 109 0010 42757474 		.ascii	"Buttons:\000"
 109      6F6E733A 
 109      00
 110 0019 000000   		.align	2
 111              	.LC3:
 112 001c 50756C73 		.ascii	"Pulse:\000"
 112      653A00
 113 0023 00       		.align	2
 114              	.LC4:
ARM GAS  C:\Users\bryan.lee\AppData\Local\Temp\ccUtJjDa.s 			page 4


 115 0024 4F4E2000 		.ascii	"ON \000"
 116              		.align	2
 117              	.LC5:
 118 0028 4F464600 		.ascii	"OFF\000"
 119              		.align	2
 120              	.LC6:
 121 002c 43686573 		.ascii	"Chest\000"
 121      7400
 122              		.section	.text.main,"ax",%progbits
 123              		.align	2
 124              		.global	main
 125              		.thumb
 126              		.thumb_func
 127              		.type	main, %function
 128              	main:
 129              	.LFB64:
  53:main.c        **** //***********************************************************************************
  54:main.c        **** 
  55:main.c        **** int main()
  56:main.c        **** {
 130              		.loc 1 56 0
 131              		.cfi_startproc
 132              		@ args = 0, pretend = 0, frame = 8
 133              		@ frame_needed = 1, uses_anonymous_args = 0
 134 0000 80B5     		push	{r7, lr}
 135              		.cfi_def_cfa_offset 8
 136              		.cfi_offset 7, -8
 137              		.cfi_offset 14, -4
 138 0002 82B0     		sub	sp, sp, #8
 139              		.cfi_def_cfa_offset 16
 140 0004 00AF     		add	r7, sp, #0
 141              		.cfi_def_cfa_register 7
  57:main.c        ****     //uint8 ii = 0x00;      //Calibration
  58:main.c        ****     uint8 Status;
  59:main.c        **** 	InitializeHardware();
 142              		.loc 1 59 0
 143 0006 FFF7FEFF 		bl	InitializeHardware
  60:main.c        ****     clockShift_SetDivider(128);
 144              		.loc 1 60 0
 145 000a 0121     		movs	r1, #1
 146 000c 8020     		movs	r0, #128
 147 000e FFF7FEFF 		bl	clockShift_SetDividerRegister
  61:main.c        ****     lcdDisplay_Position(0,8);
 148              		.loc 1 61 0
 149 0012 0821     		movs	r1, #8
 150 0014 0020     		movs	r0, #0
 151 0016 FFF7FEFF 		bl	lcdDisplay_Position
  62:main.c        ****     lcdDisplay_PrintString("BETA");
 152              		.loc 1 62 0
 153 001a 2A48     		ldr	r0, .L10
 154 001c FFF7FEFF 		bl	lcdDisplay_PrintString
  63:main.c        ****     lcdDisplay_Position(1,0);
 155              		.loc 1 63 0
 156 0020 0021     		movs	r1, #0
 157 0022 0120     		movs	r0, #1
 158 0024 FFF7FEFF 		bl	lcdDisplay_Position
  64:main.c        ****     lcdDisplay_PrintString("DMK:");
ARM GAS  C:\Users\bryan.lee\AppData\Local\Temp\ccUtJjDa.s 			page 5


 159              		.loc 1 64 0
 160 0028 2748     		ldr	r0, .L10+4
 161 002a FFF7FEFF 		bl	lcdDisplay_PrintString
  65:main.c        ****     lcdDisplay_Position(2,0);
 162              		.loc 1 65 0
 163 002e 0021     		movs	r1, #0
 164 0030 0220     		movs	r0, #2
 165 0032 FFF7FEFF 		bl	lcdDisplay_Position
  66:main.c        ****     lcdDisplay_PrintString("Buttons:");
 166              		.loc 1 66 0
 167 0036 2548     		ldr	r0, .L10+8
 168 0038 FFF7FEFF 		bl	lcdDisplay_PrintString
  67:main.c        ****     lcdDisplay_Position(3,0);
 169              		.loc 1 67 0
 170 003c 0021     		movs	r1, #0
 171 003e 0320     		movs	r0, #3
 172 0040 FFF7FEFF 		bl	lcdDisplay_Position
  68:main.c        ****     lcdDisplay_PrintString("Pulse:");
 173              		.loc 1 68 0
 174 0044 2248     		ldr	r0, .L10+12
 175 0046 FFF7FEFF 		bl	lcdDisplay_PrintString
 176              	.L9:
  69:main.c        ****     
  70:main.c        ****     
  71:main.c        ****     for(;;)
  72:main.c        ****     {
  73:main.c        ****         if (pinDMK_Read() == 0)                     //DMK function
 177              		.loc 1 73 0
 178 004a FFF7FEFF 		bl	pinDMK_Read
 179 004e 0346     		mov	r3, r0
 180 0050 002B     		cmp	r3, #0
 181 0052 07D1     		bne	.L5
  74:main.c        ****         {
  75:main.c        ****             lcdDisplay_Position(1,5);
 182              		.loc 1 75 0
 183 0054 0521     		movs	r1, #5
 184 0056 0120     		movs	r0, #1
 185 0058 FFF7FEFF 		bl	lcdDisplay_Position
  76:main.c        ****             lcdDisplay_PrintString("ON ");
 186              		.loc 1 76 0
 187 005c 1D48     		ldr	r0, .L10+16
 188 005e FFF7FEFF 		bl	lcdDisplay_PrintString
 189 0062 06E0     		b	.L6
 190              	.L5:
  77:main.c        ****         }
  78:main.c        ****         else
  79:main.c        ****         {
  80:main.c        ****             lcdDisplay_Position(1,5);
 191              		.loc 1 80 0
 192 0064 0521     		movs	r1, #5
 193 0066 0120     		movs	r0, #1
 194 0068 FFF7FEFF 		bl	lcdDisplay_Position
  81:main.c        ****             lcdDisplay_PrintString("OFF");
 195              		.loc 1 81 0
 196 006c 1A48     		ldr	r0, .L10+20
 197 006e FFF7FEFF 		bl	lcdDisplay_PrintString
 198              	.L6:
ARM GAS  C:\Users\bryan.lee\AppData\Local\Temp\ccUtJjDa.s 			page 6


  82:main.c        ****         }
  83:main.c        ****         if (CaptureFlag == 1)
 199              		.loc 1 83 0
 200 0072 1A4B     		ldr	r3, .L10+24
 201 0074 1B68     		ldr	r3, [r3]
 202 0076 012B     		cmp	r3, #1
 203 0078 0FD1     		bne	.L7
  84:main.c        ****        {
  85:main.c        ****             CaptureFlag = 0;
 204              		.loc 1 85 0
 205 007a 184B     		ldr	r3, .L10+24
 206 007c 0022     		movs	r2, #0
 207 007e 1A60     		str	r2, [r3]
  86:main.c        ****             
  87:main.c        ****             Polar_C_Pulse_Count = counterPolarC_ReadCapture();
 208              		.loc 1 87 0
 209 0080 FFF7FEFF 		bl	counterPolarC_ReadCapture
 210 0084 0346     		mov	r3, r0
 211 0086 1A46     		mov	r2, r3
 212 0088 154B     		ldr	r3, .L10+28
 213 008a 1A70     		strb	r2, [r3]
  88:main.c        ****             lcdDisplay_Position (3,7);
 214              		.loc 1 88 0
 215 008c 0721     		movs	r1, #7
 216 008e 0320     		movs	r0, #3
 217 0090 FFF7FEFF 		bl	lcdDisplay_Position
  89:main.c        ****             lcdDisplay_PrintString("Chest");
 218              		.loc 1 89 0
 219 0094 1348     		ldr	r0, .L10+32
 220 0096 FFF7FEFF 		bl	lcdDisplay_PrintString
 221              	.L7:
  90:main.c        ****             
  91:main.c        ****             
  92:main.c        ****             /*Polar_S_Pulse_Count = counterPolarS_ReadCapture();
  93:main.c        ****             lcdDisplay_Position (3,7);
  94:main.c        ****             lcdDisplay_PrintString("Hand");
  95:main.c        ****             
  96:main.c        ****             
  97:main.c        ****             ANTplus_Pulse_Count = counterANTPlus_ReadCapture();
  98:main.c        ****             lcdDisplay_Position (3,7);
  99:main.c        ****             lcdDisplay_PrintString("ANTplus");*/
 100:main.c        ****                         
 101:main.c        ****         }
 102:main.c        ****         
 103:main.c        ****         
 104:main.c        ****         
 105:main.c        ****         statusButton_Read();  //Button Hex strings...Left1:FE, Left2:FD, Rigth1:FB, and Right2:F7
 222              		.loc 1 105 0
 223 009a FFF7FEFF 		bl	statusButton_Read
 106:main.c        ****         {
 107:main.c        ****             /*lcdDisplay_Position(2,9);  //Button Hex Strings...InclineD:FE, InclineU:FD, Run:FB, S
 108:main.c        ****             lcdDisplay_PrintInt8(statusButton_Read());*/
 109:main.c        ****             /*shiftregReceiver_WriteRegValue(statusButton_Read());//Writes to the Shift Register*/
 110:main.c        ****         }
 111:main.c        ****     	
 112:main.c        **** 		if(!((Status = shiftregSender_GetFIFOStatus(shiftregSender_IN_FIFO)) == shiftregSender_RET_FIFO_F
 224              		.loc 1 112 0
ARM GAS  C:\Users\bryan.lee\AppData\Local\Temp\ccUtJjDa.s 			page 7


 225 009e 0120     		movs	r0, #1
 226 00a0 FFF7FEFF 		bl	shiftregSender_GetFIFOStatus
 227 00a4 0346     		mov	r3, r0
 228 00a6 FB71     		strb	r3, [r7, #7]
 229 00a8 FB79     		ldrb	r3, [r7, #7]	@ zero_extendqisi2
 230 00aa 002B     		cmp	r3, #0
 231 00ac CDD0     		beq	.L9
 113:main.c        **** 		{
 114:main.c        **** 			/*shiftregSender_WriteData(++ii);//FOR CALIBRATION ONLY. WILL COUNT UP FROM 0X00 TO 0XFF.*/
 115:main.c        ****             {
 116:main.c        ****                 lcdDisplay_Position(2,9);
 232              		.loc 1 116 0
 233 00ae 0921     		movs	r1, #9
 234 00b0 0220     		movs	r0, #2
 235 00b2 FFF7FEFF 		bl	lcdDisplay_Position
 117:main.c        ****                 lcdDisplay_PrintInt8(shiftregReceiver_ReadData());
 236              		.loc 1 117 0
 237 00b6 FFF7FEFF 		bl	shiftregReceiver_ReadData
 238 00ba 0346     		mov	r3, r0
 239 00bc 1846     		mov	r0, r3
 240 00be FFF7FEFF 		bl	lcdDisplay_PrintInt8
 118:main.c        ****             }
 119:main.c        **** 		}
 120:main.c        ****            
 121:main.c        ****       }      
 241              		.loc 1 121 0
 242 00c2 C2E7     		b	.L9
 243              	.L11:
 244              		.align	2
 245              	.L10:
 246 00c4 00000000 		.word	.LC0
 247 00c8 08000000 		.word	.LC1
 248 00cc 10000000 		.word	.LC2
 249 00d0 1C000000 		.word	.LC3
 250 00d4 24000000 		.word	.LC4
 251 00d8 28000000 		.word	.LC5
 252 00dc 00000000 		.word	CaptureFlag
 253 00e0 00000000 		.word	Polar_C_Pulse_Count
 254 00e4 2C000000 		.word	.LC6
 255              		.cfi_endproc
 256              	.LFE64:
 257              		.size	main, .-main
 258              		.section	.text.StoreISR,"ax",%progbits
 259              		.align	2
 260              		.global	StoreISR
 261              		.thumb
 262              		.thumb_func
 263              		.type	StoreISR, %function
 264              	StoreISR:
 265              	.LFB65:
 122:main.c        **** }
 123:main.c        **** /*END OF FILE */
 124:main.c        **** 
 125:main.c        **** 
 126:main.c        **** /************************************************************************************/
 127:main.c        **** CY_ISR(StoreISR)
 128:main.c        **** {
ARM GAS  C:\Users\bryan.lee\AppData\Local\Temp\ccUtJjDa.s 			page 8


 266              		.loc 1 128 0
 267              		.cfi_startproc
 268              		@ args = 0, pretend = 0, frame = 8
 269              		@ frame_needed = 1, uses_anonymous_args = 0
 270 0000 80B5     		push	{r7, lr}
 271              		.cfi_def_cfa_offset 8
 272              		.cfi_offset 7, -8
 273              		.cfi_offset 14, -4
 274 0002 82B0     		sub	sp, sp, #8
 275              		.cfi_def_cfa_offset 16
 276 0004 00AF     		add	r7, sp, #0
 277              		.cfi_def_cfa_register 7
 129:main.c        **** uint8 Status;
 130:main.c        **** 	while((Status = shiftregReceiver_GetFIFOStatus(shiftregReceiver_OUT_FIFO)) == shiftregReceiver_RET
 278              		.loc 1 130 0
 279 0006 01E0     		b	.L13
 280              	.L14:
 131:main.c        **** 	{
 132:main.c        **** 		shiftregReceiver_ReadData();   
 281              		.loc 1 132 0
 282 0008 FFF7FEFF 		bl	shiftregReceiver_ReadData
 283              	.L13:
 130:main.c        **** 	{
 284              		.loc 1 130 0
 285 000c 0220     		movs	r0, #2
 286 000e FFF7FEFF 		bl	shiftregReceiver_GetFIFOStatus
 287 0012 0346     		mov	r3, r0
 288 0014 FB71     		strb	r3, [r7, #7]
 289 0016 FB79     		ldrb	r3, [r7, #7]	@ zero_extendqisi2
 290 0018 012B     		cmp	r3, #1
 291 001a F5D0     		beq	.L14
 133:main.c        **** 	}
 134:main.c        **** }
 292              		.loc 1 134 0
 293 001c 00BF     		nop
 294 001e 0837     		adds	r7, r7, #8
 295              		.cfi_def_cfa_offset 8
 296 0020 BD46     		mov	sp, r7
 297              		.cfi_def_cfa_register 13
 298              		@ sp needed
 299 0022 80BD     		pop	{r7, pc}
 300              		.cfi_endproc
 301              	.LFE65:
 302              		.size	StoreISR, .-StoreISR
 303              		.section	.text.PulseCapture,"ax",%progbits
 304              		.align	2
 305              		.global	PulseCapture
 306              		.thumb
 307              		.thumb_func
 308              		.type	PulseCapture, %function
 309              	PulseCapture:
 310              	.LFB66:
 135:main.c        **** 
 136:main.c        **** /**********************************************************************************/
 137:main.c        **** CY_ISR(PulseCapture)
 138:main.c        **** {
 311              		.loc 1 138 0
ARM GAS  C:\Users\bryan.lee\AppData\Local\Temp\ccUtJjDa.s 			page 9


 312              		.cfi_startproc
 313              		@ args = 0, pretend = 0, frame = 0
 314              		@ frame_needed = 1, uses_anonymous_args = 0
 315              		@ link register save eliminated.
 316 0000 80B4     		push	{r7}
 317              		.cfi_def_cfa_offset 4
 318              		.cfi_offset 7, -4
 319 0002 00AF     		add	r7, sp, #0
 320              		.cfi_def_cfa_register 7
 139:main.c        ****     CaptureFlag = 1;
 321              		.loc 1 139 0
 322 0004 034B     		ldr	r3, .L16
 323 0006 0122     		movs	r2, #1
 324 0008 1A60     		str	r2, [r3]
 140:main.c        **** }...
 325              		.loc 1 140 0
 326 000a 00BF     		nop
 327 000c BD46     		mov	sp, r7
 328              		.cfi_def_cfa_register 13
 329              		@ sp needed
 330 000e 80BC     		pop	{r7}
 331              		.cfi_restore 7
 332              		.cfi_def_cfa_offset 0
 333 0010 7047     		bx	lr
 334              	.L17:
 335 0012 00BF     		.align	2
 336              	.L16:
 337 0014 00000000 		.word	CaptureFlag
 338              		.cfi_endproc
 339              	.LFE66:
 340              		.size	PulseCapture, .-PulseCapture
 341              		.text
 342              	.Letext0:
 343              		.file 2 "c:\\program files (x86)\\cypress\\psoc creator\\4.2\\psoc creator\\import\\gnu\\arm\\5.4.
 344              		.file 3 "c:\\program files (x86)\\cypress\\psoc creator\\4.2\\psoc creator\\import\\gnu\\arm\\5.4.
 345              		.file 4 "Generated_Source\\PSoC5/cytypes.h"
 346              		.file 5 "Generated_Source\\PSoC5/core_cm3.h"