ARM GAS  C:\Users\bryan.lee\AppData\Local\Temp\cc8I3m18.s 			page 1


   1              		.syntax unified
   2              		.cpu cortex-m3
   3              		.fpu softvfp
   4              		.eabi_attribute 20, 1
   5              		.eabi_attribute 21, 1
   6              		.eabi_attribute 23, 3
   7              		.eabi_attribute 24, 1
   8              		.eabi_attribute 25, 1
   9              		.eabi_attribute 26, 1
  10              		.eabi_attribute 30, 6
  11              		.eabi_attribute 34, 1
  12              		.eabi_attribute 18, 4
  13              		.thumb
  14              		.syntax unified
  15              		.file	"shiftregSender_PM.c"
  16              		.text
  17              	.Ltext0:
  18              		.cfi_sections	.debug_frame
  19              		.bss
  20              		.align	2
  21              	shiftregSender_backup:
  22 0000 000000   		.space	3
  23              		.section	.text.shiftregSender_SaveConfig,"ax",%progbits
  24              		.align	2
  25              		.global	shiftregSender_SaveConfig
  26              		.thumb
  27              		.thumb_func
  28              		.type	shiftregSender_SaveConfig, %function
  29              	shiftregSender_SaveConfig:
  30              	.LFB0:
  31              		.file 1 "Generated_Source\\PSoC5\\shiftregSender_PM.c"
   1:Generated_Source\PSoC5/shiftregSender_PM.c **** /*******************************************************************************
   2:Generated_Source\PSoC5/shiftregSender_PM.c **** * File Name: shiftregSender_PM.c
   3:Generated_Source\PSoC5/shiftregSender_PM.c **** * Version 2.30
   4:Generated_Source\PSoC5/shiftregSender_PM.c **** *
   5:Generated_Source\PSoC5/shiftregSender_PM.c **** * Description:
   6:Generated_Source\PSoC5/shiftregSender_PM.c **** *  This file provides the API source code for sleep mode support for Shift
   7:Generated_Source\PSoC5/shiftregSender_PM.c **** *  Register component.
   8:Generated_Source\PSoC5/shiftregSender_PM.c **** *
   9:Generated_Source\PSoC5/shiftregSender_PM.c **** * Note:
  10:Generated_Source\PSoC5/shiftregSender_PM.c **** *
  11:Generated_Source\PSoC5/shiftregSender_PM.c **** ********************************************************************************
  12:Generated_Source\PSoC5/shiftregSender_PM.c **** * Copyright 2008-2013, Cypress Semiconductor Corporation.  All rights reserved.
  13:Generated_Source\PSoC5/shiftregSender_PM.c **** * You may use this file only in accordance with the license, terms, conditions,
  14:Generated_Source\PSoC5/shiftregSender_PM.c **** * disclaimers, and limitations in the end user license agreement accompanying
  15:Generated_Source\PSoC5/shiftregSender_PM.c **** * the software package with which this file was provided.
  16:Generated_Source\PSoC5/shiftregSender_PM.c **** *******************************************************************************/
  17:Generated_Source\PSoC5/shiftregSender_PM.c **** 
  18:Generated_Source\PSoC5/shiftregSender_PM.c **** #include "shiftregSender.h"
  19:Generated_Source\PSoC5/shiftregSender_PM.c **** 
  20:Generated_Source\PSoC5/shiftregSender_PM.c **** static shiftregSender_BACKUP_STRUCT shiftregSender_backup =
  21:Generated_Source\PSoC5/shiftregSender_PM.c **** {
  22:Generated_Source\PSoC5/shiftregSender_PM.c ****     shiftregSender_DISABLED,
  23:Generated_Source\PSoC5/shiftregSender_PM.c **** 
  24:Generated_Source\PSoC5/shiftregSender_PM.c ****     ((uint8) shiftregSender_DEFAULT_A0),
  25:Generated_Source\PSoC5/shiftregSender_PM.c ****     ((uint8) shiftregSender_DEFAULT_A1),
  26:Generated_Source\PSoC5/shiftregSender_PM.c **** 
ARM GAS  C:\Users\bryan.lee\AppData\Local\Temp\cc8I3m18.s 			page 2


  27:Generated_Source\PSoC5/shiftregSender_PM.c ****     #if(CY_UDB_V0)
  28:Generated_Source\PSoC5/shiftregSender_PM.c ****         ((uint8) shiftregSender_INT_SRC),
  29:Generated_Source\PSoC5/shiftregSender_PM.c ****     #endif /* (CY_UDB_V0) */
  30:Generated_Source\PSoC5/shiftregSender_PM.c **** };
  31:Generated_Source\PSoC5/shiftregSender_PM.c **** 
  32:Generated_Source\PSoC5/shiftregSender_PM.c **** 
  33:Generated_Source\PSoC5/shiftregSender_PM.c **** /*******************************************************************************
  34:Generated_Source\PSoC5/shiftregSender_PM.c **** * Function Name: shiftregSender_SaveConfig
  35:Generated_Source\PSoC5/shiftregSender_PM.c **** ********************************************************************************
  36:Generated_Source\PSoC5/shiftregSender_PM.c **** *
  37:Generated_Source\PSoC5/shiftregSender_PM.c **** * Summary:
  38:Generated_Source\PSoC5/shiftregSender_PM.c **** *  Saves Shift Register configuration.
  39:Generated_Source\PSoC5/shiftregSender_PM.c **** *
  40:Generated_Source\PSoC5/shiftregSender_PM.c **** * Parameters:
  41:Generated_Source\PSoC5/shiftregSender_PM.c **** *  None.
  42:Generated_Source\PSoC5/shiftregSender_PM.c **** *
  43:Generated_Source\PSoC5/shiftregSender_PM.c **** * Return:
  44:Generated_Source\PSoC5/shiftregSender_PM.c **** *  None.
  45:Generated_Source\PSoC5/shiftregSender_PM.c **** *
  46:Generated_Source\PSoC5/shiftregSender_PM.c **** * Reentrant:
  47:Generated_Source\PSoC5/shiftregSender_PM.c **** *  No.
  48:Generated_Source\PSoC5/shiftregSender_PM.c **** *
  49:Generated_Source\PSoC5/shiftregSender_PM.c **** *******************************************************************************/
  50:Generated_Source\PSoC5/shiftregSender_PM.c **** void shiftregSender_SaveConfig(void) 
  51:Generated_Source\PSoC5/shiftregSender_PM.c **** {
  32              		.loc 1 51 0
  33              		.cfi_startproc
  34              		@ args = 0, pretend = 0, frame = 0
  35              		@ frame_needed = 1, uses_anonymous_args = 0
  36              		@ link register save eliminated.
  37 0000 80B4     		push	{r7}
  38              		.cfi_def_cfa_offset 4
  39              		.cfi_offset 7, -4
  40 0002 00AF     		add	r7, sp, #0
  41              		.cfi_def_cfa_register 7
  52:Generated_Source\PSoC5/shiftregSender_PM.c ****     /* Store working registers A0 and A1 */
  53:Generated_Source\PSoC5/shiftregSender_PM.c ****     shiftregSender_backup.saveSrA0Reg   = CY_GET_REG8(shiftregSender_SHIFT_REG_LSB_PTR);
  42              		.loc 1 53 0
  43 0004 064B     		ldr	r3, .L2
  44 0006 1B78     		ldrb	r3, [r3]
  45 0008 DAB2     		uxtb	r2, r3
  46 000a 064B     		ldr	r3, .L2+4
  47 000c 5A70     		strb	r2, [r3, #1]
  54:Generated_Source\PSoC5/shiftregSender_PM.c ****     shiftregSender_backup.saveSrA1Reg   = CY_GET_REG8(shiftregSender_SHIFT_REG_VALUE_LSB_PTR);
  48              		.loc 1 54 0
  49 000e 064B     		ldr	r3, .L2+8
  50 0010 1B78     		ldrb	r3, [r3]
  51 0012 DAB2     		uxtb	r2, r3
  52 0014 034B     		ldr	r3, .L2+4
  53 0016 9A70     		strb	r2, [r3, #2]
  55:Generated_Source\PSoC5/shiftregSender_PM.c **** 
  56:Generated_Source\PSoC5/shiftregSender_PM.c ****     #if(CY_UDB_V0)
  57:Generated_Source\PSoC5/shiftregSender_PM.c ****         shiftregSender_backup.saveSrIntMask = shiftregSender_SR_STATUS_MASK;
  58:Generated_Source\PSoC5/shiftregSender_PM.c ****     #endif /* (CY_UDB_V0) */
  59:Generated_Source\PSoC5/shiftregSender_PM.c **** }
  54              		.loc 1 59 0
  55 0018 00BF     		nop
ARM GAS  C:\Users\bryan.lee\AppData\Local\Temp\cc8I3m18.s 			page 3


  56 001a BD46     		mov	sp, r7
  57              		.cfi_def_cfa_register 13
  58              		@ sp needed
  59 001c 80BC     		pop	{r7}
  60              		.cfi_restore 7
  61              		.cfi_def_cfa_offset 0
  62 001e 7047     		bx	lr
  63              	.L3:
  64              		.align	2
  65              	.L2:
  66 0020 07650040 		.word	1073767687
  67 0024 00000000 		.word	shiftregSender_backup
  68 0028 17650040 		.word	1073767703
  69              		.cfi_endproc
  70              	.LFE0:
  71              		.size	shiftregSender_SaveConfig, .-shiftregSender_SaveConfig
  72              		.section	.text.shiftregSender_RestoreConfig,"ax",%progbits
  73              		.align	2
  74              		.global	shiftregSender_RestoreConfig
  75              		.thumb
  76              		.thumb_func
  77              		.type	shiftregSender_RestoreConfig, %function
  78              	shiftregSender_RestoreConfig:
  79              	.LFB1:
  60:Generated_Source\PSoC5/shiftregSender_PM.c **** 
  61:Generated_Source\PSoC5/shiftregSender_PM.c **** 
  62:Generated_Source\PSoC5/shiftregSender_PM.c **** /*******************************************************************************
  63:Generated_Source\PSoC5/shiftregSender_PM.c **** * Function Name: shiftregSender_RestoreConfig
  64:Generated_Source\PSoC5/shiftregSender_PM.c **** ********************************************************************************
  65:Generated_Source\PSoC5/shiftregSender_PM.c **** *
  66:Generated_Source\PSoC5/shiftregSender_PM.c **** * Summary:
  67:Generated_Source\PSoC5/shiftregSender_PM.c **** *  Restores Shift Register configuration.
  68:Generated_Source\PSoC5/shiftregSender_PM.c **** *
  69:Generated_Source\PSoC5/shiftregSender_PM.c **** * Parameters:
  70:Generated_Source\PSoC5/shiftregSender_PM.c **** *  None.
  71:Generated_Source\PSoC5/shiftregSender_PM.c **** *
  72:Generated_Source\PSoC5/shiftregSender_PM.c **** * Return:
  73:Generated_Source\PSoC5/shiftregSender_PM.c **** *  None.
  74:Generated_Source\PSoC5/shiftregSender_PM.c **** *
  75:Generated_Source\PSoC5/shiftregSender_PM.c **** *******************************************************************************/
  76:Generated_Source\PSoC5/shiftregSender_PM.c **** void shiftregSender_RestoreConfig(void) 
  77:Generated_Source\PSoC5/shiftregSender_PM.c **** {
  80              		.loc 1 77 0
  81              		.cfi_startproc
  82              		@ args = 0, pretend = 0, frame = 0
  83              		@ frame_needed = 1, uses_anonymous_args = 0
  84              		@ link register save eliminated.
  85 0000 80B4     		push	{r7}
  86              		.cfi_def_cfa_offset 4
  87              		.cfi_offset 7, -4
  88 0002 00AF     		add	r7, sp, #0
  89              		.cfi_def_cfa_register 7
  78:Generated_Source\PSoC5/shiftregSender_PM.c ****     /* Restore working registers A0 and A1 */
  79:Generated_Source\PSoC5/shiftregSender_PM.c ****     CY_SET_REG8(shiftregSender_SHIFT_REG_LSB_PTR, shiftregSender_backup.saveSrA0Reg);
  90              		.loc 1 79 0
  91 0004 054B     		ldr	r3, .L5
  92 0006 064A     		ldr	r2, .L5+4
ARM GAS  C:\Users\bryan.lee\AppData\Local\Temp\cc8I3m18.s 			page 4


  93 0008 5278     		ldrb	r2, [r2, #1]	@ zero_extendqisi2
  94 000a 1A70     		strb	r2, [r3]
  80:Generated_Source\PSoC5/shiftregSender_PM.c ****     CY_SET_REG8(shiftregSender_SHIFT_REG_VALUE_LSB_PTR, shiftregSender_backup.saveSrA1Reg);
  95              		.loc 1 80 0
  96 000c 054B     		ldr	r3, .L5+8
  97 000e 044A     		ldr	r2, .L5+4
  98 0010 9278     		ldrb	r2, [r2, #2]	@ zero_extendqisi2
  99 0012 1A70     		strb	r2, [r3]
  81:Generated_Source\PSoC5/shiftregSender_PM.c **** 
  82:Generated_Source\PSoC5/shiftregSender_PM.c ****     #if(CY_UDB_V0)
  83:Generated_Source\PSoC5/shiftregSender_PM.c ****         shiftregSender_SR_STATUS_MASK = ((uint8) shiftregSender_backup.saveSrIntMask);
  84:Generated_Source\PSoC5/shiftregSender_PM.c ****     #endif /* (CY_UDB_V0) */
  85:Generated_Source\PSoC5/shiftregSender_PM.c **** }
 100              		.loc 1 85 0
 101 0014 00BF     		nop
 102 0016 BD46     		mov	sp, r7
 103              		.cfi_def_cfa_register 13
 104              		@ sp needed
 105 0018 80BC     		pop	{r7}
 106              		.cfi_restore 7
 107              		.cfi_def_cfa_offset 0
 108 001a 7047     		bx	lr
 109              	.L6:
 110              		.align	2
 111              	.L5:
 112 001c 07650040 		.word	1073767687
 113 0020 00000000 		.word	shiftregSender_backup
 114 0024 17650040 		.word	1073767703
 115              		.cfi_endproc
 116              	.LFE1:
 117              		.size	shiftregSender_RestoreConfig, .-shiftregSender_RestoreConfig
 118              		.section	.text.shiftregSender_Sleep,"ax",%progbits
 119              		.align	2
 120              		.global	shiftregSender_Sleep
 121              		.thumb
 122              		.thumb_func
 123              		.type	shiftregSender_Sleep, %function
 124              	shiftregSender_Sleep:
 125              	.LFB2:
  86:Generated_Source\PSoC5/shiftregSender_PM.c **** 
  87:Generated_Source\PSoC5/shiftregSender_PM.c **** 
  88:Generated_Source\PSoC5/shiftregSender_PM.c **** /*******************************************************************************
  89:Generated_Source\PSoC5/shiftregSender_PM.c **** * Function Name: shiftregSender_Sleep
  90:Generated_Source\PSoC5/shiftregSender_PM.c **** ********************************************************************************
  91:Generated_Source\PSoC5/shiftregSender_PM.c **** *
  92:Generated_Source\PSoC5/shiftregSender_PM.c **** * Summary:
  93:Generated_Source\PSoC5/shiftregSender_PM.c **** *  Prepare the component to enter a Sleep mode.
  94:Generated_Source\PSoC5/shiftregSender_PM.c **** *
  95:Generated_Source\PSoC5/shiftregSender_PM.c **** * Parameters:
  96:Generated_Source\PSoC5/shiftregSender_PM.c **** *  None.
  97:Generated_Source\PSoC5/shiftregSender_PM.c **** *
  98:Generated_Source\PSoC5/shiftregSender_PM.c **** * Return:
  99:Generated_Source\PSoC5/shiftregSender_PM.c **** *  None.
 100:Generated_Source\PSoC5/shiftregSender_PM.c **** *
 101:Generated_Source\PSoC5/shiftregSender_PM.c **** * Reentrant:
 102:Generated_Source\PSoC5/shiftregSender_PM.c **** *  No.
 103:Generated_Source\PSoC5/shiftregSender_PM.c **** *
ARM GAS  C:\Users\bryan.lee\AppData\Local\Temp\cc8I3m18.s 			page 5


 104:Generated_Source\PSoC5/shiftregSender_PM.c **** *******************************************************************************/
 105:Generated_Source\PSoC5/shiftregSender_PM.c **** void shiftregSender_Sleep(void) 
 106:Generated_Source\PSoC5/shiftregSender_PM.c **** {
 126              		.loc 1 106 0
 127              		.cfi_startproc
 128              		@ args = 0, pretend = 0, frame = 0
 129              		@ frame_needed = 1, uses_anonymous_args = 0
 130 0000 80B5     		push	{r7, lr}
 131              		.cfi_def_cfa_offset 8
 132              		.cfi_offset 7, -8
 133              		.cfi_offset 14, -4
 134 0002 00AF     		add	r7, sp, #0
 135              		.cfi_def_cfa_register 7
 107:Generated_Source\PSoC5/shiftregSender_PM.c ****     shiftregSender_backup.enableState = ((uint8) shiftregSender_IS_ENABLED);
 136              		.loc 1 107 0
 137 0004 094B     		ldr	r3, .L8
 138 0006 1B78     		ldrb	r3, [r3]
 139 0008 DBB2     		uxtb	r3, r3
 140 000a 03F00103 		and	r3, r3, #1
 141 000e 002B     		cmp	r3, #0
 142 0010 14BF     		ite	ne
 143 0012 0123     		movne	r3, #1
 144 0014 0023     		moveq	r3, #0
 145 0016 DBB2     		uxtb	r3, r3
 146 0018 1A46     		mov	r2, r3
 147 001a 054B     		ldr	r3, .L8+4
 148 001c 1A70     		strb	r2, [r3]
 108:Generated_Source\PSoC5/shiftregSender_PM.c **** 
 109:Generated_Source\PSoC5/shiftregSender_PM.c ****     shiftregSender_Stop();
 149              		.loc 1 109 0
 150 001e FFF7FEFF 		bl	shiftregSender_Stop
 110:Generated_Source\PSoC5/shiftregSender_PM.c ****     shiftregSender_SaveConfig();
 151              		.loc 1 110 0
 152 0022 FFF7FEFF 		bl	shiftregSender_SaveConfig
 111:Generated_Source\PSoC5/shiftregSender_PM.c **** }
 153              		.loc 1 111 0
 154 0026 00BF     		nop
 155 0028 80BD     		pop	{r7, pc}
 156              	.L9:
 157 002a 00BF     		.align	2
 158              	.L8:
 159 002c 77650040 		.word	1073767799
 160 0030 00000000 		.word	shiftregSender_backup
 161              		.cfi_endproc
 162              	.LFE2:
 163              		.size	shiftregSender_Sleep, .-shiftregSender_Sleep
 164              		.section	.text.shiftregSender_Wakeup,"ax",%progbits
 165              		.align	2
 166              		.global	shiftregSender_Wakeup
 167              		.thumb
 168              		.thumb_func
 169              		.type	shiftregSender_Wakeup, %function
 170              	shiftregSender_Wakeup:
 171              	.LFB3:
 112:Generated_Source\PSoC5/shiftregSender_PM.c **** 
 113:Generated_Source\PSoC5/shiftregSender_PM.c **** 
 114:Generated_Source\PSoC5/shiftregSender_PM.c **** /*******************************************************************************
ARM GAS  C:\Users\bryan.lee\AppData\Local\Temp\cc8I3m18.s 			page 6


 115:Generated_Source\PSoC5/shiftregSender_PM.c **** * Function Name: shiftregSender_Wakeup
 116:Generated_Source\PSoC5/shiftregSender_PM.c **** ********************************************************************************
 117:Generated_Source\PSoC5/shiftregSender_PM.c **** *
 118:Generated_Source\PSoC5/shiftregSender_PM.c **** * Summary:
 119:Generated_Source\PSoC5/shiftregSender_PM.c **** *  Restores and enables the user configuration.
 120:Generated_Source\PSoC5/shiftregSender_PM.c **** *
 121:Generated_Source\PSoC5/shiftregSender_PM.c **** * Parameters:
 122:Generated_Source\PSoC5/shiftregSender_PM.c **** *  None.
 123:Generated_Source\PSoC5/shiftregSender_PM.c **** *
 124:Generated_Source\PSoC5/shiftregSender_PM.c **** * Return:
 125:Generated_Source\PSoC5/shiftregSender_PM.c **** *  None.
 126:Generated_Source\PSoC5/shiftregSender_PM.c **** *
 127:Generated_Source\PSoC5/shiftregSender_PM.c **** *******************************************************************************/
 128:Generated_Source\PSoC5/shiftregSender_PM.c **** void shiftregSender_Wakeup(void) 
 129:Generated_Source\PSoC5/shiftregSender_PM.c **** {
 172              		.loc 1 129 0
 173              		.cfi_startproc
 174              		@ args = 0, pretend = 0, frame = 0
 175              		@ frame_needed = 1, uses_anonymous_args = 0
 176 0000 80B5     		push	{r7, lr}
 177              		.cfi_def_cfa_offset 8
 178              		.cfi_offset 7, -8
 179              		.cfi_offset 14, -4
 180 0002 00AF     		add	r7, sp, #0
 181              		.cfi_def_cfa_register 7
 130:Generated_Source\PSoC5/shiftregSender_PM.c ****     shiftregSender_RestoreConfig();
 182              		.loc 1 130 0
 183 0004 FFF7FEFF 		bl	shiftregSender_RestoreConfig
 131:Generated_Source\PSoC5/shiftregSender_PM.c **** 
 132:Generated_Source\PSoC5/shiftregSender_PM.c ****     if(0u != shiftregSender_backup.enableState)
 184              		.loc 1 132 0
 185 0008 034B     		ldr	r3, .L13
 186 000a 1B78     		ldrb	r3, [r3]	@ zero_extendqisi2
 187 000c 002B     		cmp	r3, #0
 188 000e 01D0     		beq	.L12
 133:Generated_Source\PSoC5/shiftregSender_PM.c ****     {
 134:Generated_Source\PSoC5/shiftregSender_PM.c ****         shiftregSender_Enable();
 189              		.loc 1 134 0
 190 0010 FFF7FEFF 		bl	shiftregSender_Enable
 191              	.L12:
 135:Generated_Source\PSoC5/shiftregSender_PM.c ****     }
 136:Generated_Source\PSoC5/shiftregSender_PM.c **** }
 192              		.loc 1 136 0
 193 0014 00BF     		nop
 194 0016 80BD     		pop	{r7, pc}
 195              	.L14:
 196              		.align	2
 197              	.L13:
 198 0018 00000000 		.word	shiftregSender_backup
 199              		.cfi_endproc
 200              	.LFE3:
 201              		.size	shiftregSender_Wakeup, .-shiftregSender_Wakeup
 202              		.text
 203              	.Letext0:
 204              		.file 2 "Generated_Source\\PSoC5\\cytypes.h"
 205              		.file 3 "Generated_Source\\PSoC5\\shiftregSender.h"