ARM GAS  C:\Users\bryan.lee\AppData\Local\Temp\ccyw6ZfD.s 			page 1


   1              		.syntax unified
   2              		.cpu cortex-m3
   3              		.fpu softvfp
   4              		.eabi_attribute 20, 1
   5              		.eabi_attribute 21, 1
   6              		.eabi_attribute 23, 3
   7              		.eabi_attribute 24, 1
   8              		.eabi_attribute 25, 1
   9              		.eabi_attribute 26, 1
  10              		.eabi_attribute 30, 6
  11              		.eabi_attribute 34, 1
  12              		.eabi_attribute 18, 4
  13              		.thumb
  14              		.syntax unified
  15              		.file	"shiftregSender.c"
  16              		.text
  17              	.Ltext0:
  18              		.cfi_sections	.debug_frame
  19              		.global	shiftregSender_initVar
  20              		.bss
  21              		.type	shiftregSender_initVar, %object
  22              		.size	shiftregSender_initVar, 1
  23              	shiftregSender_initVar:
  24 0000 00       		.space	1
  25              		.section	.text.shiftregSender_Start,"ax",%progbits
  26              		.align	2
  27              		.global	shiftregSender_Start
  28              		.thumb
  29              		.thumb_func
  30              		.type	shiftregSender_Start, %function
  31              	shiftregSender_Start:
  32              	.LFB0:
  33              		.file 1 "Generated_Source\\PSoC5\\shiftregSender.c"
   1:Generated_Source\PSoC5/shiftregSender.c **** /*******************************************************************************
   2:Generated_Source\PSoC5/shiftregSender.c **** * File Name: shiftregSender.c
   3:Generated_Source\PSoC5/shiftregSender.c **** * Version 2.30
   4:Generated_Source\PSoC5/shiftregSender.c **** *
   5:Generated_Source\PSoC5/shiftregSender.c **** * Description:
   6:Generated_Source\PSoC5/shiftregSender.c **** *  This file provides the API source code for the Shift Register component.
   7:Generated_Source\PSoC5/shiftregSender.c **** *
   8:Generated_Source\PSoC5/shiftregSender.c **** * Note: none
   9:Generated_Source\PSoC5/shiftregSender.c **** *
  10:Generated_Source\PSoC5/shiftregSender.c **** ********************************************************************************
  11:Generated_Source\PSoC5/shiftregSender.c **** * Copyright 2008-2013, Cypress Semiconductor Corporation.  All rights reserved.
  12:Generated_Source\PSoC5/shiftregSender.c **** * You may use this file only in accordance with the license, terms, conditions,
  13:Generated_Source\PSoC5/shiftregSender.c **** * disclaimers, and limitations in the end user license agreement accompanying
  14:Generated_Source\PSoC5/shiftregSender.c **** * the software package with which this file was provided.
  15:Generated_Source\PSoC5/shiftregSender.c **** ********************************************************************************/
  16:Generated_Source\PSoC5/shiftregSender.c **** 
  17:Generated_Source\PSoC5/shiftregSender.c **** #include "shiftregSender.h"
  18:Generated_Source\PSoC5/shiftregSender.c **** 
  19:Generated_Source\PSoC5/shiftregSender.c **** uint8 shiftregSender_initVar = 0u;
  20:Generated_Source\PSoC5/shiftregSender.c **** 
  21:Generated_Source\PSoC5/shiftregSender.c **** 
  22:Generated_Source\PSoC5/shiftregSender.c **** /*******************************************************************************
  23:Generated_Source\PSoC5/shiftregSender.c **** * Function Name: shiftregSender_Start
  24:Generated_Source\PSoC5/shiftregSender.c **** ********************************************************************************
ARM GAS  C:\Users\bryan.lee\AppData\Local\Temp\ccyw6ZfD.s 			page 2


  25:Generated_Source\PSoC5/shiftregSender.c **** *
  26:Generated_Source\PSoC5/shiftregSender.c **** * Summary:
  27:Generated_Source\PSoC5/shiftregSender.c **** *  Starts the Shift Register.
  28:Generated_Source\PSoC5/shiftregSender.c **** *
  29:Generated_Source\PSoC5/shiftregSender.c **** * Parameters:
  30:Generated_Source\PSoC5/shiftregSender.c **** *  None.
  31:Generated_Source\PSoC5/shiftregSender.c **** *
  32:Generated_Source\PSoC5/shiftregSender.c **** * Return:
  33:Generated_Source\PSoC5/shiftregSender.c **** *  None.
  34:Generated_Source\PSoC5/shiftregSender.c **** *
  35:Generated_Source\PSoC5/shiftregSender.c **** * Global Variables:
  36:Generated_Source\PSoC5/shiftregSender.c **** *  shiftregSender_initVar - used to check initial configuration, modified on
  37:Generated_Source\PSoC5/shiftregSender.c **** *  first function call.
  38:Generated_Source\PSoC5/shiftregSender.c **** *
  39:Generated_Source\PSoC5/shiftregSender.c **** * Reentrant:
  40:Generated_Source\PSoC5/shiftregSender.c **** *  No.
  41:Generated_Source\PSoC5/shiftregSender.c **** *
  42:Generated_Source\PSoC5/shiftregSender.c **** *******************************************************************************/
  43:Generated_Source\PSoC5/shiftregSender.c **** void shiftregSender_Start(void) 
  44:Generated_Source\PSoC5/shiftregSender.c **** {
  34              		.loc 1 44 0
  35              		.cfi_startproc
  36              		@ args = 0, pretend = 0, frame = 0
  37              		@ frame_needed = 1, uses_anonymous_args = 0
  38 0000 80B5     		push	{r7, lr}
  39              		.cfi_def_cfa_offset 8
  40              		.cfi_offset 7, -8
  41              		.cfi_offset 14, -4
  42 0002 00AF     		add	r7, sp, #0
  43              		.cfi_def_cfa_register 7
  45:Generated_Source\PSoC5/shiftregSender.c ****     if(0u == shiftregSender_initVar)
  44              		.loc 1 45 0
  45 0004 064B     		ldr	r3, .L3
  46 0006 1B78     		ldrb	r3, [r3]	@ zero_extendqisi2
  47 0008 002B     		cmp	r3, #0
  48 000a 04D1     		bne	.L2
  46:Generated_Source\PSoC5/shiftregSender.c ****     {
  47:Generated_Source\PSoC5/shiftregSender.c ****         shiftregSender_Init();
  49              		.loc 1 47 0
  50 000c FFF7FEFF 		bl	shiftregSender_Init
  48:Generated_Source\PSoC5/shiftregSender.c ****         shiftregSender_initVar = 1u; /* Component initialized */
  51              		.loc 1 48 0
  52 0010 034B     		ldr	r3, .L3
  53 0012 0122     		movs	r2, #1
  54 0014 1A70     		strb	r2, [r3]
  55              	.L2:
  49:Generated_Source\PSoC5/shiftregSender.c ****     }
  50:Generated_Source\PSoC5/shiftregSender.c **** 
  51:Generated_Source\PSoC5/shiftregSender.c ****     shiftregSender_Enable();
  56              		.loc 1 51 0
  57 0016 FFF7FEFF 		bl	shiftregSender_Enable
  52:Generated_Source\PSoC5/shiftregSender.c **** }
  58              		.loc 1 52 0
  59 001a 00BF     		nop
  60 001c 80BD     		pop	{r7, pc}
  61              	.L4:
  62 001e 00BF     		.align	2
ARM GAS  C:\Users\bryan.lee\AppData\Local\Temp\ccyw6ZfD.s 			page 3


  63              	.L3:
  64 0020 00000000 		.word	shiftregSender_initVar
  65              		.cfi_endproc
  66              	.LFE0:
  67              		.size	shiftregSender_Start, .-shiftregSender_Start
  68              		.section	.text.shiftregSender_Enable,"ax",%progbits
  69              		.align	2
  70              		.global	shiftregSender_Enable
  71              		.thumb
  72              		.thumb_func
  73              		.type	shiftregSender_Enable, %function
  74              	shiftregSender_Enable:
  75              	.LFB1:
  53:Generated_Source\PSoC5/shiftregSender.c **** 
  54:Generated_Source\PSoC5/shiftregSender.c **** 
  55:Generated_Source\PSoC5/shiftregSender.c **** /*******************************************************************************
  56:Generated_Source\PSoC5/shiftregSender.c **** * Function Name: shiftregSender_Enable
  57:Generated_Source\PSoC5/shiftregSender.c **** ********************************************************************************
  58:Generated_Source\PSoC5/shiftregSender.c **** *
  59:Generated_Source\PSoC5/shiftregSender.c **** * Summary:
  60:Generated_Source\PSoC5/shiftregSender.c **** *  Enables the Shift Register.
  61:Generated_Source\PSoC5/shiftregSender.c **** *
  62:Generated_Source\PSoC5/shiftregSender.c **** * Parameters:
  63:Generated_Source\PSoC5/shiftregSender.c **** *  void.
  64:Generated_Source\PSoC5/shiftregSender.c **** *
  65:Generated_Source\PSoC5/shiftregSender.c **** * Return:
  66:Generated_Source\PSoC5/shiftregSender.c **** *  void.
  67:Generated_Source\PSoC5/shiftregSender.c **** *
  68:Generated_Source\PSoC5/shiftregSender.c **** *******************************************************************************/
  69:Generated_Source\PSoC5/shiftregSender.c **** void shiftregSender_Enable(void) 
  70:Generated_Source\PSoC5/shiftregSender.c **** {
  76              		.loc 1 70 0
  77              		.cfi_startproc
  78              		@ args = 0, pretend = 0, frame = 0
  79              		@ frame_needed = 1, uses_anonymous_args = 0
  80 0000 80B5     		push	{r7, lr}
  81              		.cfi_def_cfa_offset 8
  82              		.cfi_offset 7, -8
  83              		.cfi_offset 14, -4
  84 0002 00AF     		add	r7, sp, #0
  85              		.cfi_def_cfa_register 7
  71:Generated_Source\PSoC5/shiftregSender.c ****     /* Changing address in Datapath Control Store
  72:Generated_Source\PSoC5/shiftregSender.c ****        from NOP to component state machine commands space */
  73:Generated_Source\PSoC5/shiftregSender.c ****     shiftregSender_SR_CONTROL |= shiftregSender_CLK_EN;
  86              		.loc 1 73 0
  87 0004 054A     		ldr	r2, .L6
  88 0006 054B     		ldr	r3, .L6
  89 0008 1B78     		ldrb	r3, [r3]
  90 000a DBB2     		uxtb	r3, r3
  91 000c 43F00103 		orr	r3, r3, #1
  92 0010 DBB2     		uxtb	r3, r3
  93 0012 1370     		strb	r3, [r2]
  74:Generated_Source\PSoC5/shiftregSender.c **** 
  75:Generated_Source\PSoC5/shiftregSender.c ****     shiftregSender_EnableInt();
  94              		.loc 1 75 0
  95 0014 FFF7FEFF 		bl	shiftregSender_EnableInt
  76:Generated_Source\PSoC5/shiftregSender.c **** }
ARM GAS  C:\Users\bryan.lee\AppData\Local\Temp\ccyw6ZfD.s 			page 4


  96              		.loc 1 76 0
  97 0018 00BF     		nop
  98 001a 80BD     		pop	{r7, pc}
  99              	.L7:
 100              		.align	2
 101              	.L6:
 102 001c 77650040 		.word	1073767799
 103              		.cfi_endproc
 104              	.LFE1:
 105              		.size	shiftregSender_Enable, .-shiftregSender_Enable
 106              		.section	.text.shiftregSender_Init,"ax",%progbits
 107              		.align	2
 108              		.global	shiftregSender_Init
 109              		.thumb
 110              		.thumb_func
 111              		.type	shiftregSender_Init, %function
 112              	shiftregSender_Init:
 113              	.LFB2:
  77:Generated_Source\PSoC5/shiftregSender.c **** 
  78:Generated_Source\PSoC5/shiftregSender.c **** 
  79:Generated_Source\PSoC5/shiftregSender.c **** /*******************************************************************************
  80:Generated_Source\PSoC5/shiftregSender.c **** * Function Name: shiftregSender_Init
  81:Generated_Source\PSoC5/shiftregSender.c **** ********************************************************************************
  82:Generated_Source\PSoC5/shiftregSender.c **** *
  83:Generated_Source\PSoC5/shiftregSender.c **** * Summary:
  84:Generated_Source\PSoC5/shiftregSender.c **** *  Initializes Tx and/or Rx interrupt sources with initial values.
  85:Generated_Source\PSoC5/shiftregSender.c **** *
  86:Generated_Source\PSoC5/shiftregSender.c **** * Parameters:
  87:Generated_Source\PSoC5/shiftregSender.c **** *  void.
  88:Generated_Source\PSoC5/shiftregSender.c **** *
  89:Generated_Source\PSoC5/shiftregSender.c **** * Return:
  90:Generated_Source\PSoC5/shiftregSender.c **** *  void.
  91:Generated_Source\PSoC5/shiftregSender.c **** *
  92:Generated_Source\PSoC5/shiftregSender.c **** *******************************************************************************/
  93:Generated_Source\PSoC5/shiftregSender.c **** void shiftregSender_Init(void) 
  94:Generated_Source\PSoC5/shiftregSender.c **** {
 114              		.loc 1 94 0
 115              		.cfi_startproc
 116              		@ args = 0, pretend = 0, frame = 0
 117              		@ frame_needed = 1, uses_anonymous_args = 0
 118 0000 80B5     		push	{r7, lr}
 119              		.cfi_def_cfa_offset 8
 120              		.cfi_offset 7, -8
 121              		.cfi_offset 14, -4
 122 0002 00AF     		add	r7, sp, #0
 123              		.cfi_def_cfa_register 7
  95:Generated_Source\PSoC5/shiftregSender.c ****     shiftregSender_SetIntMode(shiftregSender_INT_SRC);
 124              		.loc 1 95 0
 125 0004 0120     		movs	r0, #1
 126 0006 FFF7FEFF 		bl	shiftregSender_SetIntMode
  96:Generated_Source\PSoC5/shiftregSender.c **** }
 127              		.loc 1 96 0
 128 000a 00BF     		nop
 129 000c 80BD     		pop	{r7, pc}
 130              		.cfi_endproc
 131              	.LFE2:
 132              		.size	shiftregSender_Init, .-shiftregSender_Init
ARM GAS  C:\Users\bryan.lee\AppData\Local\Temp\ccyw6ZfD.s 			page 5


 133 000e 00BF     		.section	.text.shiftregSender_Stop,"ax",%progbits
 134              		.align	2
 135              		.global	shiftregSender_Stop
 136              		.thumb
 137              		.thumb_func
 138              		.type	shiftregSender_Stop, %function
 139              	shiftregSender_Stop:
 140              	.LFB3:
  97:Generated_Source\PSoC5/shiftregSender.c **** 
  98:Generated_Source\PSoC5/shiftregSender.c **** 
  99:Generated_Source\PSoC5/shiftregSender.c **** /*******************************************************************************
 100:Generated_Source\PSoC5/shiftregSender.c **** * Function Name: shiftregSender_Stop
 101:Generated_Source\PSoC5/shiftregSender.c **** ********************************************************************************
 102:Generated_Source\PSoC5/shiftregSender.c **** *
 103:Generated_Source\PSoC5/shiftregSender.c **** * Summary:
 104:Generated_Source\PSoC5/shiftregSender.c **** *  Disables the Shift Register
 105:Generated_Source\PSoC5/shiftregSender.c **** *
 106:Generated_Source\PSoC5/shiftregSender.c **** * Parameters:
 107:Generated_Source\PSoC5/shiftregSender.c **** *  None.
 108:Generated_Source\PSoC5/shiftregSender.c **** *
 109:Generated_Source\PSoC5/shiftregSender.c **** * Return:
 110:Generated_Source\PSoC5/shiftregSender.c **** *  None.
 111:Generated_Source\PSoC5/shiftregSender.c **** *
 112:Generated_Source\PSoC5/shiftregSender.c **** *******************************************************************************/
 113:Generated_Source\PSoC5/shiftregSender.c **** void shiftregSender_Stop(void) 
 114:Generated_Source\PSoC5/shiftregSender.c **** {
 141              		.loc 1 114 0
 142              		.cfi_startproc
 143              		@ args = 0, pretend = 0, frame = 0
 144              		@ frame_needed = 1, uses_anonymous_args = 0
 145 0000 80B5     		push	{r7, lr}
 146              		.cfi_def_cfa_offset 8
 147              		.cfi_offset 7, -8
 148              		.cfi_offset 14, -4
 149 0002 00AF     		add	r7, sp, #0
 150              		.cfi_def_cfa_register 7
 115:Generated_Source\PSoC5/shiftregSender.c ****     /*changing Datapath Control Store address to NOP space*/
 116:Generated_Source\PSoC5/shiftregSender.c ****     shiftregSender_SR_CONTROL &= ((uint8) ~shiftregSender_CLK_EN);
 151              		.loc 1 116 0
 152 0004 054A     		ldr	r2, .L10
 153 0006 054B     		ldr	r3, .L10
 154 0008 1B78     		ldrb	r3, [r3]
 155 000a DBB2     		uxtb	r3, r3
 156 000c 23F00103 		bic	r3, r3, #1
 157 0010 DBB2     		uxtb	r3, r3
 158 0012 1370     		strb	r3, [r2]
 117:Generated_Source\PSoC5/shiftregSender.c ****     shiftregSender_DisableInt();
 159              		.loc 1 117 0
 160 0014 FFF7FEFF 		bl	shiftregSender_DisableInt
 118:Generated_Source\PSoC5/shiftregSender.c **** }
 161              		.loc 1 118 0
 162 0018 00BF     		nop
 163 001a 80BD     		pop	{r7, pc}
 164              	.L11:
 165              		.align	2
 166              	.L10:
 167 001c 77650040 		.word	1073767799
ARM GAS  C:\Users\bryan.lee\AppData\Local\Temp\ccyw6ZfD.s 			page 6


 168              		.cfi_endproc
 169              	.LFE3:
 170              		.size	shiftregSender_Stop, .-shiftregSender_Stop
 171              		.section	.text.shiftregSender_EnableInt,"ax",%progbits
 172              		.align	2
 173              		.global	shiftregSender_EnableInt
 174              		.thumb
 175              		.thumb_func
 176              		.type	shiftregSender_EnableInt, %function
 177              	shiftregSender_EnableInt:
 178              	.LFB4:
 119:Generated_Source\PSoC5/shiftregSender.c **** 
 120:Generated_Source\PSoC5/shiftregSender.c **** 
 121:Generated_Source\PSoC5/shiftregSender.c **** /*******************************************************************************
 122:Generated_Source\PSoC5/shiftregSender.c **** * Function Name: shiftregSender_EnableInt
 123:Generated_Source\PSoC5/shiftregSender.c **** ********************************************************************************
 124:Generated_Source\PSoC5/shiftregSender.c **** *
 125:Generated_Source\PSoC5/shiftregSender.c **** * Summary:
 126:Generated_Source\PSoC5/shiftregSender.c **** *  Enables the Shift Register interrupt.
 127:Generated_Source\PSoC5/shiftregSender.c **** *
 128:Generated_Source\PSoC5/shiftregSender.c **** * Parameters:
 129:Generated_Source\PSoC5/shiftregSender.c **** *  None.
 130:Generated_Source\PSoC5/shiftregSender.c **** *
 131:Generated_Source\PSoC5/shiftregSender.c **** * Return:
 132:Generated_Source\PSoC5/shiftregSender.c **** *  None.
 133:Generated_Source\PSoC5/shiftregSender.c **** *
 134:Generated_Source\PSoC5/shiftregSender.c **** *******************************************************************************/
 135:Generated_Source\PSoC5/shiftregSender.c **** void shiftregSender_EnableInt(void) 
 136:Generated_Source\PSoC5/shiftregSender.c **** {
 179              		.loc 1 136 0
 180              		.cfi_startproc
 181              		@ args = 0, pretend = 0, frame = 8
 182              		@ frame_needed = 1, uses_anonymous_args = 0
 183 0000 80B5     		push	{r7, lr}
 184              		.cfi_def_cfa_offset 8
 185              		.cfi_offset 7, -8
 186              		.cfi_offset 14, -4
 187 0002 82B0     		sub	sp, sp, #8
 188              		.cfi_def_cfa_offset 16
 189 0004 00AF     		add	r7, sp, #0
 190              		.cfi_def_cfa_register 7
 137:Generated_Source\PSoC5/shiftregSender.c ****     uint8 interruptState;
 138:Generated_Source\PSoC5/shiftregSender.c **** 
 139:Generated_Source\PSoC5/shiftregSender.c ****     interruptState = CyEnterCriticalSection();
 191              		.loc 1 139 0
 192 0006 FFF7FEFF 		bl	CyEnterCriticalSection
 193 000a 0346     		mov	r3, r0
 194 000c FB71     		strb	r3, [r7, #7]
 140:Generated_Source\PSoC5/shiftregSender.c ****     shiftregSender_SR_AUX_CONTROL |= shiftregSender_INTERRUPTS_ENABLE;
 195              		.loc 1 140 0
 196 000e 084A     		ldr	r2, .L13
 197 0010 074B     		ldr	r3, .L13
 198 0012 1B78     		ldrb	r3, [r3]
 199 0014 DBB2     		uxtb	r3, r3
 200 0016 43F01003 		orr	r3, r3, #16
 201 001a DBB2     		uxtb	r3, r3
 202 001c 1370     		strb	r3, [r2]
ARM GAS  C:\Users\bryan.lee\AppData\Local\Temp\ccyw6ZfD.s 			page 7


 141:Generated_Source\PSoC5/shiftregSender.c ****     CyExitCriticalSection(interruptState);
 203              		.loc 1 141 0
 204 001e FB79     		ldrb	r3, [r7, #7]	@ zero_extendqisi2
 205 0020 1846     		mov	r0, r3
 206 0022 FFF7FEFF 		bl	CyExitCriticalSection
 142:Generated_Source\PSoC5/shiftregSender.c **** }
 207              		.loc 1 142 0
 208 0026 00BF     		nop
 209 0028 0837     		adds	r7, r7, #8
 210              		.cfi_def_cfa_offset 8
 211 002a BD46     		mov	sp, r7
 212              		.cfi_def_cfa_register 13
 213              		@ sp needed
 214 002c 80BD     		pop	{r7, pc}
 215              	.L14:
 216 002e 00BF     		.align	2
 217              	.L13:
 218 0030 97650040 		.word	1073767831
 219              		.cfi_endproc
 220              	.LFE4:
 221              		.size	shiftregSender_EnableInt, .-shiftregSender_EnableInt
 222              		.section	.text.shiftregSender_DisableInt,"ax",%progbits
 223              		.align	2
 224              		.global	shiftregSender_DisableInt
 225              		.thumb
 226              		.thumb_func
 227              		.type	shiftregSender_DisableInt, %function
 228              	shiftregSender_DisableInt:
 229              	.LFB5:
 143:Generated_Source\PSoC5/shiftregSender.c **** 
 144:Generated_Source\PSoC5/shiftregSender.c **** 
 145:Generated_Source\PSoC5/shiftregSender.c **** /*******************************************************************************
 146:Generated_Source\PSoC5/shiftregSender.c **** * Function Name: shiftregSender_DisableInt
 147:Generated_Source\PSoC5/shiftregSender.c **** ********************************************************************************
 148:Generated_Source\PSoC5/shiftregSender.c **** *
 149:Generated_Source\PSoC5/shiftregSender.c **** * Summary:
 150:Generated_Source\PSoC5/shiftregSender.c **** *  Disables the Shift Register interrupt.
 151:Generated_Source\PSoC5/shiftregSender.c **** *
 152:Generated_Source\PSoC5/shiftregSender.c **** * Parameters:
 153:Generated_Source\PSoC5/shiftregSender.c **** *  None.
 154:Generated_Source\PSoC5/shiftregSender.c **** *
 155:Generated_Source\PSoC5/shiftregSender.c **** * Return:
 156:Generated_Source\PSoC5/shiftregSender.c **** *  None.
 157:Generated_Source\PSoC5/shiftregSender.c **** *
 158:Generated_Source\PSoC5/shiftregSender.c **** *******************************************************************************/
 159:Generated_Source\PSoC5/shiftregSender.c **** void shiftregSender_DisableInt(void) 
 160:Generated_Source\PSoC5/shiftregSender.c **** {
 230              		.loc 1 160 0
 231              		.cfi_startproc
 232              		@ args = 0, pretend = 0, frame = 8
 233              		@ frame_needed = 1, uses_anonymous_args = 0
 234 0000 80B5     		push	{r7, lr}
 235              		.cfi_def_cfa_offset 8
 236              		.cfi_offset 7, -8
 237              		.cfi_offset 14, -4
 238 0002 82B0     		sub	sp, sp, #8
 239              		.cfi_def_cfa_offset 16
ARM GAS  C:\Users\bryan.lee\AppData\Local\Temp\ccyw6ZfD.s 			page 8


 240 0004 00AF     		add	r7, sp, #0
 241              		.cfi_def_cfa_register 7
 161:Generated_Source\PSoC5/shiftregSender.c ****     uint8 interruptState;
 162:Generated_Source\PSoC5/shiftregSender.c **** 
 163:Generated_Source\PSoC5/shiftregSender.c ****     interruptState = CyEnterCriticalSection();
 242              		.loc 1 163 0
 243 0006 FFF7FEFF 		bl	CyEnterCriticalSection
 244 000a 0346     		mov	r3, r0
 245 000c FB71     		strb	r3, [r7, #7]
 164:Generated_Source\PSoC5/shiftregSender.c ****     shiftregSender_SR_AUX_CONTROL &= ((uint8) ~shiftregSender_INTERRUPTS_ENABLE);
 246              		.loc 1 164 0
 247 000e 084A     		ldr	r2, .L16
 248 0010 074B     		ldr	r3, .L16
 249 0012 1B78     		ldrb	r3, [r3]
 250 0014 DBB2     		uxtb	r3, r3
 251 0016 23F01003 		bic	r3, r3, #16
 252 001a DBB2     		uxtb	r3, r3
 253 001c 1370     		strb	r3, [r2]
 165:Generated_Source\PSoC5/shiftregSender.c ****     CyExitCriticalSection(interruptState);
 254              		.loc 1 165 0
 255 001e FB79     		ldrb	r3, [r7, #7]	@ zero_extendqisi2
 256 0020 1846     		mov	r0, r3
 257 0022 FFF7FEFF 		bl	CyExitCriticalSection
 166:Generated_Source\PSoC5/shiftregSender.c **** }
 258              		.loc 1 166 0
 259 0026 00BF     		nop
 260 0028 0837     		adds	r7, r7, #8
 261              		.cfi_def_cfa_offset 8
 262 002a BD46     		mov	sp, r7
 263              		.cfi_def_cfa_register 13
 264              		@ sp needed
 265 002c 80BD     		pop	{r7, pc}
 266              	.L17:
 267 002e 00BF     		.align	2
 268              	.L16:
 269 0030 97650040 		.word	1073767831
 270              		.cfi_endproc
 271              	.LFE5:
 272              		.size	shiftregSender_DisableInt, .-shiftregSender_DisableInt
 273              		.section	.text.shiftregSender_GetFIFOStatus,"ax",%progbits
 274              		.align	2
 275              		.global	shiftregSender_GetFIFOStatus
 276              		.thumb
 277              		.thumb_func
 278              		.type	shiftregSender_GetFIFOStatus, %function
 279              	shiftregSender_GetFIFOStatus:
 280              	.LFB6:
 167:Generated_Source\PSoC5/shiftregSender.c **** 
 168:Generated_Source\PSoC5/shiftregSender.c **** 
 169:Generated_Source\PSoC5/shiftregSender.c **** /*******************************************************************************
 170:Generated_Source\PSoC5/shiftregSender.c **** * Function Name: shiftregSender_GetFIFOStatus
 171:Generated_Source\PSoC5/shiftregSender.c **** ********************************************************************************
 172:Generated_Source\PSoC5/shiftregSender.c **** *
 173:Generated_Source\PSoC5/shiftregSender.c **** * Summary:
 174:Generated_Source\PSoC5/shiftregSender.c **** *  Returns current status of input or output FIFO.
 175:Generated_Source\PSoC5/shiftregSender.c **** *
 176:Generated_Source\PSoC5/shiftregSender.c **** * Parameters:
ARM GAS  C:\Users\bryan.lee\AppData\Local\Temp\ccyw6ZfD.s 			page 9


 177:Generated_Source\PSoC5/shiftregSender.c **** *  fifoId.
 178:Generated_Source\PSoC5/shiftregSender.c **** *
 179:Generated_Source\PSoC5/shiftregSender.c **** * Return:
 180:Generated_Source\PSoC5/shiftregSender.c **** *  FIFO status.
 181:Generated_Source\PSoC5/shiftregSender.c **** *
 182:Generated_Source\PSoC5/shiftregSender.c **** *******************************************************************************/
 183:Generated_Source\PSoC5/shiftregSender.c **** uint8 shiftregSender_GetFIFOStatus(uint8 fifoId) 
 184:Generated_Source\PSoC5/shiftregSender.c **** {
 281              		.loc 1 184 0
 282              		.cfi_startproc
 283              		@ args = 0, pretend = 0, frame = 16
 284              		@ frame_needed = 1, uses_anonymous_args = 0
 285              		@ link register save eliminated.
 286 0000 80B4     		push	{r7}
 287              		.cfi_def_cfa_offset 4
 288              		.cfi_offset 7, -4
 289 0002 85B0     		sub	sp, sp, #20
 290              		.cfi_def_cfa_offset 24
 291 0004 00AF     		add	r7, sp, #0
 292              		.cfi_def_cfa_register 7
 293 0006 0346     		mov	r3, r0
 294 0008 FB71     		strb	r3, [r7, #7]
 185:Generated_Source\PSoC5/shiftregSender.c ****     uint8 result;
 186:Generated_Source\PSoC5/shiftregSender.c **** 
 187:Generated_Source\PSoC5/shiftregSender.c ****     result = shiftregSender_RET_FIFO_NOT_DEFINED;
 295              		.loc 1 187 0
 296 000a FE23     		movs	r3, #254
 297 000c FB73     		strb	r3, [r7, #15]
 188:Generated_Source\PSoC5/shiftregSender.c **** 
 189:Generated_Source\PSoC5/shiftregSender.c ****     #if(0u != shiftregSender_USE_INPUT_FIFO)
 190:Generated_Source\PSoC5/shiftregSender.c ****         if(shiftregSender_IN_FIFO == fifoId)
 298              		.loc 1 190 0
 299 000e FB79     		ldrb	r3, [r7, #7]	@ zero_extendqisi2
 300 0010 012B     		cmp	r3, #1
 301 0012 18D1     		bne	.L19
 191:Generated_Source\PSoC5/shiftregSender.c ****         {
 192:Generated_Source\PSoC5/shiftregSender.c ****             switch(shiftregSender_GET_IN_FIFO_STS)
 302              		.loc 1 192 0
 303 0014 1D4B     		ldr	r3, .L32
 304 0016 1B78     		ldrb	r3, [r3]
 305 0018 DBB2     		uxtb	r3, r3
 306 001a 03F01803 		and	r3, r3, #24
 307 001e DB08     		lsrs	r3, r3, #3
 308 0020 012B     		cmp	r3, #1
 309 0022 07D0     		beq	.L21
 310 0024 012B     		cmp	r3, #1
 311 0026 02D3     		bcc	.L22
 312 0028 022B     		cmp	r3, #2
 313 002a 06D0     		beq	.L23
 314 002c 08E0     		b	.L30
 315              	.L22:
 193:Generated_Source\PSoC5/shiftregSender.c ****             {
 194:Generated_Source\PSoC5/shiftregSender.c ****                 case shiftregSender_IN_FIFO_FULL :
 195:Generated_Source\PSoC5/shiftregSender.c ****                     result = shiftregSender_RET_FIFO_FULL;
 316              		.loc 1 195 0
 317 002e 0023     		movs	r3, #0
 318 0030 FB73     		strb	r3, [r7, #15]
ARM GAS  C:\Users\bryan.lee\AppData\Local\Temp\ccyw6ZfD.s 			page 10


 196:Generated_Source\PSoC5/shiftregSender.c ****                     break;
 319              		.loc 1 196 0
 320 0032 08E0     		b	.L19
 321              	.L21:
 197:Generated_Source\PSoC5/shiftregSender.c **** 
 198:Generated_Source\PSoC5/shiftregSender.c ****                 case shiftregSender_IN_FIFO_EMPTY :
 199:Generated_Source\PSoC5/shiftregSender.c ****                     result = shiftregSender_RET_FIFO_EMPTY;
 322              		.loc 1 199 0
 323 0034 0223     		movs	r3, #2
 324 0036 FB73     		strb	r3, [r7, #15]
 200:Generated_Source\PSoC5/shiftregSender.c ****                     break;
 325              		.loc 1 200 0
 326 0038 05E0     		b	.L19
 327              	.L23:
 201:Generated_Source\PSoC5/shiftregSender.c **** 
 202:Generated_Source\PSoC5/shiftregSender.c ****                 case shiftregSender_IN_FIFO_PARTIAL:
 203:Generated_Source\PSoC5/shiftregSender.c ****                     result = shiftregSender_RET_FIFO_PARTIAL;
 328              		.loc 1 203 0
 329 003a 0123     		movs	r3, #1
 330 003c FB73     		strb	r3, [r7, #15]
 204:Generated_Source\PSoC5/shiftregSender.c ****                     break;
 331              		.loc 1 204 0
 332 003e 02E0     		b	.L19
 333              	.L30:
 205:Generated_Source\PSoC5/shiftregSender.c ****                     
 206:Generated_Source\PSoC5/shiftregSender.c ****                 default:
 207:Generated_Source\PSoC5/shiftregSender.c ****                     /* Initial result value, while 
 208:Generated_Source\PSoC5/shiftregSender.c ****                        IN_FIFO_EMPTY case is false 
 209:Generated_Source\PSoC5/shiftregSender.c ****                      */
 210:Generated_Source\PSoC5/shiftregSender.c ****                     result = shiftregSender_RET_FIFO_EMPTY;
 334              		.loc 1 210 0
 335 0040 0223     		movs	r3, #2
 336 0042 FB73     		strb	r3, [r7, #15]
 211:Generated_Source\PSoC5/shiftregSender.c ****                     break;
 337              		.loc 1 211 0
 338 0044 00BF     		nop
 339              	.L19:
 212:Generated_Source\PSoC5/shiftregSender.c ****             }   
 213:Generated_Source\PSoC5/shiftregSender.c ****         }
 214:Generated_Source\PSoC5/shiftregSender.c ****     #endif /* (0u != shiftregSender_USE_INPUT_FIFO) */
 215:Generated_Source\PSoC5/shiftregSender.c **** 
 216:Generated_Source\PSoC5/shiftregSender.c ****     if(shiftregSender_OUT_FIFO == fifoId)
 340              		.loc 1 216 0
 341 0046 FB79     		ldrb	r3, [r7, #7]	@ zero_extendqisi2
 342 0048 022B     		cmp	r3, #2
 343 004a 18D1     		bne	.L24
 217:Generated_Source\PSoC5/shiftregSender.c ****     {
 218:Generated_Source\PSoC5/shiftregSender.c ****         switch(shiftregSender_GET_OUT_FIFO_STS)
 344              		.loc 1 218 0
 345 004c 0F4B     		ldr	r3, .L32
 346 004e 1B78     		ldrb	r3, [r3]
 347 0050 DBB2     		uxtb	r3, r3
 348 0052 03F06003 		and	r3, r3, #96
 349 0056 5B09     		lsrs	r3, r3, #5
 350 0058 012B     		cmp	r3, #1
 351 005a 04D0     		beq	.L26
 352 005c 012B     		cmp	r3, #1
ARM GAS  C:\Users\bryan.lee\AppData\Local\Temp\ccyw6ZfD.s 			page 11


 353 005e 05D3     		bcc	.L27
 354 0060 022B     		cmp	r3, #2
 355 0062 06D0     		beq	.L28
 356 0064 08E0     		b	.L31
 357              	.L26:
 219:Generated_Source\PSoC5/shiftregSender.c ****         {
 220:Generated_Source\PSoC5/shiftregSender.c ****             case shiftregSender_OUT_FIFO_FULL :
 221:Generated_Source\PSoC5/shiftregSender.c ****                 result = shiftregSender_RET_FIFO_FULL;
 358              		.loc 1 221 0
 359 0066 0023     		movs	r3, #0
 360 0068 FB73     		strb	r3, [r7, #15]
 222:Generated_Source\PSoC5/shiftregSender.c ****                 break;
 361              		.loc 1 222 0
 362 006a 08E0     		b	.L24
 363              	.L27:
 223:Generated_Source\PSoC5/shiftregSender.c **** 
 224:Generated_Source\PSoC5/shiftregSender.c ****             case shiftregSender_OUT_FIFO_EMPTY :
 225:Generated_Source\PSoC5/shiftregSender.c ****                 result = shiftregSender_RET_FIFO_EMPTY;
 364              		.loc 1 225 0
 365 006c 0223     		movs	r3, #2
 366 006e FB73     		strb	r3, [r7, #15]
 226:Generated_Source\PSoC5/shiftregSender.c ****                 break;
 367              		.loc 1 226 0
 368 0070 05E0     		b	.L24
 369              	.L28:
 227:Generated_Source\PSoC5/shiftregSender.c **** 
 228:Generated_Source\PSoC5/shiftregSender.c ****             case shiftregSender_OUT_FIFO_PARTIAL :
 229:Generated_Source\PSoC5/shiftregSender.c ****                 result = shiftregSender_RET_FIFO_PARTIAL;
 370              		.loc 1 229 0
 371 0072 0123     		movs	r3, #1
 372 0074 FB73     		strb	r3, [r7, #15]
 230:Generated_Source\PSoC5/shiftregSender.c ****                 break;
 373              		.loc 1 230 0
 374 0076 02E0     		b	.L24
 375              	.L31:
 231:Generated_Source\PSoC5/shiftregSender.c **** 
 232:Generated_Source\PSoC5/shiftregSender.c ****             default:
 233:Generated_Source\PSoC5/shiftregSender.c ****                 /* Initial result value, while 
 234:Generated_Source\PSoC5/shiftregSender.c ****                    OUT_FIFO_FULL case is false 
 235:Generated_Source\PSoC5/shiftregSender.c ****                  */
 236:Generated_Source\PSoC5/shiftregSender.c ****                 result = shiftregSender_RET_FIFO_FULL;
 376              		.loc 1 236 0
 377 0078 0023     		movs	r3, #0
 378 007a FB73     		strb	r3, [r7, #15]
 237:Generated_Source\PSoC5/shiftregSender.c ****                 break;
 379              		.loc 1 237 0
 380 007c 00BF     		nop
 381              	.L24:
 238:Generated_Source\PSoC5/shiftregSender.c ****         }
 239:Generated_Source\PSoC5/shiftregSender.c ****     }
 240:Generated_Source\PSoC5/shiftregSender.c **** 
 241:Generated_Source\PSoC5/shiftregSender.c ****     return(result);
 382              		.loc 1 241 0
 383 007e FB7B     		ldrb	r3, [r7, #15]	@ zero_extendqisi2
 242:Generated_Source\PSoC5/shiftregSender.c **** }
 384              		.loc 1 242 0
 385 0080 1846     		mov	r0, r3
ARM GAS  C:\Users\bryan.lee\AppData\Local\Temp\ccyw6ZfD.s 			page 12


 386 0082 1437     		adds	r7, r7, #20
 387              		.cfi_def_cfa_offset 4
 388 0084 BD46     		mov	sp, r7
 389              		.cfi_def_cfa_register 13
 390              		@ sp needed
 391 0086 80BC     		pop	{r7}
 392              		.cfi_restore 7
 393              		.cfi_def_cfa_offset 0
 394 0088 7047     		bx	lr
 395              	.L33:
 396 008a 00BF     		.align	2
 397              	.L32:
 398 008c 67650040 		.word	1073767783
 399              		.cfi_endproc
 400              	.LFE6:
 401              		.size	shiftregSender_GetFIFOStatus, .-shiftregSender_GetFIFOStatus
 402              		.section	.text.shiftregSender_SetIntMode,"ax",%progbits
 403              		.align	2
 404              		.global	shiftregSender_SetIntMode
 405              		.thumb
 406              		.thumb_func
 407              		.type	shiftregSender_SetIntMode, %function
 408              	shiftregSender_SetIntMode:
 409              	.LFB7:
 243:Generated_Source\PSoC5/shiftregSender.c **** 
 244:Generated_Source\PSoC5/shiftregSender.c **** 
 245:Generated_Source\PSoC5/shiftregSender.c **** /*******************************************************************************
 246:Generated_Source\PSoC5/shiftregSender.c **** * Function Name: shiftregSender_SetIntMode
 247:Generated_Source\PSoC5/shiftregSender.c **** ********************************************************************************
 248:Generated_Source\PSoC5/shiftregSender.c **** *
 249:Generated_Source\PSoC5/shiftregSender.c **** * Summary:
 250:Generated_Source\PSoC5/shiftregSender.c **** *  Sets the Interrupt Source for the Shift Register interrupt. Multiple
 251:Generated_Source\PSoC5/shiftregSender.c **** *  sources may be ORed together
 252:Generated_Source\PSoC5/shiftregSender.c **** *
 253:Generated_Source\PSoC5/shiftregSender.c **** * Parameters:
 254:Generated_Source\PSoC5/shiftregSender.c **** *  interruptSource: Byte containing the constant for the selected interrupt
 255:Generated_Source\PSoC5/shiftregSender.c **** *  source/s.
 256:Generated_Source\PSoC5/shiftregSender.c **** *
 257:Generated_Source\PSoC5/shiftregSender.c **** * Return:
 258:Generated_Source\PSoC5/shiftregSender.c **** *  None.
 259:Generated_Source\PSoC5/shiftregSender.c **** *
 260:Generated_Source\PSoC5/shiftregSender.c **** *******************************************************************************/
 261:Generated_Source\PSoC5/shiftregSender.c **** void shiftregSender_SetIntMode(uint8 interruptSource) 
 262:Generated_Source\PSoC5/shiftregSender.c **** {
 410              		.loc 1 262 0
 411              		.cfi_startproc
 412              		@ args = 0, pretend = 0, frame = 8
 413              		@ frame_needed = 1, uses_anonymous_args = 0
 414              		@ link register save eliminated.
 415 0000 80B4     		push	{r7}
 416              		.cfi_def_cfa_offset 4
 417              		.cfi_offset 7, -4
 418 0002 83B0     		sub	sp, sp, #12
 419              		.cfi_def_cfa_offset 16
 420 0004 00AF     		add	r7, sp, #0
 421              		.cfi_def_cfa_register 7
 422 0006 0346     		mov	r3, r0
ARM GAS  C:\Users\bryan.lee\AppData\Local\Temp\ccyw6ZfD.s 			page 13


 423 0008 FB71     		strb	r3, [r7, #7]
 263:Generated_Source\PSoC5/shiftregSender.c ****     shiftregSender_SR_STATUS_MASK &= ((uint8) ~shiftregSender_INTS_EN_MASK);          /* Clear exis
 424              		.loc 1 263 0
 425 000a 0C4A     		ldr	r2, .L35
 426 000c 0B4B     		ldr	r3, .L35
 427 000e 1B78     		ldrb	r3, [r3]
 428 0010 DBB2     		uxtb	r3, r3
 429 0012 23F00703 		bic	r3, r3, #7
 430 0016 DBB2     		uxtb	r3, r3
 431 0018 1370     		strb	r3, [r2]
 264:Generated_Source\PSoC5/shiftregSender.c ****     shiftregSender_SR_STATUS_MASK |= (interruptSource & shiftregSender_INTS_EN_MASK); /* Set int */
 432              		.loc 1 264 0
 433 001a 0849     		ldr	r1, .L35
 434 001c 074B     		ldr	r3, .L35
 435 001e 1B78     		ldrb	r3, [r3]
 436 0020 DAB2     		uxtb	r2, r3
 437 0022 FB79     		ldrb	r3, [r7, #7]
 438 0024 03F00703 		and	r3, r3, #7
 439 0028 DBB2     		uxtb	r3, r3
 440 002a 1343     		orrs	r3, r3, r2
 441 002c DBB2     		uxtb	r3, r3
 442 002e 0B70     		strb	r3, [r1]
 265:Generated_Source\PSoC5/shiftregSender.c **** }
 443              		.loc 1 265 0
 444 0030 00BF     		nop
 445 0032 0C37     		adds	r7, r7, #12
 446              		.cfi_def_cfa_offset 4
 447 0034 BD46     		mov	sp, r7
 448              		.cfi_def_cfa_register 13
 449              		@ sp needed
 450 0036 80BC     		pop	{r7}
 451              		.cfi_restore 7
 452              		.cfi_def_cfa_offset 0
 453 0038 7047     		bx	lr
 454              	.L36:
 455 003a 00BF     		.align	2
 456              	.L35:
 457 003c 87650040 		.word	1073767815
 458              		.cfi_endproc
 459              	.LFE7:
 460              		.size	shiftregSender_SetIntMode, .-shiftregSender_SetIntMode
 461              		.section	.text.shiftregSender_GetIntStatus,"ax",%progbits
 462              		.align	2
 463              		.global	shiftregSender_GetIntStatus
 464              		.thumb
 465              		.thumb_func
 466              		.type	shiftregSender_GetIntStatus, %function
 467              	shiftregSender_GetIntStatus:
 468              	.LFB8:
 266:Generated_Source\PSoC5/shiftregSender.c **** 
 267:Generated_Source\PSoC5/shiftregSender.c **** 
 268:Generated_Source\PSoC5/shiftregSender.c **** /*******************************************************************************
 269:Generated_Source\PSoC5/shiftregSender.c **** * Function Name: shiftregSender_GetIntStatus
 270:Generated_Source\PSoC5/shiftregSender.c **** ********************************************************************************
 271:Generated_Source\PSoC5/shiftregSender.c **** *
 272:Generated_Source\PSoC5/shiftregSender.c **** * Summary:
 273:Generated_Source\PSoC5/shiftregSender.c **** *  Gets the Shift Register Interrupt status.
ARM GAS  C:\Users\bryan.lee\AppData\Local\Temp\ccyw6ZfD.s 			page 14


 274:Generated_Source\PSoC5/shiftregSender.c **** *
 275:Generated_Source\PSoC5/shiftregSender.c **** * Parameters:
 276:Generated_Source\PSoC5/shiftregSender.c **** *  None.
 277:Generated_Source\PSoC5/shiftregSender.c **** *
 278:Generated_Source\PSoC5/shiftregSender.c **** * Return:
 279:Generated_Source\PSoC5/shiftregSender.c **** *  Byte containing the constant for the selected interrupt source/s.
 280:Generated_Source\PSoC5/shiftregSender.c **** *
 281:Generated_Source\PSoC5/shiftregSender.c **** *******************************************************************************/
 282:Generated_Source\PSoC5/shiftregSender.c **** uint8 shiftregSender_GetIntStatus(void) 
 283:Generated_Source\PSoC5/shiftregSender.c **** {
 469              		.loc 1 283 0
 470              		.cfi_startproc
 471              		@ args = 0, pretend = 0, frame = 0
 472              		@ frame_needed = 1, uses_anonymous_args = 0
 473              		@ link register save eliminated.
 474 0000 80B4     		push	{r7}
 475              		.cfi_def_cfa_offset 4
 476              		.cfi_offset 7, -4
 477 0002 00AF     		add	r7, sp, #0
 478              		.cfi_def_cfa_register 7
 284:Generated_Source\PSoC5/shiftregSender.c ****     return(shiftregSender_SR_STATUS & shiftregSender_INTS_EN_MASK);
 479              		.loc 1 284 0
 480 0004 044B     		ldr	r3, .L39
 481 0006 1B78     		ldrb	r3, [r3]
 482 0008 DBB2     		uxtb	r3, r3
 483 000a 03F00703 		and	r3, r3, #7
 484 000e DBB2     		uxtb	r3, r3
 285:Generated_Source\PSoC5/shiftregSender.c **** }
 485              		.loc 1 285 0
 486 0010 1846     		mov	r0, r3
 487 0012 BD46     		mov	sp, r7
 488              		.cfi_def_cfa_register 13
 489              		@ sp needed
 490 0014 80BC     		pop	{r7}
 491              		.cfi_restore 7
 492              		.cfi_def_cfa_offset 0
 493 0016 7047     		bx	lr
 494              	.L40:
 495              		.align	2
 496              	.L39:
 497 0018 67650040 		.word	1073767783
 498              		.cfi_endproc
 499              	.LFE8:
 500              		.size	shiftregSender_GetIntStatus, .-shiftregSender_GetIntStatus
 501              		.section	.text.shiftregSender_WriteRegValue,"ax",%progbits
 502              		.align	2
 503              		.global	shiftregSender_WriteRegValue
 504              		.thumb
 505              		.thumb_func
 506              		.type	shiftregSender_WriteRegValue, %function
 507              	shiftregSender_WriteRegValue:
 508              	.LFB9:
 286:Generated_Source\PSoC5/shiftregSender.c **** 
 287:Generated_Source\PSoC5/shiftregSender.c **** 
 288:Generated_Source\PSoC5/shiftregSender.c **** /*******************************************************************************
 289:Generated_Source\PSoC5/shiftregSender.c **** * Function Name: shiftregSender_WriteRegValue
 290:Generated_Source\PSoC5/shiftregSender.c **** ********************************************************************************
ARM GAS  C:\Users\bryan.lee\AppData\Local\Temp\ccyw6ZfD.s 			page 15


 291:Generated_Source\PSoC5/shiftregSender.c **** *
 292:Generated_Source\PSoC5/shiftregSender.c **** * Summary:
 293:Generated_Source\PSoC5/shiftregSender.c **** *  Send state directly to shift register
 294:Generated_Source\PSoC5/shiftregSender.c **** *
 295:Generated_Source\PSoC5/shiftregSender.c **** * Parameters:
 296:Generated_Source\PSoC5/shiftregSender.c **** *  shiftData: containing shift register state.
 297:Generated_Source\PSoC5/shiftregSender.c **** *
 298:Generated_Source\PSoC5/shiftregSender.c **** * Return:
 299:Generated_Source\PSoC5/shiftregSender.c **** *  None.
 300:Generated_Source\PSoC5/shiftregSender.c **** *
 301:Generated_Source\PSoC5/shiftregSender.c **** *******************************************************************************/
 302:Generated_Source\PSoC5/shiftregSender.c **** void shiftregSender_WriteRegValue(uint8 shiftData)
 303:Generated_Source\PSoC5/shiftregSender.c ****                                                                      
 304:Generated_Source\PSoC5/shiftregSender.c **** {
 509              		.loc 1 304 0
 510              		.cfi_startproc
 511              		@ args = 0, pretend = 0, frame = 8
 512              		@ frame_needed = 1, uses_anonymous_args = 0
 513              		@ link register save eliminated.
 514 0000 80B4     		push	{r7}
 515              		.cfi_def_cfa_offset 4
 516              		.cfi_offset 7, -4
 517 0002 83B0     		sub	sp, sp, #12
 518              		.cfi_def_cfa_offset 16
 519 0004 00AF     		add	r7, sp, #0
 520              		.cfi_def_cfa_register 7
 521 0006 0346     		mov	r3, r0
 522 0008 FB71     		strb	r3, [r7, #7]
 305:Generated_Source\PSoC5/shiftregSender.c ****     CY_SET_REG8(shiftregSender_SHIFT_REG_LSB_PTR, shiftData);
 523              		.loc 1 305 0
 524 000a 044A     		ldr	r2, .L42
 525 000c FB79     		ldrb	r3, [r7, #7]
 526 000e 1370     		strb	r3, [r2]
 306:Generated_Source\PSoC5/shiftregSender.c **** }
 527              		.loc 1 306 0
 528 0010 00BF     		nop
 529 0012 0C37     		adds	r7, r7, #12
 530              		.cfi_def_cfa_offset 4
 531 0014 BD46     		mov	sp, r7
 532              		.cfi_def_cfa_register 13
 533              		@ sp needed
 534 0016 80BC     		pop	{r7}
 535              		.cfi_restore 7
 536              		.cfi_def_cfa_offset 0
 537 0018 7047     		bx	lr
 538              	.L43:
 539 001a 00BF     		.align	2
 540              	.L42:
 541 001c 07650040 		.word	1073767687
 542              		.cfi_endproc
 543              	.LFE9:
 544              		.size	shiftregSender_WriteRegValue, .-shiftregSender_WriteRegValue
 545              		.section	.text.shiftregSender_WriteData,"ax",%progbits
 546              		.align	2
 547              		.global	shiftregSender_WriteData
 548              		.thumb
 549              		.thumb_func
ARM GAS  C:\Users\bryan.lee\AppData\Local\Temp\ccyw6ZfD.s 			page 16


 550              		.type	shiftregSender_WriteData, %function
 551              	shiftregSender_WriteData:
 552              	.LFB10:
 307:Generated_Source\PSoC5/shiftregSender.c **** 
 308:Generated_Source\PSoC5/shiftregSender.c **** 
 309:Generated_Source\PSoC5/shiftregSender.c **** #if(0u != shiftregSender_USE_INPUT_FIFO)
 310:Generated_Source\PSoC5/shiftregSender.c ****     /*******************************************************************************
 311:Generated_Source\PSoC5/shiftregSender.c ****     * Function Name: shiftregSender_WriteData
 312:Generated_Source\PSoC5/shiftregSender.c ****     ********************************************************************************
 313:Generated_Source\PSoC5/shiftregSender.c ****     *
 314:Generated_Source\PSoC5/shiftregSender.c ****     * Summary:
 315:Generated_Source\PSoC5/shiftregSender.c ****     *  Send state to FIFO for later transfer to shift register based on the Load
 316:Generated_Source\PSoC5/shiftregSender.c ****     *  input
 317:Generated_Source\PSoC5/shiftregSender.c ****     *
 318:Generated_Source\PSoC5/shiftregSender.c ****     * Parameters:
 319:Generated_Source\PSoC5/shiftregSender.c ****     *  shiftData: containing shift register state.
 320:Generated_Source\PSoC5/shiftregSender.c ****     *
 321:Generated_Source\PSoC5/shiftregSender.c ****     * Return:
 322:Generated_Source\PSoC5/shiftregSender.c ****     *  Indicates: successful execution of function
 323:Generated_Source\PSoC5/shiftregSender.c ****     *  when FIFO is empty; and error when FIFO is full.
 324:Generated_Source\PSoC5/shiftregSender.c ****     *
 325:Generated_Source\PSoC5/shiftregSender.c ****     * Reentrant:
 326:Generated_Source\PSoC5/shiftregSender.c ****     *  No.
 327:Generated_Source\PSoC5/shiftregSender.c ****     *
 328:Generated_Source\PSoC5/shiftregSender.c ****     *******************************************************************************/
 329:Generated_Source\PSoC5/shiftregSender.c ****     cystatus shiftregSender_WriteData(uint8 shiftData)
 330:Generated_Source\PSoC5/shiftregSender.c ****                                                                          
 331:Generated_Source\PSoC5/shiftregSender.c ****     {
 553              		.loc 1 331 0
 554              		.cfi_startproc
 555              		@ args = 0, pretend = 0, frame = 16
 556              		@ frame_needed = 1, uses_anonymous_args = 0
 557 0000 80B5     		push	{r7, lr}
 558              		.cfi_def_cfa_offset 8
 559              		.cfi_offset 7, -8
 560              		.cfi_offset 14, -4
 561 0002 84B0     		sub	sp, sp, #16
 562              		.cfi_def_cfa_offset 24
 563 0004 00AF     		add	r7, sp, #0
 564              		.cfi_def_cfa_register 7
 565 0006 0346     		mov	r3, r0
 566 0008 FB71     		strb	r3, [r7, #7]
 332:Generated_Source\PSoC5/shiftregSender.c ****         cystatus result;
 333:Generated_Source\PSoC5/shiftregSender.c **** 
 334:Generated_Source\PSoC5/shiftregSender.c ****         result = CYRET_INVALID_STATE;
 567              		.loc 1 334 0
 568 000a 1123     		movs	r3, #17
 569 000c FB60     		str	r3, [r7, #12]
 335:Generated_Source\PSoC5/shiftregSender.c **** 
 336:Generated_Source\PSoC5/shiftregSender.c ****         /* Writes data into the input FIFO if it is not FULL */
 337:Generated_Source\PSoC5/shiftregSender.c ****         if(shiftregSender_RET_FIFO_FULL != (shiftregSender_GetFIFOStatus(shiftregSender_IN_FIFO)))
 570              		.loc 1 337 0
 571 000e 0120     		movs	r0, #1
 572 0010 FFF7FEFF 		bl	shiftregSender_GetFIFOStatus
 573 0014 0346     		mov	r3, r0
 574 0016 002B     		cmp	r3, #0
 575 0018 04D0     		beq	.L45
ARM GAS  C:\Users\bryan.lee\AppData\Local\Temp\ccyw6ZfD.s 			page 17


 338:Generated_Source\PSoC5/shiftregSender.c ****         {
 339:Generated_Source\PSoC5/shiftregSender.c ****             CY_SET_REG8(shiftregSender_IN_FIFO_VAL_LSB_PTR, shiftData);
 576              		.loc 1 339 0
 577 001a 054A     		ldr	r2, .L47
 578 001c FB79     		ldrb	r3, [r7, #7]
 579 001e 1370     		strb	r3, [r2]
 340:Generated_Source\PSoC5/shiftregSender.c ****             result = CYRET_SUCCESS;
 580              		.loc 1 340 0
 581 0020 0023     		movs	r3, #0
 582 0022 FB60     		str	r3, [r7, #12]
 583              	.L45:
 341:Generated_Source\PSoC5/shiftregSender.c ****         }
 342:Generated_Source\PSoC5/shiftregSender.c **** 
 343:Generated_Source\PSoC5/shiftregSender.c ****         return(result);
 584              		.loc 1 343 0
 585 0024 FB68     		ldr	r3, [r7, #12]
 344:Generated_Source\PSoC5/shiftregSender.c ****     }
 586              		.loc 1 344 0
 587 0026 1846     		mov	r0, r3
 588 0028 1037     		adds	r7, r7, #16
 589              		.cfi_def_cfa_offset 8
 590 002a BD46     		mov	sp, r7
 591              		.cfi_def_cfa_register 13
 592              		@ sp needed
 593 002c 80BD     		pop	{r7, pc}
 594              	.L48:
 595 002e 00BF     		.align	2
 596              	.L47:
 597 0030 47650040 		.word	1073767751
 598              		.cfi_endproc
 599              	.LFE10:
 600              		.size	shiftregSender_WriteData, .-shiftregSender_WriteData
 601              		.section	.text.shiftregSender_ReadRegValue,"ax",%progbits
 602              		.align	2
 603              		.global	shiftregSender_ReadRegValue
 604              		.thumb
 605              		.thumb_func
 606              		.type	shiftregSender_ReadRegValue, %function
 607              	shiftregSender_ReadRegValue:
 608              	.LFB11:
 345:Generated_Source\PSoC5/shiftregSender.c **** #endif /* (0u != shiftregSender_USE_INPUT_FIFO) */
 346:Generated_Source\PSoC5/shiftregSender.c **** 
 347:Generated_Source\PSoC5/shiftregSender.c **** 
 348:Generated_Source\PSoC5/shiftregSender.c **** #if(0u != shiftregSender_USE_OUTPUT_FIFO)
 349:Generated_Source\PSoC5/shiftregSender.c ****     /*******************************************************************************
 350:Generated_Source\PSoC5/shiftregSender.c ****     * Function Name: shiftregSender_ReadData
 351:Generated_Source\PSoC5/shiftregSender.c ****     ********************************************************************************
 352:Generated_Source\PSoC5/shiftregSender.c ****     *
 353:Generated_Source\PSoC5/shiftregSender.c ****     * Summary:
 354:Generated_Source\PSoC5/shiftregSender.c ****     *  Returns state in FIFO due to Store input.
 355:Generated_Source\PSoC5/shiftregSender.c ****     *
 356:Generated_Source\PSoC5/shiftregSender.c ****     * Parameters:
 357:Generated_Source\PSoC5/shiftregSender.c ****     *  None.
 358:Generated_Source\PSoC5/shiftregSender.c ****     *
 359:Generated_Source\PSoC5/shiftregSender.c ****     * Return:
 360:Generated_Source\PSoC5/shiftregSender.c ****     *  Shift Register state
 361:Generated_Source\PSoC5/shiftregSender.c ****     *
ARM GAS  C:\Users\bryan.lee\AppData\Local\Temp\ccyw6ZfD.s 			page 18


 362:Generated_Source\PSoC5/shiftregSender.c ****     * Reentrant:
 363:Generated_Source\PSoC5/shiftregSender.c ****     *  No.
 364:Generated_Source\PSoC5/shiftregSender.c ****     *
 365:Generated_Source\PSoC5/shiftregSender.c ****     *******************************************************************************/
 366:Generated_Source\PSoC5/shiftregSender.c ****     uint8 shiftregSender_ReadData(void) 
 367:Generated_Source\PSoC5/shiftregSender.c ****     {
 368:Generated_Source\PSoC5/shiftregSender.c ****         return(CY_GET_REG8(shiftregSender_OUT_FIFO_VAL_LSB_PTR));
 369:Generated_Source\PSoC5/shiftregSender.c ****     }
 370:Generated_Source\PSoC5/shiftregSender.c **** #endif /* (0u != shiftregSender_USE_OUTPUT_FIFO) */
 371:Generated_Source\PSoC5/shiftregSender.c **** 
 372:Generated_Source\PSoC5/shiftregSender.c **** 
 373:Generated_Source\PSoC5/shiftregSender.c **** /*******************************************************************************
 374:Generated_Source\PSoC5/shiftregSender.c **** * Function Name: shiftregSender_ReadRegValue
 375:Generated_Source\PSoC5/shiftregSender.c **** ********************************************************************************
 376:Generated_Source\PSoC5/shiftregSender.c **** *
 377:Generated_Source\PSoC5/shiftregSender.c **** * Summary:
 378:Generated_Source\PSoC5/shiftregSender.c **** *  Directly returns current state in shift register, not data in FIFO due
 379:Generated_Source\PSoC5/shiftregSender.c **** *  to Store input.
 380:Generated_Source\PSoC5/shiftregSender.c **** *
 381:Generated_Source\PSoC5/shiftregSender.c **** * Parameters:
 382:Generated_Source\PSoC5/shiftregSender.c **** *  None.
 383:Generated_Source\PSoC5/shiftregSender.c **** *
 384:Generated_Source\PSoC5/shiftregSender.c **** * Return:
 385:Generated_Source\PSoC5/shiftregSender.c **** *  Shift Register state. Clears output FIFO.
 386:Generated_Source\PSoC5/shiftregSender.c **** *
 387:Generated_Source\PSoC5/shiftregSender.c **** * Reentrant:
 388:Generated_Source\PSoC5/shiftregSender.c **** *  No.
 389:Generated_Source\PSoC5/shiftregSender.c **** *
 390:Generated_Source\PSoC5/shiftregSender.c **** *******************************************************************************/
 391:Generated_Source\PSoC5/shiftregSender.c **** uint8 shiftregSender_ReadRegValue(void) 
 392:Generated_Source\PSoC5/shiftregSender.c **** {
 609              		.loc 1 392 0
 610              		.cfi_startproc
 611              		@ args = 0, pretend = 0, frame = 8
 612              		@ frame_needed = 1, uses_anonymous_args = 0
 613 0000 80B5     		push	{r7, lr}
 614              		.cfi_def_cfa_offset 8
 615              		.cfi_offset 7, -8
 616              		.cfi_offset 14, -4
 617 0002 82B0     		sub	sp, sp, #8
 618              		.cfi_def_cfa_offset 16
 619 0004 00AF     		add	r7, sp, #0
 620              		.cfi_def_cfa_register 7
 393:Generated_Source\PSoC5/shiftregSender.c ****     uint8 result;
 394:Generated_Source\PSoC5/shiftregSender.c **** 
 395:Generated_Source\PSoC5/shiftregSender.c ****     /* Clear FIFO before software capture */
 396:Generated_Source\PSoC5/shiftregSender.c ****     while(shiftregSender_RET_FIFO_EMPTY != shiftregSender_GetFIFOStatus(shiftregSender_OUT_FIFO))
 621              		.loc 1 396 0
 622 0006 01E0     		b	.L50
 623              	.L51:
 397:Generated_Source\PSoC5/shiftregSender.c ****     {
 398:Generated_Source\PSoC5/shiftregSender.c ****         (void) CY_GET_REG8(shiftregSender_OUT_FIFO_VAL_LSB_PTR);
 624              		.loc 1 398 0
 625 0008 084B     		ldr	r3, .L53
 626 000a 1B78     		ldrb	r3, [r3]
 627              	.L50:
 396:Generated_Source\PSoC5/shiftregSender.c ****     {
ARM GAS  C:\Users\bryan.lee\AppData\Local\Temp\ccyw6ZfD.s 			page 19


 628              		.loc 1 396 0
 629 000c 0220     		movs	r0, #2
 630 000e FFF7FEFF 		bl	shiftregSender_GetFIFOStatus
 631 0012 0346     		mov	r3, r0
 632 0014 022B     		cmp	r3, #2
 633 0016 F7D1     		bne	.L51
 399:Generated_Source\PSoC5/shiftregSender.c ****     }
 400:Generated_Source\PSoC5/shiftregSender.c **** 
 401:Generated_Source\PSoC5/shiftregSender.c ****     /* Read of 8 bits from A1 causes capture to output FIFO */
 402:Generated_Source\PSoC5/shiftregSender.c ****     (void) CY_GET_REG8(shiftregSender_SHIFT_REG_CAPTURE_PTR);
 634              		.loc 1 402 0
 635 0018 054B     		ldr	r3, .L53+4
 636 001a 1B78     		ldrb	r3, [r3]
 403:Generated_Source\PSoC5/shiftregSender.c **** 
 404:Generated_Source\PSoC5/shiftregSender.c ****     /* Read output FIFO */
 405:Generated_Source\PSoC5/shiftregSender.c ****     result  = CY_GET_REG8(shiftregSender_OUT_FIFO_VAL_LSB_PTR);
 637              		.loc 1 405 0
 638 001c 034B     		ldr	r3, .L53
 639 001e 1B78     		ldrb	r3, [r3]
 640 0020 FB71     		strb	r3, [r7, #7]
 406:Generated_Source\PSoC5/shiftregSender.c ****     
 407:Generated_Source\PSoC5/shiftregSender.c ****     #if(0u != (shiftregSender_SR_SIZE % 8u))
 408:Generated_Source\PSoC5/shiftregSender.c ****         result &= ((uint8) shiftregSender_SR_MASK);
 409:Generated_Source\PSoC5/shiftregSender.c ****     #endif /* (0u != (shiftregSender_SR_SIZE % 8u)) */
 410:Generated_Source\PSoC5/shiftregSender.c ****     
 411:Generated_Source\PSoC5/shiftregSender.c ****     return(result);
 641              		.loc 1 411 0
 642 0022 FB79     		ldrb	r3, [r7, #7]	@ zero_extendqisi2
 412:Generated_Source\PSoC5/shiftregSender.c **** }
 643              		.loc 1 412 0
 644 0024 1846     		mov	r0, r3
 645 0026 0837     		adds	r7, r7, #8
 646              		.cfi_def_cfa_offset 8
 647 0028 BD46     		mov	sp, r7
 648              		.cfi_def_cfa_register 13
 649              		@ sp needed
 650 002a 80BD     		pop	{r7, pc}
 651              	.L54:
 652              		.align	2
 653              	.L53:
 654 002c 57650040 		.word	1073767767
 655 0030 17650040 		.word	1073767703
 656              		.cfi_endproc
 657              	.LFE11:
 658              		.size	shiftregSender_ReadRegValue, .-shiftregSender_ReadRegValue
 659              		.text
 660              	.Letext0:
 661              		.file 2 "Generated_Source\\PSoC5\\cytypes.h"