ARM GAS  C:\Users\bryan.lee\AppData\Local\Temp\ccgrQ7Cd.s 			page 1


   1              		.syntax unified
   2              		.cpu cortex-m0
   3              		.fpu softvfp
   4              		.eabi_attribute 20, 1
   5              		.eabi_attribute 21, 1
   6              		.eabi_attribute 23, 3
   7              		.eabi_attribute 24, 1
   8              		.eabi_attribute 25, 1
   9              		.eabi_attribute 26, 1
  10              		.eabi_attribute 30, 1
  11              		.eabi_attribute 34, 0
  12              		.eabi_attribute 18, 4
  13              		.thumb
  14              		.syntax unified
  15              		.file	"I2C_EZI2C.c"
  16              		.text
  17              	.Ltext0:
  18              		.cfi_sections	.debug_frame
  19              		.section	.text.I2C_EzI2CInit,"ax",%progbits
  20              		.align	2
  21              		.global	I2C_EzI2CInit
  22              		.code	16
  23              		.thumb_func
  24              		.type	I2C_EzI2CInit, %function
  25              	I2C_EzI2CInit:
  26              	.LFB2:
  27              		.file 1 "Generated_Source\\PSoC4\\I2C_EZI2C.c"
   1:Generated_Source\PSoC4/I2C_EZI2C.c **** /***************************************************************************//**
   2:Generated_Source\PSoC4/I2C_EZI2C.c **** * \file I2C_EZI2C.c
   3:Generated_Source\PSoC4/I2C_EZI2C.c **** * \version 4.0
   4:Generated_Source\PSoC4/I2C_EZI2C.c **** *
   5:Generated_Source\PSoC4/I2C_EZI2C.c **** * \brief
   6:Generated_Source\PSoC4/I2C_EZI2C.c **** *  This file provides the source code to the API for the SCB Component in
   7:Generated_Source\PSoC4/I2C_EZI2C.c **** *  EZI2C mode.
   8:Generated_Source\PSoC4/I2C_EZI2C.c **** *
   9:Generated_Source\PSoC4/I2C_EZI2C.c **** * Note:
  10:Generated_Source\PSoC4/I2C_EZI2C.c **** *
  11:Generated_Source\PSoC4/I2C_EZI2C.c **** *******************************************************************************
  12:Generated_Source\PSoC4/I2C_EZI2C.c **** * \copyright
  13:Generated_Source\PSoC4/I2C_EZI2C.c **** * Copyright 2013-2017, Cypress Semiconductor Corporation.  All rights reserved.
  14:Generated_Source\PSoC4/I2C_EZI2C.c **** * You may use this file only in accordance with the license, terms, conditions,
  15:Generated_Source\PSoC4/I2C_EZI2C.c **** * disclaimers, and limitations in the end user license agreement accompanying
  16:Generated_Source\PSoC4/I2C_EZI2C.c **** * the software package with which this file was provided.
  17:Generated_Source\PSoC4/I2C_EZI2C.c **** *******************************************************************************/
  18:Generated_Source\PSoC4/I2C_EZI2C.c **** 
  19:Generated_Source\PSoC4/I2C_EZI2C.c **** #include "I2C_PVT.h"
  20:Generated_Source\PSoC4/I2C_EZI2C.c **** #include "I2C_EZI2C_PVT.h"
  21:Generated_Source\PSoC4/I2C_EZI2C.c **** 
  22:Generated_Source\PSoC4/I2C_EZI2C.c **** 
  23:Generated_Source\PSoC4/I2C_EZI2C.c **** /***************************************
  24:Generated_Source\PSoC4/I2C_EZI2C.c **** *      EZI2C Private Vars
  25:Generated_Source\PSoC4/I2C_EZI2C.c **** ***************************************/
  26:Generated_Source\PSoC4/I2C_EZI2C.c **** 
  27:Generated_Source\PSoC4/I2C_EZI2C.c **** volatile uint8 I2C_curStatus; /* Status byte */
  28:Generated_Source\PSoC4/I2C_EZI2C.c **** uint8 I2C_fsmState;           /* FSM state   */
  29:Generated_Source\PSoC4/I2C_EZI2C.c **** 
  30:Generated_Source\PSoC4/I2C_EZI2C.c **** /* Variables intended to be used with Buffer 1: Primary slave address */
ARM GAS  C:\Users\bryan.lee\AppData\Local\Temp\ccgrQ7Cd.s 			page 2


  31:Generated_Source\PSoC4/I2C_EZI2C.c **** volatile uint8 * I2C_dataBuffer1; /* Pointer to data buffer 1 */
  32:Generated_Source\PSoC4/I2C_EZI2C.c **** uint16 I2C_bufSizeBuf1;           /* Size of buffer 1 in bytes      */
  33:Generated_Source\PSoC4/I2C_EZI2C.c **** uint16 I2C_protectBuf1;           /* Start index of write protected area buffer 1 */
  34:Generated_Source\PSoC4/I2C_EZI2C.c **** uint8 I2C_offsetBuf1; /* Current offset within buffer 1 */
  35:Generated_Source\PSoC4/I2C_EZI2C.c **** uint16 I2C_indexBuf1;             /* Current index within buffer 1  */
  36:Generated_Source\PSoC4/I2C_EZI2C.c **** 
  37:Generated_Source\PSoC4/I2C_EZI2C.c **** #if(I2C_SECONDARY_ADDRESS_ENABLE_CONST)
  38:Generated_Source\PSoC4/I2C_EZI2C.c ****     uint8 I2C_addrBuf1; /* Primary slave address. Used for software comparison   */
  39:Generated_Source\PSoC4/I2C_EZI2C.c ****     uint8 I2C_addrBuf2; /* Secondary slave address. Used for software comparison */
  40:Generated_Source\PSoC4/I2C_EZI2C.c **** 
  41:Generated_Source\PSoC4/I2C_EZI2C.c ****     /* Variables intended to be used with Buffer 2: Primary slave address */
  42:Generated_Source\PSoC4/I2C_EZI2C.c ****     volatile uint8 * I2C_dataBuffer2; /* Pointer to data buffer 2 */
  43:Generated_Source\PSoC4/I2C_EZI2C.c ****     uint16 I2C_bufSizeBuf2;           /* Size of buffer 2 in bytes */
  44:Generated_Source\PSoC4/I2C_EZI2C.c ****     uint16 I2C_protectBuf2;           /* Start index of write protected area buffer 2 */
  45:Generated_Source\PSoC4/I2C_EZI2C.c ****     uint8 I2C_offsetBuf2; /* Current offset within buffer 2 */
  46:Generated_Source\PSoC4/I2C_EZI2C.c ****     uint16 I2C_indexBuf2;             /* Current index within buffer 2 */
  47:Generated_Source\PSoC4/I2C_EZI2C.c **** #endif /* (I2C_SECONDARY_ADDRESS_ENABLE_CONST) */
  48:Generated_Source\PSoC4/I2C_EZI2C.c **** 
  49:Generated_Source\PSoC4/I2C_EZI2C.c **** 
  50:Generated_Source\PSoC4/I2C_EZI2C.c **** /***************************************
  51:Generated_Source\PSoC4/I2C_EZI2C.c **** *      EZI2C Private Functions
  52:Generated_Source\PSoC4/I2C_EZI2C.c **** ***************************************/
  53:Generated_Source\PSoC4/I2C_EZI2C.c **** 
  54:Generated_Source\PSoC4/I2C_EZI2C.c **** #if(I2C_SECONDARY_ADDRESS_ENABLE_CONST)
  55:Generated_Source\PSoC4/I2C_EZI2C.c ****     static uint32 I2C_EzI2CUpdateRxMatchReg(uint32 addr1, uint32 addr2);
  56:Generated_Source\PSoC4/I2C_EZI2C.c **** #endif /* (I2C_SECONDARY_ADDRESS_ENABLE_CONST) */
  57:Generated_Source\PSoC4/I2C_EZI2C.c **** 
  58:Generated_Source\PSoC4/I2C_EZI2C.c **** #if(I2C_SCB_MODE_UNCONFIG_CONST_CFG)
  59:Generated_Source\PSoC4/I2C_EZI2C.c **** 
  60:Generated_Source\PSoC4/I2C_EZI2C.c ****     /***************************************
  61:Generated_Source\PSoC4/I2C_EZI2C.c ****     *  Configuration Structure Initialization
  62:Generated_Source\PSoC4/I2C_EZI2C.c ****     ***************************************/
  63:Generated_Source\PSoC4/I2C_EZI2C.c **** 
  64:Generated_Source\PSoC4/I2C_EZI2C.c ****     /* Constant configuration of EZI2C */
  65:Generated_Source\PSoC4/I2C_EZI2C.c ****     const I2C_EZI2C_INIT_STRUCT I2C_configEzI2C =
  66:Generated_Source\PSoC4/I2C_EZI2C.c ****     {
  67:Generated_Source\PSoC4/I2C_EZI2C.c ****         I2C_EZI2C_CLOCK_STRETCHING,
  68:Generated_Source\PSoC4/I2C_EZI2C.c ****         I2C_EZI2C_MEDIAN_FILTER_ENABLE,
  69:Generated_Source\PSoC4/I2C_EZI2C.c ****         I2C_EZI2C_NUMBER_OF_ADDRESSES,
  70:Generated_Source\PSoC4/I2C_EZI2C.c ****         I2C_EZI2C_PRIMARY_SLAVE_ADDRESS,
  71:Generated_Source\PSoC4/I2C_EZI2C.c ****         I2C_EZI2C_SECONDARY_SLAVE_ADDRESS,
  72:Generated_Source\PSoC4/I2C_EZI2C.c ****         I2C_EZI2C_SUB_ADDRESS_SIZE,
  73:Generated_Source\PSoC4/I2C_EZI2C.c ****         I2C_EZI2C_WAKE_ENABLE,
  74:Generated_Source\PSoC4/I2C_EZI2C.c ****         I2C_EZI2C_BYTE_MODE_ENABLE
  75:Generated_Source\PSoC4/I2C_EZI2C.c ****     };
  76:Generated_Source\PSoC4/I2C_EZI2C.c **** 
  77:Generated_Source\PSoC4/I2C_EZI2C.c ****     /*******************************************************************************
  78:Generated_Source\PSoC4/I2C_EZI2C.c ****     * Function Name: I2C_EzI2CInit
  79:Generated_Source\PSoC4/I2C_EZI2C.c ****     ****************************************************************************//**
  80:Generated_Source\PSoC4/I2C_EZI2C.c ****     *
  81:Generated_Source\PSoC4/I2C_EZI2C.c ****     *  Configures the I2C for EZI2C operation.
  82:Generated_Source\PSoC4/I2C_EZI2C.c ****     *
  83:Generated_Source\PSoC4/I2C_EZI2C.c ****     *  This function is intended specifically to be used when the I2C 
  84:Generated_Source\PSoC4/I2C_EZI2C.c ****     *  configuration is set to “Unconfigured I2C” in the customizer. 
  85:Generated_Source\PSoC4/I2C_EZI2C.c ****     *  After initializing the I2C in EZI2C mode using this function, 
  86:Generated_Source\PSoC4/I2C_EZI2C.c ****     *  the component can be enabled using the I2C_Start() or 
  87:Generated_Source\PSoC4/I2C_EZI2C.c ****     * I2C_Enable() function.
ARM GAS  C:\Users\bryan.lee\AppData\Local\Temp\ccgrQ7Cd.s 			page 3


  88:Generated_Source\PSoC4/I2C_EZI2C.c ****     *  This function uses a pointer to a structure that provides the configuration 
  89:Generated_Source\PSoC4/I2C_EZI2C.c ****     *  settings. This structure contains the same information that would otherwise 
  90:Generated_Source\PSoC4/I2C_EZI2C.c ****     *  be provided by the customizer settings.
  91:Generated_Source\PSoC4/I2C_EZI2C.c ****     *
  92:Generated_Source\PSoC4/I2C_EZI2C.c ****     * \param config: pointer to a structure that contains the following list of 
  93:Generated_Source\PSoC4/I2C_EZI2C.c ****     *  fields. These fields match the selections available in the customizer. 
  94:Generated_Source\PSoC4/I2C_EZI2C.c ****     *  Refer to the customizer for further description of the settings.
  95:Generated_Source\PSoC4/I2C_EZI2C.c ****     *
  96:Generated_Source\PSoC4/I2C_EZI2C.c ****     *******************************************************************************/
  97:Generated_Source\PSoC4/I2C_EZI2C.c ****     void I2C_EzI2CInit(const I2C_EZI2C_INIT_STRUCT *config)
  98:Generated_Source\PSoC4/I2C_EZI2C.c ****     {
  99:Generated_Source\PSoC4/I2C_EZI2C.c ****         if(NULL == config)
 100:Generated_Source\PSoC4/I2C_EZI2C.c ****         {
 101:Generated_Source\PSoC4/I2C_EZI2C.c ****             CYASSERT(0u != 0u); /* Halt execution due to bad function parameter */
 102:Generated_Source\PSoC4/I2C_EZI2C.c ****         }
 103:Generated_Source\PSoC4/I2C_EZI2C.c ****         else
 104:Generated_Source\PSoC4/I2C_EZI2C.c ****         {
 105:Generated_Source\PSoC4/I2C_EZI2C.c ****             /* Configure pins */
 106:Generated_Source\PSoC4/I2C_EZI2C.c ****             I2C_SetPins(I2C_SCB_MODE_EZI2C, I2C_DUMMY_PARAM,
 107:Generated_Source\PSoC4/I2C_EZI2C.c ****                                                                       I2C_DUMMY_PARAM);
 108:Generated_Source\PSoC4/I2C_EZI2C.c **** 
 109:Generated_Source\PSoC4/I2C_EZI2C.c ****             /* Store internal configuration */
 110:Generated_Source\PSoC4/I2C_EZI2C.c ****             I2C_scbMode       = (uint8) I2C_SCB_MODE_EZI2C;
 111:Generated_Source\PSoC4/I2C_EZI2C.c ****             I2C_scbEnableWake = (uint8) config->enableWake;
 112:Generated_Source\PSoC4/I2C_EZI2C.c ****             I2C_scbEnableIntr = (uint8) I2C_SCB_IRQ_INTERNAL;
 113:Generated_Source\PSoC4/I2C_EZI2C.c **** 
 114:Generated_Source\PSoC4/I2C_EZI2C.c ****             I2C_numberOfAddr  = (uint8) config->numberOfAddresses;
 115:Generated_Source\PSoC4/I2C_EZI2C.c ****             I2C_subAddrSize   = (uint8) config->subAddrSize;
 116:Generated_Source\PSoC4/I2C_EZI2C.c **** 
 117:Generated_Source\PSoC4/I2C_EZI2C.c ****         #if (I2C_CY_SCBIP_V0)
 118:Generated_Source\PSoC4/I2C_EZI2C.c ****             /* Adjust SDA filter settings. Ticket ID#150521 */
 119:Generated_Source\PSoC4/I2C_EZI2C.c ****             I2C_SET_I2C_CFG_SDA_FILT_TRIM(I2C_EC_AM_I2C_CFG_SDA_FILT_TRIM);
 120:Generated_Source\PSoC4/I2C_EZI2C.c ****         #endif /* (I2C_CY_SCBIP_V0) */
 121:Generated_Source\PSoC4/I2C_EZI2C.c **** 
 122:Generated_Source\PSoC4/I2C_EZI2C.c ****             /* Adjust AF and DF filter settings, AF = 1, DF = 0. Ticket ID#176179 */
 123:Generated_Source\PSoC4/I2C_EZI2C.c ****             I2C_I2C_CFG_ANALOG_FITER_ENABLE;
 124:Generated_Source\PSoC4/I2C_EZI2C.c **** 
 125:Generated_Source\PSoC4/I2C_EZI2C.c ****             /* Configure I2C interface */
 126:Generated_Source\PSoC4/I2C_EZI2C.c ****             I2C_CTRL_REG     = I2C_GET_CTRL_BYTE_MODE  (config->enableByteMode)    |
 127:Generated_Source\PSoC4/I2C_EZI2C.c ****                                             I2C_GET_CTRL_ADDR_ACCEPT(config->numberOfAddresses) |
 128:Generated_Source\PSoC4/I2C_EZI2C.c ****                                             I2C_GET_CTRL_EC_AM_MODE (config->enableWake);
 129:Generated_Source\PSoC4/I2C_EZI2C.c **** 
 130:Generated_Source\PSoC4/I2C_EZI2C.c ****             I2C_I2C_CTRL_REG = I2C_EZI2C_CTRL;
 131:Generated_Source\PSoC4/I2C_EZI2C.c **** 
 132:Generated_Source\PSoC4/I2C_EZI2C.c ****             /* Configure RX direction */
 133:Generated_Source\PSoC4/I2C_EZI2C.c ****             I2C_RX_CTRL_REG = I2C_EZI2C_RX_CTRL |
 134:Generated_Source\PSoC4/I2C_EZI2C.c ****                                         I2C_GET_RX_CTRL_MEDIAN(I2C_DIGITAL_FILTER_DISABLE);
 135:Generated_Source\PSoC4/I2C_EZI2C.c ****                                                 ;
 136:Generated_Source\PSoC4/I2C_EZI2C.c ****             I2C_RX_FIFO_CTRL_REG = I2C_CLEAR_REG;
 137:Generated_Source\PSoC4/I2C_EZI2C.c **** 
 138:Generated_Source\PSoC4/I2C_EZI2C.c ****             /* Set default address and mask */
 139:Generated_Source\PSoC4/I2C_EZI2C.c ****             if(I2C_EZI2C_PRIMARY_ADDRESS == config->numberOfAddresses)
 140:Generated_Source\PSoC4/I2C_EZI2C.c ****             {
 141:Generated_Source\PSoC4/I2C_EZI2C.c ****                 I2C_RX_MATCH_REG = I2C_EzI2CUpdateRxMatchReg(config->primarySlaveAddr,
 142:Generated_Source\PSoC4/I2C_EZI2C.c ****                                                                                        config->prim
 143:Generated_Source\PSoC4/I2C_EZI2C.c ****             }
 144:Generated_Source\PSoC4/I2C_EZI2C.c ****             else
ARM GAS  C:\Users\bryan.lee\AppData\Local\Temp\ccgrQ7Cd.s 			page 4


 145:Generated_Source\PSoC4/I2C_EZI2C.c ****             {
 146:Generated_Source\PSoC4/I2C_EZI2C.c ****                 I2C_RX_MATCH_REG = I2C_EzI2CUpdateRxMatchReg(config->primarySlaveAddr,
 147:Generated_Source\PSoC4/I2C_EZI2C.c ****                                                                                        config->seco
 148:Generated_Source\PSoC4/I2C_EZI2C.c ****             }
 149:Generated_Source\PSoC4/I2C_EZI2C.c **** 
 150:Generated_Source\PSoC4/I2C_EZI2C.c ****             /* Configure TX direction */
 151:Generated_Source\PSoC4/I2C_EZI2C.c ****             I2C_TX_CTRL_REG      = I2C_EZI2C_TX_CTRL;
 152:Generated_Source\PSoC4/I2C_EZI2C.c ****             I2C_TX_FIFO_CTRL_REG = ((0u != (config->enableClockStretch)) ?
 153:Generated_Source\PSoC4/I2C_EZI2C.c ****                                                  I2C_CLEAR_REG : I2C_EZI2C_TX_FIFO_CTRL);
 154:Generated_Source\PSoC4/I2C_EZI2C.c **** 
 155:Generated_Source\PSoC4/I2C_EZI2C.c ****             /* Configure interrupt sources */
 156:Generated_Source\PSoC4/I2C_EZI2C.c ****         #if (!I2C_CY_SCBIP_V1)
 157:Generated_Source\PSoC4/I2C_EZI2C.c ****            I2C_INTR_SPI_EC_MASK_REG = I2C_NO_INTR_SOURCES;
 158:Generated_Source\PSoC4/I2C_EZI2C.c ****         #endif /* (!I2C_CY_SCBIP_V1) */
 159:Generated_Source\PSoC4/I2C_EZI2C.c **** 
 160:Generated_Source\PSoC4/I2C_EZI2C.c ****             I2C_INTR_I2C_EC_MASK_REG = I2C_NO_INTR_SOURCES;
 161:Generated_Source\PSoC4/I2C_EZI2C.c ****             I2C_INTR_MASTER_MASK_REG = I2C_NO_INTR_SOURCES;
 162:Generated_Source\PSoC4/I2C_EZI2C.c ****             I2C_INTR_SLAVE_MASK_REG  = I2C_EZI2C_INTR_SLAVE_MASK;
 163:Generated_Source\PSoC4/I2C_EZI2C.c ****             I2C_INTR_TX_MASK_REG     = I2C_NO_INTR_SOURCES;
 164:Generated_Source\PSoC4/I2C_EZI2C.c **** 
 165:Generated_Source\PSoC4/I2C_EZI2C.c ****             /* Configure interrupt with EZI2C handler but do not enable it */
 166:Generated_Source\PSoC4/I2C_EZI2C.c ****             CyIntDisable    (I2C_ISR_NUMBER);
 167:Generated_Source\PSoC4/I2C_EZI2C.c ****             CyIntSetPriority(I2C_ISR_NUMBER, I2C_ISR_PRIORITY);
 168:Generated_Source\PSoC4/I2C_EZI2C.c ****             (void) CyIntSetVector(I2C_ISR_NUMBER, (0u != (config->enableClockStretch)) ?
 169:Generated_Source\PSoC4/I2C_EZI2C.c ****                                                                       (&I2C_EZI2C_STRETCH_ISR) :
 170:Generated_Source\PSoC4/I2C_EZI2C.c ****                                                                       (&I2C_EZI2C_NO_STRETCH_ISR));
 171:Generated_Source\PSoC4/I2C_EZI2C.c **** 
 172:Generated_Source\PSoC4/I2C_EZI2C.c ****             if(0u != (config->enableClockStretch))
 173:Generated_Source\PSoC4/I2C_EZI2C.c ****             {
 174:Generated_Source\PSoC4/I2C_EZI2C.c ****                 /* Configure interrupt sources */
 175:Generated_Source\PSoC4/I2C_EZI2C.c ****                 I2C_INTR_SLAVE_MASK_REG |= I2C_INTR_SLAVE_I2C_ADDR_MATCH;
 176:Generated_Source\PSoC4/I2C_EZI2C.c ****                 I2C_INTR_RX_MASK_REG     = I2C_NO_INTR_SOURCES;
 177:Generated_Source\PSoC4/I2C_EZI2C.c ****             }
 178:Generated_Source\PSoC4/I2C_EZI2C.c ****             else
 179:Generated_Source\PSoC4/I2C_EZI2C.c ****             {
 180:Generated_Source\PSoC4/I2C_EZI2C.c ****                 /* Enable Auto ACK/NACK features */
 181:Generated_Source\PSoC4/I2C_EZI2C.c ****                 I2C_I2C_CTRL_REG |= I2C_EZI2C_CTRL_AUTO;
 182:Generated_Source\PSoC4/I2C_EZI2C.c **** 
 183:Generated_Source\PSoC4/I2C_EZI2C.c ****                 /* Configure RX interrupt source */
 184:Generated_Source\PSoC4/I2C_EZI2C.c ****                 I2C_INTR_SLAVE_MASK_REG |= I2C_INTR_SLAVE_I2C_START;
 185:Generated_Source\PSoC4/I2C_EZI2C.c ****                 I2C_INTR_RX_MASK_REG     = I2C_INTR_RX_NOT_EMPTY;
 186:Generated_Source\PSoC4/I2C_EZI2C.c ****             }
 187:Generated_Source\PSoC4/I2C_EZI2C.c **** 
 188:Generated_Source\PSoC4/I2C_EZI2C.c ****             /* Configure global variables */
 189:Generated_Source\PSoC4/I2C_EZI2C.c ****             I2C_fsmState = I2C_EZI2C_FSM_IDLE;
 190:Generated_Source\PSoC4/I2C_EZI2C.c **** 
 191:Generated_Source\PSoC4/I2C_EZI2C.c ****             I2C_curStatus  = 0u;
 192:Generated_Source\PSoC4/I2C_EZI2C.c ****             I2C_indexBuf1  = 0u;
 193:Generated_Source\PSoC4/I2C_EZI2C.c ****             I2C_offsetBuf1 = 0u;
 194:Generated_Source\PSoC4/I2C_EZI2C.c ****             I2C_indexBuf2  = 0u;
 195:Generated_Source\PSoC4/I2C_EZI2C.c ****             I2C_offsetBuf2 = 0u;
 196:Generated_Source\PSoC4/I2C_EZI2C.c **** 
 197:Generated_Source\PSoC4/I2C_EZI2C.c ****             I2C_addrBuf1 = (uint8) config->primarySlaveAddr;
 198:Generated_Source\PSoC4/I2C_EZI2C.c ****             I2C_addrBuf2 = (uint8) config->secondarySlaveAddr;
 199:Generated_Source\PSoC4/I2C_EZI2C.c ****         }
 200:Generated_Source\PSoC4/I2C_EZI2C.c ****     }
 201:Generated_Source\PSoC4/I2C_EZI2C.c **** 
ARM GAS  C:\Users\bryan.lee\AppData\Local\Temp\ccgrQ7Cd.s 			page 5


 202:Generated_Source\PSoC4/I2C_EZI2C.c **** #else
 203:Generated_Source\PSoC4/I2C_EZI2C.c **** 
 204:Generated_Source\PSoC4/I2C_EZI2C.c ****     /*******************************************************************************
 205:Generated_Source\PSoC4/I2C_EZI2C.c ****     * Function Name: I2C_EzI2CInit
 206:Generated_Source\PSoC4/I2C_EZI2C.c ****     ****************************************************************************//**
 207:Generated_Source\PSoC4/I2C_EZI2C.c ****     *
 208:Generated_Source\PSoC4/I2C_EZI2C.c ****     *  Configures the SCB for the EZI2C operation.
 209:Generated_Source\PSoC4/I2C_EZI2C.c ****     *
 210:Generated_Source\PSoC4/I2C_EZI2C.c ****     *******************************************************************************/
 211:Generated_Source\PSoC4/I2C_EZI2C.c ****     void I2C_EzI2CInit(void)
 212:Generated_Source\PSoC4/I2C_EZI2C.c ****     {
  28              		.loc 1 212 0
  29              		.cfi_startproc
  30              		@ args = 0, pretend = 0, frame = 0
  31              		@ frame_needed = 0, uses_anonymous_args = 0
  32 0000 10B5     		push	{r4, lr}
  33              		.cfi_def_cfa_offset 8
  34              		.cfi_offset 4, -8
  35              		.cfi_offset 14, -4
 213:Generated_Source\PSoC4/I2C_EZI2C.c ****         /* Configure I2C interface */
 214:Generated_Source\PSoC4/I2C_EZI2C.c ****         I2C_CTRL_REG     = I2C_EZI2C_DEFAULT_CTRL;
  36              		.loc 1 214 0
  37 0002 8022     		movs	r2, #128
  38 0004 5200     		lsls	r2, r2, #1
  39 0006 1A4B     		ldr	r3, .L2
  40 0008 1A60     		str	r2, [r3]
 215:Generated_Source\PSoC4/I2C_EZI2C.c ****         I2C_I2C_CTRL_REG = I2C_EZI2C_DEFAULT_I2C_CTRL;
  41              		.loc 1 215 0
  42 000a 1A4A     		ldr	r2, .L2+4
  43 000c 1A4B     		ldr	r3, .L2+8
  44 000e 1A60     		str	r2, [r3]
 216:Generated_Source\PSoC4/I2C_EZI2C.c **** 
 217:Generated_Source\PSoC4/I2C_EZI2C.c ****     #if (I2C_CY_SCBIP_V0)
 218:Generated_Source\PSoC4/I2C_EZI2C.c ****         /* Adjust SDA filter settings. Ticket ID#150521 */
 219:Generated_Source\PSoC4/I2C_EZI2C.c ****         I2C_SET_I2C_CFG_SDA_FILT_TRIM(I2C_EC_AM_I2C_CFG_SDA_FILT_TRIM);
 220:Generated_Source\PSoC4/I2C_EZI2C.c ****     #endif /* (I2C_CY_SCBIP_V0) */
 221:Generated_Source\PSoC4/I2C_EZI2C.c **** 
 222:Generated_Source\PSoC4/I2C_EZI2C.c ****         /* Configure RX direction */
 223:Generated_Source\PSoC4/I2C_EZI2C.c ****         I2C_RX_CTRL_REG      = I2C_EZI2C_DEFAULT_RX_CTRL;
  45              		.loc 1 223 0
  46 0010 1A4B     		ldr	r3, .L2+12
  47 0012 1B4A     		ldr	r2, .L2+16
  48 0014 1360     		str	r3, [r2]
 224:Generated_Source\PSoC4/I2C_EZI2C.c ****         I2C_RX_FIFO_CTRL_REG = I2C_EZI2C_DEFAULT_RX_FIFO_CTRL;
  49              		.loc 1 224 0
  50 0016 0024     		movs	r4, #0
  51 0018 1A4A     		ldr	r2, .L2+20
  52 001a 1460     		str	r4, [r2]
 225:Generated_Source\PSoC4/I2C_EZI2C.c **** 
 226:Generated_Source\PSoC4/I2C_EZI2C.c ****         /* Set default address and mask */
 227:Generated_Source\PSoC4/I2C_EZI2C.c ****         I2C_RX_MATCH_REG     = I2C_EZI2C_DEFAULT_RX_MATCH;
  53              		.loc 1 227 0
  54 001c 1A49     		ldr	r1, .L2+24
  55 001e 1B4A     		ldr	r2, .L2+28
  56 0020 1160     		str	r1, [r2]
 228:Generated_Source\PSoC4/I2C_EZI2C.c **** 
 229:Generated_Source\PSoC4/I2C_EZI2C.c ****         /* Configure TX direction */
ARM GAS  C:\Users\bryan.lee\AppData\Local\Temp\ccgrQ7Cd.s 			page 6


 230:Generated_Source\PSoC4/I2C_EZI2C.c ****         I2C_TX_CTRL_REG      = I2C_EZI2C_DEFAULT_TX_CTRL;
  57              		.loc 1 230 0
  58 0022 1B4A     		ldr	r2, .L2+32
  59 0024 1360     		str	r3, [r2]
 231:Generated_Source\PSoC4/I2C_EZI2C.c ****         I2C_TX_FIFO_CTRL_REG = I2C_EZI2C_DEFAULT_TX_FIFO_CTRL;
  60              		.loc 1 231 0
  61 0026 1B4B     		ldr	r3, .L2+36
  62 0028 1C60     		str	r4, [r3]
 232:Generated_Source\PSoC4/I2C_EZI2C.c **** 
 233:Generated_Source\PSoC4/I2C_EZI2C.c ****         /* Configure interrupt with EZI2C handler but do not enable it */
 234:Generated_Source\PSoC4/I2C_EZI2C.c ****     #if !defined (CY_EXTERNAL_INTERRUPT_CONFIG)
 235:Generated_Source\PSoC4/I2C_EZI2C.c ****         CyIntDisable    (I2C_ISR_NUMBER);
  63              		.loc 1 235 0
  64 002a 0920     		movs	r0, #9
  65 002c FFF7FEFF 		bl	CyIntDisable
  66              	.LVL0:
 236:Generated_Source\PSoC4/I2C_EZI2C.c ****         CyIntSetPriority(I2C_ISR_NUMBER, I2C_ISR_PRIORITY);
  67              		.loc 1 236 0
  68 0030 0321     		movs	r1, #3
  69 0032 0920     		movs	r0, #9
  70 0034 FFF7FEFF 		bl	CyIntSetPriority
  71              	.LVL1:
 237:Generated_Source\PSoC4/I2C_EZI2C.c **** 
 238:Generated_Source\PSoC4/I2C_EZI2C.c ****     #if (I2C_EZI2C_SCL_STRETCH_ENABLE_CONST)
 239:Generated_Source\PSoC4/I2C_EZI2C.c ****         (void) CyIntSetVector(I2C_ISR_NUMBER, &I2C_EZI2C_STRETCH_ISR);
  72              		.loc 1 239 0
  73 0038 1749     		ldr	r1, .L2+40
  74 003a 0920     		movs	r0, #9
  75 003c FFF7FEFF 		bl	CyIntSetVector
  76              	.LVL2:
 240:Generated_Source\PSoC4/I2C_EZI2C.c ****     #else
 241:Generated_Source\PSoC4/I2C_EZI2C.c ****         (void) CyIntSetVector(I2C_ISR_NUMBER, &I2C_EZI2C_NO_STRETCH_ISR);
 242:Generated_Source\PSoC4/I2C_EZI2C.c ****     #endif /* (I2C_EZI2C_SCL_STRETCH_ENABLE_CONST) */
 243:Generated_Source\PSoC4/I2C_EZI2C.c **** 
 244:Generated_Source\PSoC4/I2C_EZI2C.c ****     #endif /* !defined (CY_EXTERNAL_INTERRUPT_CONFIG) */
 245:Generated_Source\PSoC4/I2C_EZI2C.c **** 
 246:Generated_Source\PSoC4/I2C_EZI2C.c ****         /* Configure interrupt sources */
 247:Generated_Source\PSoC4/I2C_EZI2C.c ****     #if (!I2C_CY_SCBIP_V1)
 248:Generated_Source\PSoC4/I2C_EZI2C.c ****         I2C_INTR_SPI_EC_MASK_REG = I2C_EZI2C_DEFAULT_INTR_SPI_EC_MASK;
  77              		.loc 1 248 0
  78 0040 164B     		ldr	r3, .L2+44
  79 0042 1C60     		str	r4, [r3]
 249:Generated_Source\PSoC4/I2C_EZI2C.c ****     #endif /* (!I2C_CY_SCBIP_V1) */
 250:Generated_Source\PSoC4/I2C_EZI2C.c **** 
 251:Generated_Source\PSoC4/I2C_EZI2C.c ****         I2C_INTR_I2C_EC_MASK_REG = I2C_EZI2C_DEFAULT_INTR_I2C_EC_MASK;
  80              		.loc 1 251 0
  81 0044 164B     		ldr	r3, .L2+48
  82 0046 1C60     		str	r4, [r3]
 252:Generated_Source\PSoC4/I2C_EZI2C.c ****         I2C_INTR_SLAVE_MASK_REG  = I2C_EZI2C_DEFAULT_INTR_SLAVE_MASK;
  83              		.loc 1 252 0
  84 0048 5222     		movs	r2, #82
  85 004a FF32     		adds	r2, r2, #255
  86 004c 154B     		ldr	r3, .L2+52
  87 004e 1A60     		str	r2, [r3]
 253:Generated_Source\PSoC4/I2C_EZI2C.c ****         I2C_INTR_MASTER_MASK_REG = I2C_EZI2C_DEFAULT_INTR_MASTER_MASK;
  88              		.loc 1 253 0
  89 0050 154B     		ldr	r3, .L2+56
ARM GAS  C:\Users\bryan.lee\AppData\Local\Temp\ccgrQ7Cd.s 			page 7


  90 0052 1C60     		str	r4, [r3]
 254:Generated_Source\PSoC4/I2C_EZI2C.c ****         I2C_INTR_RX_MASK_REG     = I2C_EZI2C_DEFAULT_INTR_RX_MASK;
  91              		.loc 1 254 0
  92 0054 154B     		ldr	r3, .L2+60
  93 0056 1C60     		str	r4, [r3]
 255:Generated_Source\PSoC4/I2C_EZI2C.c ****         I2C_INTR_TX_MASK_REG     = I2C_EZI2C_DEFAULT_INTR_TX_MASK;
  94              		.loc 1 255 0
  95 0058 154B     		ldr	r3, .L2+64
  96 005a 1C60     		str	r4, [r3]
 256:Generated_Source\PSoC4/I2C_EZI2C.c **** 
 257:Generated_Source\PSoC4/I2C_EZI2C.c ****         /* Configure global variables */
 258:Generated_Source\PSoC4/I2C_EZI2C.c ****         I2C_fsmState = I2C_EZI2C_FSM_IDLE;
  97              		.loc 1 258 0
  98 005c 154B     		ldr	r3, .L2+68
  99 005e 1C70     		strb	r4, [r3]
 259:Generated_Source\PSoC4/I2C_EZI2C.c **** 
 260:Generated_Source\PSoC4/I2C_EZI2C.c ****         I2C_curStatus  = 0u;
 100              		.loc 1 260 0
 101 0060 154B     		ldr	r3, .L2+72
 102 0062 1C70     		strb	r4, [r3]
 261:Generated_Source\PSoC4/I2C_EZI2C.c ****         I2C_indexBuf1  = 0u;
 103              		.loc 1 261 0
 104 0064 154B     		ldr	r3, .L2+76
 105 0066 1C80     		strh	r4, [r3]
 262:Generated_Source\PSoC4/I2C_EZI2C.c ****         I2C_offsetBuf1 = 0u;
 106              		.loc 1 262 0
 107 0068 154B     		ldr	r3, .L2+80
 108 006a 0022     		movs	r2, #0
 109 006c 1A70     		strb	r2, [r3]
 263:Generated_Source\PSoC4/I2C_EZI2C.c **** 
 264:Generated_Source\PSoC4/I2C_EZI2C.c ****     #if(I2C_SECONDARY_ADDRESS_ENABLE_CONST)
 265:Generated_Source\PSoC4/I2C_EZI2C.c ****         I2C_indexBuf2  = 0u;
 266:Generated_Source\PSoC4/I2C_EZI2C.c ****         I2C_offsetBuf2 = 0u;
 267:Generated_Source\PSoC4/I2C_EZI2C.c **** 
 268:Generated_Source\PSoC4/I2C_EZI2C.c ****         I2C_addrBuf1 = I2C_EZI2C_PRIMARY_SLAVE_ADDRESS;
 269:Generated_Source\PSoC4/I2C_EZI2C.c ****         I2C_addrBuf2 = I2C_EZI2C_SECONDARY_SLAVE_ADDRESS;
 270:Generated_Source\PSoC4/I2C_EZI2C.c ****     #endif /* (I2C_SECONDARY_ADDRESS_ENABLE_CONST) */
 271:Generated_Source\PSoC4/I2C_EZI2C.c ****     }
 110              		.loc 1 271 0
 111              		@ sp needed
 112 006e 10BD     		pop	{r4, pc}
 113              	.L3:
 114              		.align	2
 115              	.L2:
 116 0070 00002440 		.word	1076101120
 117 0074 00080040 		.word	1073743872
 118 0078 60002440 		.word	1076101216
 119 007c 07010080 		.word	-2147483385
 120 0080 00032440 		.word	1076101888
 121 0084 04032440 		.word	1076101892
 122 0088 1000FE00 		.word	16646160
 123 008c 10032440 		.word	1076101904
 124 0090 00022440 		.word	1076101632
 125 0094 04022440 		.word	1076101636
 126 0098 00000000 		.word	I2C_EZI2C_STRETCH_ISR
 127 009c C80E2440 		.word	1076104904
 128 00a0 880E2440 		.word	1076104840
ARM GAS  C:\Users\bryan.lee\AppData\Local\Temp\ccgrQ7Cd.s 			page 8


 129 00a4 480F2440 		.word	1076105032
 130 00a8 080F2440 		.word	1076104968
 131 00ac C80F2440 		.word	1076105160
 132 00b0 880F2440 		.word	1076105096
 133 00b4 00000000 		.word	I2C_fsmState
 134 00b8 00000000 		.word	I2C_curStatus
 135 00bc 00000000 		.word	I2C_indexBuf1
 136 00c0 00000000 		.word	I2C_offsetBuf1
 137              		.cfi_endproc
 138              	.LFE2:
 139              		.size	I2C_EzI2CInit, .-I2C_EzI2CInit
 140              		.section	.text.I2C_EzI2CStop,"ax",%progbits
 141              		.align	2
 142              		.global	I2C_EzI2CStop
 143              		.code	16
 144              		.thumb_func
 145              		.type	I2C_EzI2CStop, %function
 146              	I2C_EzI2CStop:
 147              	.LFB3:
 272:Generated_Source\PSoC4/I2C_EZI2C.c **** #endif /* (I2C_SCB_MODE_UNCONFIG_CONST_CFG) */
 273:Generated_Source\PSoC4/I2C_EZI2C.c **** 
 274:Generated_Source\PSoC4/I2C_EZI2C.c **** 
 275:Generated_Source\PSoC4/I2C_EZI2C.c **** /*******************************************************************************
 276:Generated_Source\PSoC4/I2C_EZI2C.c **** * Function Name: I2C_EzI2CStop
 277:Generated_Source\PSoC4/I2C_EZI2C.c **** ****************************************************************************//**
 278:Generated_Source\PSoC4/I2C_EZI2C.c **** *
 279:Generated_Source\PSoC4/I2C_EZI2C.c **** *  Resets the EZI2C FSM into the default state.
 280:Generated_Source\PSoC4/I2C_EZI2C.c **** *
 281:Generated_Source\PSoC4/I2C_EZI2C.c **** *******************************************************************************/
 282:Generated_Source\PSoC4/I2C_EZI2C.c **** void I2C_EzI2CStop(void)
 283:Generated_Source\PSoC4/I2C_EZI2C.c **** {
 148              		.loc 1 283 0
 149              		.cfi_startproc
 150              		@ args = 0, pretend = 0, frame = 0
 151              		@ frame_needed = 0, uses_anonymous_args = 0
 152              		@ link register save eliminated.
 284:Generated_Source\PSoC4/I2C_EZI2C.c ****     I2C_fsmState = I2C_EZI2C_FSM_IDLE;
 153              		.loc 1 284 0
 154 0000 0022     		movs	r2, #0
 155 0002 014B     		ldr	r3, .L5
 156 0004 1A70     		strb	r2, [r3]
 285:Generated_Source\PSoC4/I2C_EZI2C.c **** }
 157              		.loc 1 285 0
 158              		@ sp needed
 159 0006 7047     		bx	lr
 160              	.L6:
 161              		.align	2
 162              	.L5:
 163 0008 00000000 		.word	I2C_fsmState
 164              		.cfi_endproc
 165              	.LFE3:
 166              		.size	I2C_EzI2CStop, .-I2C_EzI2CStop
 167              		.section	.text.I2C_EzI2CGetActivity,"ax",%progbits
 168              		.align	2
 169              		.global	I2C_EzI2CGetActivity
 170              		.code	16
 171              		.thumb_func
ARM GAS  C:\Users\bryan.lee\AppData\Local\Temp\ccgrQ7Cd.s 			page 9


 172              		.type	I2C_EzI2CGetActivity, %function
 173              	I2C_EzI2CGetActivity:
 174              	.LFB4:
 286:Generated_Source\PSoC4/I2C_EZI2C.c **** 
 287:Generated_Source\PSoC4/I2C_EZI2C.c **** 
 288:Generated_Source\PSoC4/I2C_EZI2C.c **** /*******************************************************************************
 289:Generated_Source\PSoC4/I2C_EZI2C.c **** * Function Name: I2C_EzI2CGetActivity
 290:Generated_Source\PSoC4/I2C_EZI2C.c **** ****************************************************************************//**
 291:Generated_Source\PSoC4/I2C_EZI2C.c **** *
 292:Generated_Source\PSoC4/I2C_EZI2C.c **** *  Returns the EZI2C slave status.
 293:Generated_Source\PSoC4/I2C_EZI2C.c **** *  The read, write and error status flags reset to zero after this function
 294:Generated_Source\PSoC4/I2C_EZI2C.c **** *  call. The busy status flag is cleared when the transaction intended for
 295:Generated_Source\PSoC4/I2C_EZI2C.c **** *  the EZI2C slave completes.
 296:Generated_Source\PSoC4/I2C_EZI2C.c **** *
 297:Generated_Source\PSoC4/I2C_EZI2C.c **** * \return
 298:Generated_Source\PSoC4/I2C_EZI2C.c **** *  Returns the status of the EZI2C Slave activity.
 299:Generated_Source\PSoC4/I2C_EZI2C.c **** *  - I2C_EZI2C_STATUS_READ1 - Read transfer complete. The transfer 
 300:Generated_Source\PSoC4/I2C_EZI2C.c **** *    used the primary slave address. The error condition status bit must be 
 301:Generated_Source\PSoC4/I2C_EZI2C.c **** *    checked to ensure that read transfer was completed successfully.
 302:Generated_Source\PSoC4/I2C_EZI2C.c **** *  - I2C_EZI2C_STATUS_WRITE1 - Write transfer complete. The buffer 
 303:Generated_Source\PSoC4/I2C_EZI2C.c **** *    content was modified. The transfer used the primary slave address. 
 304:Generated_Source\PSoC4/I2C_EZI2C.c **** *    The error condition status bit must be checked to ensure that write 
 305:Generated_Source\PSoC4/I2C_EZI2C.c **** *    transfer was completed successfully.
 306:Generated_Source\PSoC4/I2C_EZI2C.c **** *  - I2C_EZI2C_STATUS_READ2 - Read transfer complete. The transfer
 307:Generated_Source\PSoC4/I2C_EZI2C.c **** *    used the secondary slave address. The error condition status bit must be 
 308:Generated_Source\PSoC4/I2C_EZI2C.c **** *    checked to ensure that read transfer was completed successfully.
 309:Generated_Source\PSoC4/I2C_EZI2C.c **** *  - I2C_EZI2C_STATUS_WRITE2 - Write transfer complete. The buffer
 310:Generated_Source\PSoC4/I2C_EZI2C.c **** *    content was modified. The transfer used the secondary slave address. 
 311:Generated_Source\PSoC4/I2C_EZI2C.c **** *    The error condition status bit must be checked to ensure that write 
 312:Generated_Source\PSoC4/I2C_EZI2C.c **** *    transfer was completed successfully.
 313:Generated_Source\PSoC4/I2C_EZI2C.c **** *  - I2C_EZI2C_STATUS_BUSY - A transfer intended for the primary 
 314:Generated_Source\PSoC4/I2C_EZI2C.c **** *    or secondary address is in progress. The status bit is set after an 
 315:Generated_Source\PSoC4/I2C_EZI2C.c **** *    address match and cleared on a Stop or ReStart condition.
 316:Generated_Source\PSoC4/I2C_EZI2C.c **** *  - I2C_EZI2C_STATUS_ERR - An error occurred during a transfer 
 317:Generated_Source\PSoC4/I2C_EZI2C.c **** *    intended for the primary or secondary slave address. The sources of error
 318:Generated_Source\PSoC4/I2C_EZI2C.c **** *    are: misplaced Start or Stop condition or lost arbitration while slave 
 319:Generated_Source\PSoC4/I2C_EZI2C.c **** *    drives SDA.
 320:Generated_Source\PSoC4/I2C_EZI2C.c **** *    The write buffer may contain invalid byte or part of the transaction when 
 321:Generated_Source\PSoC4/I2C_EZI2C.c **** *    I2C_EZI2C_STATUS_ERR and I2C_EZI2C_STATUS_WRITE1/2 
 322:Generated_Source\PSoC4/I2C_EZI2C.c **** *    is set. It is recommended to discard buffer content in this case.
 323:Generated_Source\PSoC4/I2C_EZI2C.c **** *
 324:Generated_Source\PSoC4/I2C_EZI2C.c **** * \globalvars
 325:Generated_Source\PSoC4/I2C_EZI2C.c **** *  I2C_curStatus - used to store the current status of the EZI2C 
 326:Generated_Source\PSoC4/I2C_EZI2C.c **** *  slave.
 327:Generated_Source\PSoC4/I2C_EZI2C.c **** *
 328:Generated_Source\PSoC4/I2C_EZI2C.c **** *******************************************************************************/
 329:Generated_Source\PSoC4/I2C_EZI2C.c **** uint32 I2C_EzI2CGetActivity(void)
 330:Generated_Source\PSoC4/I2C_EZI2C.c **** {
 175              		.loc 1 330 0
 176              		.cfi_startproc
 177              		@ args = 0, pretend = 0, frame = 0
 178              		@ frame_needed = 0, uses_anonymous_args = 0
 179 0000 10B5     		push	{r4, lr}
 180              		.cfi_def_cfa_offset 8
 181              		.cfi_offset 4, -8
 182              		.cfi_offset 14, -4
 331:Generated_Source\PSoC4/I2C_EZI2C.c ****     uint32 status;
ARM GAS  C:\Users\bryan.lee\AppData\Local\Temp\ccgrQ7Cd.s 			page 10


 332:Generated_Source\PSoC4/I2C_EZI2C.c **** 
 333:Generated_Source\PSoC4/I2C_EZI2C.c ****     I2C_DisableInt();  /* Lock from interruption */
 183              		.loc 1 333 0
 184 0002 0920     		movs	r0, #9
 185 0004 FFF7FEFF 		bl	CyIntDisable
 186              	.LVL3:
 334:Generated_Source\PSoC4/I2C_EZI2C.c **** 
 335:Generated_Source\PSoC4/I2C_EZI2C.c ****     status = I2C_curStatus;
 187              		.loc 1 335 0
 188 0008 054B     		ldr	r3, .L8
 189 000a 1C78     		ldrb	r4, [r3]
 190 000c E4B2     		uxtb	r4, r4
 191              	.LVL4:
 336:Generated_Source\PSoC4/I2C_EZI2C.c **** 
 337:Generated_Source\PSoC4/I2C_EZI2C.c ****     /* Relay on address match event from HW as bus busy status */
 338:Generated_Source\PSoC4/I2C_EZI2C.c ****     #if(I2C_EZI2C_SCL_STRETCH_DISABLE)
 339:Generated_Source\PSoC4/I2C_EZI2C.c ****     {
 340:Generated_Source\PSoC4/I2C_EZI2C.c ****         /* For I2C_CY_SCBIP_V0 the wake is prohibited by customizer */
 341:Generated_Source\PSoC4/I2C_EZI2C.c ****         #if(I2C_EZI2C_EC_AM_ENABLE)
 342:Generated_Source\PSoC4/I2C_EZI2C.c ****         {
 343:Generated_Source\PSoC4/I2C_EZI2C.c ****             status |= I2C_CHECK_INTR_I2C_EC(I2C_INTR_I2C_EC_WAKE_UP) ?
 344:Generated_Source\PSoC4/I2C_EZI2C.c ****                         I2C_EZI2C_STATUS_BUSY : 0u;
 345:Generated_Source\PSoC4/I2C_EZI2C.c ****         }
 346:Generated_Source\PSoC4/I2C_EZI2C.c ****         #else
 347:Generated_Source\PSoC4/I2C_EZI2C.c ****         {
 348:Generated_Source\PSoC4/I2C_EZI2C.c ****             status |= I2C_CHECK_INTR_SLAVE(I2C_INTR_SLAVE_I2C_ADDR_MATCH) ?
 349:Generated_Source\PSoC4/I2C_EZI2C.c ****                         I2C_EZI2C_STATUS_BUSY : 0u;
 350:Generated_Source\PSoC4/I2C_EZI2C.c ****         }
 351:Generated_Source\PSoC4/I2C_EZI2C.c ****         #endif
 352:Generated_Source\PSoC4/I2C_EZI2C.c ****     }
 353:Generated_Source\PSoC4/I2C_EZI2C.c ****     #endif
 354:Generated_Source\PSoC4/I2C_EZI2C.c **** 
 355:Generated_Source\PSoC4/I2C_EZI2C.c ****     I2C_curStatus &= ((uint8) ~I2C_EZI2C_CLEAR_STATUS);
 192              		.loc 1 355 0
 193 000e 1A78     		ldrb	r2, [r3]
 194 0010 1F21     		movs	r1, #31
 195 0012 8A43     		bics	r2, r1
 196 0014 1A70     		strb	r2, [r3]
 356:Generated_Source\PSoC4/I2C_EZI2C.c **** 
 357:Generated_Source\PSoC4/I2C_EZI2C.c ****     I2C_EnableInt();   /* Release lock */
 197              		.loc 1 357 0
 198 0016 0920     		movs	r0, #9
 199 0018 FFF7FEFF 		bl	CyIntEnable
 200              	.LVL5:
 358:Generated_Source\PSoC4/I2C_EZI2C.c **** 
 359:Generated_Source\PSoC4/I2C_EZI2C.c ****     return(status);
 360:Generated_Source\PSoC4/I2C_EZI2C.c **** }
 201              		.loc 1 360 0
 202 001c 2000     		movs	r0, r4
 203              		@ sp needed
 204              	.LVL6:
 205 001e 10BD     		pop	{r4, pc}
 206              	.L9:
 207              		.align	2
 208              	.L8:
 209 0020 00000000 		.word	I2C_curStatus
 210              		.cfi_endproc
ARM GAS  C:\Users\bryan.lee\AppData\Local\Temp\ccgrQ7Cd.s 			page 11


 211              	.LFE4:
 212              		.size	I2C_EzI2CGetActivity, .-I2C_EzI2CGetActivity
 213              		.section	.text.I2C_EzI2CSetAddress1,"ax",%progbits
 214              		.align	2
 215              		.global	I2C_EzI2CSetAddress1
 216              		.code	16
 217              		.thumb_func
 218              		.type	I2C_EzI2CSetAddress1, %function
 219              	I2C_EzI2CSetAddress1:
 220              	.LFB5:
 361:Generated_Source\PSoC4/I2C_EZI2C.c **** 
 362:Generated_Source\PSoC4/I2C_EZI2C.c **** 
 363:Generated_Source\PSoC4/I2C_EZI2C.c **** /*******************************************************************************
 364:Generated_Source\PSoC4/I2C_EZI2C.c **** * Function Name: I2C_EzI2CSetAddress1
 365:Generated_Source\PSoC4/I2C_EZI2C.c **** ****************************************************************************//**
 366:Generated_Source\PSoC4/I2C_EZI2C.c **** *
 367:Generated_Source\PSoC4/I2C_EZI2C.c **** *  Sets the primary EZI2C slave address.
 368:Generated_Source\PSoC4/I2C_EZI2C.c **** *
 369:Generated_Source\PSoC4/I2C_EZI2C.c **** * \param address: I2C slave address for the secondary device.
 370:Generated_Source\PSoC4/I2C_EZI2C.c **** *  This address is the 7-bit right-justified slave address and does not 
 371:Generated_Source\PSoC4/I2C_EZI2C.c **** *   include the R/W bit.
 372:Generated_Source\PSoC4/I2C_EZI2C.c **** *
 373:Generated_Source\PSoC4/I2C_EZI2C.c **** *  The address value is not checked to see if it violates the I2C spec. 
 374:Generated_Source\PSoC4/I2C_EZI2C.c **** *  The preferred addresses are in the range between 8 and 120 (0x08 to 0x78).
 375:Generated_Source\PSoC4/I2C_EZI2C.c **** *
 376:Generated_Source\PSoC4/I2C_EZI2C.c **** * \globalvars
 377:Generated_Source\PSoC4/I2C_EZI2C.c **** *  I2C_addrBuf1 - used to store the primary 7-bit slave address 
 378:Generated_Source\PSoC4/I2C_EZI2C.c **** *  value.
 379:Generated_Source\PSoC4/I2C_EZI2C.c **** *
 380:Generated_Source\PSoC4/I2C_EZI2C.c **** *******************************************************************************/
 381:Generated_Source\PSoC4/I2C_EZI2C.c **** void I2C_EzI2CSetAddress1(uint32 address)
 382:Generated_Source\PSoC4/I2C_EZI2C.c **** {
 221              		.loc 1 382 0
 222              		.cfi_startproc
 223              		@ args = 0, pretend = 0, frame = 0
 224              		@ frame_needed = 0, uses_anonymous_args = 0
 225              		@ link register save eliminated.
 226              	.LVL7:
 227 0000 0300     		movs	r3, r0
 228              	.LBB2:
 383:Generated_Source\PSoC4/I2C_EZI2C.c ****     #if(I2C_SECONDARY_ADDRESS_ENABLE)
 384:Generated_Source\PSoC4/I2C_EZI2C.c ****     {
 385:Generated_Source\PSoC4/I2C_EZI2C.c ****         I2C_addrBuf1 = (uint8) address;
 386:Generated_Source\PSoC4/I2C_EZI2C.c **** 
 387:Generated_Source\PSoC4/I2C_EZI2C.c ****         I2C_RX_MATCH_REG = 
 388:Generated_Source\PSoC4/I2C_EZI2C.c ****                         I2C_EzI2CUpdateRxMatchReg(address, (uint32) I2C_addrBuf2);
 389:Generated_Source\PSoC4/I2C_EZI2C.c ****     }
 390:Generated_Source\PSoC4/I2C_EZI2C.c ****     #else
 391:Generated_Source\PSoC4/I2C_EZI2C.c ****     {
 392:Generated_Source\PSoC4/I2C_EZI2C.c ****         uint32 matchReg;
 393:Generated_Source\PSoC4/I2C_EZI2C.c **** 
 394:Generated_Source\PSoC4/I2C_EZI2C.c ****         matchReg = I2C_RX_MATCH_REG;
 229              		.loc 1 394 0
 230 0002 0449     		ldr	r1, .L11
 231 0004 0A68     		ldr	r2, [r1]
 232              	.LVL8:
 395:Generated_Source\PSoC4/I2C_EZI2C.c **** 
ARM GAS  C:\Users\bryan.lee\AppData\Local\Temp\ccgrQ7Cd.s 			page 12


 396:Generated_Source\PSoC4/I2C_EZI2C.c ****         /* Set address. */
 397:Generated_Source\PSoC4/I2C_EZI2C.c ****         matchReg &= (uint32) ~I2C_RX_MATCH_ADDR_MASK;
 233              		.loc 1 397 0
 234 0006 FF20     		movs	r0, #255
 235              	.LVL9:
 236 0008 8243     		bics	r2, r0
 237              	.LVL10:
 398:Generated_Source\PSoC4/I2C_EZI2C.c ****         matchReg |= (uint32)  I2C_GET_I2C_8BIT_ADDRESS(address);
 238              		.loc 1 398 0
 239 000a 5B00     		lsls	r3, r3, #1
 240              	.LVL11:
 241 000c 1840     		ands	r0, r3
 242 000e 1043     		orrs	r0, r2
 243              	.LVL12:
 399:Generated_Source\PSoC4/I2C_EZI2C.c **** 
 400:Generated_Source\PSoC4/I2C_EZI2C.c ****         I2C_RX_MATCH_REG = matchReg;
 244              		.loc 1 400 0
 245 0010 0860     		str	r0, [r1]
 246              	.LBE2:
 401:Generated_Source\PSoC4/I2C_EZI2C.c ****     }
 402:Generated_Source\PSoC4/I2C_EZI2C.c ****     #endif
 403:Generated_Source\PSoC4/I2C_EZI2C.c **** }
 247              		.loc 1 403 0
 248              		@ sp needed
 249 0012 7047     		bx	lr
 250              	.L12:
 251              		.align	2
 252              	.L11:
 253 0014 10032440 		.word	1076101904
 254              		.cfi_endproc
 255              	.LFE5:
 256              		.size	I2C_EzI2CSetAddress1, .-I2C_EzI2CSetAddress1
 257              		.section	.text.I2C_EzI2CGetAddress1,"ax",%progbits
 258              		.align	2
 259              		.global	I2C_EzI2CGetAddress1
 260              		.code	16
 261              		.thumb_func
 262              		.type	I2C_EzI2CGetAddress1, %function
 263              	I2C_EzI2CGetAddress1:
 264              	.LFB6:
 404:Generated_Source\PSoC4/I2C_EZI2C.c **** 
 405:Generated_Source\PSoC4/I2C_EZI2C.c **** 
 406:Generated_Source\PSoC4/I2C_EZI2C.c **** /*******************************************************************************
 407:Generated_Source\PSoC4/I2C_EZI2C.c **** * Function Name: I2C_EzI2CGetAddress1
 408:Generated_Source\PSoC4/I2C_EZI2C.c **** ****************************************************************************//**
 409:Generated_Source\PSoC4/I2C_EZI2C.c **** *
 410:Generated_Source\PSoC4/I2C_EZI2C.c **** *  Returns primary the EZ I2C slave address.
 411:Generated_Source\PSoC4/I2C_EZI2C.c **** *  This address is the 7-bit right-justified slave address and does not include 
 412:Generated_Source\PSoC4/I2C_EZI2C.c **** *  the R/W bit.
 413:Generated_Source\PSoC4/I2C_EZI2C.c **** *
 414:Generated_Source\PSoC4/I2C_EZI2C.c **** * \return
 415:Generated_Source\PSoC4/I2C_EZI2C.c **** *  Primary EZI2C slave address.
 416:Generated_Source\PSoC4/I2C_EZI2C.c **** *
 417:Generated_Source\PSoC4/I2C_EZI2C.c **** * \globalvars
 418:Generated_Source\PSoC4/I2C_EZI2C.c **** *  I2C_addrBuf1 - used to store the primary 7-bit slave address 
 419:Generated_Source\PSoC4/I2C_EZI2C.c **** *  value.
 420:Generated_Source\PSoC4/I2C_EZI2C.c **** *
ARM GAS  C:\Users\bryan.lee\AppData\Local\Temp\ccgrQ7Cd.s 			page 13


 421:Generated_Source\PSoC4/I2C_EZI2C.c **** *******************************************************************************/
 422:Generated_Source\PSoC4/I2C_EZI2C.c **** uint32 I2C_EzI2CGetAddress1(void)
 423:Generated_Source\PSoC4/I2C_EZI2C.c **** {
 265              		.loc 1 423 0
 266              		.cfi_startproc
 267              		@ args = 0, pretend = 0, frame = 0
 268              		@ frame_needed = 0, uses_anonymous_args = 0
 269              		@ link register save eliminated.
 424:Generated_Source\PSoC4/I2C_EZI2C.c ****     uint32 address;
 425:Generated_Source\PSoC4/I2C_EZI2C.c **** 
 426:Generated_Source\PSoC4/I2C_EZI2C.c ****     #if(I2C_SECONDARY_ADDRESS_ENABLE)
 427:Generated_Source\PSoC4/I2C_EZI2C.c ****     {
 428:Generated_Source\PSoC4/I2C_EZI2C.c ****         address = (uint32) I2C_addrBuf1;
 429:Generated_Source\PSoC4/I2C_EZI2C.c ****     }
 430:Generated_Source\PSoC4/I2C_EZI2C.c ****     #else
 431:Generated_Source\PSoC4/I2C_EZI2C.c ****     {
 432:Generated_Source\PSoC4/I2C_EZI2C.c ****         address = (I2C_GET_RX_MATCH_ADDR(I2C_RX_MATCH_REG) >>
 270              		.loc 1 432 0
 271 0000 024B     		ldr	r3, .L14
 272 0002 1868     		ldr	r0, [r3]
 273 0004 4008     		lsrs	r0, r0, #1
 274 0006 7F23     		movs	r3, #127
 275 0008 1840     		ands	r0, r3
 276              	.LVL13:
 433:Generated_Source\PSoC4/I2C_EZI2C.c ****                    I2C_I2C_SLAVE_ADDR_POS);
 434:Generated_Source\PSoC4/I2C_EZI2C.c ****     }
 435:Generated_Source\PSoC4/I2C_EZI2C.c ****     #endif
 436:Generated_Source\PSoC4/I2C_EZI2C.c **** 
 437:Generated_Source\PSoC4/I2C_EZI2C.c ****     return(address);
 438:Generated_Source\PSoC4/I2C_EZI2C.c **** }
 277              		.loc 1 438 0
 278              		@ sp needed
 279 000a 7047     		bx	lr
 280              	.L15:
 281              		.align	2
 282              	.L14:
 283 000c 10032440 		.word	1076101904
 284              		.cfi_endproc
 285              	.LFE6:
 286              		.size	I2C_EzI2CGetAddress1, .-I2C_EzI2CGetAddress1
 287              		.section	.text.I2C_EzI2CSetBuffer1,"ax",%progbits
 288              		.align	2
 289              		.global	I2C_EzI2CSetBuffer1
 290              		.code	16
 291              		.thumb_func
 292              		.type	I2C_EzI2CSetBuffer1, %function
 293              	I2C_EzI2CSetBuffer1:
 294              	.LFB7:
 439:Generated_Source\PSoC4/I2C_EZI2C.c **** 
 440:Generated_Source\PSoC4/I2C_EZI2C.c **** 
 441:Generated_Source\PSoC4/I2C_EZI2C.c **** /*******************************************************************************
 442:Generated_Source\PSoC4/I2C_EZI2C.c **** * Function Name: I2C_EzI2CSetBuffer1
 443:Generated_Source\PSoC4/I2C_EZI2C.c **** ****************************************************************************//**
 444:Generated_Source\PSoC4/I2C_EZI2C.c **** *
 445:Generated_Source\PSoC4/I2C_EZI2C.c **** *  Sets up the data buffer to be exposed to the I2C master on a primary slave
 446:Generated_Source\PSoC4/I2C_EZI2C.c **** *  address request.
 447:Generated_Source\PSoC4/I2C_EZI2C.c **** *
ARM GAS  C:\Users\bryan.lee\AppData\Local\Temp\ccgrQ7Cd.s 			page 14


 448:Generated_Source\PSoC4/I2C_EZI2C.c **** * \param bufSize: Size of the buffer in bytes.
 449:Generated_Source\PSoC4/I2C_EZI2C.c **** * \param rwBoundary: Number of data bytes starting from the beginning of the 
 450:Generated_Source\PSoC4/I2C_EZI2C.c **** *  buffer with read and write access. Data bytes located at offset rwBoundary 
 451:Generated_Source\PSoC4/I2C_EZI2C.c **** *  or greater are read only.
 452:Generated_Source\PSoC4/I2C_EZI2C.c **** *  This value must be less than or equal to the buffer size.
 453:Generated_Source\PSoC4/I2C_EZI2C.c **** * \param buffer: Pointer to the data buffer.
 454:Generated_Source\PSoC4/I2C_EZI2C.c **** *
 455:Generated_Source\PSoC4/I2C_EZI2C.c **** * \sideeffect
 456:Generated_Source\PSoC4/I2C_EZI2C.c **** *  Calling this function in the middle of a transaction intended for the 
 457:Generated_Source\PSoC4/I2C_EZI2C.c **** *  primary slave address leads to unexpected behavior.
 458:Generated_Source\PSoC4/I2C_EZI2C.c **** *
 459:Generated_Source\PSoC4/I2C_EZI2C.c **** * \globalvars
 460:Generated_Source\PSoC4/I2C_EZI2C.c **** *  I2C_dataBuffer1 – the pointer to the buffer to be exposed to the
 461:Generated_Source\PSoC4/I2C_EZI2C.c **** *  master on a primary address.
 462:Generated_Source\PSoC4/I2C_EZI2C.c **** *  I2C_bufSizeBuf1 - the size of the buffer to be exposed to the 
 463:Generated_Source\PSoC4/I2C_EZI2C.c **** *  master on a primary address.
 464:Generated_Source\PSoC4/I2C_EZI2C.c **** *  I2C_protectBuf1 - the start index of the read-only region in the
 465:Generated_Source\PSoC4/I2C_EZI2C.c **** *  buffer to be exposed to the master on a primary address. The read-only region
 466:Generated_Source\PSoC4/I2C_EZI2C.c **** *  continues up to the end the buffer.
 467:Generated_Source\PSoC4/I2C_EZI2C.c **** *
 468:Generated_Source\PSoC4/I2C_EZI2C.c **** *******************************************************************************/
 469:Generated_Source\PSoC4/I2C_EZI2C.c **** void I2C_EzI2CSetBuffer1(uint32 bufSize, uint32 rwBoundary, volatile uint8 * buffer)
 470:Generated_Source\PSoC4/I2C_EZI2C.c **** {
 295              		.loc 1 470 0
 296              		.cfi_startproc
 297              		@ args = 0, pretend = 0, frame = 0
 298              		@ frame_needed = 0, uses_anonymous_args = 0
 299              	.LVL14:
 300 0000 70B5     		push	{r4, r5, r6, lr}
 301              		.cfi_def_cfa_offset 16
 302              		.cfi_offset 4, -16
 303              		.cfi_offset 5, -12
 304              		.cfi_offset 6, -8
 305              		.cfi_offset 14, -4
 306 0002 0600     		movs	r6, r0
 307 0004 0D00     		movs	r5, r1
 308 0006 141E     		subs	r4, r2, #0
 471:Generated_Source\PSoC4/I2C_EZI2C.c ****     if (NULL != buffer)
 309              		.loc 1 471 0
 310 0008 0BD0     		beq	.L16
 472:Generated_Source\PSoC4/I2C_EZI2C.c ****     {
 473:Generated_Source\PSoC4/I2C_EZI2C.c ****         I2C_DisableInt();  /* Lock from interruption */
 311              		.loc 1 473 0
 312 000a 0920     		movs	r0, #9
 313              	.LVL15:
 314 000c FFF7FEFF 		bl	CyIntDisable
 315              	.LVL16:
 474:Generated_Source\PSoC4/I2C_EZI2C.c **** 
 475:Generated_Source\PSoC4/I2C_EZI2C.c ****         I2C_dataBuffer1 =  buffer;
 316              		.loc 1 475 0
 317 0010 044B     		ldr	r3, .L18
 318 0012 1C60     		str	r4, [r3]
 476:Generated_Source\PSoC4/I2C_EZI2C.c ****         I2C_bufSizeBuf1 = (uint16) bufSize;
 319              		.loc 1 476 0
 320 0014 044B     		ldr	r3, .L18+4
 321 0016 1E80     		strh	r6, [r3]
 477:Generated_Source\PSoC4/I2C_EZI2C.c ****         I2C_protectBuf1 = (uint16) rwBoundary;
ARM GAS  C:\Users\bryan.lee\AppData\Local\Temp\ccgrQ7Cd.s 			page 15


 322              		.loc 1 477 0
 323 0018 044B     		ldr	r3, .L18+8
 324 001a 1D80     		strh	r5, [r3]
 478:Generated_Source\PSoC4/I2C_EZI2C.c **** 
 479:Generated_Source\PSoC4/I2C_EZI2C.c ****         I2C_EnableInt();   /* Release lock */
 325              		.loc 1 479 0
 326 001c 0920     		movs	r0, #9
 327 001e FFF7FEFF 		bl	CyIntEnable
 328              	.LVL17:
 329              	.L16:
 480:Generated_Source\PSoC4/I2C_EZI2C.c ****     }
 481:Generated_Source\PSoC4/I2C_EZI2C.c **** }
 330              		.loc 1 481 0
 331              		@ sp needed
 332              	.LVL18:
 333              	.LVL19:
 334              	.LVL20:
 335 0022 70BD     		pop	{r4, r5, r6, pc}
 336              	.L19:
 337              		.align	2
 338              	.L18:
 339 0024 00000000 		.word	I2C_dataBuffer1
 340 0028 00000000 		.word	I2C_bufSizeBuf1
 341 002c 00000000 		.word	I2C_protectBuf1
 342              		.cfi_endproc
 343              	.LFE7:
 344              		.size	I2C_EzI2CSetBuffer1, .-I2C_EzI2CSetBuffer1
 345              		.section	.text.I2C_EzI2CSetReadBoundaryBuffer1,"ax",%progbits
 346              		.align	2
 347              		.global	I2C_EzI2CSetReadBoundaryBuffer1
 348              		.code	16
 349              		.thumb_func
 350              		.type	I2C_EzI2CSetReadBoundaryBuffer1, %function
 351              	I2C_EzI2CSetReadBoundaryBuffer1:
 352              	.LFB8:
 482:Generated_Source\PSoC4/I2C_EZI2C.c **** 
 483:Generated_Source\PSoC4/I2C_EZI2C.c **** 
 484:Generated_Source\PSoC4/I2C_EZI2C.c **** /*******************************************************************************
 485:Generated_Source\PSoC4/I2C_EZI2C.c **** * Function Name: I2C_EzI2CSetReadBoundaryBuffer1
 486:Generated_Source\PSoC4/I2C_EZI2C.c **** ****************************************************************************//**
 487:Generated_Source\PSoC4/I2C_EZI2C.c **** *
 488:Generated_Source\PSoC4/I2C_EZI2C.c **** *  Sets the read only boundary in the data buffer to be exposed to the I2C
 489:Generated_Source\PSoC4/I2C_EZI2C.c **** *  master on a primary slave address request.
 490:Generated_Source\PSoC4/I2C_EZI2C.c **** *
 491:Generated_Source\PSoC4/I2C_EZI2C.c **** * \param rwBoundry: Number of data bytes starting from the beginning of the 
 492:Generated_Source\PSoC4/I2C_EZI2C.c **** *  buffer with read and write access. Data bytes located at offset rwBoundary 
 493:Generated_Source\PSoC4/I2C_EZI2C.c **** *  or greater are read only.
 494:Generated_Source\PSoC4/I2C_EZI2C.c **** *  This value must be less than or equal to the buffer size.
 495:Generated_Source\PSoC4/I2C_EZI2C.c **** *
 496:Generated_Source\PSoC4/I2C_EZI2C.c **** * \sideeffect
 497:Generated_Source\PSoC4/I2C_EZI2C.c **** *  Calling this function in the middle of a transaction intended for the 
 498:Generated_Source\PSoC4/I2C_EZI2C.c **** *  primary slave address leads to unexpected behavior.
 499:Generated_Source\PSoC4/I2C_EZI2C.c **** *
 500:Generated_Source\PSoC4/I2C_EZI2C.c **** * \globalvars
 501:Generated_Source\PSoC4/I2C_EZI2C.c **** *  I2C_protectBuf1 - the start index of the read-only region in the
 502:Generated_Source\PSoC4/I2C_EZI2C.c **** *  buffer to be exposed to the master on a primary address. The read-only region
 503:Generated_Source\PSoC4/I2C_EZI2C.c **** *  continues up to the end the buffer.
ARM GAS  C:\Users\bryan.lee\AppData\Local\Temp\ccgrQ7Cd.s 			page 16


 504:Generated_Source\PSoC4/I2C_EZI2C.c **** *
 505:Generated_Source\PSoC4/I2C_EZI2C.c **** *******************************************************************************/
 506:Generated_Source\PSoC4/I2C_EZI2C.c **** void I2C_EzI2CSetReadBoundaryBuffer1(uint32 rwBoundary)
 507:Generated_Source\PSoC4/I2C_EZI2C.c **** {
 353              		.loc 1 507 0
 354              		.cfi_startproc
 355              		@ args = 0, pretend = 0, frame = 0
 356              		@ frame_needed = 0, uses_anonymous_args = 0
 357              		@ link register save eliminated.
 358              	.LVL21:
 508:Generated_Source\PSoC4/I2C_EZI2C.c ****     I2C_protectBuf1 = (uint16) rwBoundary;
 359              		.loc 1 508 0
 360 0000 014B     		ldr	r3, .L21
 361 0002 1880     		strh	r0, [r3]
 509:Generated_Source\PSoC4/I2C_EZI2C.c **** }
 362              		.loc 1 509 0
 363              		@ sp needed
 364 0004 7047     		bx	lr
 365              	.L22:
 366 0006 C046     		.align	2
 367              	.L21:
 368 0008 00000000 		.word	I2C_protectBuf1
 369              		.cfi_endproc
 370              	.LFE8:
 371              		.size	I2C_EzI2CSetReadBoundaryBuffer1, .-I2C_EzI2CSetReadBoundaryBuffer1
 372              		.section	.text.I2C_EzI2CSaveConfig,"ax",%progbits
 373              		.align	2
 374              		.global	I2C_EzI2CSaveConfig
 375              		.code	16
 376              		.thumb_func
 377              		.type	I2C_EzI2CSaveConfig, %function
 378              	I2C_EzI2CSaveConfig:
 379              	.LFB9:
 510:Generated_Source\PSoC4/I2C_EZI2C.c **** 
 511:Generated_Source\PSoC4/I2C_EZI2C.c **** 
 512:Generated_Source\PSoC4/I2C_EZI2C.c **** #if(I2C_SECONDARY_ADDRESS_ENABLE_CONST)
 513:Generated_Source\PSoC4/I2C_EZI2C.c ****     /*******************************************************************************
 514:Generated_Source\PSoC4/I2C_EZI2C.c ****     * Function Name: I2C_EzI2CUpdateRxMatchReg
 515:Generated_Source\PSoC4/I2C_EZI2C.c ****     ****************************************************************************//**
 516:Generated_Source\PSoC4/I2C_EZI2C.c ****     *
 517:Generated_Source\PSoC4/I2C_EZI2C.c ****     *  Returns the value of the RX MATCH register for addr1 and addr2. The addr1 is
 518:Generated_Source\PSoC4/I2C_EZI2C.c ****     *  accepted as the primary address and it is written to RX_MATCH.ADDRESS
 519:Generated_Source\PSoC4/I2C_EZI2C.c ****     *  (addr1 << 0x01).
 520:Generated_Source\PSoC4/I2C_EZI2C.c ****     *  The RX_MATCH.MASK is set as follow: addr1 and addr2 equal bits set to 1
 521:Generated_Source\PSoC4/I2C_EZI2C.c ****     *  otherwise 0.
 522:Generated_Source\PSoC4/I2C_EZI2C.c ****     *
 523:Generated_Source\PSoC4/I2C_EZI2C.c ****     * \param addr1: I2C slave address for the primary device.
 524:Generated_Source\PSoC4/I2C_EZI2C.c ****     * \param addr2: I2C slave address for the secondary device.
 525:Generated_Source\PSoC4/I2C_EZI2C.c ****     *  This address is the 7-bit right-justified slave address and does
 526:Generated_Source\PSoC4/I2C_EZI2C.c ****     *  not include the R/W bit.
 527:Generated_Source\PSoC4/I2C_EZI2C.c ****     *
 528:Generated_Source\PSoC4/I2C_EZI2C.c ****     * \return
 529:Generated_Source\PSoC4/I2C_EZI2C.c ****     *  Value of RX MATCH register.
 530:Generated_Source\PSoC4/I2C_EZI2C.c ****     *
 531:Generated_Source\PSoC4/I2C_EZI2C.c ****     *******************************************************************************/
 532:Generated_Source\PSoC4/I2C_EZI2C.c ****     static uint32 I2C_EzI2CUpdateRxMatchReg(uint32 addr1, uint32 addr2)
 533:Generated_Source\PSoC4/I2C_EZI2C.c ****     {
ARM GAS  C:\Users\bryan.lee\AppData\Local\Temp\ccgrQ7Cd.s 			page 17


 534:Generated_Source\PSoC4/I2C_EZI2C.c ****         uint32 matchReg;
 535:Generated_Source\PSoC4/I2C_EZI2C.c **** 
 536:Generated_Source\PSoC4/I2C_EZI2C.c ****         matchReg  = ~(addr1 ^ addr2); /* If (addr1 and addr2) bit matches - mask bit equals 1, in o
 537:Generated_Source\PSoC4/I2C_EZI2C.c **** 
 538:Generated_Source\PSoC4/I2C_EZI2C.c ****         matchReg  = (uint32) (I2C_GET_I2C_8BIT_ADDRESS(matchReg) << I2C_RX_MATCH_MASK_POS);
 539:Generated_Source\PSoC4/I2C_EZI2C.c ****         matchReg |= I2C_GET_I2C_8BIT_ADDRESS(addr1);
 540:Generated_Source\PSoC4/I2C_EZI2C.c **** 
 541:Generated_Source\PSoC4/I2C_EZI2C.c ****         return(matchReg);
 542:Generated_Source\PSoC4/I2C_EZI2C.c ****     }
 543:Generated_Source\PSoC4/I2C_EZI2C.c **** 
 544:Generated_Source\PSoC4/I2C_EZI2C.c ****     /*******************************************************************************
 545:Generated_Source\PSoC4/I2C_EZI2C.c ****     * Function Name: I2C_EzI2CSetAddress2
 546:Generated_Source\PSoC4/I2C_EZI2C.c ****     ****************************************************************************//**
 547:Generated_Source\PSoC4/I2C_EZI2C.c ****     *
 548:Generated_Source\PSoC4/I2C_EZI2C.c ****     *  Sets the secondary EZI2C slave address.
 549:Generated_Source\PSoC4/I2C_EZI2C.c ****     *
 550:Generated_Source\PSoC4/I2C_EZI2C.c ****     * \param address: secondary I2C slave address.
 551:Generated_Source\PSoC4/I2C_EZI2C.c ****     *  This address is the 7-bit right-justified slave address and does not 
 552:Generated_Source\PSoC4/I2C_EZI2C.c ****     *  include the R/W bit.
 553:Generated_Source\PSoC4/I2C_EZI2C.c ****     *  The address value is not checked to see if it violates the I2C spec. 
 554:Generated_Source\PSoC4/I2C_EZI2C.c ****     *  The preferred addresses are in the range between 8 and 120 (0x08 to 0x78).
 555:Generated_Source\PSoC4/I2C_EZI2C.c ****     *
 556:Generated_Source\PSoC4/I2C_EZI2C.c ****     * \globalvars
 557:Generated_Source\PSoC4/I2C_EZI2C.c ****     *  I2C_addrBuf2 - used to store the secondary 7-bit slave address 
 558:Generated_Source\PSoC4/I2C_EZI2C.c ****     *  value.
 559:Generated_Source\PSoC4/I2C_EZI2C.c ****     *
 560:Generated_Source\PSoC4/I2C_EZI2C.c ****     *******************************************************************************/
 561:Generated_Source\PSoC4/I2C_EZI2C.c ****     void I2C_EzI2CSetAddress2(uint32 address)
 562:Generated_Source\PSoC4/I2C_EZI2C.c ****     {
 563:Generated_Source\PSoC4/I2C_EZI2C.c ****         I2C_addrBuf2 = (uint8) address;
 564:Generated_Source\PSoC4/I2C_EZI2C.c **** 
 565:Generated_Source\PSoC4/I2C_EZI2C.c ****         I2C_RX_MATCH_REG = 
 566:Generated_Source\PSoC4/I2C_EZI2C.c ****                         I2C_EzI2CUpdateRxMatchReg((uint32) I2C_addrBuf1, address);
 567:Generated_Source\PSoC4/I2C_EZI2C.c ****     }
 568:Generated_Source\PSoC4/I2C_EZI2C.c **** 
 569:Generated_Source\PSoC4/I2C_EZI2C.c **** 
 570:Generated_Source\PSoC4/I2C_EZI2C.c ****     /*******************************************************************************
 571:Generated_Source\PSoC4/I2C_EZI2C.c ****     * Function Name: I2C_EzI2CGetAddress2
 572:Generated_Source\PSoC4/I2C_EZI2C.c ****     ****************************************************************************//**
 573:Generated_Source\PSoC4/I2C_EZI2C.c ****     *
 574:Generated_Source\PSoC4/I2C_EZI2C.c ****     *  Returns the secondary EZ I2C slave address.
 575:Generated_Source\PSoC4/I2C_EZI2C.c ****     *  This address is the 7-bit right-justified slave address and does not include 
 576:Generated_Source\PSoC4/I2C_EZI2C.c ****     *  the R/W bit.
 577:Generated_Source\PSoC4/I2C_EZI2C.c ****     *
 578:Generated_Source\PSoC4/I2C_EZI2C.c ****     * \return
 579:Generated_Source\PSoC4/I2C_EZI2C.c ****     *  Secondary I2C slave address.
 580:Generated_Source\PSoC4/I2C_EZI2C.c ****     *
 581:Generated_Source\PSoC4/I2C_EZI2C.c ****     * \globalvars
 582:Generated_Source\PSoC4/I2C_EZI2C.c ****     *  I2C_addrBuf2 - used to store the secondary 7-bit slave address 
 583:Generated_Source\PSoC4/I2C_EZI2C.c ****     *  value.
 584:Generated_Source\PSoC4/I2C_EZI2C.c ****     *
 585:Generated_Source\PSoC4/I2C_EZI2C.c ****     *******************************************************************************/
 586:Generated_Source\PSoC4/I2C_EZI2C.c ****     uint32 I2C_EzI2CGetAddress2(void)
 587:Generated_Source\PSoC4/I2C_EZI2C.c ****     {
 588:Generated_Source\PSoC4/I2C_EZI2C.c ****         return((uint32) I2C_addrBuf2);
 589:Generated_Source\PSoC4/I2C_EZI2C.c ****     }
 590:Generated_Source\PSoC4/I2C_EZI2C.c **** 
ARM GAS  C:\Users\bryan.lee\AppData\Local\Temp\ccgrQ7Cd.s 			page 18


 591:Generated_Source\PSoC4/I2C_EZI2C.c **** 
 592:Generated_Source\PSoC4/I2C_EZI2C.c ****     /*******************************************************************************
 593:Generated_Source\PSoC4/I2C_EZI2C.c ****     * Function Name: I2C_EzI2CSetBuffer2
 594:Generated_Source\PSoC4/I2C_EZI2C.c ****     ****************************************************************************//**
 595:Generated_Source\PSoC4/I2C_EZI2C.c ****     *
 596:Generated_Source\PSoC4/I2C_EZI2C.c ****     *  Sets up the data buffer to be exposed to the I2C master on a secondary slave
 597:Generated_Source\PSoC4/I2C_EZI2C.c ****     *  address request.
 598:Generated_Source\PSoC4/I2C_EZI2C.c ****     *
 599:Generated_Source\PSoC4/I2C_EZI2C.c ****     * \param bufSize: Size of the buffer in bytes.
 600:Generated_Source\PSoC4/I2C_EZI2C.c ****     * \param rwBoundary: Number of data bytes starting from the beginning of the 
 601:Generated_Source\PSoC4/I2C_EZI2C.c ****     *  buffer with read and write access. Data bytes located at offset rwBoundary 
 602:Generated_Source\PSoC4/I2C_EZI2C.c ****     *  or greater are read only.
 603:Generated_Source\PSoC4/I2C_EZI2C.c ****     *  This value must be less than or equal to the buffer size.
 604:Generated_Source\PSoC4/I2C_EZI2C.c ****     * \param buffer: Pointer to the data buffer.
 605:Generated_Source\PSoC4/I2C_EZI2C.c ****     *
 606:Generated_Source\PSoC4/I2C_EZI2C.c ****     * \sideeffects
 607:Generated_Source\PSoC4/I2C_EZI2C.c ****     *  Calling this function in the middle of a transaction intended for the 
 608:Generated_Source\PSoC4/I2C_EZI2C.c ****     *  secondary slave address leads to unexpected behavior.
 609:Generated_Source\PSoC4/I2C_EZI2C.c ****     *
 610:Generated_Source\PSoC4/I2C_EZI2C.c ****     * \globalvars
 611:Generated_Source\PSoC4/I2C_EZI2C.c ****     *  I2C_dataBuffer2 – the pointer to the buffer to be exposed to the
 612:Generated_Source\PSoC4/I2C_EZI2C.c ****     *  master on a secondary address.
 613:Generated_Source\PSoC4/I2C_EZI2C.c ****     *  I2C_bufSizeBuf2 - the size of the buffer to be exposed to the 
 614:Generated_Source\PSoC4/I2C_EZI2C.c ****     *  master on a secondary address.
 615:Generated_Source\PSoC4/I2C_EZI2C.c ****     *  I2C_protectBuf2 - the start index of the read-only region in the
 616:Generated_Source\PSoC4/I2C_EZI2C.c ****     *  buffer to be exposed to the master on a secondary address. The read-only 
 617:Generated_Source\PSoC4/I2C_EZI2C.c ****     *  region continues up to the end the buffer.
 618:Generated_Source\PSoC4/I2C_EZI2C.c ****     *
 619:Generated_Source\PSoC4/I2C_EZI2C.c ****     *******************************************************************************/
 620:Generated_Source\PSoC4/I2C_EZI2C.c ****     void I2C_EzI2CSetBuffer2(uint32 bufSize, uint32 rwBoundary, volatile uint8 * buffer)
 621:Generated_Source\PSoC4/I2C_EZI2C.c ****     {
 622:Generated_Source\PSoC4/I2C_EZI2C.c ****         if (NULL != buffer)
 623:Generated_Source\PSoC4/I2C_EZI2C.c ****         {
 624:Generated_Source\PSoC4/I2C_EZI2C.c ****             I2C_DisableInt();  /* Lock from interruption */
 625:Generated_Source\PSoC4/I2C_EZI2C.c **** 
 626:Generated_Source\PSoC4/I2C_EZI2C.c ****             I2C_dataBuffer2 =  buffer;
 627:Generated_Source\PSoC4/I2C_EZI2C.c ****             I2C_bufSizeBuf2 = (uint16) bufSize;
 628:Generated_Source\PSoC4/I2C_EZI2C.c ****             I2C_protectBuf2 = (uint16) rwBoundary;
 629:Generated_Source\PSoC4/I2C_EZI2C.c **** 
 630:Generated_Source\PSoC4/I2C_EZI2C.c ****             I2C_EnableInt();   /* Release lock */
 631:Generated_Source\PSoC4/I2C_EZI2C.c ****         }
 632:Generated_Source\PSoC4/I2C_EZI2C.c ****     }
 633:Generated_Source\PSoC4/I2C_EZI2C.c **** 
 634:Generated_Source\PSoC4/I2C_EZI2C.c **** 
 635:Generated_Source\PSoC4/I2C_EZI2C.c ****     /*******************************************************************************
 636:Generated_Source\PSoC4/I2C_EZI2C.c ****     * Function Name: I2C_EzI2CSetReadBoundaryBuffer2
 637:Generated_Source\PSoC4/I2C_EZI2C.c ****     ****************************************************************************//**
 638:Generated_Source\PSoC4/I2C_EZI2C.c ****     *
 639:Generated_Source\PSoC4/I2C_EZI2C.c ****     *  Sets the read only boundary in the data buffer to be exposed to the I2C
 640:Generated_Source\PSoC4/I2C_EZI2C.c ****     *  master on a secondary address request.
 641:Generated_Source\PSoC4/I2C_EZI2C.c ****     *
 642:Generated_Source\PSoC4/I2C_EZI2C.c ****     *  \param rwBoundary: Number of data bytes starting from the beginning of the
 643:Generated_Source\PSoC4/I2C_EZI2C.c ****     *   buffer with read and write access. Data bytes located at offset rwBoundary 
 644:Generated_Source\PSoC4/I2C_EZI2C.c ****     *   or greater are read only.
 645:Generated_Source\PSoC4/I2C_EZI2C.c ****     *   This value must be less than or equal to the buffer size.
 646:Generated_Source\PSoC4/I2C_EZI2C.c ****     *
 647:Generated_Source\PSoC4/I2C_EZI2C.c ****     *  \sideeffect
ARM GAS  C:\Users\bryan.lee\AppData\Local\Temp\ccgrQ7Cd.s 			page 19


 648:Generated_Source\PSoC4/I2C_EZI2C.c ****     *   Calling this function in the middle of a transaction intended for the 
 649:Generated_Source\PSoC4/I2C_EZI2C.c ****     *   secondary slave address leads to unexpected behavior.
 650:Generated_Source\PSoC4/I2C_EZI2C.c ****     *
 651:Generated_Source\PSoC4/I2C_EZI2C.c ****     * \globalvars
 652:Generated_Source\PSoC4/I2C_EZI2C.c ****     *  I2C_protectBuf2 - the start index of the read-only region in the
 653:Generated_Source\PSoC4/I2C_EZI2C.c ****     *  buffer to be exposed to the master on a secondary address. The read-only 
 654:Generated_Source\PSoC4/I2C_EZI2C.c ****     *  region continues up to the end the buffe
 655:Generated_Source\PSoC4/I2C_EZI2C.c ****     *
 656:Generated_Source\PSoC4/I2C_EZI2C.c ****     *******************************************************************************/
 657:Generated_Source\PSoC4/I2C_EZI2C.c ****     void I2C_EzI2CSetReadBoundaryBuffer2(uint32 rwBoundary)
 658:Generated_Source\PSoC4/I2C_EZI2C.c ****     {
 659:Generated_Source\PSoC4/I2C_EZI2C.c ****         I2C_protectBuf2 = (uint16) rwBoundary;
 660:Generated_Source\PSoC4/I2C_EZI2C.c ****     }
 661:Generated_Source\PSoC4/I2C_EZI2C.c **** 
 662:Generated_Source\PSoC4/I2C_EZI2C.c **** #endif /* (I2C_SECONDARY_ADDRESS_ENABLE_CONST) */
 663:Generated_Source\PSoC4/I2C_EZI2C.c **** 
 664:Generated_Source\PSoC4/I2C_EZI2C.c **** 
 665:Generated_Source\PSoC4/I2C_EZI2C.c **** #if(I2C_EZI2C_WAKE_ENABLE_CONST)
 666:Generated_Source\PSoC4/I2C_EZI2C.c ****     /*******************************************************************************
 667:Generated_Source\PSoC4/I2C_EZI2C.c ****     * Function Name: I2C_EzI2CSaveConfig
 668:Generated_Source\PSoC4/I2C_EZI2C.c ****     ****************************************************************************//**
 669:Generated_Source\PSoC4/I2C_EZI2C.c ****     *
 670:Generated_Source\PSoC4/I2C_EZI2C.c ****     *  Clock stretching is  enabled: Enables INTR_I2C_EC.WAKE_UP interrupt source.
 671:Generated_Source\PSoC4/I2C_EZI2C.c ****     *  It triggers on the slave address match.
 672:Generated_Source\PSoC4/I2C_EZI2C.c ****     *  Clock stretching is disabled: Waits until the I2C slave becomes free and
 673:Generated_Source\PSoC4/I2C_EZI2C.c ****     *  disables the block to perform reconfiguration from the active mode operation
 674:Generated_Source\PSoC4/I2C_EZI2C.c ****     *  to deep sleep with wake up on the address match: enables INTR_I2C_EC.WAKE_UP
 675:Generated_Source\PSoC4/I2C_EZI2C.c ****     *  interrupt source and disables the INTR_S and INTR_TX interrupt sources.
 676:Generated_Source\PSoC4/I2C_EZI2C.c ****     *  The block is disabled before reconfiguration and enabled when
 677:Generated_Source\PSoC4/I2C_EZI2C.c ****     *  it is completed.
 678:Generated_Source\PSoC4/I2C_EZI2C.c ****     *
 679:Generated_Source\PSoC4/I2C_EZI2C.c ****     *******************************************************************************/
 680:Generated_Source\PSoC4/I2C_EZI2C.c ****     void I2C_EzI2CSaveConfig(void)
 681:Generated_Source\PSoC4/I2C_EZI2C.c ****     {
 380              		.loc 1 681 0
 381              		.cfi_startproc
 382              		@ args = 0, pretend = 0, frame = 0
 383              		@ frame_needed = 0, uses_anonymous_args = 0
 384 0000 10B5     		push	{r4, lr}
 385              		.cfi_def_cfa_offset 8
 386              		.cfi_offset 4, -8
 387              		.cfi_offset 14, -4
 388              	.LVL22:
 682:Generated_Source\PSoC4/I2C_EZI2C.c ****     #if(I2C_CY_SCBIP_V0)
 683:Generated_Source\PSoC4/I2C_EZI2C.c **** 
 684:Generated_Source\PSoC4/I2C_EZI2C.c ****         #if(I2C_EZI2C_SCL_STRETCH_ENABLE)
 685:Generated_Source\PSoC4/I2C_EZI2C.c ****         {
 686:Generated_Source\PSoC4/I2C_EZI2C.c ****             /* Enable wakeup interrupt source on address match */
 687:Generated_Source\PSoC4/I2C_EZI2C.c ****             I2C_SetI2CExtClkInterruptMode(I2C_INTR_I2C_EC_WAKE_UP);
 688:Generated_Source\PSoC4/I2C_EZI2C.c ****         }
 689:Generated_Source\PSoC4/I2C_EZI2C.c ****         #endif
 690:Generated_Source\PSoC4/I2C_EZI2C.c **** 
 691:Generated_Source\PSoC4/I2C_EZI2C.c ****     #else
 692:Generated_Source\PSoC4/I2C_EZI2C.c ****         uint8 enableInt;
 693:Generated_Source\PSoC4/I2C_EZI2C.c **** 
 694:Generated_Source\PSoC4/I2C_EZI2C.c ****         enableInt = (uint8) I2C_INTR_I2C_EC_WAKE_UP;
 695:Generated_Source\PSoC4/I2C_EZI2C.c **** 
ARM GAS  C:\Users\bryan.lee\AppData\Local\Temp\ccgrQ7Cd.s 			page 20


 696:Generated_Source\PSoC4/I2C_EZI2C.c ****         #if(I2C_EZI2C_SCL_STRETCH_ENABLE)
 697:Generated_Source\PSoC4/I2C_EZI2C.c ****         {
 698:Generated_Source\PSoC4/I2C_EZI2C.c ****         #if (I2C_SCB_CLK_INTERNAL)
 699:Generated_Source\PSoC4/I2C_EZI2C.c ****             /* Disable clock to internal address match logic. Ticket ID #187931 */
 700:Generated_Source\PSoC4/I2C_EZI2C.c ****             I2C_SCBCLK_Stop();
 389              		.loc 1 700 0
 390 0002 FFF7FEFF 		bl	I2C_SCBCLK_Stop
 391              	.LVL23:
 701:Generated_Source\PSoC4/I2C_EZI2C.c ****         #endif /* (I2C_SCB_CLK_INTERNAL) */
 702:Generated_Source\PSoC4/I2C_EZI2C.c **** 
 703:Generated_Source\PSoC4/I2C_EZI2C.c ****             /* Enable interrupt source to wakeup device */
 704:Generated_Source\PSoC4/I2C_EZI2C.c ****             I2C_SetI2CExtClkInterruptMode(enableInt);
 392              		.loc 1 704 0
 393 0006 0122     		movs	r2, #1
 394 0008 014B     		ldr	r3, .L24
 395 000a 1A60     		str	r2, [r3]
 705:Generated_Source\PSoC4/I2C_EZI2C.c ****         }
 706:Generated_Source\PSoC4/I2C_EZI2C.c ****         #else
 707:Generated_Source\PSoC4/I2C_EZI2C.c ****         {
 708:Generated_Source\PSoC4/I2C_EZI2C.c ****             for(;;) /* Wait for end of transaction intended to slave */
 709:Generated_Source\PSoC4/I2C_EZI2C.c ****             {
 710:Generated_Source\PSoC4/I2C_EZI2C.c ****                 if(0u == (I2C_GetI2CExtClkInterruptSource() & I2C_INTR_I2C_EC_WAKE_UP))
 711:Generated_Source\PSoC4/I2C_EZI2C.c ****                 {
 712:Generated_Source\PSoC4/I2C_EZI2C.c ****                     enableInt = CyEnterCriticalSection();
 713:Generated_Source\PSoC4/I2C_EZI2C.c **** 
 714:Generated_Source\PSoC4/I2C_EZI2C.c ****                     if(0u == (I2C_GetI2CExtClkInterruptSource() & I2C_INTR_I2C_EC_WAKE_UP))
 715:Generated_Source\PSoC4/I2C_EZI2C.c ****                     {
 716:Generated_Source\PSoC4/I2C_EZI2C.c ****                         /* Attempts to set NACK command before disable block */
 717:Generated_Source\PSoC4/I2C_EZI2C.c ****                         I2C_I2C_SLAVE_GENERATE_NACK;
 718:Generated_Source\PSoC4/I2C_EZI2C.c **** 
 719:Generated_Source\PSoC4/I2C_EZI2C.c ****                         if(0u == (I2C_GetI2CExtClkInterruptSource() & I2C_INTR_I2C_EC_WAKE_UP))
 720:Generated_Source\PSoC4/I2C_EZI2C.c ****                         {
 721:Generated_Source\PSoC4/I2C_EZI2C.c ****                             /* NACK command was set before. It is safe to disable block */
 722:Generated_Source\PSoC4/I2C_EZI2C.c ****                             I2C_CTRL_REG &= (uint32) ~I2C_CTRL_ENABLED;
 723:Generated_Source\PSoC4/I2C_EZI2C.c ****                             I2C_DisableInt();
 724:Generated_Source\PSoC4/I2C_EZI2C.c **** 
 725:Generated_Source\PSoC4/I2C_EZI2C.c ****                             CyExitCriticalSection(enableInt);
 726:Generated_Source\PSoC4/I2C_EZI2C.c ****                             break;
 727:Generated_Source\PSoC4/I2C_EZI2C.c ****                         }
 728:Generated_Source\PSoC4/I2C_EZI2C.c ****                         else
 729:Generated_Source\PSoC4/I2C_EZI2C.c ****                         {
 730:Generated_Source\PSoC4/I2C_EZI2C.c ****                             /* Clear NACK command to prevent data NACK */
 731:Generated_Source\PSoC4/I2C_EZI2C.c ****                             I2C_I2C_SLAVE_CLEAR_NACK;
 732:Generated_Source\PSoC4/I2C_EZI2C.c ****                         }
 733:Generated_Source\PSoC4/I2C_EZI2C.c ****                     }
 734:Generated_Source\PSoC4/I2C_EZI2C.c **** 
 735:Generated_Source\PSoC4/I2C_EZI2C.c ****                     CyExitCriticalSection(enableInt);
 736:Generated_Source\PSoC4/I2C_EZI2C.c ****                 }
 737:Generated_Source\PSoC4/I2C_EZI2C.c ****             }
 738:Generated_Source\PSoC4/I2C_EZI2C.c **** 
 739:Generated_Source\PSoC4/I2C_EZI2C.c ****             /* Disable all active mode interrupt sources */
 740:Generated_Source\PSoC4/I2C_EZI2C.c ****             I2C_SetTxInterruptMode(I2C_NO_INTR_SOURCES);
 741:Generated_Source\PSoC4/I2C_EZI2C.c ****             I2C_SetSlaveInterruptMode(I2C_NO_INTR_SOURCES);
 742:Generated_Source\PSoC4/I2C_EZI2C.c ****             I2C_ClearPendingInt();
 743:Generated_Source\PSoC4/I2C_EZI2C.c ****             I2C_EnableInt();
 744:Generated_Source\PSoC4/I2C_EZI2C.c **** 
 745:Generated_Source\PSoC4/I2C_EZI2C.c ****             /* Enable wakeup interrupt on address match */
ARM GAS  C:\Users\bryan.lee\AppData\Local\Temp\ccgrQ7Cd.s 			page 21


 746:Generated_Source\PSoC4/I2C_EZI2C.c ****             I2C_SetI2CExtClkInterruptMode(I2C_INTR_I2C_EC_WAKE_UP);
 747:Generated_Source\PSoC4/I2C_EZI2C.c **** 
 748:Generated_Source\PSoC4/I2C_EZI2C.c ****             enableInt = CyEnterCriticalSection();
 749:Generated_Source\PSoC4/I2C_EZI2C.c **** 
 750:Generated_Source\PSoC4/I2C_EZI2C.c ****             I2C_CTRL_REG |= (uint32) I2C_CTRL_ENABLED;
 751:Generated_Source\PSoC4/I2C_EZI2C.c ****             I2C_I2C_SLAVE_GENERATE_NACK;
 752:Generated_Source\PSoC4/I2C_EZI2C.c **** 
 753:Generated_Source\PSoC4/I2C_EZI2C.c ****             CyExitCriticalSection(enableInt);
 754:Generated_Source\PSoC4/I2C_EZI2C.c ****         }
 755:Generated_Source\PSoC4/I2C_EZI2C.c ****         #endif
 756:Generated_Source\PSoC4/I2C_EZI2C.c ****     #endif /* (I2C_CY_SCBIP_V0) */
 757:Generated_Source\PSoC4/I2C_EZI2C.c ****     }
 396              		.loc 1 757 0
 397              		@ sp needed
 398 000c 10BD     		pop	{r4, pc}
 399              	.L25:
 400 000e C046     		.align	2
 401              	.L24:
 402 0010 880E2440 		.word	1076104840
 403              		.cfi_endproc
 404              	.LFE9:
 405              		.size	I2C_EzI2CSaveConfig, .-I2C_EzI2CSaveConfig
 406              		.section	.text.I2C_EzI2CRestoreConfig,"ax",%progbits
 407              		.align	2
 408              		.global	I2C_EzI2CRestoreConfig
 409              		.code	16
 410              		.thumb_func
 411              		.type	I2C_EzI2CRestoreConfig, %function
 412              	I2C_EzI2CRestoreConfig:
 413              	.LFB10:
 758:Generated_Source\PSoC4/I2C_EZI2C.c **** 
 759:Generated_Source\PSoC4/I2C_EZI2C.c **** 
 760:Generated_Source\PSoC4/I2C_EZI2C.c ****     /*******************************************************************************
 761:Generated_Source\PSoC4/I2C_EZI2C.c ****     * Function Name: I2C_EzI2CRestoreConfig
 762:Generated_Source\PSoC4/I2C_EZI2C.c ****     ****************************************************************************//**
 763:Generated_Source\PSoC4/I2C_EZI2C.c ****     *
 764:Generated_Source\PSoC4/I2C_EZI2C.c ****     *  Clock stretching is  enabled: Disables the INTR_I2C_EC.WAKE_UP interrupt
 765:Generated_Source\PSoC4/I2C_EZI2C.c ****     *  source.
 766:Generated_Source\PSoC4/I2C_EZI2C.c ****     *  Clock stretching is disabled: Reconfigures the EZI2C component from
 767:Generated_Source\PSoC4/I2C_EZI2C.c ****     *  Deep Sleep (wake up on the address match) to active operation: disables
 768:Generated_Source\PSoC4/I2C_EZI2C.c ****     *  the INTR_I2C_EC.WAKE_UP interrupt source and restores the INTR_S
 769:Generated_Source\PSoC4/I2C_EZI2C.c ****     *  interrupt sources to operate in the active mode.
 770:Generated_Source\PSoC4/I2C_EZI2C.c ****     *  The block is disabled before reconfiguration and enabled when
 771:Generated_Source\PSoC4/I2C_EZI2C.c ****     *  it is completed.
 772:Generated_Source\PSoC4/I2C_EZI2C.c ****     *
 773:Generated_Source\PSoC4/I2C_EZI2C.c ****     *******************************************************************************/
 774:Generated_Source\PSoC4/I2C_EZI2C.c ****     void I2C_EzI2CRestoreConfig(void)
 775:Generated_Source\PSoC4/I2C_EZI2C.c ****     {
 414              		.loc 1 775 0
 415              		.cfi_startproc
 416              		@ args = 0, pretend = 0, frame = 0
 417              		@ frame_needed = 0, uses_anonymous_args = 0
 418 0000 10B5     		push	{r4, lr}
 419              		.cfi_def_cfa_offset 8
 420              		.cfi_offset 4, -8
 421              		.cfi_offset 14, -4
 776:Generated_Source\PSoC4/I2C_EZI2C.c ****     #if(I2C_CY_SCBIP_V0)
ARM GAS  C:\Users\bryan.lee\AppData\Local\Temp\ccgrQ7Cd.s 			page 22


 777:Generated_Source\PSoC4/I2C_EZI2C.c **** 
 778:Generated_Source\PSoC4/I2C_EZI2C.c ****         #if(I2C_EZI2C_SCL_STRETCH_ENABLE)
 779:Generated_Source\PSoC4/I2C_EZI2C.c ****         {
 780:Generated_Source\PSoC4/I2C_EZI2C.c ****             /* Disable wakeup interrupt on address match */
 781:Generated_Source\PSoC4/I2C_EZI2C.c ****             I2C_SetI2CExtClkInterruptMode(I2C_NO_INTR_SOURCES);
 782:Generated_Source\PSoC4/I2C_EZI2C.c ****         }
 783:Generated_Source\PSoC4/I2C_EZI2C.c ****         #endif
 784:Generated_Source\PSoC4/I2C_EZI2C.c **** 
 785:Generated_Source\PSoC4/I2C_EZI2C.c ****     #else
 786:Generated_Source\PSoC4/I2C_EZI2C.c **** 
 787:Generated_Source\PSoC4/I2C_EZI2C.c ****         #if(I2C_EZI2C_SCL_STRETCH_ENABLE)
 788:Generated_Source\PSoC4/I2C_EZI2C.c ****         {
 789:Generated_Source\PSoC4/I2C_EZI2C.c ****             /* Disable wakeup interrupt source on address match */
 790:Generated_Source\PSoC4/I2C_EZI2C.c ****             I2C_SetI2CExtClkInterruptMode(I2C_NO_INTR_SOURCES);
 422              		.loc 1 790 0
 423 0002 0022     		movs	r2, #0
 424 0004 024B     		ldr	r3, .L27
 425 0006 1A60     		str	r2, [r3]
 791:Generated_Source\PSoC4/I2C_EZI2C.c **** 
 792:Generated_Source\PSoC4/I2C_EZI2C.c ****         #if (I2C_SCB_CLK_INTERNAL)
 793:Generated_Source\PSoC4/I2C_EZI2C.c ****             /* Enable clock to internal address match logic. Ticket ID #187931 */
 794:Generated_Source\PSoC4/I2C_EZI2C.c ****             I2C_SCBCLK_Start();
 426              		.loc 1 794 0
 427 0008 FF20     		movs	r0, #255
 428 000a FFF7FEFF 		bl	I2C_SCBCLK_StartEx
 429              	.LVL24:
 795:Generated_Source\PSoC4/I2C_EZI2C.c ****         #endif /* (I2C_SCB_CLK_INTERNAL) */
 796:Generated_Source\PSoC4/I2C_EZI2C.c ****         }
 797:Generated_Source\PSoC4/I2C_EZI2C.c ****         #else
 798:Generated_Source\PSoC4/I2C_EZI2C.c ****         {
 799:Generated_Source\PSoC4/I2C_EZI2C.c ****             /* NACK will be driven on the bus by wakeup or NACK command.
 800:Generated_Source\PSoC4/I2C_EZI2C.c ****             * It is safe to disable block to restore active mode configuration.
 801:Generated_Source\PSoC4/I2C_EZI2C.c ****             */
 802:Generated_Source\PSoC4/I2C_EZI2C.c ****             I2C_CTRL_REG &= (uint32) ~I2C_CTRL_ENABLED;
 803:Generated_Source\PSoC4/I2C_EZI2C.c **** 
 804:Generated_Source\PSoC4/I2C_EZI2C.c ****             /* Restore active mode interrupt sources */
 805:Generated_Source\PSoC4/I2C_EZI2C.c ****             I2C_SetI2CExtClkInterruptMode(I2C_NO_INTR_SOURCES);
 806:Generated_Source\PSoC4/I2C_EZI2C.c ****             I2C_SetSlaveInterruptMode(I2C_EZI2C_INTR_SLAVE_MASK |
 807:Generated_Source\PSoC4/I2C_EZI2C.c ****                                                    I2C_INTR_SLAVE_I2C_START);
 808:Generated_Source\PSoC4/I2C_EZI2C.c ****             I2C_ClearPendingInt();
 809:Generated_Source\PSoC4/I2C_EZI2C.c **** 
 810:Generated_Source\PSoC4/I2C_EZI2C.c ****             I2C_CTRL_REG |= (uint32) I2C_CTRL_ENABLED;
 811:Generated_Source\PSoC4/I2C_EZI2C.c ****         }
 812:Generated_Source\PSoC4/I2C_EZI2C.c ****         #endif
 813:Generated_Source\PSoC4/I2C_EZI2C.c **** 
 814:Generated_Source\PSoC4/I2C_EZI2C.c ****     #endif /* (I2C_CY_SCBIP_V0) */
 815:Generated_Source\PSoC4/I2C_EZI2C.c ****     }
 430              		.loc 1 815 0
 431              		@ sp needed
 432 000e 10BD     		pop	{r4, pc}
 433              	.L28:
 434              		.align	2
 435              	.L27:
 436 0010 880E2440 		.word	1076104840
 437              		.cfi_endproc
 438              	.LFE10:
 439              		.size	I2C_EzI2CRestoreConfig, .-I2C_EzI2CRestoreConfig
ARM GAS  C:\Users\bryan.lee\AppData\Local\Temp\ccgrQ7Cd.s 			page 23


 440              		.comm	I2C_indexBuf1,2,2
 441              		.comm	I2C_offsetBuf1,1,1
 442              		.comm	I2C_protectBuf1,2,2
 443              		.comm	I2C_bufSizeBuf1,2,2
 444              		.comm	I2C_dataBuffer1,4,4
 445              		.comm	I2C_fsmState,1,1
 446              		.comm	I2C_curStatus,1,1
 447              		.text
 448              	.Letext0:
 449              		.file 2 "Generated_Source\\PSoC4/cytypes.h"
 450              		.file 3 "Generated_Source\\PSoC4/CyLib.h"
 451              		.file 4 "Generated_Source\\PSoC4\\I2C_SCBCLK.h"