ARM GAS  C:\Users\bryan.lee\AppData\Local\Temp\ccTwJNuw.s 			page 1


   1              		.syntax unified
   2              		.cpu cortex-m4
   3              		.eabi_attribute 27, 1
   4              		.fpu fpv4-sp-d16
   5              		.eabi_attribute 20, 1
   6              		.eabi_attribute 21, 1
   7              		.eabi_attribute 23, 3
   8              		.eabi_attribute 24, 1
   9              		.eabi_attribute 25, 1
  10              		.eabi_attribute 26, 1
  11              		.eabi_attribute 30, 1
  12              		.eabi_attribute 34, 1
  13              		.eabi_attribute 18, 4
  14              		.thumb
  15              		.syntax unified
  16              		.file	"display.c"
  17              		.text
  18              	.Ltext0:
  19              		.cfi_sections	.debug_frame
  20              		.section	.text.InitDisplay,"ax",%progbits
  21              		.align	2
  22              		.global	InitDisplay
  23              		.thumb
  24              		.thumb_func
  25              		.type	InitDisplay, %function
  26              	InitDisplay:
  27              	.LFB704:
  28              		.file 1 "display.c"
   1:display.c     **** /******************************************************************************
   2:display.c     **** * File Name: display.c
   3:display.c     **** *
   4:display.c     **** * Version: 1.10
   5:display.c     **** *
   6:display.c     **** * Description: This file contains the functions that initialize the E-INK display
   7:display.c     **** *              and show the instructions to use this code example at startup
   8:display.c     **** *
   9:display.c     **** * Related Document: CE220167_BLE_UI.pdf
  10:display.c     **** *
  11:display.c     **** * Hardware Dependency: CY8CKIT-062-BLE PSoC 6 BLE Pioneer Kit
  12:display.c     **** *
  13:display.c     **** *******************************************************************************
  14:display.c     **** * Copyright (2017), Cypress Semiconductor Corporation. All rights reserved.
  15:display.c     **** *******************************************************************************
  16:display.c     **** * This software, including source code, documentation and related materials
  17:display.c     **** * (“Software”), is owned by Cypress Semiconductor Corporation or one of its
  18:display.c     **** * subsidiaries (“Cypress”) and is protected by and subject to worldwide patent
  19:display.c     **** * protection (United States and foreign), United States copyright laws and
  20:display.c     **** * international treaty provisions. Therefore, you may use this Software only
  21:display.c     **** * as provided in the license agreement accompanying the software package from
  22:display.c     **** * which you obtained this Software (“EULA”).
  23:display.c     **** *
  24:display.c     **** * If no EULA applies, Cypress hereby grants you a personal, nonexclusive,
  25:display.c     **** * non-transferable license to copy, modify, and compile the Software source
  26:display.c     **** * code solely for use in connection with Cypress’s integrated circuit products.
  27:display.c     **** * Any reproduction, modification, translation, compilation, or representation
  28:display.c     **** * of this Software except as specified above is prohibited without the express
  29:display.c     **** * written permission of Cypress.
ARM GAS  C:\Users\bryan.lee\AppData\Local\Temp\ccTwJNuw.s 			page 2


  30:display.c     **** *
  31:display.c     **** * Disclaimer: THIS SOFTWARE IS PROVIDED AS-IS, WITH NO WARRANTY OF ANY KIND, 
  32:display.c     **** * EXPRESS OR IMPLIED, INCLUDING, BUT NOT LIMITED TO, NONINFRINGEMENT, IMPLIED 
  33:display.c     **** * WARRANTIES OF MERCHANTABILITY AND FITNESS FOR A PARTICULAR PURPOSE. Cypress 
  34:display.c     **** * reserves the right to make changes to the Software without notice. Cypress 
  35:display.c     **** * does not assume any liability arising out of the application or use of the 
  36:display.c     **** * Software or any product or circuit described in the Software. Cypress does 
  37:display.c     **** * not authorize its products for use in any products where a malfunction or 
  38:display.c     **** * failure of the Cypress product may reasonably be expected to result in 
  39:display.c     **** * significant property damage, injury or death (“High Risk Product”). By 
  40:display.c     **** * including Cypress’s product in a High Risk Product, the manufacturer of such 
  41:display.c     **** * system or application assumes all risk of such use and in doing so agrees to 
  42:display.c     **** * indemnify Cypress against all liability.
  43:display.c     **** *******************************************************************************/
  44:display.c     **** /******************************************************************************
  45:display.c     **** * This file contains the functions that initialize the E-INK display and show the
  46:display.c     **** * instructions to use this code example at startup
  47:display.c     **** *
  48:display.c     **** * For the details of the E-INK display and library functions, see the code example 
  49:display.c     **** * CE218133 - PSoC 6 MCU E-INK Display with CapSense
  50:display.c     **** *******************************************************************************/
  51:display.c     **** 
  52:display.c     **** /* Header file includes */
  53:display.c     **** #include "cy_eink_library.h"
  54:display.c     **** #include "screen_contents.h"
  55:display.c     **** 
  56:display.c     **** /* Definition of ambient temperature at 25 degree C */
  57:display.c     **** #define AMBIENT_TEMPERATURE         (int8_t) (25)
  58:display.c     **** 
  59:display.c     **** /* Definition of the coordinates of a full image frame */
  60:display.c     **** #define IMAGE_COORDINATES           {0, 33, 0, 176}
  61:display.c     **** 
  62:display.c     **** /* Origin of the text coordinates */
  63:display.c     **** #define TEXT_ORIGIN                 {0x00u, 0x02u}
  64:display.c     **** 
  65:display.c     **** /* Flag that indicates if the E-INK display has been detected */
  66:display.c     **** bool static displayDetected = false;
  67:display.c     **** 
  68:display.c     **** /* Frame buffer used for display operations */
  69:display.c     **** cy_eink_frame_t frameBuffer[CY_EINK_FRAME_SIZE];
  70:display.c     **** 
  71:display.c     **** /*******************************************************************************
  72:display.c     **** * Function Name: void InitDisplay(void)
  73:display.c     **** ********************************************************************************
  74:display.c     **** * Summary:
  75:display.c     **** *  Initializes the E-INK display hardware and clears the display
  76:display.c     **** *
  77:display.c     **** * Parameters:
  78:display.c     **** *  None
  79:display.c     **** *
  80:display.c     **** * Return:
  81:display.c     **** *  void
  82:display.c     **** *
  83:display.c     **** *******************************************************************************/
  84:display.c     **** void InitDisplay(void)
  85:display.c     **** { 
  29              		.loc 1 85 0
ARM GAS  C:\Users\bryan.lee\AppData\Local\Temp\ccTwJNuw.s 			page 3


  30              		.cfi_startproc
  31              		@ args = 0, pretend = 0, frame = 0
  32              		@ frame_needed = 0, uses_anonymous_args = 0
  33 0000 08B5     		push	{r3, lr}
  34              		.cfi_def_cfa_offset 8
  35              		.cfi_offset 3, -8
  36              		.cfi_offset 14, -4
  86:display.c     ****     /* Initialize the E-INK display hardware with the given ambient temperature */
  87:display.c     ****     Cy_EINK_Start(AMBIENT_TEMPERATURE);
  37              		.loc 1 87 0
  38 0002 1920     		movs	r0, #25
  39 0004 FFF7FEFF 		bl	Cy_EINK_Start
  40              	.LVL0:
  88:display.c     ****     
  89:display.c     ****     /* Power on the display and check if the operation is successful */
  90:display.c     ****     if ( Cy_EINK_Power(CY_EINK_ON)== CY_EINK_OPERATION_SUCCESS)
  41              		.loc 1 90 0
  42 0008 0120     		movs	r0, #1
  43 000a FFF7FEFF 		bl	Cy_EINK_Power
  44              	.LVL1:
  45 000e 48B1     		cbz	r0, .L1
  91:display.c     ****     {
  92:display.c     ****         /* Clear the display to white background */
  93:display.c     ****         Cy_EINK_Clear(CY_EINK_WHITE_BACKGROUND, CY_EINK_POWER_MANUAL);
  46              		.loc 1 93 0
  47 0010 0021     		movs	r1, #0
  48 0012 0120     		movs	r0, #1
  49 0014 FFF7FEFF 		bl	Cy_EINK_Clear
  50              	.LVL2:
  94:display.c     ****         Cy_EINK_Power(CY_EINK_OFF);
  51              		.loc 1 94 0
  52 0018 0020     		movs	r0, #0
  53 001a FFF7FEFF 		bl	Cy_EINK_Power
  54              	.LVL3:
  95:display.c     ****         
  96:display.c     ****         /* Set the flag that indicates if the E-INK display has been detected */
  97:display.c     ****         displayDetected = true;
  55              		.loc 1 97 0
  56 001e 0122     		movs	r2, #1
  57 0020 014B     		ldr	r3, .L4
  58 0022 1A70     		strb	r2, [r3]
  59              	.L1:
  60 0024 08BD     		pop	{r3, pc}
  61              	.L5:
  62 0026 00BF     		.align	2
  63              	.L4:
  64 0028 00000000 		.word	.LANCHOR0
  65              		.cfi_endproc
  66              	.LFE704:
  67              		.size	InitDisplay, .-InitDisplay
  68              		.section	.text.DisplayInstructions,"ax",%progbits
  69              		.align	2
  70              		.global	DisplayInstructions
  71              		.thumb
  72              		.thumb_func
  73              		.type	DisplayInstructions, %function
  74              	DisplayInstructions:
ARM GAS  C:\Users\bryan.lee\AppData\Local\Temp\ccTwJNuw.s 			page 4


  75              	.LFB705:
  98:display.c     ****     }
  99:display.c     **** }
 100:display.c     **** 
 101:display.c     **** /*******************************************************************************
 102:display.c     **** * Function Name: void DisplayInstructions(void)
 103:display.c     **** ********************************************************************************
 104:display.c     **** * Summary:
 105:display.c     **** *  Combines text and logo/heading images in an internal frame buffer and then
 106:display.c     **** *  writes the frame buffer to the E-INK display to show the instructions to use
 107:display.c     **** *  this code example
 108:display.c     **** *
 109:display.c     **** * Parameters:
 110:display.c     **** *  None
 111:display.c     **** *
 112:display.c     **** * Return:
 113:display.c     **** *  void
 114:display.c     **** *
 115:display.c     **** *******************************************************************************/
 116:display.c     **** void DisplayInstructions(void)
 117:display.c     **** {
  76              		.loc 1 117 0
  77              		.cfi_startproc
  78              		@ args = 0, pretend = 0, frame = 8
  79              		@ frame_needed = 0, uses_anonymous_args = 0
  80 0000 10B5     		push	{r4, lr}
  81              		.cfi_def_cfa_offset 8
  82              		.cfi_offset 4, -8
  83              		.cfi_offset 14, -4
  84 0002 82B0     		sub	sp, sp, #8
  85              		.cfi_def_cfa_offset 16
 118:display.c     ****     /* Coordinates of a full-image and text origin */
 119:display.c     ****     const uint8_t   imageCoordinates[]  = IMAGE_COORDINATES;
  86              		.loc 1 119 0
  87 0004 0F4B     		ldr	r3, .L9
  88 0006 1868     		ldr	r0, [r3]	@ unaligned
  89 0008 0190     		str	r0, [sp, #4]	@ unaligned
 120:display.c     ****     const uint8_t   textOrigin[]        = TEXT_ORIGIN;
  90              		.loc 1 120 0
  91 000a 0023     		movs	r3, #0
  92 000c 8DF80030 		strb	r3, [sp]
  93 0010 0223     		movs	r3, #2
  94 0012 8DF80130 		strb	r3, [sp, #1]
 121:display.c     ****     
 122:display.c     ****     /* Do this only if the E-INK display has been detected */
 123:display.c     ****     if (displayDetected)
  95              		.loc 1 123 0
  96 0016 0C4B     		ldr	r3, .L9+4
  97 0018 1B78     		ldrb	r3, [r3]	@ zero_extendqisi2
  98 001a 8BB1     		cbz	r3, .L6
 124:display.c     ****     {
 125:display.c     ****         /* Load the image that has the logo and the heading to the frame buffer */
 126:display.c     ****         Cy_EINK_ImageToFrameBuffer(frameBuffer, (cy_eink_frame_t*)logoAndHeading,
  99              		.loc 1 126 0
 100 001c 0B4C     		ldr	r4, .L9+8
 101 001e 01AA     		add	r2, sp, #4
 102 0020 0B49     		ldr	r1, .L9+12
ARM GAS  C:\Users\bryan.lee\AppData\Local\Temp\ccTwJNuw.s 			page 5


 103 0022 2046     		mov	r0, r4
 104 0024 FFF7FEFF 		bl	Cy_EINK_ImageToFrameBuffer
 105              	.LVL4:
 127:display.c     ****                                 (uint8_t*) imageCoordinates);
 128:display.c     ****         /* Load the text that stores instructions to the frame buffer */
 129:display.c     ****         Cy_EINK_TextToFrameBuffer(frameBuffer, (char*)instructions,
 106              		.loc 1 129 0
 107 0028 6B46     		mov	r3, sp
 108 002a 0A4A     		ldr	r2, .L9+16
 109 002c 0A49     		ldr	r1, .L9+20
 110 002e 2046     		mov	r0, r4
 111 0030 FFF7FEFF 		bl	Cy_EINK_TextToFrameBuffer
 112              	.LVL5:
 130:display.c     ****                            CY_EINK_FONT_8X12BLACK, (uint8_t*) textOrigin);
 131:display.c     ****         
 132:display.c     ****         /* Write the frame buffer to the E-INK display. Automatic power control is
 133:display.c     ****            enabled so that the display gets powered on before the write process 
 134:display.c     ****            and turned off afterwards */
 135:display.c     ****         Cy_EINK_ShowFrame(CY_EINK_WHITE_FRAME, frameBuffer,
 113              		.loc 1 135 0
 114 0034 0123     		movs	r3, #1
 115 0036 0222     		movs	r2, #2
 116 0038 2146     		mov	r1, r4
 117 003a 0020     		movs	r0, #0
 118 003c FFF7FEFF 		bl	Cy_EINK_ShowFrame
 119              	.LVL6:
 120              	.L6:
 136:display.c     ****                    CY_EINK_FULL_2STAGE, CY_EINK_POWER_AUTO);
 137:display.c     ****     }
 138:display.c     **** }
 121              		.loc 1 138 0
 122 0040 02B0     		add	sp, sp, #8
 123              		.cfi_def_cfa_offset 8
 124              		@ sp needed
 125 0042 10BD     		pop	{r4, pc}
 126              	.L10:
 127              		.align	2
 128              	.L9:
 129 0044 00000000 		.word	.LANCHOR1
 130 0048 00000000 		.word	.LANCHOR0
 131 004c 00000000 		.word	frameBuffer
 132 0050 00000000 		.word	logoAndHeading
 133 0054 00000000 		.word	cy_eink_font8By12_blackInWhite
 134 0058 00000000 		.word	instructions
 135              		.cfi_endproc
 136              	.LFE705:
 137              		.size	DisplayInstructions, .-DisplayInstructions
 138              		.comm	frameBuffer,5808,4
 139              		.section	.rodata
 140              		.align	2
 141              		.set	.LANCHOR1,. + 0
 142              	.LC0:
 143 0000 00       		.byte	0
 144 0001 21       		.byte	33
 145 0002 00       		.byte	0
 146 0003 B0       		.byte	-80
 147              		.bss
ARM GAS  C:\Users\bryan.lee\AppData\Local\Temp\ccTwJNuw.s 			page 6


 148              		.set	.LANCHOR0,. + 0
 149              		.type	displayDetected, %object
 150              		.size	displayDetected, 1
 151              	displayDetected:
 152 0000 00       		.space	1
 153              		.text
 154              	.Letext0:
 155              		.file 2 "c:\\program files (x86)\\cypress\\psoc creator\\4.2\\psoc creator\\import\\gnu\\arm\\5.4.
 156              		.file 3 "c:\\program files (x86)\\cypress\\psoc creator\\4.2\\psoc creator\\import\\gnu\\arm\\5.4.
 157              		.file 4 "Generated_Source\\PSoC6\\pdl\\drivers/peripheral/syslib/cy_syslib.h"
 158              		.file 5 "Generated_Source\\PSoC6\\pdl\\drivers/peripheral/tcpwm/cy_tcpwm_counter.h"
 159              		.file 6 "Generated_Source\\PSoC6\\pdl\\drivers/peripheral/tcpwm/cy_tcpwm_pwm.h"
 160              		.file 7 "Generated_Source\\PSoC6\\pdl\\drivers/peripheral/scb/cy_scb_spi.h"
 161              		.file 8 "Generated_Source\\PSoC6\\pdl\\middleware/ble/cy_ble_stack_host_main.h"
 162              		.file 9 "Generated_Source\\PSoC6\\pdl\\middleware/ble/cy_ble_stack.h"
 163              		.file 10 "Generated_Source\\PSoC6\\pdl\\middleware/ble/cy_ble_gap.h"
 164              		.file 11 "cy_eink_fonts.h"
 165              		.file 12 "pervasive_eink_hardware_driver.h"
 166              		.file 13 "cy_eink_library.h"
 167              		.file 14 "Generated_Source\\PSoC6\\pdl\\cmsis/include/core_cm4.h"
 168              		.file 15 "Generated_Source\\PSoC6/PWM_Red.h"
 169              		.file 16 "Generated_Source\\PSoC6/PWM_Blue.h"
 170              		.file 17 "Generated_Source\\PSoC6/PWM_Green.h"
 171              		.file 18 "Generated_Source\\PSoC6/CY_EINK_SPIM.h"
 172              		.file 19 "Generated_Source\\PSoC6/CY_EINK_Timer.h"
 173              		.file 20 "screen_contents.h"