ARM GAS  C:\Users\bryan.lee\AppData\Local\Temp\ccvISkkr.s 			page 1


   1              		.syntax unified
   2              		.cpu cortex-m4
   3              		.eabi_attribute 27, 1
   4              		.fpu fpv4-sp-d16
   5              		.eabi_attribute 20, 1
   6              		.eabi_attribute 21, 1
   7              		.eabi_attribute 23, 3
   8              		.eabi_attribute 24, 1
   9              		.eabi_attribute 25, 1
  10              		.eabi_attribute 26, 1
  11              		.eabi_attribute 30, 1
  12              		.eabi_attribute 34, 1
  13              		.eabi_attribute 18, 4
  14              		.thumb
  15              		.syntax unified
  16              		.file	"touch.c"
  17              		.text
  18              	.Ltext0:
  19              		.cfi_sections	.debug_frame
  20              		.section	.text.GetcapSenseData,"ax",%progbits
  21              		.align	2
  22              		.global	GetcapSenseData
  23              		.thumb
  24              		.thumb_func
  25              		.type	GetcapSenseData, %function
  26              	GetcapSenseData:
  27              	.LFB703:
  28              		.file 1 "touch.c"
   1:touch.c       **** /******************************************************************************
   2:touch.c       **** * File Name: touch.c
   3:touch.c       **** *
   4:touch.c       **** * Version: 1.10
   5:touch.c       **** *
   6:touch.c       **** * Description: This file contains functions that handle the initialization and
   7:touch.c       **** *              the scanning of the CapSense Slider and the Buttons
   8:touch.c       **** *
   9:touch.c       **** * Related Document: CE220167_BLE_UI.pdf
  10:touch.c       **** *
  11:touch.c       **** * Hardware Dependency: CY8CKIT-062-BLE PSoC 6 BLE Pioneer Kit
  12:touch.c       **** *                      CY8CKIT-028-EPD E-INK Display Shield
  13:touch.c       **** *
  14:touch.c       **** *******************************************************************************
  15:touch.c       **** * Copyright (2017), Cypress Semiconductor Corporation. All rights reserved.
  16:touch.c       **** *******************************************************************************
  17:touch.c       **** * This software, including source code, documentation and related materials
  18:touch.c       **** * (“Software”), is owned by Cypress Semiconductor Corporation or one of its
  19:touch.c       **** * subsidiaries (“Cypress”) and is protected by and subject to worldwide patent
  20:touch.c       **** * protection (United States and foreign), United States copyright laws and
  21:touch.c       **** * international treaty provisions. Therefore, you may use this Software only
  22:touch.c       **** * as provided in the license agreement accompanying the software package from
  23:touch.c       **** * which you obtained this Software (“EULA”).
  24:touch.c       **** *
  25:touch.c       **** * If no EULA applies, Cypress hereby grants you a personal, nonexclusive,
  26:touch.c       **** * non-transferable license to copy, modify, and compile the Software source
  27:touch.c       **** * code solely for use in connection with Cypress’s integrated circuit products.
  28:touch.c       **** * Any reproduction, modification, translation, compilation, or representation
  29:touch.c       **** * of this Software except as specified above is prohibited without the express
ARM GAS  C:\Users\bryan.lee\AppData\Local\Temp\ccvISkkr.s 			page 2


  30:touch.c       **** * written permission of Cypress.
  31:touch.c       **** *
  32:touch.c       **** * Disclaimer: THIS SOFTWARE IS PROVIDED AS-IS, WITH NO WARRANTY OF ANY KIND, 
  33:touch.c       **** * EXPRESS OR IMPLIED, INCLUDING, BUT NOT LIMITED TO, NONINFRINGEMENT, IMPLIED 
  34:touch.c       **** * WARRANTIES OF MERCHANTABILITY AND FITNESS FOR A PARTICULAR PURPOSE. Cypress 
  35:touch.c       **** * reserves the right to make changes to the Software without notice. Cypress 
  36:touch.c       **** * does not assume any liability arising out of the application or use of the 
  37:touch.c       **** * Software or any product or circuit described in the Software. Cypress does 
  38:touch.c       **** * not authorize its products for use in any products where a malfunction or 
  39:touch.c       **** * failure of the Cypress product may reasonably be expected to result in 
  40:touch.c       **** * significant property damage, injury or death (“High Risk Product”). By 
  41:touch.c       **** * including Cypress’s product in a High Risk Product, the manufacturer of such 
  42:touch.c       **** * system or application assumes all risk of such use and in doing so agrees to 
  43:touch.c       **** * indemnify Cypress against all liability.
  44:touch.c       **** *******************************************************************************/
  45:touch.c       **** /******************************************************************************
  46:touch.c       **** * This file contains functions that handle the initialization and the scanning of 
  47:touch.c       **** * the CapSense Slider and the Buttons
  48:touch.c       **** *******************************************************************************/
  49:touch.c       **** 
  50:touch.c       **** /* Header file includes */
  51:touch.c       **** #include <project.h>
  52:touch.c       **** #include "touch.h"
  53:touch.c       **** 
  54:touch.c       **** /* For more details on the data format of CapSense buttons and slider required
  55:touch.c       ****    for Cypress's Custom BLE Profiles, see Cypress CapSense profile specification
  56:touch.c       ****    available at:
  57:touch.c       ****    http://www.cypress.com/documentation/software-and-drivers/cypresss-custom-ble-profiles-and-servi
  58:touch.c       **** */
  59:touch.c       **** 
  60:touch.c       **** /* CapSense Button macros */
  61:touch.c       **** /* Header (position 0)contains the number of buttons */
  62:touch.c       **** #define BUTTON_DATA_HEADER  (uint8_t) (0x02u)
  63:touch.c       **** #define BUTTON_HEADER_POS   (uint8_t) (0x00u)
  64:touch.c       **** /* Buttons masks store the touch data  */
  65:touch.c       **** #define BUTTON0_MASK        (uint8_t) (0x01u)
  66:touch.c       **** #define BUTTON1_MASK        (uint8_t) (0x02u)
  67:touch.c       **** #define BUTTON_MASK_POS0    (uint8_t) (0x02u)
  68:touch.c       **** #define BUTTON_MASK_POS1    (uint8_t) (0x01u)
  69:touch.c       **** /* Macro used to clear button masks */
  70:touch.c       **** #define BUTTON_MASK_CLEAR   (uint8_t) (0x00u)
  71:touch.c       **** 
  72:touch.c       **** /* Slider position value received from the CapSense Component when the slider is 
  73:touch.c       ****    not touched */
  74:touch.c       **** #define NO_SLIDER_TOUCH   	(uint8_t) (0xFFu)
  75:touch.c       **** 
  76:touch.c       **** /*******************************************************************************
  77:touch.c       **** * Function Name: touch_data_t* GetcapSenseData(void)
  78:touch.c       **** ********************************************************************************
  79:touch.c       **** * Summary:
  80:touch.c       **** *  Function that scans CapSense sensors, processes touch information and then
  81:touch.c       **** *  returns the touch information
  82:touch.c       **** *
  83:touch.c       **** * Parameters:
  84:touch.c       **** *  None
  85:touch.c       **** *
  86:touch.c       **** * Return:
ARM GAS  C:\Users\bryan.lee\AppData\Local\Temp\ccvISkkr.s 			page 3


  87:touch.c       **** *  touch_data_t*  : address of the data-structure that stores touch 
  88:touch.c       **** *                   information
  89:touch.c       **** *
  90:touch.c       **** *******************************************************************************/
  91:touch.c       **** touch_data_t* GetcapSenseData(void)
  92:touch.c       **** {
  29              		.loc 1 92 0
  30              		.cfi_startproc
  31              		@ args = 0, pretend = 0, frame = 0
  32              		@ frame_needed = 0, uses_anonymous_args = 0
  33 0000 08B5     		push	{r3, lr}
  34              		.cfi_def_cfa_offset 8
  35              		.cfi_offset 3, -8
  36              		.cfi_offset 14, -4
  93:touch.c       ****     /* Structure that stores the current CapSense touch information */
  94:touch.c       ****     touch_data_t  static currentCapSenseData = 
  95:touch.c       ****     {    
  96:touch.c       ****         /* Initialize the flags that track updates to touch information */
  97:touch.c       ****         .buttonDataUpdated = false,
  98:touch.c       ****         .sliderDataUpdated = false,
  99:touch.c       ****         /* Initialize the button and slider touch information */
 100:touch.c       ****         .sliderData = NO_SLIDER_TOUCH,
 101:touch.c       ****         .buttonData[BUTTON_HEADER_POS]  = BUTTON_DATA_HEADER,
 102:touch.c       ****         .buttonData[BUTTON_MASK_POS0]   = BUTTON_MASK_CLEAR,
 103:touch.c       ****         .buttonData[BUTTON_MASK_POS1]   = BUTTON_MASK_CLEAR
 104:touch.c       ****     };
 105:touch.c       ****         
 106:touch.c       ****     /* Variables used to store the button and slider touch information */
 107:touch.c       ****     uint8_t  static buttonMask      = BUTTON_MASK_CLEAR;
 108:touch.c       ****     uint8_t  static sliderPosition  = NO_SLIDER_TOUCH;
 109:touch.c       **** 
 110:touch.c       ****     /* Do this only when the CapSense isn't busy with a previous operation */
 111:touch.c       ****     if (CapSense_IsBusy() == CapSense_NOT_BUSY)
  37              		.loc 1 111 0
  38 0002 FFF7FEFF 		bl	CapSense_IsBusy
  39              	.LVL0:
  40 0006 E0B9     		cbnz	r0, .L2
 112:touch.c       ****     {
 113:touch.c       ****         /* Process data from both the slider and the buttons */
 114:touch.c       **** 		CapSense_ProcessAllWidgets();
  41              		.loc 1 114 0
  42 0008 FFF7FEFF 		bl	CapSense_ProcessAllWidgets
  43              	.LVL1:
 115:touch.c       ****         
 116:touch.c       ****         /* Read the finger position on the slider */
 117:touch.c       ****         sliderPosition = (uint8_t)CapSense_GetCentroidPos
  44              		.loc 1 117 0
  45 000c 0220     		movs	r0, #2
  46 000e FFF7FEFF 		bl	CapSense_GetCentroidPos
  47              	.LVL2:
  48 0012 1A4B     		ldr	r3, .L10
  49 0014 1870     		strb	r0, [r3]
 118:touch.c       ****                                     (CapSense_LINEARSLIDER0_WDGT_ID);
 119:touch.c       ****                                                
 120:touch.c       ****         /* Clear the button masks to acquire new data */
 121:touch.c       ****         buttonMask = BUTTON_MASK_CLEAR;
  50              		.loc 1 121 0
ARM GAS  C:\Users\bryan.lee\AppData\Local\Temp\ccvISkkr.s 			page 4


  51 0016 0020     		movs	r0, #0
  52 0018 194B     		ldr	r3, .L10+4
  53 001a 1870     		strb	r0, [r3]
 122:touch.c       ****                             
 123:touch.c       ****         /* Get the touch status of button 0 */
 124:touch.c       ****         if (CapSense_IsWidgetActive(CapSense_BUTTON0_WDGT_ID))
  54              		.loc 1 124 0
  55 001c FFF7FEFF 		bl	CapSense_IsWidgetActive
  56              	.LVL3:
  57 0020 20B1     		cbz	r0, .L3
 125:touch.c       ****         {
 126:touch.c       ****             buttonMask |= BUTTON0_MASK;
  58              		.loc 1 126 0
  59 0022 174A     		ldr	r2, .L10+4
  60 0024 1378     		ldrb	r3, [r2]	@ zero_extendqisi2
  61 0026 43F00103 		orr	r3, r3, #1
  62 002a 1370     		strb	r3, [r2]
  63              	.L3:
 127:touch.c       ****         }          
 128:touch.c       ****         /* Get the touch status of button 1 */
 129:touch.c       ****         if (CapSense_IsWidgetActive(CapSense_BUTTON1_WDGT_ID))
  64              		.loc 1 129 0
  65 002c 0120     		movs	r0, #1
  66 002e FFF7FEFF 		bl	CapSense_IsWidgetActive
  67              	.LVL4:
  68 0032 20B1     		cbz	r0, .L4
 130:touch.c       ****         {
 131:touch.c       ****             buttonMask |= BUTTON1_MASK;
  69              		.loc 1 131 0
  70 0034 124A     		ldr	r2, .L10+4
  71 0036 1378     		ldrb	r3, [r2]	@ zero_extendqisi2
  72 0038 43F00203 		orr	r3, r3, #2
  73 003c 1370     		strb	r3, [r2]
  74              	.L4:
 132:touch.c       ****         }                    
 133:touch.c       **** 
 134:touch.c       ****         /* Start the next CapSense scan */
 135:touch.c       ****         CapSense_ScanAllWidgets();
  75              		.loc 1 135 0
  76 003e FFF7FEFF 		bl	CapSense_ScanAllWidgets
  77              	.LVL5:
  78              	.L2:
 136:touch.c       ****     }
 137:touch.c       ****                       
 138:touch.c       ****     /* Check if the finger position on the slider has changed */
 139:touch.c       ****     if (sliderPosition != currentCapSenseData.sliderData)
  79              		.loc 1 139 0
  80 0042 0E4B     		ldr	r3, .L10
  81 0044 9A79     		ldrb	r2, [r3, #6]	@ zero_extendqisi2
  82 0046 1B78     		ldrb	r3, [r3]	@ zero_extendqisi2
  83 0048 9A42     		cmp	r2, r3
  84 004a 04D0     		beq	.L5
 140:touch.c       ****     {
 141:touch.c       ****         /* Slider touch position */
 142:touch.c       ****         currentCapSenseData.sliderData = (uint8_t)sliderPosition;
  85              		.loc 1 142 0
  86 004c 0B4A     		ldr	r2, .L10
ARM GAS  C:\Users\bryan.lee\AppData\Local\Temp\ccvISkkr.s 			page 5


  87 004e 9371     		strb	r3, [r2, #6]
 143:touch.c       ****         /* Slider data updated */
 144:touch.c       ****         currentCapSenseData.sliderDataUpdated = true;
  88              		.loc 1 144 0
  89 0050 0123     		movs	r3, #1
  90 0052 1371     		strb	r3, [r2, #4]
  91 0054 02E0     		b	.L6
  92              	.L5:
 145:touch.c       ****     }
 146:touch.c       ****     else
 147:touch.c       ****     {  
 148:touch.c       ****        /* Slider data not updated */
 149:touch.c       ****        currentCapSenseData.sliderDataUpdated = false; 
  93              		.loc 1 149 0
  94 0056 0022     		movs	r2, #0
  95 0058 084B     		ldr	r3, .L10
  96 005a 1A71     		strb	r2, [r3, #4]
  97              	.L6:
 150:touch.c       ****     }
 151:touch.c       ****     /* Check for a change in the button mask */
 152:touch.c       ****     if (buttonMask != currentCapSenseData.buttonData[BUTTON_MASK_POS0])
  98              		.loc 1 152 0
  99 005c 074B     		ldr	r3, .L10
 100 005e 5A7A     		ldrb	r2, [r3, #9]	@ zero_extendqisi2
 101 0060 074B     		ldr	r3, .L10+4
 102 0062 1B78     		ldrb	r3, [r3]	@ zero_extendqisi2
 103 0064 9A42     		cmp	r2, r3
 104 0066 04D0     		beq	.L7
 153:touch.c       ****     {
 154:touch.c       ****         /* Button mask for BUTTON0 and BUTTON1 */
 155:touch.c       ****         currentCapSenseData.buttonData[BUTTON_MASK_POS0] = buttonMask;
 105              		.loc 1 155 0
 106 0068 044A     		ldr	r2, .L10
 107 006a 5372     		strb	r3, [r2, #9]
 156:touch.c       ****         /* Button data updated */
 157:touch.c       ****         currentCapSenseData.buttonDataUpdated = true;
 108              		.loc 1 157 0
 109 006c 0123     		movs	r3, #1
 110 006e 5371     		strb	r3, [r2, #5]
 111 0070 02E0     		b	.L8
 112              	.L7:
 158:touch.c       ****     }
 159:touch.c       ****     else
 160:touch.c       ****     {
 161:touch.c       ****         /* Button data not updated */
 162:touch.c       ****         currentCapSenseData.buttonDataUpdated = false; 
 113              		.loc 1 162 0
 114 0072 0022     		movs	r2, #0
 115 0074 014B     		ldr	r3, .L10
 116 0076 5A71     		strb	r2, [r3, #5]
 117              	.L8:
 163:touch.c       ****     }
 164:touch.c       ****     
 165:touch.c       ****     /* return the touch information */
 166:touch.c       ****     return &currentCapSenseData;
 167:touch.c       **** }
 118              		.loc 1 167 0
ARM GAS  C:\Users\bryan.lee\AppData\Local\Temp\ccvISkkr.s 			page 6


 119 0078 0248     		ldr	r0, .L10+8
 120 007a 08BD     		pop	{r3, pc}
 121              	.L11:
 122              		.align	2
 123              	.L10:
 124 007c 00000000 		.word	.LANCHOR0
 125 0080 00000000 		.word	.LANCHOR1
 126 0084 04000000 		.word	.LANCHOR0+4
 127              		.cfi_endproc
 128              	.LFE703:
 129              		.size	GetcapSenseData, .-GetcapSenseData
 130              		.section	.text.IsCapSenseReadyForLowPowerMode,"ax",%progbits
 131              		.align	2
 132              		.global	IsCapSenseReadyForLowPowerMode
 133              		.thumb
 134              		.thumb_func
 135              		.type	IsCapSenseReadyForLowPowerMode, %function
 136              	IsCapSenseReadyForLowPowerMode:
 137              	.LFB704:
 168:touch.c       **** 
 169:touch.c       **** /*******************************************************************************
 170:touch.c       **** * Function Name: bool IsCapSenseReadyForLowPowerMode(void)
 171:touch.c       **** ********************************************************************************
 172:touch.c       **** *
 173:touch.c       **** * Summary:
 174:touch.c       **** *  Function to check if CapSense is ready to enter low power mode
 175:touch.c       **** *
 176:touch.c       **** * Parameters:
 177:touch.c       **** *  None
 178:touch.c       **** *
 179:touch.c       **** * Return:
 180:touch.c       **** *  bool     : true if ready to enter low power mode, false otherwise
 181:touch.c       **** *
 182:touch.c       **** * Side Effects:
 183:touch.c       **** *  None
 184:touch.c       **** *
 185:touch.c       **** *******************************************************************************/
 186:touch.c       **** bool  IsCapSenseReadyForLowPowerMode(void)
 187:touch.c       **** {
 138              		.loc 1 187 0
 139              		.cfi_startproc
 140              		@ args = 0, pretend = 0, frame = 0
 141              		@ frame_needed = 0, uses_anonymous_args = 0
 142 0000 08B5     		push	{r3, lr}
 143              		.cfi_def_cfa_offset 8
 144              		.cfi_offset 3, -8
 145              		.cfi_offset 14, -4
 188:touch.c       ****     /* Variable that stores the return flag */
 189:touch.c       ****     bool lowPowerModeReady;
 190:touch.c       ****     
 191:touch.c       ****     /* Don't enter low power mode if CapSense is busy with a scan */
 192:touch.c       ****     if(CapSense_IsBusy() != CapSense_NOT_BUSY)
 146              		.loc 1 192 0
 147 0002 FFF7FEFF 		bl	CapSense_IsBusy
 148              	.LVL6:
 149 0006 08B1     		cbz	r0, .L14
 193:touch.c       ****     {
ARM GAS  C:\Users\bryan.lee\AppData\Local\Temp\ccvISkkr.s 			page 7


 194:touch.c       ****         lowPowerModeReady=false;
 150              		.loc 1 194 0
 151 0008 0020     		movs	r0, #0
 152 000a 08BD     		pop	{r3, pc}
 153              	.L14:
 195:touch.c       ****     }
 196:touch.c       ****     else
 197:touch.c       ****     {
 198:touch.c       ****         lowPowerModeReady=true;
 154              		.loc 1 198 0
 155 000c 0120     		movs	r0, #1
 156              	.LVL7:
 199:touch.c       ****     }
 200:touch.c       ****     
 201:touch.c       ****     /* Return  the low power mode entry readiness */
 202:touch.c       ****     return lowPowerModeReady;
 203:touch.c       **** }
 157              		.loc 1 203 0
 158 000e 08BD     		pop	{r3, pc}
 159              		.cfi_endproc
 160              	.LFE704:
 161              		.size	IsCapSenseReadyForLowPowerMode, .-IsCapSenseReadyForLowPowerMode
 162              		.section	.text.InitCapSense,"ax",%progbits
 163              		.align	2
 164              		.global	InitCapSense
 165              		.thumb
 166              		.thumb_func
 167              		.type	InitCapSense, %function
 168              	InitCapSense:
 169              	.LFB705:
 204:touch.c       **** 
 205:touch.c       **** /*******************************************************************************
 206:touch.c       **** * Function Name: void InitCapSense(void)
 207:touch.c       **** ********************************************************************************
 208:touch.c       **** * Summary:
 209:touch.c       **** *  Initializes CapSense touch sensing
 210:touch.c       **** *
 211:touch.c       **** * Parameters:
 212:touch.c       **** *  void
 213:touch.c       **** *
 214:touch.c       **** * Return:
 215:touch.c       **** *  void
 216:touch.c       **** *
 217:touch.c       **** *******************************************************************************/
 218:touch.c       **** void InitCapSense(void)
 219:touch.c       **** {
 170              		.loc 1 219 0
 171              		.cfi_startproc
 172              		@ args = 0, pretend = 0, frame = 0
 173              		@ frame_needed = 0, uses_anonymous_args = 0
 174 0000 08B5     		push	{r3, lr}
 175              		.cfi_def_cfa_offset 8
 176              		.cfi_offset 3, -8
 177              		.cfi_offset 14, -4
 220:touch.c       ****     /* Start the CapSense component and initialize the baselines */
 221:touch.c       ****     CapSense_Start();
 178              		.loc 1 221 0
ARM GAS  C:\Users\bryan.lee\AppData\Local\Temp\ccvISkkr.s 			page 8


 179 0002 FFF7FEFF 		bl	CapSense_Start
 180              	.LVL8:
 181 0006 08BD     		pop	{r3, pc}
 182              		.cfi_endproc
 183              	.LFE705:
 184              		.size	InitCapSense, .-InitCapSense
 185              		.data
 186              		.align	2
 187              		.set	.LANCHOR0,. + 0
 188              		.type	sliderPosition.18352, %object
 189              		.size	sliderPosition.18352, 1
 190              	sliderPosition.18352:
 191 0000 FF       		.byte	-1
 192 0001 000000   		.space	3
 193              		.type	currentCapSenseData.18350, %object
 194              		.size	currentCapSenseData.18350, 6
 195              	currentCapSenseData.18350:
 196 0004 00       		.byte	0
 197 0005 00       		.byte	0
 198 0006 FF       		.byte	-1
 199 0007 02       		.byte	2
 200 0008 00       		.byte	0
 201 0009 00       		.byte	0
 202              		.bss
 203              		.set	.LANCHOR1,. + 0
 204              		.type	buttonMask.18351, %object
 205              		.size	buttonMask.18351, 1
 206              	buttonMask.18351:
 207 0000 00       		.space	1
 208              		.text
 209              	.Letext0:
 210              		.file 2 "c:\\program files (x86)\\cypress\\psoc creator\\4.2\\psoc creator\\import\\gnu\\arm\\5.4.
 211              		.file 3 "c:\\program files (x86)\\cypress\\psoc creator\\4.2\\psoc creator\\import\\gnu\\arm\\5.4.
 212              		.file 4 "Generated_Source\\PSoC6\\pdl\\drivers/peripheral/tcpwm/cy_tcpwm_counter.h"
 213              		.file 5 "Generated_Source\\PSoC6\\pdl\\drivers/peripheral/tcpwm/cy_tcpwm_pwm.h"
 214              		.file 6 "Generated_Source\\PSoC6\\pdl\\drivers/peripheral/scb/cy_scb_spi.h"
 215              		.file 7 "Generated_Source\\PSoC6\\pdl\\middleware/ble/cy_ble_stack_host_main.h"
 216              		.file 8 "Generated_Source\\PSoC6\\pdl\\middleware/ble/cy_ble_gap.h"
 217              		.file 9 "touch.h"
 218              		.file 10 "Generated_Source\\PSoC6\\pdl\\cmsis/include/core_cm4.h"
 219              		.file 11 "Generated_Source\\PSoC6/PWM_Red.h"
 220              		.file 12 "Generated_Source\\PSoC6/PWM_Blue.h"
 221              		.file 13 "Generated_Source\\PSoC6/PWM_Green.h"
 222              		.file 14 "Generated_Source\\PSoC6/CY_EINK_SPIM.h"
 223              		.file 15 "Generated_Source\\PSoC6/CY_EINK_Timer.h"
 224              		.file 16 "Generated_Source\\PSoC6/CapSense_Sensing.h"
 225              		.file 17 "Generated_Source\\PSoC6/CapSense_Control.h"
 226              		.file 18 "Generated_Source\\PSoC6/CapSense_Structure.h"