ARM GAS  C:\Users\bryan.lee\AppData\Local\Temp\ccUsyb3S.s 			page 1


   1              		.syntax unified
   2              		.cpu cortex-m0
   3              		.fpu softvfp
   4              		.eabi_attribute 20, 1
   5              		.eabi_attribute 21, 1
   6              		.eabi_attribute 23, 3
   7              		.eabi_attribute 24, 1
   8              		.eabi_attribute 25, 1
   9              		.eabi_attribute 26, 1
  10              		.eabi_attribute 30, 1
  11              		.eabi_attribute 34, 0
  12              		.eabi_attribute 18, 4
  13              		.thumb
  14              		.syntax unified
  15              		.file	"cyfitter_cfg.c"
  16              		.text
  17              	.Ltext0:
  18              		.cfi_sections	.debug_frame
  19              		.section	.text.cfg_write_bytes32,"ax",%progbits
  20              		.align	2
  21              		.code	16
  22              		.thumb_func
  23              		.type	cfg_write_bytes32, %function
  24              	cfg_write_bytes32:
  25              	.LFB5:
  26              		.file 1 "Generated_Source\\PSoC4\\cyfitter_cfg.c"
   1:Generated_Source\PSoC4/cyfitter_cfg.c **** 
   2:Generated_Source\PSoC4/cyfitter_cfg.c **** /*******************************************************************************
   3:Generated_Source\PSoC4/cyfitter_cfg.c **** * File Name: cyfitter_cfg.c
   4:Generated_Source\PSoC4/cyfitter_cfg.c **** * 
   5:Generated_Source\PSoC4/cyfitter_cfg.c **** * PSoC Creator  4.1 Update 1
   6:Generated_Source\PSoC4/cyfitter_cfg.c **** *
   7:Generated_Source\PSoC4/cyfitter_cfg.c **** * Description:
   8:Generated_Source\PSoC4/cyfitter_cfg.c **** * This file contains device initialization code.
   9:Generated_Source\PSoC4/cyfitter_cfg.c **** * Except for the user defined sections in CyClockStartupError(), this file should not be modified.
  10:Generated_Source\PSoC4/cyfitter_cfg.c **** * This file is automatically generated by PSoC Creator.
  11:Generated_Source\PSoC4/cyfitter_cfg.c **** *
  12:Generated_Source\PSoC4/cyfitter_cfg.c **** ********************************************************************************
  13:Generated_Source\PSoC4/cyfitter_cfg.c **** * Copyright (c) 2007-2017 Cypress Semiconductor.  All rights reserved.
  14:Generated_Source\PSoC4/cyfitter_cfg.c **** * You may use this file only in accordance with the license, terms, conditions, 
  15:Generated_Source\PSoC4/cyfitter_cfg.c **** * disclaimers, and limitations in the end user license agreement accompanying 
  16:Generated_Source\PSoC4/cyfitter_cfg.c **** * the software package with which this file was provided.
  17:Generated_Source\PSoC4/cyfitter_cfg.c **** ********************************************************************************/
  18:Generated_Source\PSoC4/cyfitter_cfg.c **** 
  19:Generated_Source\PSoC4/cyfitter_cfg.c **** #include <string.h>
  20:Generated_Source\PSoC4/cyfitter_cfg.c **** #include "cytypes.h"
  21:Generated_Source\PSoC4/cyfitter_cfg.c **** #include "cydevice_trm.h"
  22:Generated_Source\PSoC4/cyfitter_cfg.c **** #include "cyfitter.h"
  23:Generated_Source\PSoC4/cyfitter_cfg.c **** #include "CyLib.h"
  24:Generated_Source\PSoC4/cyfitter_cfg.c **** #include "CyLFClk.h"
  25:Generated_Source\PSoC4/cyfitter_cfg.c **** #include "cyfitter_cfg.h"
  26:Generated_Source\PSoC4/cyfitter_cfg.c **** #include "cyapicallbacks.h"
  27:Generated_Source\PSoC4/cyfitter_cfg.c **** 
  28:Generated_Source\PSoC4/cyfitter_cfg.c **** 
  29:Generated_Source\PSoC4/cyfitter_cfg.c **** #if defined(__GNUC__) || defined(__ARMCC_VERSION)
  30:Generated_Source\PSoC4/cyfitter_cfg.c ****     #define CYPACKED 
  31:Generated_Source\PSoC4/cyfitter_cfg.c ****     #define CYPACKED_ATTR __attribute__ ((packed))
ARM GAS  C:\Users\bryan.lee\AppData\Local\Temp\ccUsyb3S.s 			page 2


  32:Generated_Source\PSoC4/cyfitter_cfg.c ****     #define CYALIGNED __attribute__ ((aligned))
  33:Generated_Source\PSoC4/cyfitter_cfg.c ****     #define CY_CFG_UNUSED __attribute__ ((unused))
  34:Generated_Source\PSoC4/cyfitter_cfg.c ****     #ifndef CY_CFG_SECTION
  35:Generated_Source\PSoC4/cyfitter_cfg.c ****         #define CY_CFG_SECTION __attribute__ ((section(".psocinit")))
  36:Generated_Source\PSoC4/cyfitter_cfg.c ****     #endif
  37:Generated_Source\PSoC4/cyfitter_cfg.c ****     
  38:Generated_Source\PSoC4/cyfitter_cfg.c ****     #if defined(__ARMCC_VERSION)
  39:Generated_Source\PSoC4/cyfitter_cfg.c ****         #define CY_CFG_MEMORY_BARRIER() __memory_changed()
  40:Generated_Source\PSoC4/cyfitter_cfg.c ****     #else
  41:Generated_Source\PSoC4/cyfitter_cfg.c ****         #define CY_CFG_MEMORY_BARRIER() __sync_synchronize()
  42:Generated_Source\PSoC4/cyfitter_cfg.c ****     #endif
  43:Generated_Source\PSoC4/cyfitter_cfg.c ****     
  44:Generated_Source\PSoC4/cyfitter_cfg.c **** #elif defined(__ICCARM__)
  45:Generated_Source\PSoC4/cyfitter_cfg.c ****     #include <intrinsics.h>
  46:Generated_Source\PSoC4/cyfitter_cfg.c **** 
  47:Generated_Source\PSoC4/cyfitter_cfg.c ****     #define CYPACKED __packed
  48:Generated_Source\PSoC4/cyfitter_cfg.c ****     #define CYPACKED_ATTR 
  49:Generated_Source\PSoC4/cyfitter_cfg.c ****     #define CYALIGNED _Pragma("data_alignment=4")
  50:Generated_Source\PSoC4/cyfitter_cfg.c ****     #define CY_CFG_UNUSED _Pragma("diag_suppress=Pe177")
  51:Generated_Source\PSoC4/cyfitter_cfg.c ****     #define CY_CFG_SECTION _Pragma("location=\".psocinit\"")
  52:Generated_Source\PSoC4/cyfitter_cfg.c ****     
  53:Generated_Source\PSoC4/cyfitter_cfg.c ****     #define CY_CFG_MEMORY_BARRIER() __DMB()
  54:Generated_Source\PSoC4/cyfitter_cfg.c ****     
  55:Generated_Source\PSoC4/cyfitter_cfg.c **** #else
  56:Generated_Source\PSoC4/cyfitter_cfg.c ****     #error Unsupported toolchain
  57:Generated_Source\PSoC4/cyfitter_cfg.c **** #endif
  58:Generated_Source\PSoC4/cyfitter_cfg.c **** 
  59:Generated_Source\PSoC4/cyfitter_cfg.c **** #ifndef CYCODE
  60:Generated_Source\PSoC4/cyfitter_cfg.c ****     #define CYCODE
  61:Generated_Source\PSoC4/cyfitter_cfg.c **** #endif
  62:Generated_Source\PSoC4/cyfitter_cfg.c **** #ifndef CYDATA
  63:Generated_Source\PSoC4/cyfitter_cfg.c ****     #define CYDATA
  64:Generated_Source\PSoC4/cyfitter_cfg.c **** #endif
  65:Generated_Source\PSoC4/cyfitter_cfg.c **** #ifndef CYFAR
  66:Generated_Source\PSoC4/cyfitter_cfg.c ****     #define CYFAR
  67:Generated_Source\PSoC4/cyfitter_cfg.c **** #endif
  68:Generated_Source\PSoC4/cyfitter_cfg.c **** #ifndef CYXDATA
  69:Generated_Source\PSoC4/cyfitter_cfg.c ****     #define CYXDATA
  70:Generated_Source\PSoC4/cyfitter_cfg.c **** #endif
  71:Generated_Source\PSoC4/cyfitter_cfg.c **** 
  72:Generated_Source\PSoC4/cyfitter_cfg.c **** 
  73:Generated_Source\PSoC4/cyfitter_cfg.c **** CY_CFG_UNUSED
  74:Generated_Source\PSoC4/cyfitter_cfg.c **** static void CYMEMZERO(void *s, size_t n);
  75:Generated_Source\PSoC4/cyfitter_cfg.c **** CY_CFG_UNUSED
  76:Generated_Source\PSoC4/cyfitter_cfg.c **** static void CYMEMZERO(void *s, size_t n)
  77:Generated_Source\PSoC4/cyfitter_cfg.c **** {
  78:Generated_Source\PSoC4/cyfitter_cfg.c **** 	(void)memset(s, 0, n);
  79:Generated_Source\PSoC4/cyfitter_cfg.c **** }
  80:Generated_Source\PSoC4/cyfitter_cfg.c **** CY_CFG_UNUSED
  81:Generated_Source\PSoC4/cyfitter_cfg.c **** static void CYCONFIGCPY(void *dest, const void *src, size_t n);
  82:Generated_Source\PSoC4/cyfitter_cfg.c **** CY_CFG_UNUSED
  83:Generated_Source\PSoC4/cyfitter_cfg.c **** static void CYCONFIGCPY(void *dest, const void *src, size_t n)
  84:Generated_Source\PSoC4/cyfitter_cfg.c **** {
  85:Generated_Source\PSoC4/cyfitter_cfg.c **** 	(void)memcpy(dest, src, n);
  86:Generated_Source\PSoC4/cyfitter_cfg.c **** }
  87:Generated_Source\PSoC4/cyfitter_cfg.c **** CY_CFG_UNUSED
  88:Generated_Source\PSoC4/cyfitter_cfg.c **** static void CYCONFIGCPYCODE(void *dest, const void *src, size_t n);
ARM GAS  C:\Users\bryan.lee\AppData\Local\Temp\ccUsyb3S.s 			page 3


  89:Generated_Source\PSoC4/cyfitter_cfg.c **** CY_CFG_UNUSED
  90:Generated_Source\PSoC4/cyfitter_cfg.c **** static void CYCONFIGCPYCODE(void *dest, const void *src, size_t n)
  91:Generated_Source\PSoC4/cyfitter_cfg.c **** {
  92:Generated_Source\PSoC4/cyfitter_cfg.c **** 	(void)memcpy(dest, src, n);
  93:Generated_Source\PSoC4/cyfitter_cfg.c **** }
  94:Generated_Source\PSoC4/cyfitter_cfg.c **** 
  95:Generated_Source\PSoC4/cyfitter_cfg.c **** 
  96:Generated_Source\PSoC4/cyfitter_cfg.c **** 
  97:Generated_Source\PSoC4/cyfitter_cfg.c **** 
  98:Generated_Source\PSoC4/cyfitter_cfg.c **** /* Clock startup error codes                                                   */
  99:Generated_Source\PSoC4/cyfitter_cfg.c **** #define CYCLOCKSTART_NO_ERROR    0u
 100:Generated_Source\PSoC4/cyfitter_cfg.c **** #define CYCLOCKSTART_XTAL_ERROR  1u
 101:Generated_Source\PSoC4/cyfitter_cfg.c **** #define CYCLOCKSTART_32KHZ_ERROR 2u
 102:Generated_Source\PSoC4/cyfitter_cfg.c **** #define CYCLOCKSTART_PLL_ERROR   3u
 103:Generated_Source\PSoC4/cyfitter_cfg.c **** #define CYCLOCKSTART_FLL_ERROR   4u
 104:Generated_Source\PSoC4/cyfitter_cfg.c **** 
 105:Generated_Source\PSoC4/cyfitter_cfg.c **** 
 106:Generated_Source\PSoC4/cyfitter_cfg.c **** #ifdef CY_NEED_CYCLOCKSTARTUPERROR
 107:Generated_Source\PSoC4/cyfitter_cfg.c **** /*******************************************************************************
 108:Generated_Source\PSoC4/cyfitter_cfg.c **** * Function Name: CyClockStartupError
 109:Generated_Source\PSoC4/cyfitter_cfg.c **** ********************************************************************************
 110:Generated_Source\PSoC4/cyfitter_cfg.c **** * Summary:
 111:Generated_Source\PSoC4/cyfitter_cfg.c **** *  If an error is encountered during clock configuration (crystal startup error,
 112:Generated_Source\PSoC4/cyfitter_cfg.c **** *  PLL lock error, etc.), the system will end up here.  Unless reimplemented by
 113:Generated_Source\PSoC4/cyfitter_cfg.c **** *  the customer, this function will stop in an infinite loop.
 114:Generated_Source\PSoC4/cyfitter_cfg.c **** *
 115:Generated_Source\PSoC4/cyfitter_cfg.c **** * Parameters:
 116:Generated_Source\PSoC4/cyfitter_cfg.c **** *   void
 117:Generated_Source\PSoC4/cyfitter_cfg.c **** *
 118:Generated_Source\PSoC4/cyfitter_cfg.c **** * Return:
 119:Generated_Source\PSoC4/cyfitter_cfg.c **** *   void
 120:Generated_Source\PSoC4/cyfitter_cfg.c **** *
 121:Generated_Source\PSoC4/cyfitter_cfg.c **** *******************************************************************************/
 122:Generated_Source\PSoC4/cyfitter_cfg.c **** CY_CFG_UNUSED
 123:Generated_Source\PSoC4/cyfitter_cfg.c **** static void CyClockStartupError(uint8 errorCode);
 124:Generated_Source\PSoC4/cyfitter_cfg.c **** CY_CFG_UNUSED
 125:Generated_Source\PSoC4/cyfitter_cfg.c **** static void CyClockStartupError(uint8 errorCode)
 126:Generated_Source\PSoC4/cyfitter_cfg.c **** {
 127:Generated_Source\PSoC4/cyfitter_cfg.c ****     /* To remove the compiler warning if errorCode not used. */
 128:Generated_Source\PSoC4/cyfitter_cfg.c **** #if defined(CY_PSOC3) && (CY_PSOC3)
 129:Generated_Source\PSoC4/cyfitter_cfg.c ****     errorCode = errorCode;
 130:Generated_Source\PSoC4/cyfitter_cfg.c **** #else
 131:Generated_Source\PSoC4/cyfitter_cfg.c ****     (void)errorCode;
 132:Generated_Source\PSoC4/cyfitter_cfg.c **** #endif /* CY_PSOC3 */
 133:Generated_Source\PSoC4/cyfitter_cfg.c **** 
 134:Generated_Source\PSoC4/cyfitter_cfg.c ****     /* If we have a clock startup error (bad MHz crystal, PLL lock, etc.),  */
 135:Generated_Source\PSoC4/cyfitter_cfg.c ****     /* we will end up here to allow the customer to implement something to  */
 136:Generated_Source\PSoC4/cyfitter_cfg.c ****     /* deal with the clock condition.                                       */
 137:Generated_Source\PSoC4/cyfitter_cfg.c **** 
 138:Generated_Source\PSoC4/cyfitter_cfg.c **** #ifdef CY_CFG_CLOCK_STARTUP_ERROR_CALLBACK
 139:Generated_Source\PSoC4/cyfitter_cfg.c ****     CY_CFG_Clock_Startup_ErrorCallback();
 140:Generated_Source\PSoC4/cyfitter_cfg.c **** #else
 141:Generated_Source\PSoC4/cyfitter_cfg.c ****     /*  If not using CY_CFG_CLOCK_STARTUP_ERROR_CALLBACK, place your clock startup code here. */
 142:Generated_Source\PSoC4/cyfitter_cfg.c ****     /* `#START CyClockStartupError` */
 143:Generated_Source\PSoC4/cyfitter_cfg.c **** 
 144:Generated_Source\PSoC4/cyfitter_cfg.c ****     /* If we have a clock startup error (bad MHz crystal, PLL lock, etc.),  */
 145:Generated_Source\PSoC4/cyfitter_cfg.c ****     /* we will end up here to allow the customer to implement something to  */
ARM GAS  C:\Users\bryan.lee\AppData\Local\Temp\ccUsyb3S.s 			page 4


 146:Generated_Source\PSoC4/cyfitter_cfg.c ****     /* deal with the clock condition.                                       */
 147:Generated_Source\PSoC4/cyfitter_cfg.c **** 
 148:Generated_Source\PSoC4/cyfitter_cfg.c ****     /* `#END` */
 149:Generated_Source\PSoC4/cyfitter_cfg.c **** 
 150:Generated_Source\PSoC4/cyfitter_cfg.c ****     while(1) {}
 151:Generated_Source\PSoC4/cyfitter_cfg.c **** #endif /* CY_CFG_CLOCK_STARTUP_ERROR_CALLBACK */
 152:Generated_Source\PSoC4/cyfitter_cfg.c **** }
 153:Generated_Source\PSoC4/cyfitter_cfg.c **** #endif
 154:Generated_Source\PSoC4/cyfitter_cfg.c **** 
 155:Generated_Source\PSoC4/cyfitter_cfg.c **** #define CY_CFG_BASE_ADDR_COUNT 4u
 156:Generated_Source\PSoC4/cyfitter_cfg.c **** CYPACKED typedef struct
 157:Generated_Source\PSoC4/cyfitter_cfg.c **** {
 158:Generated_Source\PSoC4/cyfitter_cfg.c **** 	uint8 offset;
 159:Generated_Source\PSoC4/cyfitter_cfg.c **** 	uint8 value;
 160:Generated_Source\PSoC4/cyfitter_cfg.c **** } CYPACKED_ATTR cy_cfg_addrvalue_t;
 161:Generated_Source\PSoC4/cyfitter_cfg.c **** 
 162:Generated_Source\PSoC4/cyfitter_cfg.c **** 
 163:Generated_Source\PSoC4/cyfitter_cfg.c **** 
 164:Generated_Source\PSoC4/cyfitter_cfg.c **** /*******************************************************************************
 165:Generated_Source\PSoC4/cyfitter_cfg.c **** * Function Name: cfg_write_bytes32
 166:Generated_Source\PSoC4/cyfitter_cfg.c **** ********************************************************************************
 167:Generated_Source\PSoC4/cyfitter_cfg.c **** * Summary:
 168:Generated_Source\PSoC4/cyfitter_cfg.c **** *  This function is used for setting up the chip configuration areas that
 169:Generated_Source\PSoC4/cyfitter_cfg.c **** *  contain relatively sparse data.
 170:Generated_Source\PSoC4/cyfitter_cfg.c **** *
 171:Generated_Source\PSoC4/cyfitter_cfg.c **** * Parameters:
 172:Generated_Source\PSoC4/cyfitter_cfg.c **** *   void
 173:Generated_Source\PSoC4/cyfitter_cfg.c **** *
 174:Generated_Source\PSoC4/cyfitter_cfg.c **** * Return:
 175:Generated_Source\PSoC4/cyfitter_cfg.c **** *   void
 176:Generated_Source\PSoC4/cyfitter_cfg.c **** *
 177:Generated_Source\PSoC4/cyfitter_cfg.c **** *******************************************************************************/
 178:Generated_Source\PSoC4/cyfitter_cfg.c **** static void cfg_write_bytes32(const uint32 addr_table[], const cy_cfg_addrvalue_t data_table[]);
 179:Generated_Source\PSoC4/cyfitter_cfg.c **** static void cfg_write_bytes32(const uint32 addr_table[], const cy_cfg_addrvalue_t data_table[])
 180:Generated_Source\PSoC4/cyfitter_cfg.c **** {
  27              		.loc 1 180 0
  28              		.cfi_startproc
  29              		@ args = 0, pretend = 0, frame = 0
  30              		@ frame_needed = 0, uses_anonymous_args = 0
  31              	.LVL0:
  32 0000 F0B5     		push	{r4, r5, r6, r7, lr}
  33              		.cfi_def_cfa_offset 20
  34              		.cfi_offset 4, -20
  35              		.cfi_offset 5, -16
  36              		.cfi_offset 6, -12
  37              		.cfi_offset 7, -8
  38              		.cfi_offset 14, -4
  39              	.LVL1:
 181:Generated_Source\PSoC4/cyfitter_cfg.c **** 	/* For 32-bit little-endian architectures */
 182:Generated_Source\PSoC4/cyfitter_cfg.c **** 	uint32 i, j = 0u;
  40              		.loc 1 182 0
  41 0002 0025     		movs	r5, #0
 183:Generated_Source\PSoC4/cyfitter_cfg.c **** 	for (i = 0u; i < CY_CFG_BASE_ADDR_COUNT; i++)
  42              		.loc 1 183 0
  43 0004 0027     		movs	r7, #0
  44 0006 11E0     		b	.L2
  45              	.LVL2:
ARM GAS  C:\Users\bryan.lee\AppData\Local\Temp\ccUsyb3S.s 			page 5


  46              	.L5:
  47              	.LBB2:
 184:Generated_Source\PSoC4/cyfitter_cfg.c **** 	{
 185:Generated_Source\PSoC4/cyfitter_cfg.c **** 		uint32 baseAddr = addr_table[i];
  48              		.loc 1 185 0
  49 0008 BB00     		lsls	r3, r7, #2
  50 000a C658     		ldr	r6, [r0, r3]
  51              	.LVL3:
 186:Generated_Source\PSoC4/cyfitter_cfg.c **** 		uint8 count = (uint8)baseAddr;
  52              		.loc 1 186 0
  53 000c F3B2     		uxtb	r3, r6
  54              	.LVL4:
 187:Generated_Source\PSoC4/cyfitter_cfg.c **** 		baseAddr &= 0xFFFFFF00u;
  55              		.loc 1 187 0
  56 000e FF22     		movs	r2, #255
  57 0010 9643     		bics	r6, r2
  58              	.LVL5:
 188:Generated_Source\PSoC4/cyfitter_cfg.c **** 		while (count != 0u)
  59              		.loc 1 188 0
  60 0012 08E0     		b	.L3
  61              	.L4:
 189:Generated_Source\PSoC4/cyfitter_cfg.c **** 		{
 190:Generated_Source\PSoC4/cyfitter_cfg.c **** 			CY_SET_REG8((void *)(baseAddr + data_table[j].offset), data_table[j].value);
  62              		.loc 1 190 0
  63 0014 6A00     		lsls	r2, r5, #1
  64 0016 8A18     		adds	r2, r1, r2
  65 0018 1478     		ldrb	r4, [r2]
  66 001a A419     		adds	r4, r4, r6
  67 001c 5278     		ldrb	r2, [r2, #1]
  68 001e 2270     		strb	r2, [r4]
 191:Generated_Source\PSoC4/cyfitter_cfg.c **** 			j++;
  69              		.loc 1 191 0
  70 0020 0135     		adds	r5, r5, #1
  71              	.LVL6:
 192:Generated_Source\PSoC4/cyfitter_cfg.c **** 			count--;
  72              		.loc 1 192 0
  73 0022 013B     		subs	r3, r3, #1
  74              	.LVL7:
  75 0024 DBB2     		uxtb	r3, r3
  76              	.LVL8:
  77              	.L3:
 188:Generated_Source\PSoC4/cyfitter_cfg.c **** 		{
  78              		.loc 1 188 0
  79 0026 002B     		cmp	r3, #0
  80 0028 F4D1     		bne	.L4
  81              	.LBE2:
 183:Generated_Source\PSoC4/cyfitter_cfg.c **** 	{
  82              		.loc 1 183 0 discriminator 2
  83 002a 0137     		adds	r7, r7, #1
  84              	.LVL9:
  85              	.L2:
 183:Generated_Source\PSoC4/cyfitter_cfg.c **** 	{
  86              		.loc 1 183 0 is_stmt 0 discriminator 1
  87 002c 032F     		cmp	r7, #3
  88 002e EBD9     		bls	.L5
 193:Generated_Source\PSoC4/cyfitter_cfg.c **** 		}
 194:Generated_Source\PSoC4/cyfitter_cfg.c **** 	}
ARM GAS  C:\Users\bryan.lee\AppData\Local\Temp\ccUsyb3S.s 			page 6


 195:Generated_Source\PSoC4/cyfitter_cfg.c **** }
  89              		.loc 1 195 0 is_stmt 1
  90              		@ sp needed
  91              	.LVL10:
  92              	.LVL11:
  93 0030 F0BD     		pop	{r4, r5, r6, r7, pc}
  94              		.cfi_endproc
  95              	.LFE5:
  96              		.size	cfg_write_bytes32, .-cfg_write_bytes32
  97 0032 C046     		.section	.text.CYMEMZERO,"ax",%progbits
  98              		.align	2
  99              		.code	16
 100              		.thumb_func
 101              		.type	CYMEMZERO, %function
 102              	CYMEMZERO:
 103              	.LFB2:
  77:Generated_Source\PSoC4/cyfitter_cfg.c **** 	(void)memset(s, 0, n);
 104              		.loc 1 77 0
 105              		.cfi_startproc
 106              		@ args = 0, pretend = 0, frame = 0
 107              		@ frame_needed = 0, uses_anonymous_args = 0
 108              	.LVL12:
 109 0000 10B5     		push	{r4, lr}
 110              		.cfi_def_cfa_offset 8
 111              		.cfi_offset 4, -8
 112              		.cfi_offset 14, -4
 113 0002 0A00     		movs	r2, r1
  78:Generated_Source\PSoC4/cyfitter_cfg.c **** }
 114              		.loc 1 78 0
 115 0004 0021     		movs	r1, #0
 116              	.LVL13:
 117 0006 FFF7FEFF 		bl	memset
 118              	.LVL14:
  79:Generated_Source\PSoC4/cyfitter_cfg.c **** CY_CFG_UNUSED
 119              		.loc 1 79 0
 120              		@ sp needed
 121 000a 10BD     		pop	{r4, pc}
 122              		.cfi_endproc
 123              	.LFE2:
 124              		.size	CYMEMZERO, .-CYMEMZERO
 125              		.section	.psocinit,"ax",%progbits
 126              		.align	2
 127              		.code	16
 128              		.thumb_func
 129              		.type	ClockSetup, %function
 130              	ClockSetup:
 131              	.LFB6:
 196:Generated_Source\PSoC4/cyfitter_cfg.c **** 
 197:Generated_Source\PSoC4/cyfitter_cfg.c **** 
 198:Generated_Source\PSoC4/cyfitter_cfg.c **** /*******************************************************************************
 199:Generated_Source\PSoC4/cyfitter_cfg.c **** * Function Name: ClockSetup
 200:Generated_Source\PSoC4/cyfitter_cfg.c **** ********************************************************************************
 201:Generated_Source\PSoC4/cyfitter_cfg.c **** *
 202:Generated_Source\PSoC4/cyfitter_cfg.c **** * Summary:
 203:Generated_Source\PSoC4/cyfitter_cfg.c **** *   Performs the initialization of all of the clocks in the device based on the
 204:Generated_Source\PSoC4/cyfitter_cfg.c **** *   settings in the Clock tab of the DWR.  This includes enabling the requested
 205:Generated_Source\PSoC4/cyfitter_cfg.c **** *   clocks and setting the necessary dividers to produce the desired frequency. 
ARM GAS  C:\Users\bryan.lee\AppData\Local\Temp\ccUsyb3S.s 			page 7


 206:Generated_Source\PSoC4/cyfitter_cfg.c **** *
 207:Generated_Source\PSoC4/cyfitter_cfg.c **** * Parameters:
 208:Generated_Source\PSoC4/cyfitter_cfg.c **** *   void
 209:Generated_Source\PSoC4/cyfitter_cfg.c **** *
 210:Generated_Source\PSoC4/cyfitter_cfg.c **** * Return:
 211:Generated_Source\PSoC4/cyfitter_cfg.c **** *   void
 212:Generated_Source\PSoC4/cyfitter_cfg.c **** *
 213:Generated_Source\PSoC4/cyfitter_cfg.c **** *******************************************************************************/
 214:Generated_Source\PSoC4/cyfitter_cfg.c **** static void ClockSetup(void);
 215:Generated_Source\PSoC4/cyfitter_cfg.c **** CY_CFG_SECTION
 216:Generated_Source\PSoC4/cyfitter_cfg.c **** static void ClockSetup(void)
 217:Generated_Source\PSoC4/cyfitter_cfg.c **** {
 132              		.loc 1 217 0
 133              		.cfi_startproc
 134              		@ args = 0, pretend = 0, frame = 0
 135              		@ frame_needed = 0, uses_anonymous_args = 0
 136 0000 70B5     		push	{r4, r5, r6, lr}
 137              		.cfi_def_cfa_offset 16
 138              		.cfi_offset 4, -16
 139              		.cfi_offset 5, -12
 140              		.cfi_offset 6, -8
 141              		.cfi_offset 14, -4
 218:Generated_Source\PSoC4/cyfitter_cfg.c **** 
 219:Generated_Source\PSoC4/cyfitter_cfg.c **** 	/* Set Flash Cycles based on max possible frequency in case a glitch occurs during ClockSetup(). *
 220:Generated_Source\PSoC4/cyfitter_cfg.c **** 	CY_SET_REG32((void CYXDATA *)(CYREG_CPUSS_FLASH_CTL), (0x0012u));
 142              		.loc 1 220 0
 143 0002 244D     		ldr	r5, .L8
 144 0004 1223     		movs	r3, #18
 145 0006 2B60     		str	r3, [r5]
 221:Generated_Source\PSoC4/cyfitter_cfg.c **** 
 222:Generated_Source\PSoC4/cyfitter_cfg.c **** 	/* Start the WCO */
 223:Generated_Source\PSoC4/cyfitter_cfg.c **** 	CySysClkWcoStart();
 146              		.loc 1 223 0
 147 0008 FFF7FEFF 		bl	CySysClkWcoStart
 148              	.LVL15:
 224:Generated_Source\PSoC4/cyfitter_cfg.c **** 	(void)CySysClkWcoSetPowerMode(CY_SYS_CLK_WCO_LPM);    /* Switch to the low power mode */
 149              		.loc 1 224 0
 150 000c 0120     		movs	r0, #1
 151 000e FFF7FEFF 		bl	CySysClkWcoSetPowerMode
 152              	.LVL16:
 225:Generated_Source\PSoC4/cyfitter_cfg.c **** 
 226:Generated_Source\PSoC4/cyfitter_cfg.c **** 	/* Setup and trim IMO based on desired frequency. */
 227:Generated_Source\PSoC4/cyfitter_cfg.c **** 	CySysClkWriteImoFreq(24u);
 153              		.loc 1 227 0
 154 0012 1820     		movs	r0, #24
 155 0014 FFF7FEFF 		bl	CySysClkWriteImoFreq
 156              	.LVL17:
 228:Generated_Source\PSoC4/cyfitter_cfg.c **** 	/* CYDEV_CLK_ILO_CONFIG Starting address: CYDEV_CLK_ILO_CONFIG */
 229:Generated_Source\PSoC4/cyfitter_cfg.c **** 	CY_SET_REG32((void *)(CYREG_CLK_ILO_CONFIG), 0x80000006u);
 157              		.loc 1 229 0
 158 0018 1F4A     		ldr	r2, .L8+4
 159 001a 204B     		ldr	r3, .L8+8
 160 001c 1A60     		str	r2, [r3]
 230:Generated_Source\PSoC4/cyfitter_cfg.c **** 
 231:Generated_Source\PSoC4/cyfitter_cfg.c **** 
 232:Generated_Source\PSoC4/cyfitter_cfg.c **** 	/* Enable fast start mode for XO */
 233:Generated_Source\PSoC4/cyfitter_cfg.c **** 	CY_SET_REG32((void*)CYREG_BLE_BLERD_BB_XO, CY_GET_REG32((void*)CYREG_BLE_BLERD_BB_XO) | (uint32)0x
ARM GAS  C:\Users\bryan.lee\AppData\Local\Temp\ccUsyb3S.s 			page 8


 161              		.loc 1 233 0
 162 001e 204A     		ldr	r2, .L8+12
 163 0020 1168     		ldr	r1, [r2]
 164 0022 0223     		movs	r3, #2
 165 0024 0B43     		orrs	r3, r1
 166 0026 1360     		str	r3, [r2]
 234:Generated_Source\PSoC4/cyfitter_cfg.c **** 	CY_SET_REG32((void *)(CYREG_BLE_BLERD_BB_XO_CAPTRIM), 0x00003E2Du);
 167              		.loc 1 234 0
 168 0028 1E4A     		ldr	r2, .L8+16
 169 002a 1F4B     		ldr	r3, .L8+20
 170 002c 1A60     		str	r2, [r3]
 235:Generated_Source\PSoC4/cyfitter_cfg.c **** 	/*Set XTAL(ECO) divider*/
 236:Generated_Source\PSoC4/cyfitter_cfg.c **** 	CY_SET_REG32((void *)(CYREG_BLE_BLESS_XTAL_CLK_DIV_CONFIG), 0x00000000u);
 171              		.loc 1 236 0
 172 002e 0024     		movs	r4, #0
 173 0030 1E4B     		ldr	r3, .L8+24
 174 0032 1C60     		str	r4, [r3]
 237:Generated_Source\PSoC4/cyfitter_cfg.c **** 	/* Disable Crystal Stable Interrupt before enabling ECO */
 238:Generated_Source\PSoC4/cyfitter_cfg.c **** 	CY_SET_REG32((void*)CYREG_BLE_BLESS_LL_DSM_CTRL, CY_GET_REG32((void*)CYREG_BLE_BLESS_LL_DSM_CTRL) 
 175              		.loc 1 238 0
 176 0034 1E4A     		ldr	r2, .L8+28
 177 0036 1368     		ldr	r3, [r2]
 178 0038 0821     		movs	r1, #8
 179 003a 8B43     		bics	r3, r1
 180 003c 1360     		str	r3, [r2]
 239:Generated_Source\PSoC4/cyfitter_cfg.c **** 	/* Start the ECO and do not check status since it is not needed for HFCLK */
 240:Generated_Source\PSoC4/cyfitter_cfg.c **** 	(void)CySysClkEcoStart(2000u);
 181              		.loc 1 240 0
 182 003e FA20     		movs	r0, #250
 183 0040 C000     		lsls	r0, r0, #3
 184 0042 FFF7FEFF 		bl	CySysClkEcoStart
 185              	.LVL18:
 241:Generated_Source\PSoC4/cyfitter_cfg.c **** 	CyDelayUs(1500u); /* Wait to stabilize */
 186              		.loc 1 241 0
 187 0046 1B48     		ldr	r0, .L8+32
 188 0048 FFF7FEFF 		bl	CyDelayUs
 189              	.LVL19:
 242:Generated_Source\PSoC4/cyfitter_cfg.c **** 
 243:Generated_Source\PSoC4/cyfitter_cfg.c **** 	/* Setup phase aligned clocks */
 244:Generated_Source\PSoC4/cyfitter_cfg.c **** 	CY_SET_REG32((void *)CYREG_PERI_DIV_16_CTL0, 0x00000000u);
 190              		.loc 1 244 0
 191 004c 1A4B     		ldr	r3, .L8+36
 192 004e 1C60     		str	r4, [r3]
 245:Generated_Source\PSoC4/cyfitter_cfg.c **** 	CY_SET_REG32((void *)CYREG_PERI_DIV_CMD, 0x8000FF40u);
 193              		.loc 1 245 0
 194 0050 1A4B     		ldr	r3, .L8+40
 195 0052 1B4A     		ldr	r2, .L8+44
 196 0054 1A60     		str	r2, [r3]
 246:Generated_Source\PSoC4/cyfitter_cfg.c **** 	CY_SET_REG32((void *)CYREG_PERI_DIV_16_CTL1, 0x00000200u);
 197              		.loc 1 246 0
 198 0056 8021     		movs	r1, #128
 199 0058 8900     		lsls	r1, r1, #2
 200 005a 1A4A     		ldr	r2, .L8+48
 201 005c 1160     		str	r1, [r2]
 247:Generated_Source\PSoC4/cyfitter_cfg.c **** 	CY_SET_REG32((void *)CYREG_PERI_DIV_CMD, 0x8000FF41u);
 202              		.loc 1 247 0
 203 005e 1A4A     		ldr	r2, .L8+52
ARM GAS  C:\Users\bryan.lee\AppData\Local\Temp\ccUsyb3S.s 			page 9


 204 0060 1A60     		str	r2, [r3]
 248:Generated_Source\PSoC4/cyfitter_cfg.c **** 
 249:Generated_Source\PSoC4/cyfitter_cfg.c **** 	/* CYDEV_CLK_IMO_CONFIG Starting address: CYDEV_CLK_IMO_CONFIG */
 250:Generated_Source\PSoC4/cyfitter_cfg.c **** 	CY_SET_REG32((void *)(CYREG_CLK_IMO_CONFIG), 0x82000000u);
 205              		.loc 1 250 0
 206 0062 8222     		movs	r2, #130
 207 0064 1206     		lsls	r2, r2, #24
 208 0066 194B     		ldr	r3, .L8+56
 209 0068 1A60     		str	r2, [r3]
 251:Generated_Source\PSoC4/cyfitter_cfg.c **** 
 252:Generated_Source\PSoC4/cyfitter_cfg.c **** 	/* CYDEV_CLK_SELECT Starting address: CYDEV_CLK_SELECT */
 253:Generated_Source\PSoC4/cyfitter_cfg.c **** 	CY_SET_REG32((void *)(CYREG_CLK_SELECT), 0x00000000u);
 210              		.loc 1 253 0
 211 006a 194B     		ldr	r3, .L8+60
 212 006c 1C60     		str	r4, [r3]
 254:Generated_Source\PSoC4/cyfitter_cfg.c **** 
 255:Generated_Source\PSoC4/cyfitter_cfg.c **** 	/* CYDEV_PERI_PCLK_CTL8 Starting address: CYDEV_PERI_PCLK_CTL8 */
 256:Generated_Source\PSoC4/cyfitter_cfg.c **** 	CY_SET_REG32((void *)(CYREG_PERI_PCLK_CTL8), 0x00000040u);
 213              		.loc 1 256 0
 214 006e 4022     		movs	r2, #64
 215 0070 184B     		ldr	r3, .L8+64
 216 0072 1A60     		str	r2, [r3]
 257:Generated_Source\PSoC4/cyfitter_cfg.c **** 
 258:Generated_Source\PSoC4/cyfitter_cfg.c **** 	/* CYDEV_PERI_PCLK_CTL6 Starting address: CYDEV_PERI_PCLK_CTL6 */
 259:Generated_Source\PSoC4/cyfitter_cfg.c **** 	CY_SET_REG32((void *)(CYREG_PERI_PCLK_CTL6), 0x00000041u);
 217              		.loc 1 259 0
 218 0074 0132     		adds	r2, r2, #1
 219 0076 184B     		ldr	r3, .L8+68
 220 0078 1A60     		str	r2, [r3]
 260:Generated_Source\PSoC4/cyfitter_cfg.c **** 
 261:Generated_Source\PSoC4/cyfitter_cfg.c **** 	(void)CyIntSetVector(8u, &CySysWdtIsr);
 221              		.loc 1 261 0
 222 007a 1849     		ldr	r1, .L8+72
 223 007c 0820     		movs	r0, #8
 224 007e FFF7FEFF 		bl	CyIntSetVector
 225              	.LVL20:
 262:Generated_Source\PSoC4/cyfitter_cfg.c **** 	CyIntEnable(8u);
 226              		.loc 1 262 0
 227 0082 0820     		movs	r0, #8
 228 0084 FFF7FEFF 		bl	CyIntEnable
 229              	.LVL21:
 263:Generated_Source\PSoC4/cyfitter_cfg.c **** 	CY_SET_REG32((void *)(CYREG_WDT_CONFIG), 0x00000000u);
 230              		.loc 1 263 0
 231 0088 154B     		ldr	r3, .L8+76
 232 008a 1C60     		str	r4, [r3]
 264:Generated_Source\PSoC4/cyfitter_cfg.c **** 	/* Set Flash Cycles based on newly configured 24.00MHz HFCLK. */
 265:Generated_Source\PSoC4/cyfitter_cfg.c **** 	CY_SET_REG32((void CYXDATA *)(CYREG_CPUSS_FLASH_CTL), (0x0011u));
 233              		.loc 1 265 0
 234 008c 1123     		movs	r3, #17
 235 008e 2B60     		str	r3, [r5]
 266:Generated_Source\PSoC4/cyfitter_cfg.c **** }
 236              		.loc 1 266 0
 237              		@ sp needed
 238 0090 70BD     		pop	{r4, r5, r6, pc}
 239              	.L9:
 240 0092 C046     		.align	2
 241              	.L8:
ARM GAS  C:\Users\bryan.lee\AppData\Local\Temp\ccUsyb3S.s 			page 10


 242 0094 30001040 		.word	1074790448
 243 0098 06000080 		.word	-2147483642
 244 009c 04010B40 		.word	1074462980
 245 00a0 78002E40 		.word	1076756600
 246 00a4 2D3E0000 		.word	15917
 247 00a8 7C002E40 		.word	1076756604
 248 00ac 64F02E40 		.word	1076818020
 249 00b0 6CF02E40 		.word	1076818028
 250 00b4 DC050000 		.word	1500
 251 00b8 00030140 		.word	1073808128
 252 00bc 00000140 		.word	1073807360
 253 00c0 40FF0080 		.word	-2147418304
 254 00c4 04030140 		.word	1073808132
 255 00c8 41FF0080 		.word	-2147418303
 256 00cc 08010B40 		.word	1074462984
 257 00d0 00010B40 		.word	1074462976
 258 00d4 20010140 		.word	1073807648
 259 00d8 18010140 		.word	1073807640
 260 00dc 00000000 		.word	CySysWdtIsr
 261 00e0 0C020B40 		.word	1074463244
 262              		.cfi_endproc
 263              	.LFE6:
 264              		.size	ClockSetup, .-ClockSetup
 265              		.section	.text.SetAnalogRoutingPumps,"ax",%progbits
 266              		.align	2
 267              		.global	SetAnalogRoutingPumps
 268              		.code	16
 269              		.thumb_func
 270              		.type	SetAnalogRoutingPumps, %function
 271              	SetAnalogRoutingPumps:
 272              	.LFB8:
 267:Generated_Source\PSoC4/cyfitter_cfg.c **** 
 268:Generated_Source\PSoC4/cyfitter_cfg.c **** 
 269:Generated_Source\PSoC4/cyfitter_cfg.c **** /* Analog API Functions */
 270:Generated_Source\PSoC4/cyfitter_cfg.c **** 
 271:Generated_Source\PSoC4/cyfitter_cfg.c **** 
 272:Generated_Source\PSoC4/cyfitter_cfg.c **** /*******************************************************************************
 273:Generated_Source\PSoC4/cyfitter_cfg.c **** * Function Name: AnalogSetDefault
 274:Generated_Source\PSoC4/cyfitter_cfg.c **** ********************************************************************************
 275:Generated_Source\PSoC4/cyfitter_cfg.c **** *
 276:Generated_Source\PSoC4/cyfitter_cfg.c **** * Summary:
 277:Generated_Source\PSoC4/cyfitter_cfg.c **** *  Sets up the analog portions of the chip to default values based on chip
 278:Generated_Source\PSoC4/cyfitter_cfg.c **** *  configuration options from the project.
 279:Generated_Source\PSoC4/cyfitter_cfg.c **** *
 280:Generated_Source\PSoC4/cyfitter_cfg.c **** * Parameters:
 281:Generated_Source\PSoC4/cyfitter_cfg.c **** *  void
 282:Generated_Source\PSoC4/cyfitter_cfg.c **** *
 283:Generated_Source\PSoC4/cyfitter_cfg.c **** * Return:
 284:Generated_Source\PSoC4/cyfitter_cfg.c **** *  void
 285:Generated_Source\PSoC4/cyfitter_cfg.c **** *
 286:Generated_Source\PSoC4/cyfitter_cfg.c **** *******************************************************************************/
 287:Generated_Source\PSoC4/cyfitter_cfg.c **** static void AnalogSetDefault(void);
 288:Generated_Source\PSoC4/cyfitter_cfg.c **** static void AnalogSetDefault(void)
 289:Generated_Source\PSoC4/cyfitter_cfg.c **** {
 290:Generated_Source\PSoC4/cyfitter_cfg.c **** 	CY_SET_XTND_REG32((void CYFAR *)CYREG_CTBM0_DFT_CTRL, 0x00000003u);
 291:Generated_Source\PSoC4/cyfitter_cfg.c **** 	CY_SET_XTND_REG32((void CYFAR *)CYREG_CTBM1_DFT_CTRL, 0x00000003u);
 292:Generated_Source\PSoC4/cyfitter_cfg.c **** 	CY_SET_XTND_REG32((void CYFAR *)CYREG_SAR_CTRL, 0x80000000u);
ARM GAS  C:\Users\bryan.lee\AppData\Local\Temp\ccUsyb3S.s 			page 11


 293:Generated_Source\PSoC4/cyfitter_cfg.c **** 	CY_SET_XTND_REG32((void CYFAR *)CYREG_SAR_MUX_SWITCH0, 0x00000001u);
 294:Generated_Source\PSoC4/cyfitter_cfg.c **** 	CY_SET_XTND_REG32((void CYFAR *)CYREG_PASS_DSAB_DSAB_CTRL, 0x00000000u);
 295:Generated_Source\PSoC4/cyfitter_cfg.c **** 	SetAnalogRoutingPumps(1);
 296:Generated_Source\PSoC4/cyfitter_cfg.c **** }
 297:Generated_Source\PSoC4/cyfitter_cfg.c **** 
 298:Generated_Source\PSoC4/cyfitter_cfg.c **** 
 299:Generated_Source\PSoC4/cyfitter_cfg.c **** /*******************************************************************************
 300:Generated_Source\PSoC4/cyfitter_cfg.c **** * Function Name: SetAnalogRoutingPumps
 301:Generated_Source\PSoC4/cyfitter_cfg.c **** ********************************************************************************
 302:Generated_Source\PSoC4/cyfitter_cfg.c **** *
 303:Generated_Source\PSoC4/cyfitter_cfg.c **** * Summary:
 304:Generated_Source\PSoC4/cyfitter_cfg.c **** * Enables or disables the analog pumps feeding analog routing switches.
 305:Generated_Source\PSoC4/cyfitter_cfg.c **** * Intended to be called at startup, based on the Vdda system configuration;
 306:Generated_Source\PSoC4/cyfitter_cfg.c **** * may be called during operation when the user informs us that the Vdda voltage crossed the pump th
 307:Generated_Source\PSoC4/cyfitter_cfg.c **** *
 308:Generated_Source\PSoC4/cyfitter_cfg.c **** * Parameters:
 309:Generated_Source\PSoC4/cyfitter_cfg.c **** *  enabled - 1 to enable the pumps, 0 to disable the pumps
 310:Generated_Source\PSoC4/cyfitter_cfg.c **** *
 311:Generated_Source\PSoC4/cyfitter_cfg.c **** * Return:
 312:Generated_Source\PSoC4/cyfitter_cfg.c **** *  void
 313:Generated_Source\PSoC4/cyfitter_cfg.c **** *
 314:Generated_Source\PSoC4/cyfitter_cfg.c **** *******************************************************************************/
 315:Generated_Source\PSoC4/cyfitter_cfg.c **** void SetAnalogRoutingPumps(uint8 enabled)
 316:Generated_Source\PSoC4/cyfitter_cfg.c **** {
 273              		.loc 1 316 0
 274              		.cfi_startproc
 275              		@ args = 0, pretend = 0, frame = 0
 276              		@ frame_needed = 0, uses_anonymous_args = 0
 277              		@ link register save eliminated.
 278              	.LVL22:
 317:Generated_Source\PSoC4/cyfitter_cfg.c **** 	uint32 regValue = CY_GET_XTND_REG32((void *)(CYREG_SAR_PUMP_CTRL));
 279              		.loc 1 317 0
 280 0000 064B     		ldr	r3, .L13
 281 0002 1B68     		ldr	r3, [r3]
 282              	.LVL23:
 318:Generated_Source\PSoC4/cyfitter_cfg.c **** 	if (enabled != 0u)
 283              		.loc 1 318 0
 284 0004 0028     		cmp	r0, #0
 285 0006 03D0     		beq	.L11
 319:Generated_Source\PSoC4/cyfitter_cfg.c **** 	{
 320:Generated_Source\PSoC4/cyfitter_cfg.c **** 		regValue |= 0x80000000u;
 286              		.loc 1 320 0
 287 0008 8022     		movs	r2, #128
 288 000a 1206     		lsls	r2, r2, #24
 289 000c 1343     		orrs	r3, r2
 290              	.LVL24:
 291 000e 01E0     		b	.L12
 292              	.L11:
 321:Generated_Source\PSoC4/cyfitter_cfg.c **** 	}
 322:Generated_Source\PSoC4/cyfitter_cfg.c **** 	else
 323:Generated_Source\PSoC4/cyfitter_cfg.c **** 	{
 324:Generated_Source\PSoC4/cyfitter_cfg.c **** 		regValue &= ~0x80000000u;
 293              		.loc 1 324 0
 294 0010 5B00     		lsls	r3, r3, #1
 295              	.LVL25:
 296 0012 5B08     		lsrs	r3, r3, #1
 297              	.LVL26:
ARM GAS  C:\Users\bryan.lee\AppData\Local\Temp\ccUsyb3S.s 			page 12


 298              	.L12:
 325:Generated_Source\PSoC4/cyfitter_cfg.c **** 	}
 326:Generated_Source\PSoC4/cyfitter_cfg.c **** 	CY_SET_XTND_REG32((void *)(CYREG_SAR_PUMP_CTRL), regValue);
 299              		.loc 1 326 0
 300 0014 014A     		ldr	r2, .L13
 301 0016 1360     		str	r3, [r2]
 327:Generated_Source\PSoC4/cyfitter_cfg.c **** }
 302              		.loc 1 327 0
 303              		@ sp needed
 304 0018 7047     		bx	lr
 305              	.L14:
 306 001a C046     		.align	2
 307              	.L13:
 308 001c 80033A40 		.word	1077543808
 309              		.cfi_endproc
 310              	.LFE8:
 311              		.size	SetAnalogRoutingPumps, .-SetAnalogRoutingPumps
 312              		.section	.text.AnalogSetDefault,"ax",%progbits
 313              		.align	2
 314              		.code	16
 315              		.thumb_func
 316              		.type	AnalogSetDefault, %function
 317              	AnalogSetDefault:
 318              	.LFB7:
 289:Generated_Source\PSoC4/cyfitter_cfg.c **** 	CY_SET_XTND_REG32((void CYFAR *)CYREG_CTBM0_DFT_CTRL, 0x00000003u);
 319              		.loc 1 289 0
 320              		.cfi_startproc
 321              		@ args = 0, pretend = 0, frame = 0
 322              		@ frame_needed = 0, uses_anonymous_args = 0
 323 0000 10B5     		push	{r4, lr}
 324              		.cfi_def_cfa_offset 8
 325              		.cfi_offset 4, -8
 326              		.cfi_offset 14, -4
 290:Generated_Source\PSoC4/cyfitter_cfg.c **** 	CY_SET_XTND_REG32((void CYFAR *)CYREG_CTBM1_DFT_CTRL, 0x00000003u);
 327              		.loc 1 290 0
 328 0002 0323     		movs	r3, #3
 329 0004 084A     		ldr	r2, .L16
 330 0006 1360     		str	r3, [r2]
 291:Generated_Source\PSoC4/cyfitter_cfg.c **** 	CY_SET_XTND_REG32((void CYFAR *)CYREG_SAR_CTRL, 0x80000000u);
 331              		.loc 1 291 0
 332 0008 084A     		ldr	r2, .L16+4
 333 000a 1360     		str	r3, [r2]
 292:Generated_Source\PSoC4/cyfitter_cfg.c **** 	CY_SET_XTND_REG32((void CYFAR *)CYREG_SAR_MUX_SWITCH0, 0x00000001u);
 334              		.loc 1 292 0
 335 000c 8022     		movs	r2, #128
 336 000e 1206     		lsls	r2, r2, #24
 337 0010 074B     		ldr	r3, .L16+8
 338 0012 1A60     		str	r2, [r3]
 293:Generated_Source\PSoC4/cyfitter_cfg.c **** 	CY_SET_XTND_REG32((void CYFAR *)CYREG_PASS_DSAB_DSAB_CTRL, 0x00000000u);
 339              		.loc 1 293 0
 340 0014 0122     		movs	r2, #1
 341 0016 074B     		ldr	r3, .L16+12
 342 0018 1A60     		str	r2, [r3]
 294:Generated_Source\PSoC4/cyfitter_cfg.c **** 	SetAnalogRoutingPumps(1);
 343              		.loc 1 294 0
 344 001a 0022     		movs	r2, #0
 345 001c 064B     		ldr	r3, .L16+16
ARM GAS  C:\Users\bryan.lee\AppData\Local\Temp\ccUsyb3S.s 			page 13


 346 001e 1A60     		str	r2, [r3]
 295:Generated_Source\PSoC4/cyfitter_cfg.c **** }
 347              		.loc 1 295 0
 348 0020 0120     		movs	r0, #1
 349 0022 FFF7FEFF 		bl	SetAnalogRoutingPumps
 350              	.LVL27:
 296:Generated_Source\PSoC4/cyfitter_cfg.c **** 
 351              		.loc 1 296 0
 352              		@ sp needed
 353 0026 10BD     		pop	{r4, pc}
 354              	.L17:
 355              		.align	2
 356              	.L16:
 357 0028 30003040 		.word	1076887600
 358 002c 30003140 		.word	1076953136
 359 0030 00003A40 		.word	1077542912
 360 0034 00033A40 		.word	1077543680
 361 0038 000E3F40 		.word	1077874176
 362              		.cfi_endproc
 363              	.LFE7:
 364              		.size	AnalogSetDefault, .-AnalogSetDefault
 365              		.section	.psocinit
 366              		.align	2
 367              		.global	cyfitter_cfg
 368              		.code	16
 369              		.thumb_func
 370              		.type	cyfitter_cfg, %function
 371              	cyfitter_cfg:
 372              	.LFB9:
 328:Generated_Source\PSoC4/cyfitter_cfg.c **** 
 329:Generated_Source\PSoC4/cyfitter_cfg.c **** 
 330:Generated_Source\PSoC4/cyfitter_cfg.c **** 
 331:Generated_Source\PSoC4/cyfitter_cfg.c **** 
 332:Generated_Source\PSoC4/cyfitter_cfg.c **** /*******************************************************************************
 333:Generated_Source\PSoC4/cyfitter_cfg.c **** * Function Name: cyfitter_cfg
 334:Generated_Source\PSoC4/cyfitter_cfg.c **** ********************************************************************************
 335:Generated_Source\PSoC4/cyfitter_cfg.c **** * Summary:
 336:Generated_Source\PSoC4/cyfitter_cfg.c **** *  This function is called by the start-up code for the selected device. It
 337:Generated_Source\PSoC4/cyfitter_cfg.c **** *  performs all of the necessary device configuration based on the design
 338:Generated_Source\PSoC4/cyfitter_cfg.c **** *  settings.  This includes settings from the Design Wide Resources (DWR) such
 339:Generated_Source\PSoC4/cyfitter_cfg.c **** *  as Clocks and Pins as well as any component configuration that is necessary.
 340:Generated_Source\PSoC4/cyfitter_cfg.c **** *
 341:Generated_Source\PSoC4/cyfitter_cfg.c **** * Parameters:
 342:Generated_Source\PSoC4/cyfitter_cfg.c **** *   void
 343:Generated_Source\PSoC4/cyfitter_cfg.c **** *
 344:Generated_Source\PSoC4/cyfitter_cfg.c **** * Return:
 345:Generated_Source\PSoC4/cyfitter_cfg.c **** *   void
 346:Generated_Source\PSoC4/cyfitter_cfg.c **** *
 347:Generated_Source\PSoC4/cyfitter_cfg.c **** *******************************************************************************/
 348:Generated_Source\PSoC4/cyfitter_cfg.c **** CY_CFG_SECTION
 349:Generated_Source\PSoC4/cyfitter_cfg.c **** void cyfitter_cfg(void)
 350:Generated_Source\PSoC4/cyfitter_cfg.c **** {
 373              		.loc 1 350 0
 374              		.cfi_startproc
 375              		@ args = 0, pretend = 0, frame = 0
 376              		@ frame_needed = 0, uses_anonymous_args = 0
 377 00e4 10B5     		push	{r4, lr}
ARM GAS  C:\Users\bryan.lee\AppData\Local\Temp\ccUsyb3S.s 			page 14


 378              		.cfi_def_cfa_offset 8
 379              		.cfi_offset 4, -8
 380              		.cfi_offset 14, -4
 351:Generated_Source\PSoC4/cyfitter_cfg.c **** 	/* Disable interrupts by default. Let user enable if/when they want. */
 352:Generated_Source\PSoC4/cyfitter_cfg.c **** 	CyGlobalIntDisable;
 381              		.loc 1 352 0
 382              		.syntax divided
 383              	@ 352 "Generated_Source\PSoC4\cyfitter_cfg.c" 1
 384 00e6 72B6     		CPSID   i
 385              	@ 0 "" 2
 353:Generated_Source\PSoC4/cyfitter_cfg.c **** 
 354:Generated_Source\PSoC4/cyfitter_cfg.c **** 	CY_SET_REG32((void *)(CYREG_BLE_BLESS_LL_DSM_CTRL), 0x00000000u);
 386              		.loc 1 354 0
 387              		.thumb
 388              		.syntax unified
 389 00e8 0022     		movs	r2, #0
 390 00ea 2A4B     		ldr	r3, .L21
 391 00ec 1A60     		str	r2, [r3]
 392              	.LVL28:
 393              	.LBB3:
 355:Generated_Source\PSoC4/cyfitter_cfg.c **** 
 356:Generated_Source\PSoC4/cyfitter_cfg.c **** 	{
 357:Generated_Source\PSoC4/cyfitter_cfg.c **** 		static const uint32 CYCODE cy_cfg_addr_table[] = {
 358:Generated_Source\PSoC4/cyfitter_cfg.c **** 			0x400F3202u, /* Base address: 0x400F3200 Count: 2 */
 359:Generated_Source\PSoC4/cyfitter_cfg.c **** 			0x400F330Cu, /* Base address: 0x400F3300 Count: 12 */
 360:Generated_Source\PSoC4/cyfitter_cfg.c **** 			0x400F4004u, /* Base address: 0x400F4000 Count: 4 */
 361:Generated_Source\PSoC4/cyfitter_cfg.c **** 			0x400F410Fu, /* Base address: 0x400F4100 Count: 15 */
 362:Generated_Source\PSoC4/cyfitter_cfg.c **** 		};
 363:Generated_Source\PSoC4/cyfitter_cfg.c **** 
 364:Generated_Source\PSoC4/cyfitter_cfg.c **** 		static const cy_cfg_addrvalue_t CYCODE cy_cfg_data_table[] = {
 365:Generated_Source\PSoC4/cyfitter_cfg.c **** 			{0x5Bu, 0x04u},
 366:Generated_Source\PSoC4/cyfitter_cfg.c **** 			{0x5Fu, 0x01u},
 367:Generated_Source\PSoC4/cyfitter_cfg.c **** 			{0x6Du, 0x10u},
 368:Generated_Source\PSoC4/cyfitter_cfg.c **** 			{0x6Eu, 0x88u},
 369:Generated_Source\PSoC4/cyfitter_cfg.c **** 			{0x6Fu, 0x80u},
 370:Generated_Source\PSoC4/cyfitter_cfg.c **** 			{0x77u, 0x0Au},
 371:Generated_Source\PSoC4/cyfitter_cfg.c **** 			{0x83u, 0x80u},
 372:Generated_Source\PSoC4/cyfitter_cfg.c **** 			{0x86u, 0x40u},
 373:Generated_Source\PSoC4/cyfitter_cfg.c **** 			{0x87u, 0x08u},
 374:Generated_Source\PSoC4/cyfitter_cfg.c **** 			{0x89u, 0x10u},
 375:Generated_Source\PSoC4/cyfitter_cfg.c **** 			{0x8Eu, 0x04u},
 376:Generated_Source\PSoC4/cyfitter_cfg.c **** 			{0x9Fu, 0x02u},
 377:Generated_Source\PSoC4/cyfitter_cfg.c **** 			{0xAFu, 0x02u},
 378:Generated_Source\PSoC4/cyfitter_cfg.c **** 			{0xE2u, 0xC0u},
 379:Generated_Source\PSoC4/cyfitter_cfg.c **** 			{0x62u, 0x40u},
 380:Generated_Source\PSoC4/cyfitter_cfg.c **** 			{0x67u, 0x40u},
 381:Generated_Source\PSoC4/cyfitter_cfg.c **** 			{0xD6u, 0x40u},
 382:Generated_Source\PSoC4/cyfitter_cfg.c **** 			{0xD8u, 0x80u},
 383:Generated_Source\PSoC4/cyfitter_cfg.c **** 			{0x53u, 0x81u},
 384:Generated_Source\PSoC4/cyfitter_cfg.c **** 			{0x56u, 0x02u},
 385:Generated_Source\PSoC4/cyfitter_cfg.c **** 			{0x57u, 0x08u},
 386:Generated_Source\PSoC4/cyfitter_cfg.c **** 			{0x83u, 0x01u},
 387:Generated_Source\PSoC4/cyfitter_cfg.c **** 			{0x86u, 0x40u},
 388:Generated_Source\PSoC4/cyfitter_cfg.c **** 			{0x87u, 0x08u},
 389:Generated_Source\PSoC4/cyfitter_cfg.c **** 			{0x8Bu, 0x80u},
 390:Generated_Source\PSoC4/cyfitter_cfg.c **** 			{0x8Eu, 0x02u},
 391:Generated_Source\PSoC4/cyfitter_cfg.c **** 			{0x9Eu, 0x40u},
ARM GAS  C:\Users\bryan.lee\AppData\Local\Temp\ccUsyb3S.s 			page 15


 392:Generated_Source\PSoC4/cyfitter_cfg.c **** 			{0xAFu, 0x40u},
 393:Generated_Source\PSoC4/cyfitter_cfg.c **** 			{0xD4u, 0xE0u},
 394:Generated_Source\PSoC4/cyfitter_cfg.c **** 			{0xD6u, 0x20u},
 395:Generated_Source\PSoC4/cyfitter_cfg.c **** 			{0xE2u, 0x10u},
 396:Generated_Source\PSoC4/cyfitter_cfg.c **** 			{0xE6u, 0x60u},
 397:Generated_Source\PSoC4/cyfitter_cfg.c **** 			{0xEEu, 0x40u},
 398:Generated_Source\PSoC4/cyfitter_cfg.c **** 		};
 399:Generated_Source\PSoC4/cyfitter_cfg.c **** 
 400:Generated_Source\PSoC4/cyfitter_cfg.c **** 
 401:Generated_Source\PSoC4/cyfitter_cfg.c **** 
 402:Generated_Source\PSoC4/cyfitter_cfg.c **** 		CYPACKED typedef struct {
 403:Generated_Source\PSoC4/cyfitter_cfg.c **** 			void CYFAR *address;
 404:Generated_Source\PSoC4/cyfitter_cfg.c **** 			uint16 size;
 405:Generated_Source\PSoC4/cyfitter_cfg.c **** 		} CYPACKED_ATTR cfg_memset_t;
 406:Generated_Source\PSoC4/cyfitter_cfg.c **** 
 407:Generated_Source\PSoC4/cyfitter_cfg.c **** 		static const cfg_memset_t CYCODE cfg_memset_list[] = {
 408:Generated_Source\PSoC4/cyfitter_cfg.c **** 			/* address, size */
 409:Generated_Source\PSoC4/cyfitter_cfg.c **** 			{(void CYFAR *)(CYDEV_UDB_P0_U0_BASE), 1024u},
 410:Generated_Source\PSoC4/cyfitter_cfg.c **** 			{(void CYFAR *)(CYDEV_UDB_DSI0_BASE), 1024u},
 411:Generated_Source\PSoC4/cyfitter_cfg.c **** 		};
 412:Generated_Source\PSoC4/cyfitter_cfg.c **** 
 413:Generated_Source\PSoC4/cyfitter_cfg.c **** 		uint8 CYDATA i;
 414:Generated_Source\PSoC4/cyfitter_cfg.c **** 
 415:Generated_Source\PSoC4/cyfitter_cfg.c **** 		/* Zero out critical memory blocks before beginning configuration */
 416:Generated_Source\PSoC4/cyfitter_cfg.c **** 		for (i = 0u; i < (sizeof(cfg_memset_list)/sizeof(cfg_memset_list[0])); i++)
 394              		.loc 1 416 0
 395 00ee 0024     		movs	r4, #0
 396 00f0 0FE0     		b	.L19
 397              	.LVL29:
 398              	.L20:
 399              	.LBB4:
 417:Generated_Source\PSoC4/cyfitter_cfg.c **** 		{
 418:Generated_Source\PSoC4/cyfitter_cfg.c **** 			const cfg_memset_t CYCODE * CYDATA ms = &cfg_memset_list[i];
 419:Generated_Source\PSoC4/cyfitter_cfg.c **** 			CYMEMZERO(ms->address, (size_t)(uint32)(ms->size));
 400              		.loc 1 419 0 discriminator 3
 401 00f2 2948     		ldr	r0, .L21+4
 402 00f4 6200     		lsls	r2, r4, #1
 403 00f6 1319     		adds	r3, r2, r4
 404 00f8 5900     		lsls	r1, r3, #1
 405 00fa 0B00     		movs	r3, r1
 406 00fc 4118     		adds	r1, r0, r1
 407 00fe 8988     		ldrh	r1, [r1, #4]
 408 0100 1A5A     		ldrh	r2, [r3, r0]
 409 0102 C318     		adds	r3, r0, r3
 410 0104 5888     		ldrh	r0, [r3, #2]
 411 0106 0004     		lsls	r0, r0, #16
 412 0108 1043     		orrs	r0, r2
 413 010a FFF7FEFF 		bl	CYMEMZERO
 414              	.LVL30:
 415              	.LBE4:
 416:Generated_Source\PSoC4/cyfitter_cfg.c **** 		{
 416              		.loc 1 416 0 discriminator 3
 417 010e 0134     		adds	r4, r4, #1
 418              	.LVL31:
 419 0110 E4B2     		uxtb	r4, r4
 420              	.LVL32:
 421              	.L19:
ARM GAS  C:\Users\bryan.lee\AppData\Local\Temp\ccUsyb3S.s 			page 16


 416:Generated_Source\PSoC4/cyfitter_cfg.c **** 		{
 422              		.loc 1 416 0 is_stmt 0 discriminator 1
 423 0112 012C     		cmp	r4, #1
 424 0114 EDD9     		bls	.L20
 420:Generated_Source\PSoC4/cyfitter_cfg.c **** 		}
 421:Generated_Source\PSoC4/cyfitter_cfg.c **** 
 422:Generated_Source\PSoC4/cyfitter_cfg.c **** 		cfg_write_bytes32(cy_cfg_addr_table, cy_cfg_data_table);
 425              		.loc 1 422 0 is_stmt 1
 426 0116 2048     		ldr	r0, .L21+4
 427 0118 0100     		movs	r1, r0
 428 011a 0C31     		adds	r1, r1, #12
 429 011c 5030     		adds	r0, r0, #80
 430 011e FFF7FEFF 		bl	cfg_write_bytes32
 431              	.LVL33:
 423:Generated_Source\PSoC4/cyfitter_cfg.c **** 
 424:Generated_Source\PSoC4/cyfitter_cfg.c **** 		/* HSIOM Starting address: CYDEV_HSIOM_BASE */
 425:Generated_Source\PSoC4/cyfitter_cfg.c **** 		CY_SET_REG32((void *)(CYDEV_HSIOM_BASE), 0xEE330800u);
 432              		.loc 1 425 0
 433 0122 1E4A     		ldr	r2, .L21+8
 434 0124 1E4B     		ldr	r3, .L21+12
 435 0126 1A60     		str	r2, [r3]
 426:Generated_Source\PSoC4/cyfitter_cfg.c **** 		CY_SET_REG32((void *)(CYREG_HSIOM_PORT_SEL1), 0x00003333u);
 436              		.loc 1 426 0
 437 0128 1E4A     		ldr	r2, .L21+16
 438 012a 1F4B     		ldr	r3, .L21+20
 439 012c 1A60     		str	r2, [r3]
 427:Generated_Source\PSoC4/cyfitter_cfg.c **** 
 428:Generated_Source\PSoC4/cyfitter_cfg.c **** 		/* UDB_PA_0 Starting address: CYDEV_UDB_PA0_BASE */
 429:Generated_Source\PSoC4/cyfitter_cfg.c **** 		CY_SET_REG32((void *)(CYDEV_UDB_PA0_BASE), 0x00990000u);
 440              		.loc 1 429 0
 441 012e 9923     		movs	r3, #153
 442 0130 1B04     		lsls	r3, r3, #16
 443 0132 1E4A     		ldr	r2, .L21+24
 444 0134 1360     		str	r3, [r2]
 430:Generated_Source\PSoC4/cyfitter_cfg.c **** 		CY_SET_REG32((void *)(CYREG_UDB_PA0_CFG8), 0x53000000u);
 445              		.loc 1 430 0
 446 0136 A621     		movs	r1, #166
 447 0138 C905     		lsls	r1, r1, #23
 448 013a 1D4A     		ldr	r2, .L21+28
 449 013c 1160     		str	r1, [r2]
 431:Generated_Source\PSoC4/cyfitter_cfg.c **** 
 432:Generated_Source\PSoC4/cyfitter_cfg.c **** 		/* UDB_PA_1 Starting address: CYDEV_UDB_PA1_BASE */
 433:Generated_Source\PSoC4/cyfitter_cfg.c **** 		CY_SET_REG32((void *)(CYDEV_UDB_PA1_BASE), 0x00990000u);
 450              		.loc 1 433 0
 451 013e 1D4A     		ldr	r2, .L21+32
 452 0140 1360     		str	r3, [r2]
 434:Generated_Source\PSoC4/cyfitter_cfg.c **** 		CY_SET_REG32((void *)(CYREG_UDB_PA1_CFG8), 0x004E0000u);
 453              		.loc 1 434 0
 454 0142 9C21     		movs	r1, #156
 455 0144 C903     		lsls	r1, r1, #15
 456 0146 1C4A     		ldr	r2, .L21+36
 457 0148 1160     		str	r1, [r2]
 435:Generated_Source\PSoC4/cyfitter_cfg.c **** 
 436:Generated_Source\PSoC4/cyfitter_cfg.c **** 		/* UDB_PA_3 Starting address: CYDEV_UDB_PA3_BASE */
 437:Generated_Source\PSoC4/cyfitter_cfg.c **** 		CY_SET_REG32((void *)(CYDEV_UDB_PA3_BASE), 0x00990000u);
 458              		.loc 1 437 0
 459 014a 1C4A     		ldr	r2, .L21+40
ARM GAS  C:\Users\bryan.lee\AppData\Local\Temp\ccUsyb3S.s 			page 17


 460 014c 1360     		str	r3, [r2]
 438:Generated_Source\PSoC4/cyfitter_cfg.c **** 
 439:Generated_Source\PSoC4/cyfitter_cfg.c **** 		/* Enable UDB array and digital routing */
 440:Generated_Source\PSoC4/cyfitter_cfg.c **** 		CY_SET_XTND_REG8((void *)CYREG_UDB_UDBIF_WAIT_CFG, (uint8)((CY_GET_XTND_REG8((void *)CYREG_UDB_UD
 461              		.loc 1 440 0
 462 014e 1C49     		ldr	r1, .L21+44
 463 0150 0B78     		ldrb	r3, [r1]
 464 0152 3C22     		movs	r2, #60
 465 0154 9343     		bics	r3, r2
 466 0156 1422     		movs	r2, #20
 467 0158 1343     		orrs	r3, r2
 468 015a DBB2     		uxtb	r3, r3
 469 015c 0B70     		strb	r3, [r1]
 441:Generated_Source\PSoC4/cyfitter_cfg.c **** 		CY_SET_XTND_REG8((void *)CYREG_UDB_UDBIF_BANK_CTL, (uint8)(CY_GET_XTND_REG8((void *)CYREG_UDB_UDB
 470              		.loc 1 441 0
 471 015e 194A     		ldr	r2, .L21+48
 472 0160 1178     		ldrb	r1, [r2]
 473 0162 1623     		movs	r3, #22
 474 0164 0B43     		orrs	r3, r1
 475 0166 DBB2     		uxtb	r3, r3
 476 0168 1370     		strb	r3, [r2]
 477              	.LBE3:
 442:Generated_Source\PSoC4/cyfitter_cfg.c **** 	}
 443:Generated_Source\PSoC4/cyfitter_cfg.c **** 
 444:Generated_Source\PSoC4/cyfitter_cfg.c **** 	/* Perform second pass device configuration. These items must be configured in specific order afte
 445:Generated_Source\PSoC4/cyfitter_cfg.c **** 	/* IOPINS0_0 Starting address: CYDEV_GPIO_PRT0_BASE */
 446:Generated_Source\PSoC4/cyfitter_cfg.c **** 	CY_SET_REG32((void *)(CYDEV_GPIO_PRT0_BASE), 0x00000034u);
 478              		.loc 1 446 0
 479 016a 3422     		movs	r2, #52
 480 016c 164B     		ldr	r3, .L21+52
 481 016e 1A60     		str	r2, [r3]
 447:Generated_Source\PSoC4/cyfitter_cfg.c **** 	CY_SET_REG32((void *)(CYREG_GPIO_PRT0_PC), 0x00DB6180u);
 482              		.loc 1 447 0
 483 0170 164A     		ldr	r2, .L21+56
 484 0172 174B     		ldr	r3, .L21+60
 485 0174 1A60     		str	r2, [r3]
 448:Generated_Source\PSoC4/cyfitter_cfg.c **** 
 449:Generated_Source\PSoC4/cyfitter_cfg.c **** 	/* IOPINS0_1 Starting address: CYDEV_GPIO_PRT1_BASE */
 450:Generated_Source\PSoC4/cyfitter_cfg.c **** 	CY_SET_REG32((void *)(CYDEV_GPIO_PRT1_BASE), 0x0000000Fu);
 486              		.loc 1 450 0
 487 0176 0F22     		movs	r2, #15
 488 0178 164B     		ldr	r3, .L21+64
 489 017a 1A60     		str	r2, [r3]
 451:Generated_Source\PSoC4/cyfitter_cfg.c **** 	CY_SET_REG32((void *)(CYREG_GPIO_PRT1_PC), 0x0002CDB6u);
 490              		.loc 1 451 0
 491 017c 164A     		ldr	r2, .L21+68
 492 017e 174B     		ldr	r3, .L21+72
 493 0180 1A60     		str	r2, [r3]
 452:Generated_Source\PSoC4/cyfitter_cfg.c **** 
 453:Generated_Source\PSoC4/cyfitter_cfg.c **** 	/* IOPINS0_3 Starting address: CYDEV_GPIO_PRT3_BASE */
 454:Generated_Source\PSoC4/cyfitter_cfg.c **** 	CY_SET_REG32((void *)(CYREG_GPIO_PRT3_PC2), 0x00000001u);
 494              		.loc 1 454 0
 495 0182 0122     		movs	r2, #1
 496 0184 164B     		ldr	r3, .L21+76
 497 0186 1A60     		str	r2, [r3]
 455:Generated_Source\PSoC4/cyfitter_cfg.c **** 
 456:Generated_Source\PSoC4/cyfitter_cfg.c **** 
ARM GAS  C:\Users\bryan.lee\AppData\Local\Temp\ccUsyb3S.s 			page 18


 457:Generated_Source\PSoC4/cyfitter_cfg.c **** 	/* Setup clocks based on selections from Clock DWR */
 458:Generated_Source\PSoC4/cyfitter_cfg.c **** 	ClockSetup();
 498              		.loc 1 458 0
 499 0188 FFF73AFF 		bl	ClockSetup
 500              	.LVL34:
 459:Generated_Source\PSoC4/cyfitter_cfg.c **** 
 460:Generated_Source\PSoC4/cyfitter_cfg.c **** 	/* Perform basic analog initialization to defaults */
 461:Generated_Source\PSoC4/cyfitter_cfg.c **** 	AnalogSetDefault();
 501              		.loc 1 461 0
 502 018c FFF7FEFF 		bl	AnalogSetDefault
 503              	.LVL35:
 462:Generated_Source\PSoC4/cyfitter_cfg.c **** 
 463:Generated_Source\PSoC4/cyfitter_cfg.c **** }
 504              		.loc 1 463 0
 505              		@ sp needed
 506              	.LVL36:
 507 0190 10BD     		pop	{r4, pc}
 508              	.L22:
 509 0192 C046     		.align	2
 510              	.L21:
 511 0194 6CF02E40 		.word	1076818028
 512 0198 00000000 		.word	.LANCHOR0
 513 019c 000833EE 		.word	-298645504
 514 01a0 00000240 		.word	1073872896
 515 01a4 33330000 		.word	13107
 516 01a8 00010240 		.word	1073873152
 517 01ac 00500F40 		.word	1074745344
 518 01b0 08500F40 		.word	1074745352
 519 01b4 10500F40 		.word	1074745360
 520 01b8 18500F40 		.word	1074745368
 521 01bc 30500F40 		.word	1074745392
 522 01c0 01700F40 		.word	1074753537
 523 01c4 00700F40 		.word	1074753536
 524 01c8 00000440 		.word	1074003968
 525 01cc 8061DB00 		.word	14377344
 526 01d0 08000440 		.word	1074003976
 527 01d4 00010440 		.word	1074004224
 528 01d8 B6CD0200 		.word	183734
 529 01dc 08010440 		.word	1074004232
 530 01e0 18030440 		.word	1074004760
 531              		.cfi_endproc
 532              	.LFE9:
 533              		.size	cyfitter_cfg, .-cyfitter_cfg
 534              		.section	.rodata
 535              		.align	2
 536              		.set	.LANCHOR0,. + 0
 537              		.type	cfg_memset_list.4913, %object
 538              		.size	cfg_memset_list.4913, 12
 539              	cfg_memset_list.4913:
 540 0000 00300F40 		.word	1074737152
 541 0004 0004     		.short	1024
 542 0006 00400F40 		.4byte	1074741248
 543 000a 0004     		.short	1024
 544              		.type	cy_cfg_data_table.4908, %object
 545              		.size	cy_cfg_data_table.4908, 66
 546              	cy_cfg_data_table.4908:
 547 000c 5B       		.byte	91
ARM GAS  C:\Users\bryan.lee\AppData\Local\Temp\ccUsyb3S.s 			page 19


 548 000d 04       		.byte	4
 549 000e 5F       		.byte	95
 550 000f 01       		.byte	1
 551 0010 6D       		.byte	109
 552 0011 10       		.byte	16
 553 0012 6E       		.byte	110
 554 0013 88       		.byte	-120
 555 0014 6F       		.byte	111
 556 0015 80       		.byte	-128
 557 0016 77       		.byte	119
 558 0017 0A       		.byte	10
 559 0018 83       		.byte	-125
 560 0019 80       		.byte	-128
 561 001a 86       		.byte	-122
 562 001b 40       		.byte	64
 563 001c 87       		.byte	-121
 564 001d 08       		.byte	8
 565 001e 89       		.byte	-119
 566 001f 10       		.byte	16
 567 0020 8E       		.byte	-114
 568 0021 04       		.byte	4
 569 0022 9F       		.byte	-97
 570 0023 02       		.byte	2
 571 0024 AF       		.byte	-81
 572 0025 02       		.byte	2
 573 0026 E2       		.byte	-30
 574 0027 C0       		.byte	-64
 575 0028 62       		.byte	98
 576 0029 40       		.byte	64
 577 002a 67       		.byte	103
 578 002b 40       		.byte	64
 579 002c D6       		.byte	-42
 580 002d 40       		.byte	64
 581 002e D8       		.byte	-40
 582 002f 80       		.byte	-128
 583 0030 53       		.byte	83
 584 0031 81       		.byte	-127
 585 0032 56       		.byte	86
 586 0033 02       		.byte	2
 587 0034 57       		.byte	87
 588 0035 08       		.byte	8
 589 0036 83       		.byte	-125
 590 0037 01       		.byte	1
 591 0038 86       		.byte	-122
 592 0039 40       		.byte	64
 593 003a 87       		.byte	-121
 594 003b 08       		.byte	8
 595 003c 8B       		.byte	-117
 596 003d 80       		.byte	-128
 597 003e 8E       		.byte	-114
 598 003f 02       		.byte	2
 599 0040 9E       		.byte	-98
 600 0041 40       		.byte	64
 601 0042 AF       		.byte	-81
 602 0043 40       		.byte	64
 603 0044 D4       		.byte	-44
 604 0045 E0       		.byte	-32
ARM GAS  C:\Users\bryan.lee\AppData\Local\Temp\ccUsyb3S.s 			page 20


 605 0046 D6       		.byte	-42
 606 0047 20       		.byte	32
 607 0048 E2       		.byte	-30
 608 0049 10       		.byte	16
 609 004a E6       		.byte	-26
 610 004b 60       		.byte	96
 611 004c EE       		.byte	-18
 612 004d 40       		.byte	64
 613 004e 0000     		.space	2
 614              		.type	cy_cfg_addr_table.4907, %object
 615              		.size	cy_cfg_addr_table.4907, 16
 616              	cy_cfg_addr_table.4907:
 617 0050 02320F40 		.word	1074737666
 618 0054 0C330F40 		.word	1074737932
 619 0058 04400F40 		.word	1074741252
 620 005c 0F410F40 		.word	1074741519
 621              		.text
 622              	.Letext0:
 623              		.file 2 "c:\\program files (x86)\\cypress\\psoc creator\\4.1\\psoc creator\\import\\gnu\\arm\\5.4.
 624              		.file 3 "Generated_Source\\PSoC4\\cytypes.h"
 625              		.file 4 "Generated_Source\\PSoC4\\CyLFClk.h"
 626              		.file 5 "Generated_Source\\PSoC4\\CyLib.h"