ARM GAS  C:\Users\bryan.lee\AppData\Local\Temp\cce3oDwi.s 			page 1


   1              		.syntax unified
   2              		.cpu cortex-m0
   3              		.fpu softvfp
   4              		.eabi_attribute 20, 1
   5              		.eabi_attribute 21, 1
   6              		.eabi_attribute 23, 3
   7              		.eabi_attribute 24, 1
   8              		.eabi_attribute 25, 1
   9              		.eabi_attribute 26, 1
  10              		.eabi_attribute 30, 1
  11              		.eabi_attribute 34, 0
  12              		.eabi_attribute 18, 4
  13              		.thumb
  14              		.syntax unified
  15              		.file	"main.c"
  16              		.text
  17              	.Ltext0:
  18              		.cfi_sections	.debug_frame
  19              		.section	.text.ButtonFunction,"ax",%progbits
  20              		.align	2
  21              		.global	ButtonFunction
  22              		.code	16
  23              		.thumb_func
  24              		.type	ButtonFunction, %function
  25              	ButtonFunction:
  26              	.LFB38:
  27              		.file 1 "main.c"
   1:main.c        **** /* ========================================
   2:main.c        ****  *
   3:main.c        ****  * Copyright YOUR COMPANY, THE YEAR
   4:main.c        ****  * All Rights Reserved
   5:main.c        ****  * UNPUBLISHED, LICENSED SOFTWARE.
   6:main.c        ****  *
   7:main.c        ****  * CONFIDENTIAL AND PROPRIETARY INFORMATION
   8:main.c        ****  * WHICH IS THE PROPERTY OF your company.
   9:main.c        ****  *
  10:main.c        ****  * ========================================
  11:main.c        **** */
  12:main.c        **** #include <project.h>
  13:main.c        **** #include <cyapicallbacks.h>
  14:main.c        **** 
  15:main.c        **** int16 x = 0;                            //Number of programs
  16:main.c        **** void ButtonFunction();
  17:main.c        **** 
  18:main.c        **** 
  19:main.c        **** 
  20:main.c        **** int main()
  21:main.c        **** {
  22:main.c        ****     CyGlobalIntEnable; /* Enable global interrupts. */
  23:main.c        ****     ADC_SAR_Seq_Button_Start();
  24:main.c        ****     ADC_SAR_Seq_Button_StartConvert();
  25:main.c        ****     PWMBacklight_Start();
  26:main.c        ****     PWMBacklight_WriteCompare(32768);
  27:main.c        ****     LCD_Start();
  28:main.c        ****     LCD_ClearDisplay();
  29:main.c        ****     LCD_Position(0,1);
  30:main.c        ****     LCD_PrintString("Legacy Program");
ARM GAS  C:\Users\bryan.lee\AppData\Local\Temp\cce3oDwi.s 			page 2


  31:main.c        ****     LCD_Position(1,5);
  32:main.c        ****     LCD_PrintString("Test");
  33:main.c        ****     CyDelay(2000);
  34:main.c        ****     LCD_ClearDisplay();
  35:main.c        ****     LCD_Position(0,0);
  36:main.c        ****     LCD_PrintString("Program #: ");
  37:main.c        ****     LCD_Position(0,11);
  38:main.c        ****     LCD_PrintNumber(x);
  39:main.c        ****     
  40:main.c        **** 
  41:main.c        **** 
  42:main.c        ****     for(;;)
  43:main.c        ****     {
  44:main.c        ****         int16 button = ADC_SAR_Seq_Button_GetResult16(0);
  45:main.c        ****         LCD_Position(1,0);
  46:main.c        ****         LCD_PrintString("       ");
  47:main.c        ****         if (button != NO)
  48:main.c        ****         {
  49:main.c        ****             ButtonFunction();
  50:main.c        ****         }
  51:main.c        ****         LCD_Position(0,11);
  52:main.c        ****         if (x < 1000)
  53:main.c        ****         {
  54:main.c        ****             pinReset_Write(1);
  55:main.c        ****             CyDelay(500);
  56:main.c        ****             pinReset_Write(0);
  57:main.c        ****             CyDelay(500);
  58:main.c        ****             pinPower_Write(1);
  59:main.c        ****             CyDelay(1000);
  60:main.c        ****             pinPower_Write(0);
  61:main.c        ****             CyDelay(335000);                  //Programming time
  62:main.c        ****             x ++;
  63:main.c        ****             LCD_PrintNumber(x);
  64:main.c        ****         }
  65:main.c        ****         else
  66:main.c        ****         {
  67:main.c        ****            //do nothing
  68:main.c        ****         }
  69:main.c        ****     }
  70:main.c        **** }
  71:main.c        **** 
  72:main.c        **** /* [] END OF FILE */
  73:main.c        **** 
  74:main.c        **** /*************************************************************
  75:main.c        **** Button functions
  76:main.c        **** *************************************************************/
  77:main.c        **** void ButtonFunction()
  78:main.c        **** {
  28              		.loc 1 78 0
  29              		.cfi_startproc
  30              		@ args = 0, pretend = 0, frame = 0
  31              		@ frame_needed = 0, uses_anonymous_args = 0
  32 0000 10B5     		push	{r4, lr}
  33              		.cfi_def_cfa_offset 8
  34              		.cfi_offset 4, -8
  35              		.cfi_offset 14, -4
  79:main.c        ****     int16 buttonfunction = ADC_SAR_Seq_Button_GetResult16(0);
ARM GAS  C:\Users\bryan.lee\AppData\Local\Temp\cce3oDwi.s 			page 3


  36              		.loc 1 79 0
  37 0002 0020     		movs	r0, #0
  38 0004 FFF7FEFF 		bl	ADC_SAR_Seq_Button_GetResult16
  39              	.LVL0:
  80:main.c        ****     switch (buttonfunction)
  40              		.loc 1 80 0
  41 0008 2E28     		cmp	r0, #46
  42 000a 12D0     		beq	.L3
  43 000c 04DC     		bgt	.L4
  44 000e 0028     		cmp	r0, #0
  45 0010 1FD0     		beq	.L5
  46 0012 1228     		cmp	r0, #18
  47 0014 05D0     		beq	.L6
  48 0016 2CE0     		b	.L2
  49              	.L4:
  50 0018 4A28     		cmp	r0, #74
  51 001a 12D0     		beq	.L7
  52 001c 7328     		cmp	r0, #115
  53 001e 20D0     		beq	.L8
  54 0020 27E0     		b	.L2
  55              	.L6:
  81:main.c        ****         {
  82:main.c        ****             case U:
  83:main.c        ****             {
  84:main.c        ****                 LCD_Position(1,0);
  56              		.loc 1 84 0
  57 0022 0021     		movs	r1, #0
  58 0024 0120     		movs	r0, #1
  59              	.LVL1:
  60 0026 FFF7FEFF 		bl	LCD_Position
  61              	.LVL2:
  85:main.c        ****                 LCD_PrintString("UP");
  62              		.loc 1 85 0
  63 002a 1648     		ldr	r0, .L10
  64 002c FFF7FEFF 		bl	LCD_PrintString
  65              	.LVL3:
  86:main.c        ****                 break;
  66              		.loc 1 86 0
  67 0030 26E0     		b	.L1
  68              	.LVL4:
  69              	.L3:
  87:main.c        ****             }
  88:main.c        ****             case D:
  89:main.c        ****             {
  90:main.c        ****                 LCD_Position(1,0);
  70              		.loc 1 90 0
  71 0032 0021     		movs	r1, #0
  72 0034 0120     		movs	r0, #1
  73              	.LVL5:
  74 0036 FFF7FEFF 		bl	LCD_Position
  75              	.LVL6:
  91:main.c        ****                 LCD_PrintString("DOWN");
  76              		.loc 1 91 0
  77 003a 1348     		ldr	r0, .L10+4
  78 003c FFF7FEFF 		bl	LCD_PrintString
  79              	.LVL7:
  92:main.c        ****                 break;
ARM GAS  C:\Users\bryan.lee\AppData\Local\Temp\cce3oDwi.s 			page 4


  80              		.loc 1 92 0
  81 0040 1EE0     		b	.L1
  82              	.LVL8:
  83              	.L7:
  93:main.c        ****             }
  94:main.c        ****             case L:
  95:main.c        ****             {
  96:main.c        ****                 LCD_Position(1,0);
  84              		.loc 1 96 0
  85 0042 0021     		movs	r1, #0
  86 0044 0120     		movs	r0, #1
  87              	.LVL9:
  88 0046 FFF7FEFF 		bl	LCD_Position
  89              	.LVL10:
  97:main.c        ****                 LCD_PrintString("LEFT");
  90              		.loc 1 97 0
  91 004a 1048     		ldr	r0, .L10+8
  92 004c FFF7FEFF 		bl	LCD_PrintString
  93              	.LVL11:
  98:main.c        ****                 break;
  94              		.loc 1 98 0
  95 0050 16E0     		b	.L1
  96              	.LVL12:
  97              	.L5:
  99:main.c        ****             }
 100:main.c        ****             case R:
 101:main.c        ****             {
 102:main.c        ****                 LCD_Position(1,0);
  98              		.loc 1 102 0
  99 0052 0021     		movs	r1, #0
 100 0054 0120     		movs	r0, #1
 101              	.LVL13:
 102 0056 FFF7FEFF 		bl	LCD_Position
 103              	.LVL14:
 103:main.c        ****                 LCD_PrintString("RIGHT");
 104              		.loc 1 103 0
 105 005a 0D48     		ldr	r0, .L10+12
 106 005c FFF7FEFF 		bl	LCD_PrintString
 107              	.LVL15:
 104:main.c        ****                 break;
 108              		.loc 1 104 0
 109 0060 0EE0     		b	.L1
 110              	.LVL16:
 111              	.L8:
 105:main.c        ****             }
 106:main.c        ****             case S:
 107:main.c        ****             {
 108:main.c        ****                 LCD_Position(1,0);
 112              		.loc 1 108 0
 113 0062 0021     		movs	r1, #0
 114 0064 0120     		movs	r0, #1
 115              	.LVL17:
 116 0066 FFF7FEFF 		bl	LCD_Position
 117              	.LVL18:
 109:main.c        ****                 LCD_PrintString("SELECT");
 118              		.loc 1 109 0
 119 006a 0A48     		ldr	r0, .L10+16
ARM GAS  C:\Users\bryan.lee\AppData\Local\Temp\cce3oDwi.s 			page 5


 120 006c FFF7FEFF 		bl	LCD_PrintString
 121              	.LVL19:
 110:main.c        ****                 break;
 122              		.loc 1 110 0
 123 0070 06E0     		b	.L1
 124              	.LVL20:
 125              	.L2:
 111:main.c        ****             }
 112:main.c        ****             default:
 113:main.c        ****             {
 114:main.c        ****                 LCD_Position(1,0);
 126              		.loc 1 114 0
 127 0072 0021     		movs	r1, #0
 128 0074 0120     		movs	r0, #1
 129              	.LVL21:
 130 0076 FFF7FEFF 		bl	LCD_Position
 131              	.LVL22:
 115:main.c        ****                 LCD_PrintString("       ");
 132              		.loc 1 115 0
 133 007a 0748     		ldr	r0, .L10+20
 134 007c FFF7FEFF 		bl	LCD_PrintString
 135              	.LVL23:
 136              	.L1:
 116:main.c        ****                 break;
 117:main.c        ****                
 118:main.c        ****             }
 119:main.c        ****         }
 120:main.c        **** }...
 137              		.loc 1 120 0
 138              		@ sp needed
 139 0080 10BD     		pop	{r4, pc}
 140              	.L11:
 141 0082 C046     		.align	2
 142              	.L10:
 143 0084 00000000 		.word	.LC0
 144 0088 04000000 		.word	.LC2
 145 008c 0C000000 		.word	.LC4
 146 0090 14000000 		.word	.LC6
 147 0094 1C000000 		.word	.LC8
 148 0098 24000000 		.word	.LC10
 149              		.cfi_endproc
 150              	.LFE38:
 151              		.size	ButtonFunction, .-ButtonFunction
 152              		.section	.text.main,"ax",%progbits
 153              		.align	2
 154              		.global	main
 155              		.code	16
 156              		.thumb_func
 157              		.type	main, %function
 158              	main:
 159              	.LFB37:
  21:main.c        **** {
 160              		.loc 1 21 0
 161              		.cfi_startproc
 162              		@ args = 0, pretend = 0, frame = 0
 163              		@ frame_needed = 0, uses_anonymous_args = 0
 164 0000 10B5     		push	{r4, lr}
ARM GAS  C:\Users\bryan.lee\AppData\Local\Temp\cce3oDwi.s 			page 6


 165              		.cfi_def_cfa_offset 8
 166              		.cfi_offset 4, -8
 167              		.cfi_offset 14, -4
  22:main.c        ****     CyGlobalIntEnable; /* Enable global interrupts. */
 168              		.loc 1 22 0
 169              		.syntax divided
 170              	@ 22 "main.c" 1
 171 0002 62B6     		CPSIE   i
 172              	@ 0 "" 2
  23:main.c        ****     ADC_SAR_Seq_Button_Start();
 173              		.loc 1 23 0
 174              		.thumb
 175              		.syntax unified
 176 0004 FFF7FEFF 		bl	ADC_SAR_Seq_Button_Start
 177              	.LVL24:
  24:main.c        ****     ADC_SAR_Seq_Button_StartConvert();
 178              		.loc 1 24 0
 179 0008 FFF7FEFF 		bl	ADC_SAR_Seq_Button_StartConvert
 180              	.LVL25:
  25:main.c        ****     PWMBacklight_Start();
 181              		.loc 1 25 0
 182 000c FFF7FEFF 		bl	PWMBacklight_Start
 183              	.LVL26:
  26:main.c        ****     PWMBacklight_WriteCompare(32768);
 184              		.loc 1 26 0
 185 0010 8020     		movs	r0, #128
 186 0012 0002     		lsls	r0, r0, #8
 187 0014 FFF7FEFF 		bl	PWMBacklight_WriteCompare
 188              	.LVL27:
  27:main.c        ****     LCD_Start();
 189              		.loc 1 27 0
 190 0018 FFF7FEFF 		bl	LCD_Start
 191              	.LVL28:
  28:main.c        ****     LCD_ClearDisplay();
 192              		.loc 1 28 0
 193 001c 0120     		movs	r0, #1
 194 001e FFF7FEFF 		bl	LCD_WriteControl
 195              	.LVL29:
  29:main.c        ****     LCD_Position(0,1);
 196              		.loc 1 29 0
 197 0022 0121     		movs	r1, #1
 198 0024 0020     		movs	r0, #0
 199 0026 FFF7FEFF 		bl	LCD_Position
 200              	.LVL30:
  30:main.c        ****     LCD_PrintString("Legacy Program");
 201              		.loc 1 30 0
 202 002a 2E48     		ldr	r0, .L16
 203 002c FFF7FEFF 		bl	LCD_PrintString
 204              	.LVL31:
  31:main.c        ****     LCD_Position(1,5);
 205              		.loc 1 31 0
 206 0030 0521     		movs	r1, #5
 207 0032 0120     		movs	r0, #1
 208 0034 FFF7FEFF 		bl	LCD_Position
 209              	.LVL32:
  32:main.c        ****     LCD_PrintString("Test");
 210              		.loc 1 32 0
ARM GAS  C:\Users\bryan.lee\AppData\Local\Temp\cce3oDwi.s 			page 7


 211 0038 2B48     		ldr	r0, .L16+4
 212 003a FFF7FEFF 		bl	LCD_PrintString
 213              	.LVL33:
  33:main.c        ****     CyDelay(2000);
 214              		.loc 1 33 0
 215 003e FA20     		movs	r0, #250
 216 0040 C000     		lsls	r0, r0, #3
 217 0042 FFF7FEFF 		bl	CyDelay
 218              	.LVL34:
  34:main.c        ****     LCD_ClearDisplay();
 219              		.loc 1 34 0
 220 0046 0120     		movs	r0, #1
 221 0048 FFF7FEFF 		bl	LCD_WriteControl
 222              	.LVL35:
  35:main.c        ****     LCD_Position(0,0);
 223              		.loc 1 35 0
 224 004c 0021     		movs	r1, #0
 225 004e 0020     		movs	r0, #0
 226 0050 FFF7FEFF 		bl	LCD_Position
 227              	.LVL36:
  36:main.c        ****     LCD_PrintString("Program #: ");
 228              		.loc 1 36 0
 229 0054 2548     		ldr	r0, .L16+8
 230 0056 FFF7FEFF 		bl	LCD_PrintString
 231              	.LVL37:
  37:main.c        ****     LCD_Position(0,11);
 232              		.loc 1 37 0
 233 005a 0B21     		movs	r1, #11
 234 005c 0020     		movs	r0, #0
 235 005e FFF7FEFF 		bl	LCD_Position
 236              	.LVL38:
  38:main.c        ****     LCD_PrintNumber(x);
 237              		.loc 1 38 0
 238 0062 234B     		ldr	r3, .L16+12
 239 0064 1888     		ldrh	r0, [r3]
 240 0066 FFF7FEFF 		bl	LCD_PrintNumber
 241              	.LVL39:
 242              	.L14:
 243              	.LBB2:
  44:main.c        ****         int16 button = ADC_SAR_Seq_Button_GetResult16(0);
 244              		.loc 1 44 0
 245 006a 0020     		movs	r0, #0
 246 006c FFF7FEFF 		bl	ADC_SAR_Seq_Button_GetResult16
 247              	.LVL40:
 248 0070 0400     		movs	r4, r0
 249              	.LVL41:
  45:main.c        ****         LCD_Position(1,0);
 250              		.loc 1 45 0
 251 0072 0021     		movs	r1, #0
 252 0074 0120     		movs	r0, #1
 253 0076 FFF7FEFF 		bl	LCD_Position
 254              	.LVL42:
  46:main.c        ****         LCD_PrintString("       ");
 255              		.loc 1 46 0
 256 007a 1E48     		ldr	r0, .L16+16
 257 007c FFF7FEFF 		bl	LCD_PrintString
 258              	.LVL43:
ARM GAS  C:\Users\bryan.lee\AppData\Local\Temp\cce3oDwi.s 			page 8


  47:main.c        ****         if (button != NO)
 259              		.loc 1 47 0
 260 0080 932C     		cmp	r4, #147
 261 0082 01D0     		beq	.L13
  49:main.c        ****             ButtonFunction();
 262              		.loc 1 49 0
 263 0084 FFF7FEFF 		bl	ButtonFunction
 264              	.LVL44:
 265              	.L13:
  51:main.c        ****         LCD_Position(0,11);
 266              		.loc 1 51 0
 267 0088 0B21     		movs	r1, #11
 268 008a 0020     		movs	r0, #0
 269 008c FFF7FEFF 		bl	LCD_Position
 270              	.LVL45:
  52:main.c        ****         if (x < 1000)
 271              		.loc 1 52 0
 272 0090 174B     		ldr	r3, .L16+12
 273 0092 0022     		movs	r2, #0
 274 0094 9A5E     		ldrsh	r2, [r3, r2]
 275 0096 184B     		ldr	r3, .L16+20
 276 0098 9A42     		cmp	r2, r3
 277 009a E6DC     		bgt	.L14
  54:main.c        ****             pinReset_Write(1);
 278              		.loc 1 54 0
 279 009c 0120     		movs	r0, #1
 280 009e FFF7FEFF 		bl	pinReset_Write
 281              	.LVL46:
  55:main.c        ****             CyDelay(500);
 282              		.loc 1 55 0
 283 00a2 FA24     		movs	r4, #250
 284              	.LVL47:
 285 00a4 6400     		lsls	r4, r4, #1
 286 00a6 2000     		movs	r0, r4
 287 00a8 FFF7FEFF 		bl	CyDelay
 288              	.LVL48:
  56:main.c        ****             pinReset_Write(0);
 289              		.loc 1 56 0
 290 00ac 0020     		movs	r0, #0
 291 00ae FFF7FEFF 		bl	pinReset_Write
 292              	.LVL49:
  57:main.c        ****             CyDelay(500);
 293              		.loc 1 57 0
 294 00b2 2000     		movs	r0, r4
 295 00b4 FFF7FEFF 		bl	CyDelay
 296              	.LVL50:
  58:main.c        ****             pinPower_Write(1);
 297              		.loc 1 58 0
 298 00b8 0120     		movs	r0, #1
 299 00ba FFF7FEFF 		bl	pinPower_Write
 300              	.LVL51:
  59:main.c        ****             CyDelay(1000);
 301              		.loc 1 59 0
 302 00be FA20     		movs	r0, #250
 303 00c0 8000     		lsls	r0, r0, #2
 304 00c2 FFF7FEFF 		bl	CyDelay
 305              	.LVL52:
ARM GAS  C:\Users\bryan.lee\AppData\Local\Temp\cce3oDwi.s 			page 9


  60:main.c        ****             pinPower_Write(0);
 306              		.loc 1 60 0
 307 00c6 0020     		movs	r0, #0
 308 00c8 FFF7FEFF 		bl	pinPower_Write
 309              	.LVL53:
  61:main.c        ****             CyDelay(335000);                  //Programming time
 310              		.loc 1 61 0
 311 00cc 0B48     		ldr	r0, .L16+24
 312 00ce FFF7FEFF 		bl	CyDelay
 313              	.LVL54:
  62:main.c        ****             x ++;
 314              		.loc 1 62 0
 315 00d2 074B     		ldr	r3, .L16+12
 316 00d4 1888     		ldrh	r0, [r3]
 317 00d6 0130     		adds	r0, r0, #1
 318 00d8 80B2     		uxth	r0, r0
 319 00da 1880     		strh	r0, [r3]
  63:main.c        ****             LCD_PrintNumber(x);
 320              		.loc 1 63 0
 321 00dc FFF7FEFF 		bl	LCD_PrintNumber
 322              	.LVL55:
 323 00e0 C3E7     		b	.L14
 324              	.L17:
 325 00e2 C046     		.align	2
 326              	.L16:
 327 00e4 2C000000 		.word	.LC12
 328 00e8 3C000000 		.word	.LC14
 329 00ec 44000000 		.word	.LC16
 330 00f0 00000000 		.word	.LANCHOR0
 331 00f4 24000000 		.word	.LC10
 332 00f8 E7030000 		.word	999
 333 00fc 981C0500 		.word	335000
 334              	.LBE2:
 335              		.cfi_endproc
 336              	.LFE37:
 337              		.size	main, .-main
 338              		.global	x
 339              		.section	.rodata.str1.4,"aMS",%progbits,1
 340              		.align	2
 341              	.LC0:
 342 0000 555000   		.ascii	"UP\000"
 343 0003 00       		.space	1
 344              	.LC2:
 345 0004 444F574E 		.ascii	"DOWN\000"
 345      00
 346 0009 000000   		.space	3
 347              	.LC4:
 348 000c 4C454654 		.ascii	"LEFT\000"
 348      00
 349 0011 000000   		.space	3
 350              	.LC6:
 351 0014 52494748 		.ascii	"RIGHT\000"
 351      5400
 352 001a 0000     		.space	2
 353              	.LC8:
 354 001c 53454C45 		.ascii	"SELECT\000"
 354      435400
ARM GAS  C:\Users\bryan.lee\AppData\Local\Temp\cce3oDwi.s 			page 10


 355 0023 00       		.space	1
 356              	.LC10:
 357 0024 20202020 		.ascii	"       \000"
 357      20202000 
 358              	.LC12:
 359 002c 4C656761 		.ascii	"Legacy Program\000"
 359      63792050 
 359      726F6772 
 359      616D00
 360 003b 00       		.space	1
 361              	.LC14:
 362 003c 54657374 		.ascii	"Test\000"
 362      00
 363 0041 000000   		.space	3
 364              	.LC16:
 365 0044 50726F67 		.ascii	"Program #: \000"
 365      72616D20 
 365      233A2000 
 366              		.bss
 367              		.align	1
 368              		.set	.LANCHOR0,. + 0
 369              		.type	x, %object
 370              		.size	x, 2
 371              	x:
 372 0000 0000     		.space	2
 373              		.text
 374              	.Letext0:
 375              		.file 2 "Generated_Source\\PSoC4/ADC_SAR_Seq_Button.h"
 376              		.file 3 "Generated_Source\\PSoC4/LCD.h"
 377              		.file 4 "Generated_Source\\PSoC4/pinReset.h"
 378              		.file 5 "Generated_Source\\PSoC4/CyLib.h"
 379              		.file 6 "Generated_Source\\PSoC4/pinPower.h"
 380              		.file 7 "Generated_Source\\PSoC4/PWMBacklight.h"
 381              		.file 8 "Generated_Source\\PSoC4/cytypes.h"