ARM GAS  C:\Users\bryan.lee\AppData\Local\Temp\cccqhYvN.s 			page 1


   1              		.syntax unified
   2              		.cpu cortex-m0
   3              		.fpu softvfp
   4              		.eabi_attribute 20, 1
   5              		.eabi_attribute 21, 1
   6              		.eabi_attribute 23, 3
   7              		.eabi_attribute 24, 1
   8              		.eabi_attribute 25, 1
   9              		.eabi_attribute 26, 1
  10              		.eabi_attribute 30, 1
  11              		.eabi_attribute 34, 0
  12              		.eabi_attribute 18, 4
  13              		.thumb
  14              		.syntax unified
  15              		.file	"main.c"
  16              		.text
  17              	.Ltext0:
  18              		.cfi_sections	.debug_frame
  19              		.section	.text.Pin_SW2_Handler,"ax",%progbits
  20              		.align	2
  21              		.global	Pin_SW2_Handler
  22              		.code	16
  23              		.thumb_func
  24              		.type	Pin_SW2_Handler, %function
  25              	Pin_SW2_Handler:
  26              	.LFB35:
  27              		.file 1 "main.c"
   1:main.c        **** /* ========================================
   2:main.c        ****  *
   3:main.c        ****  * Copyright YOUR COMPANY, THE YEAR
   4:main.c        ****  * All Rights Reserved
   5:main.c        ****  * UNPUBLISHED, LICENSED SOFTWARE.
   6:main.c        ****  *
   7:main.c        ****  * CONFIDENTIAL AND PROPRIETARY INFORMATION
   8:main.c        ****  * WHICH IS THE PROPERTY OF your company.
   9:main.c        ****  *
  10:main.c        ****  * ========================================
  11:main.c        **** */
  12:main.c        **** #include "project.h"
  13:main.c        **** 
  14:main.c        **** CY_ISR(Pin_SW2_Handler)
  15:main.c        **** {
  28              		.loc 1 15 0
  29              		.cfi_startproc
  30              		@ args = 0, pretend = 0, frame = 0
  31              		@ frame_needed = 0, uses_anonymous_args = 0
  32 0000 10B5     		push	{r4, lr}
  33              		.cfi_def_cfa_offset 8
  34              		.cfi_offset 4, -8
  35              		.cfi_offset 14, -4
  16:main.c        ****     Pin_Red_Write(~Pin_Red_Read());
  36              		.loc 1 16 0
  37 0002 FFF7FEFF 		bl	Pin_Red_Read
  38              	.LVL0:
  39 0006 C043     		mvns	r0, r0
  40 0008 C0B2     		uxtb	r0, r0
  41 000a FFF7FEFF 		bl	Pin_Red_Write
ARM GAS  C:\Users\bryan.lee\AppData\Local\Temp\cccqhYvN.s 			page 2


  42              	.LVL1:
  17:main.c        ****     Pin_Blue_Write(~Pin_Blue_Read());
  43              		.loc 1 17 0
  44 000e FFF7FEFF 		bl	Pin_Blue_Read
  45              	.LVL2:
  46 0012 C043     		mvns	r0, r0
  47 0014 C0B2     		uxtb	r0, r0
  48 0016 FFF7FEFF 		bl	Pin_Blue_Write
  49              	.LVL3:
  18:main.c        ****     Pin_SW2_ClearInterrupt();
  50              		.loc 1 18 0
  51 001a FFF7FEFF 		bl	Pin_SW2_ClearInterrupt
  52              	.LVL4:
  19:main.c        **** }
  53              		.loc 1 19 0
  54              		@ sp needed
  55 001e 10BD     		pop	{r4, pc}
  56              		.cfi_endproc
  57              	.LFE35:
  58              		.size	Pin_SW2_Handler, .-Pin_SW2_Handler
  59              		.section	.text.main,"ax",%progbits
  60              		.align	2
  61              		.global	main
  62              		.code	16
  63              		.thumb_func
  64              		.type	main, %function
  65              	main:
  66              	.LFB36:
  20:main.c        **** 
  21:main.c        **** int main(void)
  22:main.c        **** {
  67              		.loc 1 22 0
  68              		.cfi_startproc
  69              		@ Volatile: function does not return.
  70              		@ args = 0, pretend = 0, frame = 0
  71              		@ frame_needed = 0, uses_anonymous_args = 0
  72 0000 10B5     		push	{r4, lr}
  73              		.cfi_def_cfa_offset 8
  74              		.cfi_offset 4, -8
  75              		.cfi_offset 14, -4
  23:main.c        ****     Pin_Blue_Write(0);
  76              		.loc 1 23 0
  77 0002 0020     		movs	r0, #0
  78 0004 FFF7FEFF 		bl	Pin_Blue_Write
  79              	.LVL5:
  24:main.c        ****     CyGlobalIntEnable; /* Enable global interrupts. */
  80              		.loc 1 24 0
  81              		.syntax divided
  82              	@ 24 "main.c" 1
  83 0008 62B6     		CPSIE   i
  84              	@ 0 "" 2
  25:main.c        ****     Pin_SW2_int_StartEx(Pin_SW2_Handler);
  85              		.loc 1 25 0
  86              		.thumb
  87              		.syntax unified
  88 000a 0248     		ldr	r0, .L4
  89 000c FFF7FEFF 		bl	Pin_SW2_int_StartEx
ARM GAS  C:\Users\bryan.lee\AppData\Local\Temp\cccqhYvN.s 			page 3


  90              	.LVL6:
  91              	.L3:
  92 0010 FEE7     		b	.L3
  93              	.L5:
  94 0012 C046     		.align	2
  95              	.L4:
  96 0014 00000000 		.word	Pin_SW2_Handler
  97              		.cfi_endproc
  98              	.LFE36:
  99              		.size	main, .-main
 100              		.text
 101              	.Letext0:
 102              		.file 2 "Generated_Source\\PSoC4/Pin_Red.h"
 103              		.file 3 "Generated_Source\\PSoC4/Pin_Blue.h"
 104              		.file 4 "Generated_Source\\PSoC4/Pin_SW2.h"
 105              		.file 5 "Generated_Source\\PSoC4/Pin_SW2_int.h"