ARM GAS  C:\Users\bryan.lee\AppData\Local\Temp\cchRMhis.s 			page 1


   1              		.syntax unified
   2              		.cpu cortex-m3
   3              		.fpu softvfp
   4              		.eabi_attribute 20, 1
   5              		.eabi_attribute 21, 1
   6              		.eabi_attribute 23, 3
   7              		.eabi_attribute 24, 1
   8              		.eabi_attribute 25, 1
   9              		.eabi_attribute 26, 1
  10              		.eabi_attribute 30, 6
  11              		.eabi_attribute 18, 4
  12              		.thumb
  13              		.file	"main.c"
  20 0000 88000000 		.text
  20      02005300 
  20      00000201 
  20      FB0E0D00 
  20      01010101 
  21              	.Ltext0:
  22              		.cfi_sections	.debug_frame
  23              		.section	.rodata
  24              		.align	2
  25              	.LC0:
  26 0000 4144435F 		.ascii	"ADC_Output\000"
  26      4F757470 
  26      757400
  27 000b 00       		.align	2
  28              	.LC1:
  29 000c 20202020 		.ascii	"         DEAD          \000"
  29      20202020 
  29      20444541 
  29      44202020 
  29      20202020 
  30              		.align	2
  31              	.LC2:
  32 0024 20202020 		.ascii	"                      \000"
  32      20202020 
  32      20202020 
  32      20202020 
  32      20202020 
  33 003b 00       		.align	2
  34              	.LC3:
  35 003c 446F776E 		.ascii	"Down\000"
  35      00
  36 0041 000000   		.align	2
  37              	.LC4:
  38 0044 20202020 		.ascii	"     \000"
  38      2000
  39 004a 0000     		.align	2
  40              	.LC5:
  41 004c 557000   		.ascii	"Up\000"
ARM GAS  C:\Users\bryan.lee\AppData\Local\Temp\cchRMhis.s 			page 2


  42 004f 00       		.section	.text.main,"ax",%progbits
  43              		.align	2
  44              		.global	main
  45              		.thumb
  46              		.thumb_func
  47              		.type	main, %function
  48              	main:
  49              	.LFB29:
  50              		.file 1 ".\\main.c"
   1:.\main.c      **** 
   2:.\main.c      **** #include <device.h>
   3:.\main.c      **** 
   4:.\main.c      **** 
   5:.\main.c      **** 
   6:.\main.c      **** void main()
   7:.\main.c      **** {
  51              		.loc 1 7 0
  52              		.cfi_startproc
  53              		@ args = 0, pretend = 0, frame = 8
  54              		@ frame_needed = 1, uses_anonymous_args = 0
  55 0000 80B5     		push	{r7, lr}
  56              	.LCFI0:
  57              		.cfi_def_cfa_offset 8
  58 0002 82B0     		sub	sp, sp, #8
  59              	.LCFI1:
  60              		.cfi_def_cfa_offset 16
  61 0004 00AF     		add	r7, sp, #0
  62              		.cfi_offset 14, -4
  63              		.cfi_offset 7, -8
  64              	.LCFI2:
  65              		.cfi_def_cfa_register 7
   8:.\main.c      ****     uint8 output;
   9:.\main.c      ****     uint8 lastread;
  10:.\main.c      ****     
  11:.\main.c      ****  
  12:.\main.c      ****     /* Start the components */
  13:.\main.c      **** 
  14:.\main.c      ****     LCD_Start();
  66              		.loc 1 14 0
  67 0006 FFF7FEFF 		bl	LCD_Start
  15:.\main.c      ****     ADC_DelSig_1_Start();
  68              		.loc 1 15 0
  69 000a FFF7FEFF 		bl	ADC_DelSig_1_Start
  16:.\main.c      ****    
  17:.\main.c      **** 
  18:.\main.c      ****     /* Start the ADC conversion */
  19:.\main.c      ****     ADC_DelSig_1_StartConvert();
  70              		.loc 1 19 0
  71 000e FFF7FEFF 		bl	ADC_DelSig_1_StartConvert
  20:.\main.c      ****     
  21:.\main.c      **** 
  22:.\main.c      ****     /* Display the value of ADC output on LCD */
  23:.\main.c      ****     LCD_Position(0u, 0u);
  72              		.loc 1 23 0
  73 0012 4FF00000 		mov	r0, #0
  74 0016 4FF00001 		mov	r1, #0
  75 001a FFF7FEFF 		bl	LCD_Position
ARM GAS  C:\Users\bryan.lee\AppData\Local\Temp\cchRMhis.s 			page 3


  24:.\main.c      ****     LCD_PrintString("ADC_Output");
  76              		.loc 1 24 0
  77 001e 40F20000 		movw	r0, #:lower16:.LC0
  78 0022 C0F20000 		movt	r0, #:upper16:.LC0
  79 0026 FFF7FEFF 		bl	LCD_PrintString
  80 002a 00E0     		b	.L10
  81              	.L12:
  25:.\main.c      **** 
  26:.\main.c      ****     for(;;)
  27:.\main.c      ****     {
  28:.\main.c      ****         if(ADC_DelSig_1_IsEndConversion(ADC_DelSig_1_RETURN_STATUS))
  29:.\main.c      ****         {
  30:.\main.c      ****             output = ADC_DelSig_1_GetResult8();
  31:.\main.c      ****             LCD_Position(1u, 0u);
  32:.\main.c      ****             LCD_PrintInt8(output); 
  33:.\main.c      ****            
  34:.\main.c      ****             if ((lastread >= 0xFD) && (output < 0x03))
  35:.\main.c      ****             {
  36:.\main.c      ****                 output = 0xFF;
  37:.\main.c      ****             }
  38:.\main.c      ****             if ((output < 0xAA) && (output > 0x55))
  39:.\main.c      ****             {
  40:.\main.c      ****                 LCD_Position(2,0);
  41:.\main.c      ****                 LCD_PrintString("         DEAD          ");
  42:.\main.c      ****             }
  43:.\main.c      ****             else
  44:.\main.c      ****             {
  45:.\main.c      ****                 LCD_Position(2,0);
  46:.\main.c      ****                 LCD_PrintString("                      ");
  47:.\main.c      ****             }
  48:.\main.c      ****             if(output <= 0x55)
  49:.\main.c      ****             {
  50:.\main.c      ****                 LCD_Position(3,10);
  51:.\main.c      ****                 LCD_PrintString("Down");
  52:.\main.c      ****             }
  53:.\main.c      ****              else
  54:.\main.c      ****             {
  55:.\main.c      ****                 LCD_Position(3,10);
  56:.\main.c      ****                 LCD_PrintString("     ");
  57:.\main.c      ****             }
  58:.\main.c      ****             if(output >= 0xAA)
  59:.\main.c      ****             {
  60:.\main.c      ****                 LCD_Position(3,0);
  61:.\main.c      ****                 LCD_PrintString("Up");
  62:.\main.c      ****             }
  63:.\main.c      ****             else
  64:.\main.c      ****             {
  65:.\main.c      ****             LCD_Position(3,0);
  66:.\main.c      ****             LCD_PrintString("     ");
  67:.\main.c      ****             }
  68:.\main.c      ****             lastread = output;
  69:.\main.c      ****         }
  70:.\main.c      ****     }
  82              		.loc 1 70 0
  83 002c 00BF     		nop
  84              	.L10:
  85              		.loc 1 28 0
ARM GAS  C:\Users\bryan.lee\AppData\Local\Temp\cchRMhis.s 			page 4


  86 002e 4FF00100 		mov	r0, #1
  87 0032 FFF7FEFF 		bl	ADC_DelSig_1_IsEndConversion
  88 0036 0346     		mov	r3, r0
  89 0038 002B     		cmp	r3, #0
  90 003a F7D0     		beq	.L12
  91              		.loc 1 30 0
  92 003c FFF7FEFF 		bl	ADC_DelSig_1_GetResult8
  93 0040 0346     		mov	r3, r0
  94 0042 DBB2     		uxtb	r3, r3
  95 0044 BB71     		strb	r3, [r7, #6]
  96              		.loc 1 31 0
  97 0046 4FF00100 		mov	r0, #1
  98 004a 4FF00001 		mov	r1, #0
  99 004e FFF7FEFF 		bl	LCD_Position
 100              		.loc 1 32 0
 101 0052 BB79     		ldrb	r3, [r7, #6]	@ zero_extendqisi2
 102 0054 1846     		mov	r0, r3
 103 0056 FFF7FEFF 		bl	LCD_PrintInt8
 104              		.loc 1 34 0
 105 005a FB79     		ldrb	r3, [r7, #7]	@ zero_extendqisi2
 106 005c FC2B     		cmp	r3, #252
 107 005e 05D9     		bls	.L3
 108 0060 BB79     		ldrb	r3, [r7, #6]	@ zero_extendqisi2
 109 0062 022B     		cmp	r3, #2
 110 0064 02D8     		bhi	.L3
 111              		.loc 1 36 0
 112 0066 4FF0FF33 		mov	r3, #-1
 113 006a BB71     		strb	r3, [r7, #6]
 114              	.L3:
 115              		.loc 1 38 0
 116 006c BB79     		ldrb	r3, [r7, #6]	@ zero_extendqisi2
 117 006e A92B     		cmp	r3, #169
 118 0070 0FD8     		bhi	.L4
 119 0072 BB79     		ldrb	r3, [r7, #6]	@ zero_extendqisi2
 120 0074 552B     		cmp	r3, #85
 121 0076 0CD9     		bls	.L4
 122              		.loc 1 40 0
 123 0078 4FF00200 		mov	r0, #2
 124 007c 4FF00001 		mov	r1, #0
 125 0080 FFF7FEFF 		bl	LCD_Position
 126              		.loc 1 41 0
 127 0084 40F20000 		movw	r0, #:lower16:.LC1
 128 0088 C0F20000 		movt	r0, #:upper16:.LC1
 129 008c FFF7FEFF 		bl	LCD_PrintString
 130              		.loc 1 38 0
 131 0090 0BE0     		b	.L5
 132              	.L4:
 133              		.loc 1 45 0
 134 0092 4FF00200 		mov	r0, #2
 135 0096 4FF00001 		mov	r1, #0
 136 009a FFF7FEFF 		bl	LCD_Position
 137              		.loc 1 46 0
 138 009e 40F20000 		movw	r0, #:lower16:.LC2
 139 00a2 C0F20000 		movt	r0, #:upper16:.LC2
 140 00a6 FFF7FEFF 		bl	LCD_PrintString
 141              	.L5:
 142              		.loc 1 48 0
ARM GAS  C:\Users\bryan.lee\AppData\Local\Temp\cchRMhis.s 			page 5


 143 00aa BB79     		ldrb	r3, [r7, #6]	@ zero_extendqisi2
 144 00ac 552B     		cmp	r3, #85
 145 00ae 0CD8     		bhi	.L6
 146              		.loc 1 50 0
 147 00b0 4FF00300 		mov	r0, #3
 148 00b4 4FF00A01 		mov	r1, #10
 149 00b8 FFF7FEFF 		bl	LCD_Position
 150              		.loc 1 51 0
 151 00bc 40F20000 		movw	r0, #:lower16:.LC3
 152 00c0 C0F20000 		movt	r0, #:upper16:.LC3
 153 00c4 FFF7FEFF 		bl	LCD_PrintString
 154 00c8 0BE0     		b	.L7
 155              	.L6:
 156              		.loc 1 55 0
 157 00ca 4FF00300 		mov	r0, #3
 158 00ce 4FF00A01 		mov	r1, #10
 159 00d2 FFF7FEFF 		bl	LCD_Position
 160              		.loc 1 56 0
 161 00d6 40F20000 		movw	r0, #:lower16:.LC4
 162 00da C0F20000 		movt	r0, #:upper16:.LC4
 163 00de FFF7FEFF 		bl	LCD_PrintString
 164              	.L7:
 165              		.loc 1 58 0
 166 00e2 BB79     		ldrb	r3, [r7, #6]	@ zero_extendqisi2
 167 00e4 A92B     		cmp	r3, #169
 168 00e6 0CD9     		bls	.L8
 169              		.loc 1 60 0
 170 00e8 4FF00300 		mov	r0, #3
 171 00ec 4FF00001 		mov	r1, #0
 172 00f0 FFF7FEFF 		bl	LCD_Position
 173              		.loc 1 61 0
 174 00f4 40F20000 		movw	r0, #:lower16:.LC5
 175 00f8 C0F20000 		movt	r0, #:upper16:.LC5
 176 00fc FFF7FEFF 		bl	LCD_PrintString
 177 0100 0BE0     		b	.L9
 178              	.L8:
 179              		.loc 1 65 0
 180 0102 4FF00300 		mov	r0, #3
 181 0106 4FF00001 		mov	r1, #0
 182 010a FFF7FEFF 		bl	LCD_Position
 183              		.loc 1 66 0
 184 010e 40F20000 		movw	r0, #:lower16:.LC4
 185 0112 C0F20000 		movt	r0, #:upper16:.LC4
 186 0116 FFF7FEFF 		bl	LCD_PrintString
 187              	.L9:
 188              		.loc 1 68 0
 189 011a BB79     		ldrb	r3, [r7, #6]
 190 011c FB71     		strb	r3, [r7, #7]
 191              		.loc 1 70 0
 192 011e 86E7     		b	.L10
 193              		.cfi_endproc
 194              	.LFE29:
 195              		.size	main, .-main
 196              		.text
 197              	.Letext0: