ARM GAS  C:\Users\bryan.lee\AppData\Local\Temp\ccDqoJhc.s 			page 1


   1              		.syntax unified
   2              		.cpu cortex-m0
   3              		.fpu softvfp
   4              		.eabi_attribute 20, 1
   5              		.eabi_attribute 21, 1
   6              		.eabi_attribute 23, 3
   7              		.eabi_attribute 24, 1
   8              		.eabi_attribute 25, 1
   9              		.eabi_attribute 26, 1
  10              		.eabi_attribute 30, 1
  11              		.eabi_attribute 34, 0
  12              		.eabi_attribute 18, 4
  13              		.thumb
  14              		.syntax unified
  15              		.file	"BLE.c"
  16              		.text
  17              	.Ltext0:
  18              		.cfi_sections	.debug_frame
  19              		.section	.text.CyBle_ServiceInit,"ax",%progbits
  20              		.align	2
  21              		.global	CyBle_ServiceInit
  22              		.code	16
  23              		.thumb_func
  24              		.type	CyBle_ServiceInit, %function
  25              	CyBle_ServiceInit:
  26              	.LFB3:
  27              		.file 1 "Generated_Source\\PSoC4\\BLE.c"
   1:Generated_Source\PSoC4/BLE.c **** /***************************************************************************//**
   2:Generated_Source\PSoC4/BLE.c **** * \file CYBLE.c
   3:Generated_Source\PSoC4/BLE.c **** * \version 3.50
   4:Generated_Source\PSoC4/BLE.c **** * 
   5:Generated_Source\PSoC4/BLE.c **** * \brief
   6:Generated_Source\PSoC4/BLE.c **** *  This file contains the source code for the Common APIs of the BLE Component.
   7:Generated_Source\PSoC4/BLE.c **** * 
   8:Generated_Source\PSoC4/BLE.c **** ********************************************************************************
   9:Generated_Source\PSoC4/BLE.c **** * \copyright
  10:Generated_Source\PSoC4/BLE.c **** * Copyright 2014-2018, Cypress Semiconductor Corporation.  All rights reserved.
  11:Generated_Source\PSoC4/BLE.c **** * You may use this file only in accordance with the license, terms, conditions,
  12:Generated_Source\PSoC4/BLE.c **** * disclaimers, and limitations in the end user license agreement accompanying
  13:Generated_Source\PSoC4/BLE.c **** * the software package with which this file was provided.
  14:Generated_Source\PSoC4/BLE.c **** *******************************************************************************/
  15:Generated_Source\PSoC4/BLE.c **** 
  16:Generated_Source\PSoC4/BLE.c **** #include "BLE_eventHandler.h"
  17:Generated_Source\PSoC4/BLE.c **** #include "BLE_HAL_PVT.h"
  18:Generated_Source\PSoC4/BLE.c **** #include <stdlib.h>
  19:Generated_Source\PSoC4/BLE.c **** 
  20:Generated_Source\PSoC4/BLE.c **** 
  21:Generated_Source\PSoC4/BLE.c **** /***************************************
  22:Generated_Source\PSoC4/BLE.c **** * Function Prototypes
  23:Generated_Source\PSoC4/BLE.c **** ***************************************/
  24:Generated_Source\PSoC4/BLE.c **** 
  25:Generated_Source\PSoC4/BLE.c **** #if(CYBLE_GATT_ROLE_SERVER)
  26:Generated_Source\PSoC4/BLE.c ****     #if(CYBLE_GAP_ROLE_PERIPHERAL)
  27:Generated_Source\PSoC4/BLE.c ****         static void CyBle_ChangeAdLocalName(const char8 name[], uint8 dest);
  28:Generated_Source\PSoC4/BLE.c ****     #endif /* (CYBLE_GAP_ROLE_PERIPHERAL) */
  29:Generated_Source\PSoC4/BLE.c **** #endif /* (CYBLE_GATT_ROLE_SERVER) */
  30:Generated_Source\PSoC4/BLE.c ****     
ARM GAS  C:\Users\bryan.lee\AppData\Local\Temp\ccDqoJhc.s 			page 2


  31:Generated_Source\PSoC4/BLE.c **** 
  32:Generated_Source\PSoC4/BLE.c **** /***************************************
  33:Generated_Source\PSoC4/BLE.c **** * Global Variables
  34:Generated_Source\PSoC4/BLE.c **** ***************************************/
  35:Generated_Source\PSoC4/BLE.c **** 
  36:Generated_Source\PSoC4/BLE.c **** /* Indicates whether the BLE has been initialized. The variable is initialized to
  37:Generated_Source\PSoC4/BLE.c ****    0 and set to 1 the first time CyBle_Start() is called. This allows the component
  38:Generated_Source\PSoC4/BLE.c ****    to restart without reinitialization after the first call to the CyBle_Start() 
  39:Generated_Source\PSoC4/BLE.c ****    routine. If reinitialization of the component is required, the variable should 
  40:Generated_Source\PSoC4/BLE.c ****    be set to 0 before the CyBle_Start() routine is called. Alternatively, the BLE
  41:Generated_Source\PSoC4/BLE.c ****    can be reinitialized by calling the CyBle_Init() function.
  42:Generated_Source\PSoC4/BLE.c **** */
  43:Generated_Source\PSoC4/BLE.c **** uint8  cyBle_initVar = 0u;
  44:Generated_Source\PSoC4/BLE.c **** 
  45:Generated_Source\PSoC4/BLE.c **** /* Allocate RAM memory for stack. This buffer could be reused by application when 
  46:Generated_Source\PSoC4/BLE.c ****    BLE component is stopped. For export mode buffer is allocated in heap.
  47:Generated_Source\PSoC4/BLE.c **** */
  48:Generated_Source\PSoC4/BLE.c **** #if(CYBLE_SHARING_MODE_EXPORT)
  49:Generated_Source\PSoC4/BLE.c ****     
  50:Generated_Source\PSoC4/BLE.c **** uint8 *cyBle_stackMemoryRam = NULL;
  51:Generated_Source\PSoC4/BLE.c **** 
  52:Generated_Source\PSoC4/BLE.c **** #else
  53:Generated_Source\PSoC4/BLE.c **** 
  54:Generated_Source\PSoC4/BLE.c **** CYBLE_CYALIGNED_BEGIN CY_NOINIT uint8 cyBle_stackMemoryRam[CYBLE_STACK_RAM_SIZE] CYBLE_CYALIGNED_EN
  55:Generated_Source\PSoC4/BLE.c **** 
  56:Generated_Source\PSoC4/BLE.c **** #endif  /* CYBLE_SHARING_MODE_EXPORT */
  57:Generated_Source\PSoC4/BLE.c **** 
  58:Generated_Source\PSoC4/BLE.c **** #if(CYBLE_GAP_ROLE_PERIPHERAL || CYBLE_GAP_ROLE_BROADCASTER)
  59:Generated_Source\PSoC4/BLE.c **** 
  60:Generated_Source\PSoC4/BLE.c **** 
  61:Generated_Source\PSoC4/BLE.c **** 
  62:Generated_Source\PSoC4/BLE.c **** #endif /* CYBLE_GAP_ROLE_PERIPHERAL || CYBLE_GAP_ROLE_BROADCASTER */
  63:Generated_Source\PSoC4/BLE.c **** 
  64:Generated_Source\PSoC4/BLE.c **** #if(CYBLE_GAP_ROLE_CENTRAL)
  65:Generated_Source\PSoC4/BLE.c ****     
  66:Generated_Source\PSoC4/BLE.c **** CYBLE_GAPC_CONN_PARAM_T cyBle_connectionParameters;
  67:Generated_Source\PSoC4/BLE.c **** 
  68:Generated_Source\PSoC4/BLE.c **** /* Connecting timeout is set to 30 seconds in CyBle_Init function. 
  69:Generated_Source\PSoC4/BLE.c ****    Not zero value starts timer in CyBle_GapcConnectDevice() API fucntion.
  70:Generated_Source\PSoC4/BLE.c **** */
  71:Generated_Source\PSoC4/BLE.c **** uint16 cyBle_connectingTimeout;
  72:Generated_Source\PSoC4/BLE.c ****     
  73:Generated_Source\PSoC4/BLE.c **** #endif /* CYBLE_GAP_ROLE_CENTRAL */
  74:Generated_Source\PSoC4/BLE.c **** 
  75:Generated_Source\PSoC4/BLE.c **** #if(CYBLE_GAP_ROLE_CENTRAL || CYBLE_GAP_ROLE_OBSERVER)
  76:Generated_Source\PSoC4/BLE.c ****     
  77:Generated_Source\PSoC4/BLE.c **** /* This variable of type CYBLE_GAPC_DISC_INFO_T is present only when  
  78:Generated_Source\PSoC4/BLE.c ****    the BLE component is configured for Central GAP role or Central and  
  79:Generated_Source\PSoC4/BLE.c ****    Peripheral GAP role. It contains the Scan settings entered in the  
  80:Generated_Source\PSoC4/BLE.c ****    customizer. This variable can be used by advanced users to change Scan  
  81:Generated_Source\PSoC4/BLE.c ****    settings in runtime.
  82:Generated_Source\PSoC4/BLE.c **** */
  83:Generated_Source\PSoC4/BLE.c **** CYBLE_GAPC_DISC_INFO_T cyBle_discoveryInfo =
  84:Generated_Source\PSoC4/BLE.c **** {
  85:Generated_Source\PSoC4/BLE.c ****     0x02u,      /* discProcedure */
  86:Generated_Source\PSoC4/BLE.c ****     0x01u,      /* scanType */
  87:Generated_Source\PSoC4/BLE.c ****     0x0030u,    /* scanInterval */
ARM GAS  C:\Users\bryan.lee\AppData\Local\Temp\ccDqoJhc.s 			page 3


  88:Generated_Source\PSoC4/BLE.c ****     0x0030u,    /* scanWindow */
  89:Generated_Source\PSoC4/BLE.c ****     0x00u,      /* ownAddrType */
  90:Generated_Source\PSoC4/BLE.c ****     0x00u,      /* scanFilterPolicy */
  91:Generated_Source\PSoC4/BLE.c ****     0x001Eu,    /* scanTO */
  92:Generated_Source\PSoC4/BLE.c ****     0x00u,      /* filterDuplicates */
  93:Generated_Source\PSoC4/BLE.c **** };
  94:Generated_Source\PSoC4/BLE.c ****     
  95:Generated_Source\PSoC4/BLE.c **** #endif /* CYBLE_GAP_ROLE_CENTRAL || CYBLE_GAP_ROLE_OBSERVER */
  96:Generated_Source\PSoC4/BLE.c **** 
  97:Generated_Source\PSoC4/BLE.c **** #if((CYBLE_GAP_ROLE_PERIPHERAL || CYBLE_GAP_ROLE_CENTRAL) && (CYBLE_BONDING_REQUIREMENT == CYBLE_BO
  98:Generated_Source\PSoC4/BLE.c **** 
  99:Generated_Source\PSoC4/BLE.c **** uint8 cyBle_peerBonding;
 100:Generated_Source\PSoC4/BLE.c **** uint8 cyBle_pendingFlashWrite;
 101:Generated_Source\PSoC4/BLE.c ****     
 102:Generated_Source\PSoC4/BLE.c **** #if(CYBLE_GATT_DB_CCCD_COUNT != 0u)
 103:Generated_Source\PSoC4/BLE.c ****     static uint8 cyBle_pendingFlashClearCccdHandle;
 104:Generated_Source\PSoC4/BLE.c **** #endif /* CYBLE_GATT_DB_CCCD_COUNT != 0u */
 105:Generated_Source\PSoC4/BLE.c ****     
 106:Generated_Source\PSoC4/BLE.c **** #endif  /* (CYBLE_BONDING_REQUIREMENT == CYBLE_BONDING_YES) */
 107:Generated_Source\PSoC4/BLE.c **** 
 108:Generated_Source\PSoC4/BLE.c **** CYBLE_CALLBACK_T CyBle_ApplCallback;
 109:Generated_Source\PSoC4/BLE.c **** CYBLE_GAP_BD_ADDR_T cyBle_deviceAddress = {{0x00u, 0x00u, 0x00u, 0x50u, 0xA0u, 0x00u}, 0x00u };
 110:Generated_Source\PSoC4/BLE.c **** CYBLE_GAP_BD_ADDR_T * cyBle_sflashDeviceAddress = CYBLE_SFLASH_DEVICE_ADDRESS_PTR;
 111:Generated_Source\PSoC4/BLE.c **** 
 112:Generated_Source\PSoC4/BLE.c **** 
 113:Generated_Source\PSoC4/BLE.c **** /******************************************************************************
 114:Generated_Source\PSoC4/BLE.c **** * Function Name: CyBle_Init
 115:Generated_Source\PSoC4/BLE.c **** ***************************************************************************//**
 116:Generated_Source\PSoC4/BLE.c **** *
 117:Generated_Source\PSoC4/BLE.c **** *   Initializes the component with the parameters set in the customizer.
 118:Generated_Source\PSoC4/BLE.c **** * 
 119:Generated_Source\PSoC4/BLE.c **** *  \return
 120:Generated_Source\PSoC4/BLE.c **** *   None
 121:Generated_Source\PSoC4/BLE.c **** * 
 122:Generated_Source\PSoC4/BLE.c **** ******************************************************************************/
 123:Generated_Source\PSoC4/BLE.c **** void CyBle_Init(void)
 124:Generated_Source\PSoC4/BLE.c **** {
 125:Generated_Source\PSoC4/BLE.c ****     cyBle_eventHandlerFlag = 0u;
 126:Generated_Source\PSoC4/BLE.c ****     cyBle_busyStatus = CYBLE_STACK_STATE_FREE;
 127:Generated_Source\PSoC4/BLE.c **** 
 128:Generated_Source\PSoC4/BLE.c ****     #if(CYBLE_GAP_ROLE_PERIPHERAL || CYBLE_GAP_ROLE_BROADCASTER) 
 129:Generated_Source\PSoC4/BLE.c ****         cyBle_advertisingIntervalType = CYBLE_ADVERTISING_FAST; 
 130:Generated_Source\PSoC4/BLE.c ****     #endif /* (CYBLE_GAP_ROLE_PERIPHERAL || CYBLE_GAP_ROLE_BROADCASTER)  */
 131:Generated_Source\PSoC4/BLE.c ****     #if(CYBLE_GAP_ROLE_CENTRAL || CYBLE_GAP_ROLE_OBSERVER)
 132:Generated_Source\PSoC4/BLE.c ****         cyBle_scanningIntervalType = CYBLE_SCANNING_FAST; 
 133:Generated_Source\PSoC4/BLE.c ****     #endif /* (CYBLE_GAP_ROLE_CENTRAL || CYBLE_GAP_ROLE_OBSERVER) */
 134:Generated_Source\PSoC4/BLE.c ****         
 135:Generated_Source\PSoC4/BLE.c ****     /* Init default connection parameters. 
 136:Generated_Source\PSoC4/BLE.c ****        Application may change it before initiating a connection */
 137:Generated_Source\PSoC4/BLE.c ****     #if(CYBLE_GAP_ROLE_CENTRAL)
 138:Generated_Source\PSoC4/BLE.c ****         cyBle_connectionParameters.scanIntv = cyBle_discoveryInfo.scanIntv;
 139:Generated_Source\PSoC4/BLE.c ****         cyBle_connectionParameters.scanWindow = cyBle_discoveryInfo.scanWindow;
 140:Generated_Source\PSoC4/BLE.c ****         cyBle_connectionParameters.ownAddrType = cyBle_discoveryInfo.ownAddrType;
 141:Generated_Source\PSoC4/BLE.c ****         cyBle_connectionParameters.initiatorFilterPolicy = cyBle_discoveryInfo.scanFilterPolicy;
 142:Generated_Source\PSoC4/BLE.c ****         cyBle_connectionParameters.connIntvMin = CYBLE_GAPC_CONNECTION_INTERVAL_MIN;
 143:Generated_Source\PSoC4/BLE.c ****         cyBle_connectionParameters.connIntvMax = CYBLE_GAPC_CONNECTION_INTERVAL_MAX;
 144:Generated_Source\PSoC4/BLE.c ****         cyBle_connectionParameters.connLatency = CYBLE_GAPC_CONNECTION_SLAVE_LATENCY;
ARM GAS  C:\Users\bryan.lee\AppData\Local\Temp\ccDqoJhc.s 			page 4


 145:Generated_Source\PSoC4/BLE.c ****         cyBle_connectionParameters.supervisionTO = CYBLE_GAPC_CONNECTION_TIME_OUT;
 146:Generated_Source\PSoC4/BLE.c ****         cyBle_connectionParameters.minCeLength = 0x0000u;
 147:Generated_Source\PSoC4/BLE.c ****         cyBle_connectionParameters.maxCeLength = 0xFFFFu;
 148:Generated_Source\PSoC4/BLE.c ****         
 149:Generated_Source\PSoC4/BLE.c ****         cyBle_connectingTimeout = CYBLE_GAPC_CONNECTING_TIMEOUT;
 150:Generated_Source\PSoC4/BLE.c ****     #endif /* CYBLE_GAP_ROLE_CENTRAL */
 151:Generated_Source\PSoC4/BLE.c **** 
 152:Generated_Source\PSoC4/BLE.c ****     CyBle_ServiceInit();
 153:Generated_Source\PSoC4/BLE.c **** 
 154:Generated_Source\PSoC4/BLE.c ****     #if((CYBLE_GAP_ROLE_PERIPHERAL || CYBLE_GAP_ROLE_CENTRAL) && (CYBLE_BONDING_REQUIREMENT == CYBL
 155:Generated_Source\PSoC4/BLE.c ****         cyBle_pendingFlashWrite = 0u;
 156:Generated_Source\PSoC4/BLE.c ****         cyBle_peerBonding = CYBLE_GAP_BONDING_NONE;
 157:Generated_Source\PSoC4/BLE.c ****     #endif  /* (CYBLE_BONDING_REQUIREMENT == CYBLE_BONDING_YES) */
 158:Generated_Source\PSoC4/BLE.c **** 
 159:Generated_Source\PSoC4/BLE.c **** }
 160:Generated_Source\PSoC4/BLE.c **** 
 161:Generated_Source\PSoC4/BLE.c **** 
 162:Generated_Source\PSoC4/BLE.c **** /******************************************************************************
 163:Generated_Source\PSoC4/BLE.c **** * Function Name: CyBle_ServiceInit
 164:Generated_Source\PSoC4/BLE.c **** ***************************************************************************//**
 165:Generated_Source\PSoC4/BLE.c **** * 
 166:Generated_Source\PSoC4/BLE.c **** *  Initializes all included services.
 167:Generated_Source\PSoC4/BLE.c **** * 
 168:Generated_Source\PSoC4/BLE.c **** * \return
 169:Generated_Source\PSoC4/BLE.c **** *  None
 170:Generated_Source\PSoC4/BLE.c **** * 
 171:Generated_Source\PSoC4/BLE.c **** ******************************************************************************/
 172:Generated_Source\PSoC4/BLE.c **** void CyBle_ServiceInit(void)
 173:Generated_Source\PSoC4/BLE.c **** {
  28              		.loc 1 173 0
  29              		.cfi_startproc
  30              		@ args = 0, pretend = 0, frame = 0
  31              		@ frame_needed = 0, uses_anonymous_args = 0
  32 0000 10B5     		push	{r4, lr}
  33              		.cfi_def_cfa_offset 8
  34              		.cfi_offset 4, -8
  35              		.cfi_offset 14, -4
 174:Generated_Source\PSoC4/BLE.c ****     #if(CYBLE_GATT_ROLE_CLIENT)
 175:Generated_Source\PSoC4/BLE.c ****         /* Check service range before clearing to support partial discovery */
 176:Generated_Source\PSoC4/BLE.c ****         if(cyBle_serverInfo[CYBLE_SRVI_GAP].range.startHandle == CYBLE_GATT_INVALID_ATTR_HANDLE_VAL
 177:Generated_Source\PSoC4/BLE.c ****         {
 178:Generated_Source\PSoC4/BLE.c ****             (void)memset(&cyBle_gapc, 0, sizeof(cyBle_gapc));
 179:Generated_Source\PSoC4/BLE.c ****         }
 180:Generated_Source\PSoC4/BLE.c ****         if(cyBle_serverInfo[CYBLE_SRVI_GATT].range.startHandle == CYBLE_GATT_INVALID_ATTR_HANDLE_VA
 181:Generated_Source\PSoC4/BLE.c ****         {
 182:Generated_Source\PSoC4/BLE.c ****             (void)memset(&cyBle_gattc, 0, sizeof(cyBle_gattc));
 183:Generated_Source\PSoC4/BLE.c ****         }
 184:Generated_Source\PSoC4/BLE.c ****     #endif /* CYBLE_GATT_ROLE_CLIENT */
 185:Generated_Source\PSoC4/BLE.c **** 
 186:Generated_Source\PSoC4/BLE.c ****    	#ifdef CYBLE_AIOS
 187:Generated_Source\PSoC4/BLE.c ****         CyBle_AiosInit();
 188:Generated_Source\PSoC4/BLE.c ****     #endif /* CYBLE_AIOS */
 189:Generated_Source\PSoC4/BLE.c **** 
 190:Generated_Source\PSoC4/BLE.c **** 	#ifdef CYBLE_ANCS
 191:Generated_Source\PSoC4/BLE.c ****         CyBle_AncsInit();
 192:Generated_Source\PSoC4/BLE.c ****     #endif /* CYBLE_ANCS */
 193:Generated_Source\PSoC4/BLE.c **** 	
ARM GAS  C:\Users\bryan.lee\AppData\Local\Temp\ccDqoJhc.s 			page 5


 194:Generated_Source\PSoC4/BLE.c ****     #ifdef CYBLE_ANS
 195:Generated_Source\PSoC4/BLE.c ****         CyBle_AnsInit();
  36              		.loc 1 195 0
  37 0002 FFF7FEFF 		bl	CyBle_AnsInit
  38              	.LVL0:
 196:Generated_Source\PSoC4/BLE.c ****     #endif /* CYBLE_ANS */
 197:Generated_Source\PSoC4/BLE.c ****     
 198:Generated_Source\PSoC4/BLE.c ****     #ifdef CYBLE_BAS
 199:Generated_Source\PSoC4/BLE.c ****         CyBle_BasInit();
 200:Generated_Source\PSoC4/BLE.c ****     #endif /* CYBLE_BAS */
 201:Generated_Source\PSoC4/BLE.c ****     
 202:Generated_Source\PSoC4/BLE.c ****     #ifdef CYBLE_BCS
 203:Generated_Source\PSoC4/BLE.c ****         CyBle_BcsInit();
 204:Generated_Source\PSoC4/BLE.c ****     #endif /* CYBLE_BCS */
 205:Generated_Source\PSoC4/BLE.c **** 
 206:Generated_Source\PSoC4/BLE.c ****     #ifdef CYBLE_BLS
 207:Generated_Source\PSoC4/BLE.c ****         CyBle_BlsInit();
 208:Generated_Source\PSoC4/BLE.c ****     #endif /* CYBLE_BLS */
 209:Generated_Source\PSoC4/BLE.c ****     
 210:Generated_Source\PSoC4/BLE.c ****     #ifdef CYBLE_BMS
 211:Generated_Source\PSoC4/BLE.c ****         CyBle_BmsInit();
 212:Generated_Source\PSoC4/BLE.c ****     #endif /* CYBLE_BMS */
 213:Generated_Source\PSoC4/BLE.c ****     
 214:Generated_Source\PSoC4/BLE.c ****     #ifdef CYBLE_CGMS
 215:Generated_Source\PSoC4/BLE.c ****         CyBle_CgmsInit();
 216:Generated_Source\PSoC4/BLE.c ****     #endif /* CYBLE_CGMS */
 217:Generated_Source\PSoC4/BLE.c **** 
 218:Generated_Source\PSoC4/BLE.c ****     #ifdef CYBLE_CPS
 219:Generated_Source\PSoC4/BLE.c ****         CyBle_CpsInit();
 220:Generated_Source\PSoC4/BLE.c ****     #endif /* CYBLE_CPS */
 221:Generated_Source\PSoC4/BLE.c **** 
 222:Generated_Source\PSoC4/BLE.c ****     #ifdef CYBLE_CSCS
 223:Generated_Source\PSoC4/BLE.c ****         CyBle_CscsInit();
 224:Generated_Source\PSoC4/BLE.c ****     #endif /* CYBLE_CSCS */
 225:Generated_Source\PSoC4/BLE.c ****     
 226:Generated_Source\PSoC4/BLE.c ****     #ifdef CYBLE_CTS
 227:Generated_Source\PSoC4/BLE.c ****         CyBle_CtsInit();
 228:Generated_Source\PSoC4/BLE.c ****     #endif /* CYBLE_CTS */
 229:Generated_Source\PSoC4/BLE.c **** 
 230:Generated_Source\PSoC4/BLE.c ****     #ifdef CYBLE_CUSTOM
 231:Generated_Source\PSoC4/BLE.c ****         CyBle_CustomInit();
 232:Generated_Source\PSoC4/BLE.c ****     #endif /* CYBLE_CUSTOM */
 233:Generated_Source\PSoC4/BLE.c **** 
 234:Generated_Source\PSoC4/BLE.c ****     #ifdef CYBLE_DIS
 235:Generated_Source\PSoC4/BLE.c ****         CyBle_DisInit();
 236:Generated_Source\PSoC4/BLE.c ****     #endif /* CYBLE_DIS */
 237:Generated_Source\PSoC4/BLE.c **** 
 238:Generated_Source\PSoC4/BLE.c ****     #ifdef CYBLE_ESS
 239:Generated_Source\PSoC4/BLE.c ****         CyBle_EssInit();
 240:Generated_Source\PSoC4/BLE.c ****     #endif /* CYBLE_ESS */
 241:Generated_Source\PSoC4/BLE.c ****     
 242:Generated_Source\PSoC4/BLE.c ****     #ifdef CYBLE_GLS
 243:Generated_Source\PSoC4/BLE.c ****         CyBle_GlsInit();
 244:Generated_Source\PSoC4/BLE.c ****     #endif /* CYBLE_GLS */
 245:Generated_Source\PSoC4/BLE.c ****     
 246:Generated_Source\PSoC4/BLE.c ****     #ifdef CYBLE_HIDS
 247:Generated_Source\PSoC4/BLE.c ****         CyBle_HidsInit();
ARM GAS  C:\Users\bryan.lee\AppData\Local\Temp\ccDqoJhc.s 			page 6


 248:Generated_Source\PSoC4/BLE.c ****     #endif /* CYBLE_HIDS */
 249:Generated_Source\PSoC4/BLE.c **** 
 250:Generated_Source\PSoC4/BLE.c ****     #ifdef CYBLE_HPS
 251:Generated_Source\PSoC4/BLE.c ****         CyBle_HpsInit();
 252:Generated_Source\PSoC4/BLE.c ****     #endif /* CYBLE_HPS */
 253:Generated_Source\PSoC4/BLE.c **** 
 254:Generated_Source\PSoC4/BLE.c ****     #ifdef CYBLE_HRS
 255:Generated_Source\PSoC4/BLE.c ****         CyBle_HrsInit();
 256:Generated_Source\PSoC4/BLE.c ****     #endif /* CYBLE_HRS */
 257:Generated_Source\PSoC4/BLE.c ****     
 258:Generated_Source\PSoC4/BLE.c ****     #ifdef CYBLE_HTS
 259:Generated_Source\PSoC4/BLE.c ****         CyBle_HtsInit();
 260:Generated_Source\PSoC4/BLE.c ****     #endif /* CYBLE_RSCS */
 261:Generated_Source\PSoC4/BLE.c **** 
 262:Generated_Source\PSoC4/BLE.c ****     #ifdef CYBLE_IAS
 263:Generated_Source\PSoC4/BLE.c ****         CyBle_IasInit();
 264:Generated_Source\PSoC4/BLE.c ****     #endif /* CYBLE_IAS */
 265:Generated_Source\PSoC4/BLE.c **** 
 266:Generated_Source\PSoC4/BLE.c ****     #ifdef CYBLE_IPS
 267:Generated_Source\PSoC4/BLE.c ****         CyBle_IpsInit();
 268:Generated_Source\PSoC4/BLE.c ****     #endif /* CYBLE_IPS */
 269:Generated_Source\PSoC4/BLE.c ****     
 270:Generated_Source\PSoC4/BLE.c ****     #ifdef CYBLE_LLS
 271:Generated_Source\PSoC4/BLE.c ****         CyBle_LlsInit();
 272:Generated_Source\PSoC4/BLE.c ****     #endif /* CYBLE_LLS */
 273:Generated_Source\PSoC4/BLE.c **** 
 274:Generated_Source\PSoC4/BLE.c ****     #ifdef CYBLE_LNS
 275:Generated_Source\PSoC4/BLE.c ****         CyBle_LnsInit();
 276:Generated_Source\PSoC4/BLE.c ****     #endif /* CYBLE_LNS */
 277:Generated_Source\PSoC4/BLE.c ****     
 278:Generated_Source\PSoC4/BLE.c ****     #ifdef CYBLE_NDCS
 279:Generated_Source\PSoC4/BLE.c ****         CyBle_NdcsInit();
 280:Generated_Source\PSoC4/BLE.c ****     #endif /* CYBLE_NDCS */
 281:Generated_Source\PSoC4/BLE.c ****     
 282:Generated_Source\PSoC4/BLE.c ****     #ifdef CYBLE_PASS
 283:Generated_Source\PSoC4/BLE.c ****         CyBle_PassInit();
 284:Generated_Source\PSoC4/BLE.c ****     #endif /* CYBLE_PASS */
 285:Generated_Source\PSoC4/BLE.c ****     
 286:Generated_Source\PSoC4/BLE.c ****     #ifdef CYBLE_PLXS
 287:Generated_Source\PSoC4/BLE.c ****         CyBle_PlxsInit();
 288:Generated_Source\PSoC4/BLE.c ****     #endif /* CYBLE_PLXS */
 289:Generated_Source\PSoC4/BLE.c ****     
 290:Generated_Source\PSoC4/BLE.c ****     #ifdef CYBLE_RSCS
 291:Generated_Source\PSoC4/BLE.c ****         CyBle_RscsInit();
 292:Generated_Source\PSoC4/BLE.c ****     #endif /* CYBLE_RSCS */
 293:Generated_Source\PSoC4/BLE.c **** 
 294:Generated_Source\PSoC4/BLE.c ****     #ifdef CYBLE_RTUS
 295:Generated_Source\PSoC4/BLE.c ****         CyBle_RtusInit();
 296:Generated_Source\PSoC4/BLE.c ****     #endif /* CYBLE_RTUS */
 297:Generated_Source\PSoC4/BLE.c **** 
 298:Generated_Source\PSoC4/BLE.c ****     #ifdef CYBLE_SCPS
 299:Generated_Source\PSoC4/BLE.c ****         CyBle_ScpsInit();
 300:Generated_Source\PSoC4/BLE.c ****     #endif /* CYBLE_SCPS */
 301:Generated_Source\PSoC4/BLE.c ****     
 302:Generated_Source\PSoC4/BLE.c ****     #ifdef CYBLE_TPS
 303:Generated_Source\PSoC4/BLE.c ****         CyBle_TpsInit();
 304:Generated_Source\PSoC4/BLE.c ****     #endif /* CYBLE_TPS */
ARM GAS  C:\Users\bryan.lee\AppData\Local\Temp\ccDqoJhc.s 			page 7


 305:Generated_Source\PSoC4/BLE.c ****     
 306:Generated_Source\PSoC4/BLE.c ****     #ifdef CYBLE_UDS
 307:Generated_Source\PSoC4/BLE.c ****         CyBle_UdsInit();
 308:Generated_Source\PSoC4/BLE.c ****     #endif /* CYBLE_UDS */
 309:Generated_Source\PSoC4/BLE.c **** 
 310:Generated_Source\PSoC4/BLE.c ****     #ifdef CYBLE_WPTS
 311:Generated_Source\PSoC4/BLE.c ****         CyBle_WptsInit();
 312:Generated_Source\PSoC4/BLE.c ****     #endif /* CYBLE_WPTS */
 313:Generated_Source\PSoC4/BLE.c **** 
 314:Generated_Source\PSoC4/BLE.c ****     #ifdef CYBLE_WSS
 315:Generated_Source\PSoC4/BLE.c ****         CyBle_WssInit();
 316:Generated_Source\PSoC4/BLE.c ****     #endif /* CYBLE_WSS */
 317:Generated_Source\PSoC4/BLE.c **** }
  39              		.loc 1 317 0
  40              		@ sp needed
  41 0006 10BD     		pop	{r4, pc}
  42              		.cfi_endproc
  43              	.LFE3:
  44              		.size	CyBle_ServiceInit, .-CyBle_ServiceInit
  45              		.section	.text.CyBle_Init,"ax",%progbits
  46              		.align	2
  47              		.global	CyBle_Init
  48              		.code	16
  49              		.thumb_func
  50              		.type	CyBle_Init, %function
  51              	CyBle_Init:
  52              	.LFB2:
 124:Generated_Source\PSoC4/BLE.c ****     cyBle_eventHandlerFlag = 0u;
  53              		.loc 1 124 0
  54              		.cfi_startproc
  55              		@ args = 0, pretend = 0, frame = 0
  56              		@ frame_needed = 0, uses_anonymous_args = 0
  57 0000 10B5     		push	{r4, lr}
  58              		.cfi_def_cfa_offset 8
  59              		.cfi_offset 4, -8
  60              		.cfi_offset 14, -4
 125:Generated_Source\PSoC4/BLE.c ****     cyBle_busyStatus = CYBLE_STACK_STATE_FREE;
  61              		.loc 1 125 0
  62 0002 0022     		movs	r2, #0
  63 0004 124B     		ldr	r3, .L3
  64 0006 1A70     		strb	r2, [r3]
 126:Generated_Source\PSoC4/BLE.c **** 
  65              		.loc 1 126 0
  66 0008 124B     		ldr	r3, .L3+4
  67 000a 1A70     		strb	r2, [r3]
 132:Generated_Source\PSoC4/BLE.c ****     #endif /* (CYBLE_GAP_ROLE_CENTRAL || CYBLE_GAP_ROLE_OBSERVER) */
  68              		.loc 1 132 0
  69 000c 124B     		ldr	r3, .L3+8
  70 000e 1A70     		strb	r2, [r3]
 138:Generated_Source\PSoC4/BLE.c ****         cyBle_connectionParameters.scanWindow = cyBle_discoveryInfo.scanWindow;
  71              		.loc 1 138 0
  72 0010 1249     		ldr	r1, .L3+12
  73 0012 4888     		ldrh	r0, [r1, #2]
  74 0014 124B     		ldr	r3, .L3+16
  75 0016 1880     		strh	r0, [r3]
 139:Generated_Source\PSoC4/BLE.c ****         cyBle_connectionParameters.ownAddrType = cyBle_discoveryInfo.ownAddrType;
  76              		.loc 1 139 0
ARM GAS  C:\Users\bryan.lee\AppData\Local\Temp\ccDqoJhc.s 			page 8


  77 0018 8888     		ldrh	r0, [r1, #4]
  78 001a 5880     		strh	r0, [r3, #2]
 140:Generated_Source\PSoC4/BLE.c ****         cyBle_connectionParameters.initiatorFilterPolicy = cyBle_discoveryInfo.scanFilterPolicy;
  79              		.loc 1 140 0
  80 001c 8879     		ldrb	r0, [r1, #6]
  81 001e 1873     		strb	r0, [r3, #12]
 141:Generated_Source\PSoC4/BLE.c ****         cyBle_connectionParameters.connIntvMin = CYBLE_GAPC_CONNECTION_INTERVAL_MIN;
  82              		.loc 1 141 0
  83 0020 C979     		ldrb	r1, [r1, #7]
  84 0022 1971     		strb	r1, [r3, #4]
 142:Generated_Source\PSoC4/BLE.c ****         cyBle_connectionParameters.connIntvMax = CYBLE_GAPC_CONNECTION_INTERVAL_MAX;
  85              		.loc 1 142 0
  86 0024 0621     		movs	r1, #6
  87 0026 D981     		strh	r1, [r3, #14]
 143:Generated_Source\PSoC4/BLE.c ****         cyBle_connectionParameters.connLatency = CYBLE_GAPC_CONNECTION_SLAVE_LATENCY;
  88              		.loc 1 143 0
  89 0028 2231     		adds	r1, r1, #34
  90 002a 1982     		strh	r1, [r3, #16]
 144:Generated_Source\PSoC4/BLE.c ****         cyBle_connectionParameters.supervisionTO = CYBLE_GAPC_CONNECTION_TIME_OUT;
  91              		.loc 1 144 0
  92 002c 0024     		movs	r4, #0
  93 002e 5A82     		strh	r2, [r3, #18]
 145:Generated_Source\PSoC4/BLE.c ****         cyBle_connectionParameters.minCeLength = 0x0000u;
  94              		.loc 1 145 0
  95 0030 FA21     		movs	r1, #250
  96 0032 8900     		lsls	r1, r1, #2
  97 0034 9982     		strh	r1, [r3, #20]
 146:Generated_Source\PSoC4/BLE.c ****         cyBle_connectionParameters.maxCeLength = 0xFFFFu;
  98              		.loc 1 146 0
  99 0036 DA82     		strh	r2, [r3, #22]
 147:Generated_Source\PSoC4/BLE.c ****         
 100              		.loc 1 147 0
 101 0038 013A     		subs	r2, r2, #1
 102 003a 1A83     		strh	r2, [r3, #24]
 149:Generated_Source\PSoC4/BLE.c ****     #endif /* CYBLE_GAP_ROLE_CENTRAL */
 103              		.loc 1 149 0
 104 003c 1F32     		adds	r2, r2, #31
 105 003e 094B     		ldr	r3, .L3+20
 106 0040 1A80     		strh	r2, [r3]
 152:Generated_Source\PSoC4/BLE.c **** 
 107              		.loc 1 152 0
 108 0042 FFF7FEFF 		bl	CyBle_ServiceInit
 109              	.LVL1:
 155:Generated_Source\PSoC4/BLE.c ****         cyBle_peerBonding = CYBLE_GAP_BONDING_NONE;
 110              		.loc 1 155 0
 111 0046 084B     		ldr	r3, .L3+24
 112 0048 1C70     		strb	r4, [r3]
 156:Generated_Source\PSoC4/BLE.c ****     #endif  /* (CYBLE_BONDING_REQUIREMENT == CYBLE_BONDING_YES) */
 113              		.loc 1 156 0
 114 004a 084B     		ldr	r3, .L3+28
 115 004c 1C70     		strb	r4, [r3]
 159:Generated_Source\PSoC4/BLE.c **** 
 116              		.loc 1 159 0
 117              		@ sp needed
 118 004e 10BD     		pop	{r4, pc}
 119              	.L4:
 120              		.align	2
ARM GAS  C:\Users\bryan.lee\AppData\Local\Temp\ccDqoJhc.s 			page 9


 121              	.L3:
 122 0050 00000000 		.word	cyBle_eventHandlerFlag
 123 0054 00000000 		.word	cyBle_busyStatus
 124 0058 00000000 		.word	cyBle_scanningIntervalType
 125 005c 00000000 		.word	.LANCHOR0
 126 0060 00000000 		.word	cyBle_connectionParameters
 127 0064 00000000 		.word	cyBle_connectingTimeout
 128 0068 00000000 		.word	cyBle_pendingFlashWrite
 129 006c 00000000 		.word	cyBle_peerBonding
 130              		.cfi_endproc
 131              	.LFE2:
 132              		.size	CyBle_Init, .-CyBle_Init
 133              		.section	.text.CyBle_Start,"ax",%progbits
 134              		.align	2
 135              		.global	CyBle_Start
 136              		.code	16
 137              		.thumb_func
 138              		.type	CyBle_Start, %function
 139              	CyBle_Start:
 140              	.LFB4:
 318:Generated_Source\PSoC4/BLE.c **** 
 319:Generated_Source\PSoC4/BLE.c **** 
 320:Generated_Source\PSoC4/BLE.c **** /******************************************************************************
 321:Generated_Source\PSoC4/BLE.c **** * Function Name: CyBle_Start
 322:Generated_Source\PSoC4/BLE.c **** ***************************************************************************//**
 323:Generated_Source\PSoC4/BLE.c **** * 
 324:Generated_Source\PSoC4/BLE.c **** *  This function initializes the BLE Stack, which consists of the BLE Stack 
 325:Generated_Source\PSoC4/BLE.c **** *  Manager, BLE Controller, and BLE Host modules. It takes care of initializing
 326:Generated_Source\PSoC4/BLE.c **** *  the Profile layer, schedulers, Timer and other platform related
 327:Generated_Source\PSoC4/BLE.c **** *  resources required for the BLE component. It also registers the callback 
 328:Generated_Source\PSoC4/BLE.c **** *  function for BLE events that will be registered in the BLE stack.
 329:Generated_Source\PSoC4/BLE.c **** * 
 330:Generated_Source\PSoC4/BLE.c **** *  Note that this function does not reset the BLE Stack.
 331:Generated_Source\PSoC4/BLE.c **** * 
 332:Generated_Source\PSoC4/BLE.c **** *  For HCI-Mode of operation, this function will not initialize the BLE Host 
 333:Generated_Source\PSoC4/BLE.c **** *  module.
 334:Generated_Source\PSoC4/BLE.c **** * 
 335:Generated_Source\PSoC4/BLE.c **** *  Calling this function results in the generation of CYBLE_EVT_STACK_ON event
 336:Generated_Source\PSoC4/BLE.c **** *  on successful initialization of the BLE Stack.
 337:Generated_Source\PSoC4/BLE.c **** * 
 338:Generated_Source\PSoC4/BLE.c **** *  \param callbackFunc: Event callback function to receive events from BLE stack.
 339:Generated_Source\PSoC4/BLE.c **** *   CYBLE_CALLBACK_T is a function pointer type.
 340:Generated_Source\PSoC4/BLE.c **** * 
 341:Generated_Source\PSoC4/BLE.c **** * \return
 342:Generated_Source\PSoC4/BLE.c **** *  CYBLE_API_RESULT_T : Return value indicates if the function succeeded or 
 343:Generated_Source\PSoC4/BLE.c **** *  failed. Following are the possible error codes.
 344:Generated_Source\PSoC4/BLE.c **** * 
 345:Generated_Source\PSoC4/BLE.c **** *   <table>
 346:Generated_Source\PSoC4/BLE.c **** *  	  <tr>
 347:Generated_Source\PSoC4/BLE.c **** *       <th>Error codes</th>
 348:Generated_Source\PSoC4/BLE.c **** *       <th>Description</th>
 349:Generated_Source\PSoC4/BLE.c **** *     </tr>
 350:Generated_Source\PSoC4/BLE.c **** *     <tr>
 351:Generated_Source\PSoC4/BLE.c **** *       <td>CYBLE_ERROR_OK</td>
 352:Generated_Source\PSoC4/BLE.c **** *       <td>On successful operation.</td>
 353:Generated_Source\PSoC4/BLE.c **** *     </tr>
 354:Generated_Source\PSoC4/BLE.c **** *     <tr>
ARM GAS  C:\Users\bryan.lee\AppData\Local\Temp\ccDqoJhc.s 			page 10


 355:Generated_Source\PSoC4/BLE.c **** *       <td>CYBLE_ERROR_INVALID_PARAMETER</td>
 356:Generated_Source\PSoC4/BLE.c **** *       <td>On passing a NULL pointer to the function. 
 357:Generated_Source\PSoC4/BLE.c **** *		</td>
 358:Generated_Source\PSoC4/BLE.c **** *     </tr>
 359:Generated_Source\PSoC4/BLE.c **** *     <tr>
 360:Generated_Source\PSoC4/BLE.c **** *       <td>CYBLE_ERROR_REPEATED_ATTEMPTS</td>
 361:Generated_Source\PSoC4/BLE.c **** *       <td>On invoking this function more than once without calling CyBle_Shutdown() 
 362:Generated_Source\PSoC4/BLE.c **** *           function between calls to this function.</td>
 363:Generated_Source\PSoC4/BLE.c **** *     </tr>
 364:Generated_Source\PSoC4/BLE.c **** *     <tr>
 365:Generated_Source\PSoC4/BLE.c **** *       <td>CYBLE_ERROR_MEMORY_ALLOCATION_FAILED</td>
 366:Generated_Source\PSoC4/BLE.c **** *       <td>There is insufficient memory available.</td>
 367:Generated_Source\PSoC4/BLE.c **** *     </tr>
 368:Generated_Source\PSoC4/BLE.c **** *   </table>
 369:Generated_Source\PSoC4/BLE.c **** * 
 370:Generated_Source\PSoC4/BLE.c **** *  \globalvars
 371:Generated_Source\PSoC4/BLE.c **** *   The CyBle_initVar variable is used to indicate initial
 372:Generated_Source\PSoC4/BLE.c **** *   configuration of this component. The variable is initialized to zero (0u)
 373:Generated_Source\PSoC4/BLE.c **** *   and set to one (1u) the first time CyBle_Start() is called. This
 374:Generated_Source\PSoC4/BLE.c **** *   allows for component initialization without re-initialization in all
 375:Generated_Source\PSoC4/BLE.c **** *   subsequent calls to the CyBle_Start() routine.
 376:Generated_Source\PSoC4/BLE.c **** * 
 377:Generated_Source\PSoC4/BLE.c **** ******************************************************************************/
 378:Generated_Source\PSoC4/BLE.c **** CYBLE_API_RESULT_T CyBle_Start(CYBLE_CALLBACK_T callbackFunc)
 379:Generated_Source\PSoC4/BLE.c **** {
 141              		.loc 1 379 0
 142              		.cfi_startproc
 143              		@ args = 0, pretend = 0, frame = 48
 144              		@ frame_needed = 0, uses_anonymous_args = 0
 145              	.LVL2:
 146 0000 10B5     		push	{r4, lr}
 147              		.cfi_def_cfa_offset 8
 148              		.cfi_offset 4, -8
 149              		.cfi_offset 14, -4
 150 0002 90B0     		sub	sp, sp, #64
 151              		.cfi_def_cfa_offset 72
 152 0004 0400     		movs	r4, r0
 153              	.LVL3:
 380:Generated_Source\PSoC4/BLE.c ****     CYBLE_API_RESULT_T apiResult = CYBLE_ERROR_OK;
 381:Generated_Source\PSoC4/BLE.c ****     
 382:Generated_Source\PSoC4/BLE.c ****     #if(CYBLE_MODE_PROFILE)
 383:Generated_Source\PSoC4/BLE.c ****     
 384:Generated_Source\PSoC4/BLE.c ****     CYBLE_STK_APP_DATA_BUFF_T cyBle_stackDataBuff[CYBLE_STACK_APP_MIN_POOL] = 
 154              		.loc 1 384 0
 155 0006 1422     		movs	r2, #20
 156 0008 1F49     		ldr	r1, .L9
 157 000a 0BA8     		add	r0, sp, #44
 158              	.LVL4:
 159 000c FFF7FEFF 		bl	memcpy
 160              	.LVL5:
 385:Generated_Source\PSoC4/BLE.c ****     {
 386:Generated_Source\PSoC4/BLE.c ****         {CYBLE_GATT_MTU_PLUS_L2CAP_MEM_EXT, CYBLE_GATT_MTU_BUFF_COUNT + CYBLE_GATT_MAX_ATTR_BUFF_CO
 387:Generated_Source\PSoC4/BLE.c ****         {CYBLE_L2CAP_PSM_PLUS_L2CAP_MEM_EXT, CYBLE_L2CAP_PSM_COUNT},
 388:Generated_Source\PSoC4/BLE.c ****         {CYBLE_L2CAP_CBFC_PLUS_L2CAP_MEM_EXT, 2u * CYBLE_L2CAP_LOGICAL_CHANNEL_COUNT},
 389:Generated_Source\PSoC4/BLE.c ****         {CYBLE_L2CAP_MTU_PLUS_L2CAP_MEM_EXT, CYBLE_L2CAP_LOGICAL_CHANNEL_COUNT},
 390:Generated_Source\PSoC4/BLE.c ****         {CYBLE_L2CAP_MPS_PLUS_L2CAP_MEM_EXT, CYBLE_L2CAP_LOGICAL_CHANNEL_COUNT * (CYBLE_L2CAP_MTU_M
 391:Generated_Source\PSoC4/BLE.c ****     }; 
ARM GAS  C:\Users\bryan.lee\AppData\Local\Temp\ccDqoJhc.s 			page 11


 392:Generated_Source\PSoC4/BLE.c **** 
 393:Generated_Source\PSoC4/BLE.c ****     #endif /* CYBLE_MODE_PROFILE */
 394:Generated_Source\PSoC4/BLE.c ****     
 395:Generated_Source\PSoC4/BLE.c ****     /* If not initialized then initialize all the required hardware and software */
 396:Generated_Source\PSoC4/BLE.c ****     if(cyBle_initVar == 0u)
 161              		.loc 1 396 0
 162 0010 1E4B     		ldr	r3, .L9+4
 163 0012 1B78     		ldrb	r3, [r3]
 164 0014 002B     		cmp	r3, #0
 165 0016 04D1     		bne	.L6
 397:Generated_Source\PSoC4/BLE.c ****     {
 398:Generated_Source\PSoC4/BLE.c ****         CyBle_Init();
 166              		.loc 1 398 0
 167 0018 FFF7FEFF 		bl	CyBle_Init
 168              	.LVL6:
 399:Generated_Source\PSoC4/BLE.c ****         cyBle_initVar = 1u;
 169              		.loc 1 399 0
 170 001c 0122     		movs	r2, #1
 171 001e 1B4B     		ldr	r3, .L9+4
 172 0020 1A70     		strb	r2, [r3]
 173              	.L6:
 400:Generated_Source\PSoC4/BLE.c ****     }
 401:Generated_Source\PSoC4/BLE.c ****     
 402:Generated_Source\PSoC4/BLE.c ****     if(callbackFunc != NULL)
 174              		.loc 1 402 0
 175 0022 002C     		cmp	r4, #0
 176 0024 2DD0     		beq	.L8
 403:Generated_Source\PSoC4/BLE.c ****     {
 404:Generated_Source\PSoC4/BLE.c ****         CyBle_ApplCallback = callbackFunc;
 177              		.loc 1 404 0
 178 0026 1A4B     		ldr	r3, .L9+8
 179 0028 1C60     		str	r4, [r3]
 180              	.LBB2:
 405:Generated_Source\PSoC4/BLE.c ****         
 406:Generated_Source\PSoC4/BLE.c ****     #if(CYBLE_SHARING_MODE_EXPORT)
 407:Generated_Source\PSoC4/BLE.c ****         if(cyBle_stackMemoryRam == NULL)
 408:Generated_Source\PSoC4/BLE.c ****         {
 409:Generated_Source\PSoC4/BLE.c ****             cyBle_stackMemoryRam = (uint8 *)malloc(CYBLE_STACK_RAM_SIZE);
 410:Generated_Source\PSoC4/BLE.c ****             if(cyBle_stackMemoryRam == NULL)
 411:Generated_Source\PSoC4/BLE.c ****             {
 412:Generated_Source\PSoC4/BLE.c ****                 apiResult = CYBLE_ERROR_MEMORY_ALLOCATION_FAILED;
 413:Generated_Source\PSoC4/BLE.c ****             }
 414:Generated_Source\PSoC4/BLE.c ****         }
 415:Generated_Source\PSoC4/BLE.c ****     #endif /* CYBLE_SHARING_MODE_EXPORT */
 416:Generated_Source\PSoC4/BLE.c ****         if(apiResult == CYBLE_ERROR_OK)
 417:Generated_Source\PSoC4/BLE.c ****         {
 418:Generated_Source\PSoC4/BLE.c ****             CYBLE_DLE_CONFIG_PARAM_T dleConfigParams;
 419:Generated_Source\PSoC4/BLE.c ****             CYBLE_PRIVACY_1_2_CONFIG_PARAM_T privacyConfigParams;
 420:Generated_Source\PSoC4/BLE.c ****             CYBLE_STACK_CONFIG_PARAM_T stackConfig;
 421:Generated_Source\PSoC4/BLE.c ****             uint16 featureHeapReq;
 422:Generated_Source\PSoC4/BLE.c ****             
 423:Generated_Source\PSoC4/BLE.c ****             stackConfig.privacyConfig = &privacyConfigParams;
 181              		.loc 1 423 0
 182 002a 08A8     		add	r0, sp, #32
 183 002c 05AA     		add	r2, sp, #20
 184 002e 4260     		str	r2, [r0, #4]
 424:Generated_Source\PSoC4/BLE.c ****             stackConfig.dleConfig = &dleConfigParams;
ARM GAS  C:\Users\bryan.lee\AppData\Local\Temp\ccDqoJhc.s 			page 12


 185              		.loc 1 424 0
 186 0030 06AB     		add	r3, sp, #24
 187 0032 0893     		str	r3, [sp, #32]
 425:Generated_Source\PSoC4/BLE.c ****             
 426:Generated_Source\PSoC4/BLE.c ****             /* Configure default BLE 4.1 features and enabled 4.2 features */
 427:Generated_Source\PSoC4/BLE.c ****             stackConfig.feature_mask = CYBLE_DLE_FEATURE | CYBLE_LL_PRIVACY_FEATURE | 
 188              		.loc 1 427 0
 189 0034 0021     		movs	r1, #0
 190 0036 0181     		strh	r1, [r0, #8]
 428:Generated_Source\PSoC4/BLE.c ****                                        CYBLE_SECURE_CONN_FEATURE;
 429:Generated_Source\PSoC4/BLE.c **** 
 430:Generated_Source\PSoC4/BLE.c ****             /* Configure DLE */
 431:Generated_Source\PSoC4/BLE.c ****             dleConfigParams.dleMaxTxCapability = CYBLE_LL_MAX_TX_PAYLOAD_SIZE;
 191              		.loc 1 431 0
 192 0038 1B31     		adds	r1, r1, #27
 193 003a 1980     		strh	r1, [r3]
 432:Generated_Source\PSoC4/BLE.c ****             dleConfigParams.dleMaxRxCapability = CYBLE_LL_MAX_RX_PAYLOAD_SIZE;
 194              		.loc 1 432 0
 195 003c 5980     		strh	r1, [r3, #2]
 433:Generated_Source\PSoC4/BLE.c ****             dleConfigParams.dleNumTxBuffer = CYBLE_LL_DEFAULT_NUM_ACL_TX_PACKETS;
 196              		.loc 1 433 0
 197 003e 1739     		subs	r1, r1, #23
 198 0040 1971     		strb	r1, [r3, #4]
 434:Generated_Source\PSoC4/BLE.c ****         #if(CYBLE_DLE_FEATURE_ENABLED)
 435:Generated_Source\PSoC4/BLE.c ****             CyBle_EnableDleFeature();              /* Enable DLE code in stack */
 436:Generated_Source\PSoC4/BLE.c ****         #endif /* CYBLE_DLE_FEATURE_ENABLED */
 437:Generated_Source\PSoC4/BLE.c ****         
 438:Generated_Source\PSoC4/BLE.c ****             /* Configure LL Privacy */
 439:Generated_Source\PSoC4/BLE.c ****             privacyConfigParams.resolvingListSize = CYBLE_MAX_RESOLVABLE_DEVICES;
 199              		.loc 1 439 0
 200 0042 0023     		movs	r3, #0
 201 0044 1370     		strb	r3, [r2]
 440:Generated_Source\PSoC4/BLE.c ****         #if(CYBLE_LL_PRIVACY_FEATURE_ENABLED)
 441:Generated_Source\PSoC4/BLE.c ****             CyBle_EnablePrivacyFeature();          /* Enable LL Privacy code in stack */
 442:Generated_Source\PSoC4/BLE.c ****         #endif /* CYBLE_LL_PRIVACY_FEATURE_ENABLED */
 443:Generated_Source\PSoC4/BLE.c **** 
 444:Generated_Source\PSoC4/BLE.c ****             apiResult = CyBle_StackSetFeatureConfig(&stackConfig, &featureHeapReq);
 202              		.loc 1 444 0
 203 0046 1231     		adds	r1, r1, #18
 204 0048 6944     		add	r1, r1, sp
 205 004a FFF7FEFF 		bl	CyBle_StackSetFeatureConfig
 206              	.LVL7:
 207              	.LBE2:
 445:Generated_Source\PSoC4/BLE.c ****             }
 446:Generated_Source\PSoC4/BLE.c ****     
 447:Generated_Source\PSoC4/BLE.c ****         if(apiResult == CYBLE_ERROR_OK)
 208              		.loc 1 447 0
 209 004e 0028     		cmp	r0, #0
 210 0050 18D1     		bne	.L7
 448:Generated_Source\PSoC4/BLE.c ****         {
 449:Generated_Source\PSoC4/BLE.c ****         
 450:Generated_Source\PSoC4/BLE.c ****         #if(CYBLE_MODE_PROFILE)
 451:Generated_Source\PSoC4/BLE.c ****             #if(CYBLE_BONDING_REQUIREMENT == CYBLE_BONDING_YES)
 452:Generated_Source\PSoC4/BLE.c ****                 apiResult = CyBle_StackInit(&CyBle_EventHandler, cyBle_stackMemoryRam, 
 211              		.loc 1 452 0
 212 0052 104B     		ldr	r3, .L9+12
 213 0054 0293     		str	r3, [sp, #8]
ARM GAS  C:\Users\bryan.lee\AppData\Local\Temp\ccDqoJhc.s 			page 13


 214 0056 104B     		ldr	r3, .L9+16
 215 0058 0193     		str	r3, [sp, #4]
 216 005a 0523     		movs	r3, #5
 217 005c 0093     		str	r3, [sp]
 218 005e 0BAB     		add	r3, sp, #44
 219 0060 AE22     		movs	r2, #174
 220 0062 1201     		lsls	r2, r2, #4
 221 0064 0D49     		ldr	r1, .L9+20
 222 0066 0E48     		ldr	r0, .L9+24
 223              	.LVL8:
 224 0068 FFF7FEFF 		bl	CyBle_StackInit
 225              	.LVL9:
 453:Generated_Source\PSoC4/BLE.c ****                     CYBLE_STACK_RAM_SIZE - CYBLE_GATT_PREPARE_WRITE_BUFF_LEN, cyBle_stackDataBuff, 
 454:Generated_Source\PSoC4/BLE.c ****                     CYBLE_STACK_APP_MIN_POOL, cyBle_flashStorage.stackFlashptr, CYBLE_STACK_FLASH_S
 455:Generated_Source\PSoC4/BLE.c ****             #else
 456:Generated_Source\PSoC4/BLE.c ****                 apiResult = CyBle_StackInit(&CyBle_EventHandler, cyBle_stackMemoryRam, 
 457:Generated_Source\PSoC4/BLE.c ****                     CYBLE_STACK_RAM_SIZE - CYBLE_GATT_PREPARE_WRITE_BUFF_LEN, cyBle_stackDataBuff, 
 458:Generated_Source\PSoC4/BLE.c ****                     CYBLE_STACK_APP_MIN_POOL, NULL, 0u);
 459:Generated_Source\PSoC4/BLE.c ****             #endif  /* CYBLE_BONDING_REQUIREMENT == CYBLE_BONDING_YES */
 460:Generated_Source\PSoC4/BLE.c ****         #else /* HCI mode */
 461:Generated_Source\PSoC4/BLE.c ****             /* The following will perform preparation to use HCI over UART or over
 462:Generated_Source\PSoC4/BLE.c ****                software. But the following fucntions will not initialize the HCI
 463:Generated_Source\PSoC4/BLE.c ****                Transport. This will be done as part of Stack initialization, so
 464:Generated_Source\PSoC4/BLE.c ****                the functions should be called prior CyBle_StackInit().
 465:Generated_Source\PSoC4/BLE.c ****             */
 466:Generated_Source\PSoC4/BLE.c ****             #if (CYBLE_HCI_TYPE == CYBLE_HCI_OVER_UART)
 467:Generated_Source\PSoC4/BLE.c ****                 CyBle_HciUartTransportEnable();
 468:Generated_Source\PSoC4/BLE.c ****             #else
 469:Generated_Source\PSoC4/BLE.c ****                 CyBle_HciSoftTransportEnable();
 470:Generated_Source\PSoC4/BLE.c ****             #endif /* (CYBLE_HCI_TYPE == CYBLE_HCI_OVER_UART) */
 471:Generated_Source\PSoC4/BLE.c ****             /* This will initialize BLE stack for HCI mode operation */
 472:Generated_Source\PSoC4/BLE.c ****             apiResult = CyBle_StackInit(&CyBle_EventHandler, cyBle_stackMemoryRam, CYBLE_STACK_RAM_
 473:Generated_Source\PSoC4/BLE.c ****                 NULL, 0u, NULL, 0u);
 474:Generated_Source\PSoC4/BLE.c ****         #endif /* CYBLE_MODE_PROFILE */
 475:Generated_Source\PSoC4/BLE.c **** 
 476:Generated_Source\PSoC4/BLE.c ****             if(apiResult == CYBLE_ERROR_OK)
 226              		.loc 1 476 0
 227 006c 0028     		cmp	r0, #0
 228 006e 09D1     		bne	.L7
 477:Generated_Source\PSoC4/BLE.c ****             {
 478:Generated_Source\PSoC4/BLE.c ****                 CyBle_SetState(CYBLE_STATE_INITIALIZING);
 229              		.loc 1 478 0
 230 0070 0122     		movs	r2, #1
 231 0072 0C4B     		ldr	r3, .L9+28
 232 0074 1A70     		strb	r2, [r3]
 479:Generated_Source\PSoC4/BLE.c ****                 
 480:Generated_Source\PSoC4/BLE.c ****             #if (CYBLE_GATT_ROLE_CLIENT)
 481:Generated_Source\PSoC4/BLE.c ****                 CyBle_SetClientState(CYBLE_CLIENT_STATE_DISCONNECTED);
 482:Generated_Source\PSoC4/BLE.c ****             #endif /* CYBLE_GATT_ROLE_CLIENT */
 483:Generated_Source\PSoC4/BLE.c ****                 
 484:Generated_Source\PSoC4/BLE.c ****             #if(CYBLE_GATT_ROLE_SERVER)
 485:Generated_Source\PSoC4/BLE.c ****                 apiResult = CyBle_GattsDbRegister(cyBle_gattDB, CYBLE_GATT_DB_INDEX_COUNT, CYBLE_GA
 233              		.loc 1 485 0
 234 0076 0732     		adds	r2, r2, #7
 235 0078 1C21     		movs	r1, #28
 236 007a 0B48     		ldr	r0, .L9+32
 237              	.LVL10:
ARM GAS  C:\Users\bryan.lee\AppData\Local\Temp\ccDqoJhc.s 			page 14


 238 007c FFF7FEFF 		bl	CyBle_GattsDbRegister
 239              	.LVL11:
 240 0080 00E0     		b	.L7
 241              	.LVL12:
 242              	.L8:
 486:Generated_Source\PSoC4/BLE.c ****             #endif /* CYBLE_GATT_ROLE_SERVER */
 487:Generated_Source\PSoC4/BLE.c ****             }
 488:Generated_Source\PSoC4/BLE.c ****         }
 489:Generated_Source\PSoC4/BLE.c ****     }
 490:Generated_Source\PSoC4/BLE.c ****     else
 491:Generated_Source\PSoC4/BLE.c ****     {
 492:Generated_Source\PSoC4/BLE.c ****         apiResult = CYBLE_ERROR_INVALID_PARAMETER;
 243              		.loc 1 492 0
 244 0082 0120     		movs	r0, #1
 245              	.LVL13:
 246              	.L7:
 493:Generated_Source\PSoC4/BLE.c ****     }
 494:Generated_Source\PSoC4/BLE.c **** 
 495:Generated_Source\PSoC4/BLE.c ****     return (apiResult);
 496:Generated_Source\PSoC4/BLE.c **** }
 247              		.loc 1 496 0
 248 0084 10B0     		add	sp, sp, #64
 249              		@ sp needed
 250              	.LVL14:
 251 0086 10BD     		pop	{r4, pc}
 252              	.L10:
 253              		.align	2
 254              	.L9:
 255 0088 00000000 		.word	.LANCHOR1
 256 008c 00000000 		.word	.LANCHOR2
 257 0090 00000000 		.word	CyBle_ApplCallback
 258 0094 79020000 		.word	633
 259 0098 00000000 		.word	cyBle_flashStorage
 260 009c 00000000 		.word	.LANCHOR3
 261 00a0 00000000 		.word	CyBle_EventHandler
 262 00a4 00000000 		.word	cyBle_state
 263 00a8 00000000 		.word	cyBle_gattDB
 264              		.cfi_endproc
 265              	.LFE4:
 266              		.size	CyBle_Start, .-CyBle_Start
 267              		.section	.text.CyBle_Stop,"ax",%progbits
 268              		.align	2
 269              		.global	CyBle_Stop
 270              		.code	16
 271              		.thumb_func
 272              		.type	CyBle_Stop, %function
 273              	CyBle_Stop:
 274              	.LFB5:
 497:Generated_Source\PSoC4/BLE.c **** 
 498:Generated_Source\PSoC4/BLE.c **** 
 499:Generated_Source\PSoC4/BLE.c **** /******************************************************************************
 500:Generated_Source\PSoC4/BLE.c **** * Function Name: CyBle_Stop
 501:Generated_Source\PSoC4/BLE.c **** ***************************************************************************//**
 502:Generated_Source\PSoC4/BLE.c **** * 
 503:Generated_Source\PSoC4/BLE.c **** *  This function stops any ongoing operation in the BLE Stack and forces the 
 504:Generated_Source\PSoC4/BLE.c **** *  BLE Stack to shut down. The only function that can be called after calling
 505:Generated_Source\PSoC4/BLE.c **** *  this function is CyBle_Start(). 
ARM GAS  C:\Users\bryan.lee\AppData\Local\Temp\ccDqoJhc.s 			page 15


 506:Generated_Source\PSoC4/BLE.c **** * 
 507:Generated_Source\PSoC4/BLE.c **** * \return
 508:Generated_Source\PSoC4/BLE.c **** *  None
 509:Generated_Source\PSoC4/BLE.c **** * 
 510:Generated_Source\PSoC4/BLE.c **** ******************************************************************************/
 511:Generated_Source\PSoC4/BLE.c **** void CyBle_Stop(void)
 512:Generated_Source\PSoC4/BLE.c **** {
 275              		.loc 1 512 0
 276              		.cfi_startproc
 277              		@ args = 0, pretend = 0, frame = 0
 278              		@ frame_needed = 0, uses_anonymous_args = 0
 279 0000 10B5     		push	{r4, lr}
 280              		.cfi_def_cfa_offset 8
 281              		.cfi_offset 4, -8
 282              		.cfi_offset 14, -4
 513:Generated_Source\PSoC4/BLE.c ****     CyBle_Shutdown();                         /* Stop all ongoing activities */
 283              		.loc 1 513 0
 284 0002 FFF7FEFF 		bl	CyBle_Shutdown
 285              	.LVL15:
 514:Generated_Source\PSoC4/BLE.c ****     CyBle_SetState(CYBLE_STATE_STOPPED);
 286              		.loc 1 514 0
 287 0006 0022     		movs	r2, #0
 288 0008 014B     		ldr	r3, .L12
 289 000a 1A70     		strb	r2, [r3]
 515:Generated_Source\PSoC4/BLE.c ****     #if(CYBLE_SHARING_MODE_EXPORT)
 516:Generated_Source\PSoC4/BLE.c ****         if(cyBle_stackMemoryRam != NULL)
 517:Generated_Source\PSoC4/BLE.c ****         {
 518:Generated_Source\PSoC4/BLE.c ****             free(cyBle_stackMemoryRam);
 519:Generated_Source\PSoC4/BLE.c ****         }
 520:Generated_Source\PSoC4/BLE.c ****     #endif /* CYBLE_SHARING_MODE_EXPORT */
 521:Generated_Source\PSoC4/BLE.c **** }
 290              		.loc 1 521 0
 291              		@ sp needed
 292 000c 10BD     		pop	{r4, pc}
 293              	.L13:
 294 000e C046     		.align	2
 295              	.L12:
 296 0010 00000000 		.word	cyBle_state
 297              		.cfi_endproc
 298              	.LFE5:
 299              		.size	CyBle_Stop, .-CyBle_Stop
 300              		.section	.text.CyBle_StoreBondingData,"ax",%progbits
 301              		.align	2
 302              		.global	CyBle_StoreBondingData
 303              		.code	16
 304              		.thumb_func
 305              		.type	CyBle_StoreBondingData, %function
 306              	CyBle_StoreBondingData:
 307              	.LFB6:
 522:Generated_Source\PSoC4/BLE.c **** 
 523:Generated_Source\PSoC4/BLE.c **** 
 524:Generated_Source\PSoC4/BLE.c **** #if((CYBLE_GAP_ROLE_PERIPHERAL || CYBLE_GAP_ROLE_CENTRAL) && (CYBLE_BONDING_REQUIREMENT == CYBLE_BO
 525:Generated_Source\PSoC4/BLE.c **** 
 526:Generated_Source\PSoC4/BLE.c ****     
 527:Generated_Source\PSoC4/BLE.c **** /******************************************************************************
 528:Generated_Source\PSoC4/BLE.c **** * Function Name: CyBle_StoreBondingData
 529:Generated_Source\PSoC4/BLE.c **** ***************************************************************************//**
ARM GAS  C:\Users\bryan.lee\AppData\Local\Temp\ccDqoJhc.s 			page 16


 530:Generated_Source\PSoC4/BLE.c **** * 
 531:Generated_Source\PSoC4/BLE.c **** *  This function writes the new bonding data from RAM to the dedicated Flash 
 532:Generated_Source\PSoC4/BLE.c **** *  location as defined by the component. It performs data comparing between RAM
 533:Generated_Source\PSoC4/BLE.c **** *  and Flash before writing to Flash. If there is no change between RAM and Flash
 534:Generated_Source\PSoC4/BLE.c **** *  data, then no write is performed. It writes only one flash row in one call.
 535:Generated_Source\PSoC4/BLE.c **** *  Application should keep calling this function till it return CYBLE_ERROR_OK. 
 536:Generated_Source\PSoC4/BLE.c **** *  This function is available only when Bonding requirement is selected in
 537:Generated_Source\PSoC4/BLE.c **** *  Security settings.    
 538:Generated_Source\PSoC4/BLE.c **** * 
 539:Generated_Source\PSoC4/BLE.c **** *  \param isForceWrite:  If value is set to 0, then stack will check if flash write 
 540:Generated_Source\PSoC4/BLE.c **** *                 is permissible. 
 541:Generated_Source\PSoC4/BLE.c **** *  
 542:Generated_Source\PSoC4/BLE.c **** * \return
 543:Generated_Source\PSoC4/BLE.c **** *  Return value is of type CYBLE_API_RESULT_T.
 544:Generated_Source\PSoC4/BLE.c **** *
 545:Generated_Source\PSoC4/BLE.c **** *   Errors codes                         | Description
 546:Generated_Source\PSoC4/BLE.c **** *   ----------------------------------   | ------------------------------------
 547:Generated_Source\PSoC4/BLE.c **** *   CYBLE_ERROR_OK                       | On successful operation
 548:Generated_Source\PSoC4/BLE.c **** *   CYBLE_ERROR_FLASH_WRITE_NOT_PERMITED | Flash Write is not complete
 549:Generated_Source\PSoC4/BLE.c **** *   CYBLE_ERROR_INVALID_PARAMETER        | Invalid input parameter  
 550:Generated_Source\PSoC4/BLE.c **** *   CYBLE_ERROR_FLASH_WRITE              | Error in flash Write	
 551:Generated_Source\PSoC4/BLE.c ****     
 552:Generated_Source\PSoC4/BLE.c **** *  \sideeffect
 553:Generated_Source\PSoC4/BLE.c **** *   For BLE devices with 128K of Flash memory this function will automatically 
 554:Generated_Source\PSoC4/BLE.c **** *   modify the clock settings for the device.
 555:Generated_Source\PSoC4/BLE.c **** *   Writing to flash requires changes to be done to the IMO (set to 48 MHz)
 556:Generated_Source\PSoC4/BLE.c **** *   and HFCLK (source set to IMO) settings. The configuration is restored before
 557:Generated_Source\PSoC4/BLE.c **** *   returning. This will impact the operation of most of the hardware in the
 558:Generated_Source\PSoC4/BLE.c **** *   device.
 559:Generated_Source\PSoC4/BLE.c **** * 
 560:Generated_Source\PSoC4/BLE.c **** *  \globalvars
 561:Generated_Source\PSoC4/BLE.c **** *   The cyBle_pendingFlashWrite variable is used to detect status
 562:Generated_Source\PSoC4/BLE.c **** *   of pending write to flash operation for stack data and CCCD.
 563:Generated_Source\PSoC4/BLE.c **** *   This function automatically clears pending bits after write operation 
 564:Generated_Source\PSoC4/BLE.c **** *   complete.
 565:Generated_Source\PSoC4/BLE.c **** *     
 566:Generated_Source\PSoC4/BLE.c **** ******************************************************************************/
 567:Generated_Source\PSoC4/BLE.c **** CYBLE_API_RESULT_T CyBle_StoreBondingData(uint8 isForceWrite)
 568:Generated_Source\PSoC4/BLE.c **** {
 308              		.loc 1 568 0
 309              		.cfi_startproc
 310              		@ args = 0, pretend = 0, frame = 32
 311              		@ frame_needed = 0, uses_anonymous_args = 0
 312              	.LVL16:
 313 0000 10B5     		push	{r4, lr}
 314              		.cfi_def_cfa_offset 8
 315              		.cfi_offset 4, -8
 316              		.cfi_offset 14, -4
 317 0002 88B0     		sub	sp, sp, #32
 318              		.cfi_def_cfa_offset 40
 319 0004 0400     		movs	r4, r0
 320              	.LVL17:
 569:Generated_Source\PSoC4/BLE.c ****     CYBLE_API_RESULT_T apiResult = CYBLE_ERROR_OK;
 570:Generated_Source\PSoC4/BLE.c ****     
 571:Generated_Source\PSoC4/BLE.c ****     /* Store Stack data */
 572:Generated_Source\PSoC4/BLE.c ****     if((cyBle_pendingFlashWrite & CYBLE_PENDING_STACK_FLASH_WRITE_BIT) != 0u)
 321              		.loc 1 572 0
ARM GAS  C:\Users\bryan.lee\AppData\Local\Temp\ccDqoJhc.s 			page 17


 322 0006 394B     		ldr	r3, .L25
 323 0008 1B78     		ldrb	r3, [r3]
 324 000a DB07     		lsls	r3, r3, #31
 325 000c 0BD5     		bpl	.L23
 573:Generated_Source\PSoC4/BLE.c ****     {
 574:Generated_Source\PSoC4/BLE.c ****         apiResult = CyBle_StoreStackData(isForceWrite);
 326              		.loc 1 574 0
 327 000e FFF7FEFF 		bl	CyBle_StoreStackData
 328              	.LVL18:
 575:Generated_Source\PSoC4/BLE.c ****         if(apiResult == CYBLE_ERROR_OK)
 329              		.loc 1 575 0
 330 0012 0028     		cmp	r0, #0
 331 0014 0AD1     		bne	.L15
 576:Generated_Source\PSoC4/BLE.c ****         {
 577:Generated_Source\PSoC4/BLE.c ****             cyBle_pendingFlashWrite &= (uint8)~CYBLE_PENDING_STACK_FLASH_WRITE_BIT;
 332              		.loc 1 577 0
 333 0016 354A     		ldr	r2, .L25
 334 0018 1378     		ldrb	r3, [r2]
 335 001a 0121     		movs	r1, #1
 336 001c 8B43     		bics	r3, r1
 337 001e 1370     		strb	r3, [r2]
 578:Generated_Source\PSoC4/BLE.c ****             /* Change apiResult if there are more pending data to store */
 579:Generated_Source\PSoC4/BLE.c ****             if((cyBle_pendingFlashWrite & CYBLE_PENDING_CCCD_FLASH_WRITE_BIT) != 0u)
 338              		.loc 1 579 0
 339 0020 9B07     		lsls	r3, r3, #30
 340 0022 02D4     		bmi	.L24
 341 0024 02E0     		b	.L15
 342              	.LVL19:
 343              	.L23:
 569:Generated_Source\PSoC4/BLE.c ****     
 344              		.loc 1 569 0
 345 0026 0020     		movs	r0, #0
 346              	.LVL20:
 347 0028 00E0     		b	.L15
 348              	.LVL21:
 349              	.L24:
 580:Generated_Source\PSoC4/BLE.c ****             {
 581:Generated_Source\PSoC4/BLE.c ****                 apiResult = CYBLE_ERROR_FLASH_WRITE_NOT_PERMITED;
 350              		.loc 1 581 0
 351 002a 2820     		movs	r0, #40
 352              	.LVL22:
 353              	.L15:
 582:Generated_Source\PSoC4/BLE.c ****             }
 583:Generated_Source\PSoC4/BLE.c ****         }
 584:Generated_Source\PSoC4/BLE.c ****     }
 585:Generated_Source\PSoC4/BLE.c **** #if(CYBLE_GATT_DB_CCCD_COUNT != 0u)
 586:Generated_Source\PSoC4/BLE.c ****     /* Store CCCD values */
 587:Generated_Source\PSoC4/BLE.c ****     if( ((apiResult == CYBLE_ERROR_OK) || (isForceWrite != 0u)) && 
 354              		.loc 1 587 0
 355 002c 0028     		cmp	r0, #0
 356 002e 01D0     		beq	.L16
 357              		.loc 1 587 0 is_stmt 0 discriminator 2
 358 0030 002C     		cmp	r4, #0
 359 0032 1DD0     		beq	.L17
 360              	.L16:
 588:Generated_Source\PSoC4/BLE.c ****         ((cyBle_pendingFlashWrite & CYBLE_PENDING_CCCD_FLASH_WRITE_BIT) != 0u) &&
 361              		.loc 1 588 0 is_stmt 1 discriminator 3
ARM GAS  C:\Users\bryan.lee\AppData\Local\Temp\ccDqoJhc.s 			page 18


 362 0034 2D4B     		ldr	r3, .L25
 363 0036 1B78     		ldrb	r3, [r3]
 587:Generated_Source\PSoC4/BLE.c ****         ((cyBle_pendingFlashWrite & CYBLE_PENDING_CCCD_FLASH_WRITE_BIT) != 0u) &&
 364              		.loc 1 587 0 discriminator 3
 365 0038 9B07     		lsls	r3, r3, #30
 366 003a 19D5     		bpl	.L17
 589:Generated_Source\PSoC4/BLE.c ****         (cyBle_connHandle.bdHandle <= CYBLE_GAP_MAX_BONDED_DEVICE))
 367              		.loc 1 589 0
 368 003c 2C4B     		ldr	r3, .L25+4
 369 003e 1B78     		ldrb	r3, [r3]
 588:Generated_Source\PSoC4/BLE.c ****         ((cyBle_pendingFlashWrite & CYBLE_PENDING_CCCD_FLASH_WRITE_BIT) != 0u) &&
 370              		.loc 1 588 0
 371 0040 042B     		cmp	r3, #4
 372 0042 15D8     		bhi	.L17
 590:Generated_Source\PSoC4/BLE.c ****     {
 591:Generated_Source\PSoC4/BLE.c ****         apiResult = CyBle_StoreAppData(cyBle_attValuesCCCD, cyBle_flashStorage.attValuesCCCDFlashMe
 373              		.loc 1 591 0
 374 0044 5A00     		lsls	r2, r3, #1
 375 0046 D318     		adds	r3, r2, r3
 376 0048 5900     		lsls	r1, r3, #1
 377 004a 9E23     		movs	r3, #158
 378 004c 9B00     		lsls	r3, r3, #2
 379 004e 9C46     		mov	ip, r3
 380 0050 6144     		add	r1, r1, ip
 381 0052 284B     		ldr	r3, .L25+8
 382 0054 C918     		adds	r1, r1, r3
 383 0056 0131     		adds	r1, r1, #1
 384 0058 2300     		movs	r3, r4
 385 005a 0622     		movs	r2, #6
 386 005c 2648     		ldr	r0, .L25+12
 387              	.LVL23:
 388 005e FFF7FEFF 		bl	CyBle_StoreAppData
 389              	.LVL24:
 592:Generated_Source\PSoC4/BLE.c ****                         cyBle_connHandle.bdHandle], CYBLE_GATT_DB_CCCD_COUNT, isForceWrite);
 593:Generated_Source\PSoC4/BLE.c ****         if(apiResult == CYBLE_ERROR_OK)
 390              		.loc 1 593 0
 391 0062 0028     		cmp	r0, #0
 392 0064 04D1     		bne	.L17
 594:Generated_Source\PSoC4/BLE.c ****         {
 595:Generated_Source\PSoC4/BLE.c ****             cyBle_pendingFlashWrite &= (uint8)~CYBLE_PENDING_CCCD_FLASH_WRITE_BIT;
 393              		.loc 1 595 0
 394 0066 214A     		ldr	r2, .L25
 395 0068 1378     		ldrb	r3, [r2]
 396 006a 0221     		movs	r1, #2
 397 006c 8B43     		bics	r3, r1
 398 006e 1370     		strb	r3, [r2]
 399              	.LVL25:
 400              	.L17:
 596:Generated_Source\PSoC4/BLE.c ****         }
 597:Generated_Source\PSoC4/BLE.c ****     }
 598:Generated_Source\PSoC4/BLE.c ****     /* Clear requested CCCD values */
 599:Generated_Source\PSoC4/BLE.c ****     if( ((apiResult == CYBLE_ERROR_OK) || (isForceWrite != 0u)) && 
 401              		.loc 1 599 0
 402 0070 0028     		cmp	r0, #0
 403 0072 01D0     		beq	.L18
 404              		.loc 1 599 0 is_stmt 0 discriminator 2
 405 0074 002C     		cmp	r4, #0
ARM GAS  C:\Users\bryan.lee\AppData\Local\Temp\ccDqoJhc.s 			page 19


 406 0076 36D0     		beq	.L19
 407              	.L18:
 600:Generated_Source\PSoC4/BLE.c ****         ((cyBle_pendingFlashWrite & CYBLE_PENDING_CCCD_FLASH_CLEAR_MASK) != 0u) )
 408              		.loc 1 600 0 is_stmt 1 discriminator 3
 409 0078 1C4B     		ldr	r3, .L25
 410 007a 1B78     		ldrb	r3, [r3]
 599:Generated_Source\PSoC4/BLE.c ****         ((cyBle_pendingFlashWrite & CYBLE_PENDING_CCCD_FLASH_CLEAR_MASK) != 0u) )
 411              		.loc 1 599 0 discriminator 3
 412 007c 0C22     		movs	r2, #12
 413 007e 1A42     		tst	r2, r3
 414 0080 31D0     		beq	.L19
 601:Generated_Source\PSoC4/BLE.c ****     {
 602:Generated_Source\PSoC4/BLE.c ****         if((cyBle_pendingFlashWrite & CYBLE_PENDING_CCCD_FLASH_CLEAR_ALL_BIT) != 0u)
 415              		.loc 1 602 0
 416 0082 1B07     		lsls	r3, r3, #28
 417 0084 12D5     		bpl	.L20
 418              	.LBB3:
 603:Generated_Source\PSoC4/BLE.c ****         {
 604:Generated_Source\PSoC4/BLE.c ****             /* Remove cccd values for all bonded devices */
 605:Generated_Source\PSoC4/BLE.c ****             uint8 defaultValuesCCCD[CYBLE_GAP_MAX_BONDED_DEVICE + 1u][CYBLE_GATT_DB_CCCD_COUNT];
 606:Generated_Source\PSoC4/BLE.c ****             
 607:Generated_Source\PSoC4/BLE.c ****             (void)memset(defaultValuesCCCD, 0, sizeof(defaultValuesCCCD));
 419              		.loc 1 607 0
 420 0086 1232     		adds	r2, r2, #18
 421 0088 0021     		movs	r1, #0
 422 008a 6846     		mov	r0, sp
 423              	.LVL26:
 424 008c FFF7FEFF 		bl	memset
 425              	.LVL27:
 608:Generated_Source\PSoC4/BLE.c **** 
 609:Generated_Source\PSoC4/BLE.c ****             apiResult = CyBle_StoreAppData((uint8 *)defaultValuesCCCD, 
 426              		.loc 1 609 0
 427 0090 2300     		movs	r3, r4
 428 0092 1E22     		movs	r2, #30
 429 0094 1949     		ldr	r1, .L25+16
 430 0096 6846     		mov	r0, sp
 431 0098 FFF7FEFF 		bl	CyBle_StoreAppData
 432              	.LVL28:
 610:Generated_Source\PSoC4/BLE.c ****                 (const uint8 *)cyBle_flashStorage.attValuesCCCDFlashMemory, sizeof(defaultValuesCCC
 611:Generated_Source\PSoC4/BLE.c ****             if(apiResult == CYBLE_ERROR_OK)
 433              		.loc 1 611 0
 434 009c 0028     		cmp	r0, #0
 435 009e 22D1     		bne	.L19
 612:Generated_Source\PSoC4/BLE.c ****             {
 613:Generated_Source\PSoC4/BLE.c ****                 cyBle_pendingFlashWrite &= (uint8)~CYBLE_PENDING_CCCD_FLASH_CLEAR_ALL_BIT;
 436              		.loc 1 613 0
 437 00a0 124A     		ldr	r2, .L25
 438 00a2 1378     		ldrb	r3, [r2]
 439 00a4 0821     		movs	r1, #8
 440 00a6 8B43     		bics	r3, r1
 441 00a8 1370     		strb	r3, [r2]
 442 00aa 1CE0     		b	.L19
 443              	.L20:
 444              	.LBE3:
 445              	.LBB4:
 614:Generated_Source\PSoC4/BLE.c ****             }
 615:Generated_Source\PSoC4/BLE.c ****         }
ARM GAS  C:\Users\bryan.lee\AppData\Local\Temp\ccDqoJhc.s 			page 20


 616:Generated_Source\PSoC4/BLE.c ****         else /* Remove cccd values for particular device */
 617:Generated_Source\PSoC4/BLE.c ****         {
 618:Generated_Source\PSoC4/BLE.c ****             uint8 defaultValuesCCCD[CYBLE_GATT_DB_CCCD_COUNT] = {0u};
 446              		.loc 1 618 0
 447 00ac 0622     		movs	r2, #6
 448 00ae 0021     		movs	r1, #0
 449 00b0 6846     		mov	r0, sp
 450              	.LVL29:
 451 00b2 FFF7FEFF 		bl	memset
 452              	.LVL30:
 619:Generated_Source\PSoC4/BLE.c ****             
 620:Generated_Source\PSoC4/BLE.c ****             apiResult = CyBle_StoreAppData(defaultValuesCCCD, cyBle_flashStorage.attValuesCCCDFlash
 453              		.loc 1 620 0
 454 00b6 124B     		ldr	r3, .L25+20
 455 00b8 5B78     		ldrb	r3, [r3, #1]
 456 00ba 5A00     		lsls	r2, r3, #1
 457 00bc D318     		adds	r3, r2, r3
 458 00be 5900     		lsls	r1, r3, #1
 459 00c0 9E23     		movs	r3, #158
 460 00c2 9B00     		lsls	r3, r3, #2
 461 00c4 9C46     		mov	ip, r3
 462 00c6 6144     		add	r1, r1, ip
 463 00c8 0A4B     		ldr	r3, .L25+8
 464 00ca C918     		adds	r1, r1, r3
 465 00cc 0131     		adds	r1, r1, #1
 466 00ce 2300     		movs	r3, r4
 467 00d0 0622     		movs	r2, #6
 468 00d2 6846     		mov	r0, sp
 469 00d4 FFF7FEFF 		bl	CyBle_StoreAppData
 470              	.LVL31:
 621:Generated_Source\PSoC4/BLE.c ****                                     cyBle_pendingFlashClearCccdHandle], CYBLE_GATT_DB_CCCD_COUNT, i
 622:Generated_Source\PSoC4/BLE.c ****             if(apiResult == CYBLE_ERROR_OK)
 471              		.loc 1 622 0
 472 00d8 0028     		cmp	r0, #0
 473 00da 04D1     		bne	.L19
 623:Generated_Source\PSoC4/BLE.c ****             {
 624:Generated_Source\PSoC4/BLE.c ****                 cyBle_pendingFlashWrite &= (uint8)~CYBLE_PENDING_CCCD_FLASH_CLEAR_BIT;
 474              		.loc 1 624 0
 475 00dc 034A     		ldr	r2, .L25
 476 00de 1378     		ldrb	r3, [r2]
 477 00e0 0421     		movs	r1, #4
 478 00e2 8B43     		bics	r3, r1
 479 00e4 1370     		strb	r3, [r2]
 480              	.LVL32:
 481              	.L19:
 482              	.LBE4:
 625:Generated_Source\PSoC4/BLE.c ****             }
 626:Generated_Source\PSoC4/BLE.c ****         }
 627:Generated_Source\PSoC4/BLE.c ****     }
 628:Generated_Source\PSoC4/BLE.c **** #endif /* CYBLE_GATT_DB_CCCD_COUNT != 0u */
 629:Generated_Source\PSoC4/BLE.c ****     return(apiResult);
 630:Generated_Source\PSoC4/BLE.c **** }
 483              		.loc 1 630 0
 484 00e6 08B0     		add	sp, sp, #32
 485              		@ sp needed
 486 00e8 10BD     		pop	{r4, pc}
 487              	.L26:
ARM GAS  C:\Users\bryan.lee\AppData\Local\Temp\ccDqoJhc.s 			page 21


 488 00ea C046     		.align	2
 489              	.L25:
 490 00ec 00000000 		.word	cyBle_pendingFlashWrite
 491 00f0 00000000 		.word	cyBle_connHandle
 492 00f4 00000000 		.word	cyBle_flashStorage
 493 00f8 00000000 		.word	cyBle_attValuesCCCD
 494 00fc 79020000 		.word	cyBle_flashStorage+633
 495 0100 00000000 		.word	.LANCHOR2
 496              		.cfi_endproc
 497              	.LFE6:
 498              		.size	CyBle_StoreBondingData, .-CyBle_StoreBondingData
 499              		.section	.text.CyBle_GapRemoveBondedDevice,"ax",%progbits
 500              		.align	2
 501              		.global	CyBle_GapRemoveBondedDevice
 502              		.code	16
 503              		.thumb_func
 504              		.type	CyBle_GapRemoveBondedDevice, %function
 505              	CyBle_GapRemoveBondedDevice:
 506              	.LFB7:
 631:Generated_Source\PSoC4/BLE.c **** 
 632:Generated_Source\PSoC4/BLE.c **** 
 633:Generated_Source\PSoC4/BLE.c **** /******************************************************************************
 634:Generated_Source\PSoC4/BLE.c **** * Function Name: CyBle_GapRemoveBondedDevice
 635:Generated_Source\PSoC4/BLE.c **** ***************************************************************************//**
 636:Generated_Source\PSoC4/BLE.c **** * 
 637:Generated_Source\PSoC4/BLE.c **** *  This function marks the device untrusted. It removes the bonding information
 638:Generated_Source\PSoC4/BLE.c **** *  of the device including CCCD values. This function removes device from the
 639:Generated_Source\PSoC4/BLE.c **** *  white list also when autopopulate white list with bonded devices option is
 640:Generated_Source\PSoC4/BLE.c **** *  enabled.
 641:Generated_Source\PSoC4/BLE.c **** * 
 642:Generated_Source\PSoC4/BLE.c **** *  This function is available only when Bonding requirement is selected in
 643:Generated_Source\PSoC4/BLE.c **** *  Security settings.    
 644:Generated_Source\PSoC4/BLE.c **** *
 645:Generated_Source\PSoC4/BLE.c **** *  \param bdAddr: Pointer to peer device address, of type CYBLE_GAP_BD_ADDR_T.
 646:Generated_Source\PSoC4/BLE.c **** *                 If device address is set to 0, then all devices shall be
 647:Generated_Source\PSoC4/BLE.c **** *                 removed from trusted list and white list.
 648:Generated_Source\PSoC4/BLE.c **** *
 649:Generated_Source\PSoC4/BLE.c **** * \return
 650:Generated_Source\PSoC4/BLE.c **** *  CYBLE_API_RESULT_T : Return value indicates if the function succeeded or
 651:Generated_Source\PSoC4/BLE.c **** *  failed. Following are the possible error codes.
 652:Generated_Source\PSoC4/BLE.c **** *
 653:Generated_Source\PSoC4/BLE.c **** *   Errors codes                     | Description
 654:Generated_Source\PSoC4/BLE.c **** *   ---------------------------------| ------------------------------------
 655:Generated_Source\PSoC4/BLE.c **** *   CYBLE_ERROR_OK                   | On successful operation.
 656:Generated_Source\PSoC4/BLE.c **** *   CYBLE_ERROR_INVALID_PARAMETER    | On specifying NULL as input parameter for 'bdAddr'.
 657:Generated_Source\PSoC4/BLE.c **** *   CYBLE_ERROR_INVALID_OPERATION    | Whitelist is already in use or there is pending write to fla
 658:Generated_Source\PSoC4/BLE.c **** *   CYBLE_ERROR_NO_DEVICE_ENTITY     | Device does not exist in the bond list.
 659:Generated_Source\PSoC4/BLE.c **** *
 660:Generated_Source\PSoC4/BLE.c **** *  \globalvars
 661:Generated_Source\PSoC4/BLE.c **** *   The bdHandle is set in cyBle_pendingFlashWrite variable to indicate that
 662:Generated_Source\PSoC4/BLE.c **** *   data should be stored to flash by CyBle_StoreBondingData() afterwards. 
 663:Generated_Source\PSoC4/BLE.c **** *     
 664:Generated_Source\PSoC4/BLE.c **** ******************************************************************************/
 665:Generated_Source\PSoC4/BLE.c **** CYBLE_API_RESULT_T CyBle_GapRemoveBondedDevice(CYBLE_GAP_BD_ADDR_T* bdAddr)
 666:Generated_Source\PSoC4/BLE.c **** {
 507              		.loc 1 666 0
 508              		.cfi_startproc
ARM GAS  C:\Users\bryan.lee\AppData\Local\Temp\ccDqoJhc.s 			page 22


 509              		@ args = 0, pretend = 0, frame = 16
 510              		@ frame_needed = 0, uses_anonymous_args = 0
 511              	.LVL33:
 512 0000 30B5     		push	{r4, r5, lr}
 513              		.cfi_def_cfa_offset 12
 514              		.cfi_offset 4, -12
 515              		.cfi_offset 5, -8
 516              		.cfi_offset 14, -4
 517 0002 85B0     		sub	sp, sp, #20
 518              		.cfi_def_cfa_offset 32
 519 0004 0500     		movs	r5, r0
 520              	.LVL34:
 667:Generated_Source\PSoC4/BLE.c ****     CYBLE_API_RESULT_T apiResult = CYBLE_ERROR_OK;
 668:Generated_Source\PSoC4/BLE.c ****     
 669:Generated_Source\PSoC4/BLE.c ****     if(cyBle_pendingFlashWrite == 0u)
 521              		.loc 1 669 0
 522 0006 174B     		ldr	r3, .L33
 523 0008 1C78     		ldrb	r4, [r3]
 524 000a 002C     		cmp	r4, #0
 525 000c 26D1     		bne	.L32
 526              	.LBB5:
 670:Generated_Source\PSoC4/BLE.c ****     {
 671:Generated_Source\PSoC4/BLE.c ****         
 672:Generated_Source\PSoC4/BLE.c ****     #if(CYBLE_GATT_DB_CCCD_COUNT != 0u)
 673:Generated_Source\PSoC4/BLE.c ****         /* Request to clear CCCD values which will be done by CyBle_StoreBondingData() */
 674:Generated_Source\PSoC4/BLE.c ****         uint8 bDevHandle;
 675:Generated_Source\PSoC4/BLE.c ****         CYBLE_GAP_BD_ADDR_T invalidBdAddr = {{0u,0u,0u,0u,0u,0u}, 0u};
 527              		.loc 1 675 0
 528 000e 0722     		movs	r2, #7
 529 0010 0021     		movs	r1, #0
 530 0012 02A8     		add	r0, sp, #8
 531              	.LVL35:
 532 0014 FFF7FEFF 		bl	memset
 533              	.LVL36:
 676:Generated_Source\PSoC4/BLE.c **** 
 677:Generated_Source\PSoC4/BLE.c ****         if(memcmp(((uint8 *) &(bdAddr->bdAddr)), ((uint8 *) &(invalidBdAddr.bdAddr)), CYBLE_GAP_BD_
 534              		.loc 1 677 0
 535 0018 0622     		movs	r2, #6
 536 001a 02A9     		add	r1, sp, #8
 537 001c 2800     		movs	r0, r5
 538 001e FFF7FEFF 		bl	memcmp
 539              	.LVL37:
 540 0022 0028     		cmp	r0, #0
 541 0024 04D1     		bne	.L29
 678:Generated_Source\PSoC4/BLE.c **** 	    {
 679:Generated_Source\PSoC4/BLE.c ****             /* Request to remove all bonded devices by CyBle_StoreBondingData() */
 680:Generated_Source\PSoC4/BLE.c ****             cyBle_pendingFlashWrite |= CYBLE_PENDING_CCCD_FLASH_CLEAR_ALL_BIT;
 542              		.loc 1 680 0
 543 0026 0823     		movs	r3, #8
 544 0028 1C43     		orrs	r4, r3
 545 002a 0E4B     		ldr	r3, .L33
 546 002c 1C70     		strb	r4, [r3]
 547 002e 0FE0     		b	.L30
 548              	.L29:
 681:Generated_Source\PSoC4/BLE.c ****         }
 682:Generated_Source\PSoC4/BLE.c ****         else
 683:Generated_Source\PSoC4/BLE.c ****         {
ARM GAS  C:\Users\bryan.lee\AppData\Local\Temp\ccDqoJhc.s 			page 23


 684:Generated_Source\PSoC4/BLE.c ****             /* Get the BD handle from Address */
 685:Generated_Source\PSoC4/BLE.c ****             apiResult = CyBle_GapGetPeerBdHandle(&bDevHandle, bdAddr);
 549              		.loc 1 685 0
 550 0030 2900     		movs	r1, r5
 551 0032 6B46     		mov	r3, sp
 552 0034 D81D     		adds	r0, r3, #7
 553 0036 FFF7FEFF 		bl	CyBle_GapGetPeerBdHandle
 554              	.LVL38:
 686:Generated_Source\PSoC4/BLE.c ****             if(apiResult == CYBLE_ERROR_OK)
 555              		.loc 1 686 0
 556 003a 0028     		cmp	r0, #0
 557 003c 08D1     		bne	.L30
 687:Generated_Source\PSoC4/BLE.c ****             {
 688:Generated_Source\PSoC4/BLE.c ****                 /* Store BD handle to clear cccd values by CyBle_StoreBondingData() */
 689:Generated_Source\PSoC4/BLE.c ****                 cyBle_pendingFlashWrite |= CYBLE_PENDING_CCCD_FLASH_CLEAR_BIT;
 558              		.loc 1 689 0
 559 003e 094A     		ldr	r2, .L33
 560 0040 1178     		ldrb	r1, [r2]
 561 0042 0423     		movs	r3, #4
 562 0044 0B43     		orrs	r3, r1
 563 0046 1370     		strb	r3, [r2]
 690:Generated_Source\PSoC4/BLE.c ****                 cyBle_pendingFlashClearCccdHandle = bDevHandle;
 564              		.loc 1 690 0
 565 0048 6B46     		mov	r3, sp
 566 004a DA79     		ldrb	r2, [r3, #7]
 567 004c 064B     		ldr	r3, .L33+4
 568 004e 5A70     		strb	r2, [r3, #1]
 569              	.LVL39:
 570              	.L30:
 691:Generated_Source\PSoC4/BLE.c ****             }
 692:Generated_Source\PSoC4/BLE.c ****         }
 693:Generated_Source\PSoC4/BLE.c ****     #endif /* CYBLE_GATT_DB_CCCD_COUNT != 0u */
 694:Generated_Source\PSoC4/BLE.c ****         if(apiResult == CYBLE_ERROR_OK)
 571              		.loc 1 694 0
 572 0050 0028     		cmp	r0, #0
 573 0052 04D1     		bne	.L28
 695:Generated_Source\PSoC4/BLE.c ****         {
 696:Generated_Source\PSoC4/BLE.c ****             apiResult = CyBle_GapRemoveDeviceFromWhiteList(bdAddr);
 574              		.loc 1 696 0
 575 0054 2800     		movs	r0, r5
 576              	.LVL40:
 577 0056 FFF7FEFF 		bl	CyBle_GapRemoveDeviceFromWhiteList
 578              	.LVL41:
 579 005a 00E0     		b	.L28
 580              	.LVL42:
 581              	.L32:
 582              	.LBE5:
 697:Generated_Source\PSoC4/BLE.c ****         }
 698:Generated_Source\PSoC4/BLE.c ****     }
 699:Generated_Source\PSoC4/BLE.c ****     else
 700:Generated_Source\PSoC4/BLE.c ****     {
 701:Generated_Source\PSoC4/BLE.c ****         apiResult = CYBLE_ERROR_INVALID_OPERATION;
 583              		.loc 1 701 0
 584 005c 0220     		movs	r0, #2
 585              	.LVL43:
 586              	.L28:
 702:Generated_Source\PSoC4/BLE.c ****     }
ARM GAS  C:\Users\bryan.lee\AppData\Local\Temp\ccDqoJhc.s 			page 24


 703:Generated_Source\PSoC4/BLE.c ****     
 704:Generated_Source\PSoC4/BLE.c ****     return(apiResult);
 705:Generated_Source\PSoC4/BLE.c **** }
 587              		.loc 1 705 0
 588 005e 05B0     		add	sp, sp, #20
 589              		@ sp needed
 590              	.LVL44:
 591 0060 30BD     		pop	{r4, r5, pc}
 592              	.L34:
 593 0062 C046     		.align	2
 594              	.L33:
 595 0064 00000000 		.word	cyBle_pendingFlashWrite
 596 0068 00000000 		.word	.LANCHOR2
 597              		.cfi_endproc
 598              	.LFE7:
 599              		.size	CyBle_GapRemoveBondedDevice, .-CyBle_GapRemoveBondedDevice
 600              		.section	.text.CyBle_GapcStartScan,"ax",%progbits
 601              		.align	2
 602              		.global	CyBle_GapcStartScan
 603              		.code	16
 604              		.thumb_func
 605              		.type	CyBle_GapcStartScan, %function
 606              	CyBle_GapcStartScan:
 607              	.LFB8:
 706:Generated_Source\PSoC4/BLE.c **** 
 707:Generated_Source\PSoC4/BLE.c **** 
 708:Generated_Source\PSoC4/BLE.c **** #endif /* (CYBLE_GAP_ROLE_PERIPHERAL || CYBLE_GAP_ROLE_CENTRAL) && (CYBLE_BONDING_REQUIREMENT == CY
 709:Generated_Source\PSoC4/BLE.c **** 
 710:Generated_Source\PSoC4/BLE.c **** 
 711:Generated_Source\PSoC4/BLE.c **** #if(CYBLE_GAP_ROLE_PERIPHERAL || CYBLE_GAP_ROLE_BROADCASTER)
 712:Generated_Source\PSoC4/BLE.c **** 
 713:Generated_Source\PSoC4/BLE.c ****     /******************************************************************************
 714:Generated_Source\PSoC4/BLE.c ****     *  Function Name: CyBle_GappStartAdvertisement
 715:Generated_Source\PSoC4/BLE.c ****     ***************************************************************************//**
 716:Generated_Source\PSoC4/BLE.c ****     *     
 717:Generated_Source\PSoC4/BLE.c ****     *  This function is used to start the advertisement using the advertisement data 
 718:Generated_Source\PSoC4/BLE.c ****     *  set in the component customizer's GUI. After invoking this function, the 
 719:Generated_Source\PSoC4/BLE.c ****     *  device will be available for connection by the devices configured for GAP 
 720:Generated_Source\PSoC4/BLE.c ****     *  central role. It is only included if the device is configured for GAP 
 721:Generated_Source\PSoC4/BLE.c ****     *  Peripheral or GAP Peripheral + Central role.
 722:Generated_Source\PSoC4/BLE.c ****     *  
 723:Generated_Source\PSoC4/BLE.c ****     *  On start of advertisement, GAP Peripheral receives the
 724:Generated_Source\PSoC4/BLE.c ****     *  CYBLE_EVT_GAPP_ADVERTISEMENT_START_STOP event. The following events are 
 725:Generated_Source\PSoC4/BLE.c ****     *  possible on invoking this function:
 726:Generated_Source\PSoC4/BLE.c ****     *  
 727:Generated_Source\PSoC4/BLE.c ****     *  * CYBLE_EVT_GAP_DEVICE_CONNECTED - If the device connects to a GAP Central and 
 728:Generated_Source\PSoC4/BLE.c ****     *    Link Layer Privacy is disabled in component customizer.
 729:Generated_Source\PSoC4/BLE.c ****     *  * CYBLE_EVT_GAP_ENHANCE_CONN_COMPLETE - If the device connects to a GAP Central and 
 730:Generated_Source\PSoC4/BLE.c ****     *    Link Layer Privacy is enabled in component customizer.
 731:Generated_Source\PSoC4/BLE.c ****     *  * CYBLE_EVT_TIMEOUT: If no device in GAP Central mode connects to this 
 732:Generated_Source\PSoC4/BLE.c ****     *                       device within the specified timeout limit. Stack 
 733:Generated_Source\PSoC4/BLE.c ****     *                       automatically initiate stop advertising when Slow 
 734:Generated_Source\PSoC4/BLE.c ****     *                       advertising was initiated, or starts Slow advertising
 735:Generated_Source\PSoC4/BLE.c ****     *                       after Fast advertising timeout occur.
 736:Generated_Source\PSoC4/BLE.c ****     *  * CYBLE_EVT_GAPP_ADVERTISEMENT_START_STOP: If device started or stopped
 737:Generated_Source\PSoC4/BLE.c ****     *                                               advertising. Use CyBle_GetState()
 738:Generated_Source\PSoC4/BLE.c ****     *                                               to determine the state. Sequential 
ARM GAS  C:\Users\bryan.lee\AppData\Local\Temp\ccDqoJhc.s 			page 25


 739:Generated_Source\PSoC4/BLE.c ****     *                                               advertising could be started when
 740:Generated_Source\PSoC4/BLE.c ****     *                                               CYBLE_STATE_DISCONNECTED state is
 741:Generated_Source\PSoC4/BLE.c ****     *                                               returned.
 742:Generated_Source\PSoC4/BLE.c ****     * 
 743:Generated_Source\PSoC4/BLE.c ****     *  \param advertisingIntervalType: Fast or slow advertising interval with timings
 744:Generated_Source\PSoC4/BLE.c ****     *                                 entered in Advertising settings section of the
 745:Generated_Source\PSoC4/BLE.c ****     *                                 customizer.
 746:Generated_Source\PSoC4/BLE.c ****     *  * CYBLE_ADVERTISING_FAST   0x00u
 747:Generated_Source\PSoC4/BLE.c ****     *  * CYBLE_ADVERTISING_SLOW   0x01u
 748:Generated_Source\PSoC4/BLE.c ****     *  * CYBLE_ADVERTISING_CUSTOM 0x02u
 749:Generated_Source\PSoC4/BLE.c ****     * 
 750:Generated_Source\PSoC4/BLE.c ****     * \return
 751:Generated_Source\PSoC4/BLE.c ****     *  CYBLE_API_RESULT_T : Return value indicates if the function succeeded or
 752:Generated_Source\PSoC4/BLE.c ****     *  failed. Following are the possible error codes.
 753:Generated_Source\PSoC4/BLE.c ****     * 
 754:Generated_Source\PSoC4/BLE.c ****     *   Errors codes                      |  Description
 755:Generated_Source\PSoC4/BLE.c ****     *   --------------------------------- |  --------------------------------
 756:Generated_Source\PSoC4/BLE.c ****     *   CYBLE_ERROR_OK                    |  On successful operation.
 757:Generated_Source\PSoC4/BLE.c ****     *   CYBLE_ERROR_INVALID_PARAMETER     |  On passing an invalid parameter.
 758:Generated_Source\PSoC4/BLE.c ****     *   CYBLE_ERROR_INVALID_STATE         |  On calling this function not in Disconnected state.
 759:Generated_Source\PSoC4/BLE.c ****     *
 760:Generated_Source\PSoC4/BLE.c ****     * 
 761:Generated_Source\PSoC4/BLE.c ****     *******************************************************************************/
 762:Generated_Source\PSoC4/BLE.c ****     CYBLE_API_RESULT_T CyBle_GappStartAdvertisement(uint8 advertisingIntervalType)
 763:Generated_Source\PSoC4/BLE.c ****     {
 764:Generated_Source\PSoC4/BLE.c ****         CYBLE_API_RESULT_T apiResult;
 765:Generated_Source\PSoC4/BLE.c ****         
 766:Generated_Source\PSoC4/BLE.c ****         if(advertisingIntervalType > CYBLE_ADVERTISING_CUSTOM)
 767:Generated_Source\PSoC4/BLE.c ****         {
 768:Generated_Source\PSoC4/BLE.c ****             apiResult = CYBLE_ERROR_INVALID_PARAMETER;
 769:Generated_Source\PSoC4/BLE.c ****         }
 770:Generated_Source\PSoC4/BLE.c ****         else if((CYBLE_STATE_DISCONNECTED == CyBle_GetState()) && ((cyBle_eventHandlerFlag & CYBLE_
 771:Generated_Source\PSoC4/BLE.c ****         {   
 772:Generated_Source\PSoC4/BLE.c ****             if(advertisingIntervalType == CYBLE_ADVERTISING_FAST)
 773:Generated_Source\PSoC4/BLE.c ****             {
 774:Generated_Source\PSoC4/BLE.c ****                 cyBle_discoveryModeInfo.advTo = CYBLE_FAST_ADV_TIMEOUT;
 775:Generated_Source\PSoC4/BLE.c ****                 cyBle_discoveryModeInfo.advParam->advIntvMin = CYBLE_FAST_ADV_INT_MIN;
 776:Generated_Source\PSoC4/BLE.c ****                 cyBle_discoveryModeInfo.advParam->advIntvMax = CYBLE_FAST_ADV_INT_MAX;
 777:Generated_Source\PSoC4/BLE.c ****             }
 778:Generated_Source\PSoC4/BLE.c ****             else if(advertisingIntervalType == CYBLE_ADVERTISING_SLOW)
 779:Generated_Source\PSoC4/BLE.c ****             {
 780:Generated_Source\PSoC4/BLE.c ****                 cyBle_discoveryModeInfo.advTo = CYBLE_SLOW_ADV_TIMEOUT;
 781:Generated_Source\PSoC4/BLE.c ****                 cyBle_discoveryModeInfo.advParam->advIntvMin = CYBLE_SLOW_ADV_INT_MIN;
 782:Generated_Source\PSoC4/BLE.c ****                 cyBle_discoveryModeInfo.advParam->advIntvMax = CYBLE_SLOW_ADV_INT_MAX;
 783:Generated_Source\PSoC4/BLE.c ****             }       
 784:Generated_Source\PSoC4/BLE.c ****             else /* Do not update advertising intervals */
 785:Generated_Source\PSoC4/BLE.c ****             {
 786:Generated_Source\PSoC4/BLE.c ****             }
 787:Generated_Source\PSoC4/BLE.c ****             cyBle_advertisingIntervalType = advertisingIntervalType;
 788:Generated_Source\PSoC4/BLE.c ****             apiResult = CyBle_GappEnterDiscoveryMode(&cyBle_discoveryModeInfo);
 789:Generated_Source\PSoC4/BLE.c ****         
 790:Generated_Source\PSoC4/BLE.c ****             if(apiResult == CYBLE_ERROR_OK)
 791:Generated_Source\PSoC4/BLE.c ****             {
 792:Generated_Source\PSoC4/BLE.c ****                 cyBle_eventHandlerFlag |= CYBLE_START_FLAG;
 793:Generated_Source\PSoC4/BLE.c ****             }
 794:Generated_Source\PSoC4/BLE.c ****         }
 795:Generated_Source\PSoC4/BLE.c ****         else
ARM GAS  C:\Users\bryan.lee\AppData\Local\Temp\ccDqoJhc.s 			page 26


 796:Generated_Source\PSoC4/BLE.c ****         {
 797:Generated_Source\PSoC4/BLE.c ****             apiResult = CYBLE_ERROR_INVALID_STATE;
 798:Generated_Source\PSoC4/BLE.c ****         }
 799:Generated_Source\PSoC4/BLE.c **** 
 800:Generated_Source\PSoC4/BLE.c ****         return (apiResult);
 801:Generated_Source\PSoC4/BLE.c ****     }
 802:Generated_Source\PSoC4/BLE.c **** 
 803:Generated_Source\PSoC4/BLE.c ****     
 804:Generated_Source\PSoC4/BLE.c ****     /******************************************************************************
 805:Generated_Source\PSoC4/BLE.c ****     * Function Name: CyBle_GappStopAdvertisement
 806:Generated_Source\PSoC4/BLE.c ****     ***************************************************************************//**
 807:Generated_Source\PSoC4/BLE.c ****     * 
 808:Generated_Source\PSoC4/BLE.c ****     *   This function can be used to exit from discovery mode. After the execution 
 809:Generated_Source\PSoC4/BLE.c ****     *   of this function, there will no longer be any advertisements. On stopping 
 810:Generated_Source\PSoC4/BLE.c ****     *   advertising, GAP Peripheral receives CYBLE_EVT_GAPP_ADVERTISEMENT_START_STOP
 811:Generated_Source\PSoC4/BLE.c ****     *   event. It is expected that the application layer tracks the function call 
 812:Generated_Source\PSoC4/BLE.c ****     *   performed before occurrence of this event as this event can occur on making 
 813:Generated_Source\PSoC4/BLE.c ****     *   a call to Cy_BleGappStartAdvertisement(), CyBle_GappEnterDiscoveryMode(), 
 814:Generated_Source\PSoC4/BLE.c ****     *   or CyBle_GappStartAdvertisement() functions as well.
 815:Generated_Source\PSoC4/BLE.c ****     *   
 816:Generated_Source\PSoC4/BLE.c ****     *   The following event occurs on invoking this function:
 817:Generated_Source\PSoC4/BLE.c ****     *   * CYBLE_EVT_GAPP_ADVERTISEMENT_START_STOP
 818:Generated_Source\PSoC4/BLE.c ****     * 
 819:Generated_Source\PSoC4/BLE.c ****     *  \return
 820:Generated_Source\PSoC4/BLE.c ****     *   None
 821:Generated_Source\PSoC4/BLE.c ****     * 
 822:Generated_Source\PSoC4/BLE.c ****     *******************************************************************************/
 823:Generated_Source\PSoC4/BLE.c ****     void CyBle_GappStopAdvertisement(void)
 824:Generated_Source\PSoC4/BLE.c ****     {
 825:Generated_Source\PSoC4/BLE.c ****         CyBle_GappExitDiscoveryMode();
 826:Generated_Source\PSoC4/BLE.c ****         cyBle_eventHandlerFlag |= CYBLE_STOP_FLAG;
 827:Generated_Source\PSoC4/BLE.c ****     }
 828:Generated_Source\PSoC4/BLE.c ****     
 829:Generated_Source\PSoC4/BLE.c ****     
 830:Generated_Source\PSoC4/BLE.c ****     /******************************************************************************
 831:Generated_Source\PSoC4/BLE.c ****     * Function Name: CyBle_ChangeAdDeviceAddress
 832:Generated_Source\PSoC4/BLE.c ****     ***************************************************************************//**
 833:Generated_Source\PSoC4/BLE.c ****     * 
 834:Generated_Source\PSoC4/BLE.c ****     *  This function is used to set the Bluetooth device address into the 
 835:Generated_Source\PSoC4/BLE.c ****     *  advertisement or scan response data structure.
 836:Generated_Source\PSoC4/BLE.c ****     * 
 837:Generated_Source\PSoC4/BLE.c ****     *  \param bdAddr: Bluetooth Device address. The variable is of type CYBLE_GAP_BD_ADDR_T
 838:Generated_Source\PSoC4/BLE.c ****     *  \param dest: 0 - selects advertisement structure, not zero value selects scan 
 839:Generated_Source\PSoC4/BLE.c ****     *               response structure.
 840:Generated_Source\PSoC4/BLE.c ****     * 
 841:Generated_Source\PSoC4/BLE.c ****     * \return
 842:Generated_Source\PSoC4/BLE.c ****     *  None
 843:Generated_Source\PSoC4/BLE.c ****     *  
 844:Generated_Source\PSoC4/BLE.c ****     *******************************************************************************/
 845:Generated_Source\PSoC4/BLE.c ****     void CyBle_ChangeAdDeviceAddress(const CYBLE_GAP_BD_ADDR_T* bdAddr, uint8 dest)
 846:Generated_Source\PSoC4/BLE.c ****     {
 847:Generated_Source\PSoC4/BLE.c ****         uint8 i;
 848:Generated_Source\PSoC4/BLE.c ****         uint8 *destBuffer = NULL;
 849:Generated_Source\PSoC4/BLE.c ****         
 850:Generated_Source\PSoC4/BLE.c ****         if(dest == 0u)      /* Destination - advertising structure */
 851:Generated_Source\PSoC4/BLE.c ****         {
 852:Generated_Source\PSoC4/BLE.c ****             #ifdef CYBLE_ADV_PKT_INDEX_BLUETOOTH_DEVICE_ADDRESS
ARM GAS  C:\Users\bryan.lee\AppData\Local\Temp\ccDqoJhc.s 			page 27


 853:Generated_Source\PSoC4/BLE.c ****                 destBuffer = &cyBle_discoveryData.advData[CYBLE_ADV_PKT_INDEX_BLUETOOTH_DEVICE_ADDR
 854:Generated_Source\PSoC4/BLE.c ****             #endif /* CYBLE_ADV_PKT_INDEX_BLUETOOTH_DEVICE_ADDRESS */
 855:Generated_Source\PSoC4/BLE.c ****         }
 856:Generated_Source\PSoC4/BLE.c ****         else                /* Destination - scan response structure */
 857:Generated_Source\PSoC4/BLE.c ****         {
 858:Generated_Source\PSoC4/BLE.c ****             #ifdef CYBLE_SCN_PKT_INDEX_BLUETOOTH_DEVICE_ADDRESS
 859:Generated_Source\PSoC4/BLE.c ****                 destBuffer = &cyBle_scanRspData.scanRspData[CYBLE_SCN_PKT_INDEX_BLUETOOTH_DEVICE_AD
 860:Generated_Source\PSoC4/BLE.c ****             #endif /* CYBLE_SCN_PKT_INDEX_BLUETOOTH_DEVICE_ADDRESS */    
 861:Generated_Source\PSoC4/BLE.c ****         }
 862:Generated_Source\PSoC4/BLE.c ****         
 863:Generated_Source\PSoC4/BLE.c ****         if(destBuffer != NULL)
 864:Generated_Source\PSoC4/BLE.c ****         {
 865:Generated_Source\PSoC4/BLE.c ****             /* Update Device Address type */
 866:Generated_Source\PSoC4/BLE.c ****             destBuffer[0u] = bdAddr->type;
 867:Generated_Source\PSoC4/BLE.c ****             
 868:Generated_Source\PSoC4/BLE.c ****             for(i = 0u; i < CYBLE_GAP_BD_ADDR_SIZE; i++)
 869:Generated_Source\PSoC4/BLE.c ****             {
 870:Generated_Source\PSoC4/BLE.c ****                 destBuffer[i + 1u] = bdAddr->bdAddr[i];
 871:Generated_Source\PSoC4/BLE.c ****             }
 872:Generated_Source\PSoC4/BLE.c ****         }
 873:Generated_Source\PSoC4/BLE.c ****     }
 874:Generated_Source\PSoC4/BLE.c ****   
 875:Generated_Source\PSoC4/BLE.c **** #endif /* CYBLE_GAP_ROLE_PERIPHERAL || CYBLE_GAP_ROLE_BROADCASTER */
 876:Generated_Source\PSoC4/BLE.c **** 
 877:Generated_Source\PSoC4/BLE.c **** 
 878:Generated_Source\PSoC4/BLE.c **** #if(CYBLE_GAP_ROLE_CENTRAL || CYBLE_GAP_ROLE_OBSERVER)
 879:Generated_Source\PSoC4/BLE.c **** 
 880:Generated_Source\PSoC4/BLE.c ****     /******************************************************************************
 881:Generated_Source\PSoC4/BLE.c ****     * Function Name: CyBle_GapcStartScan
 882:Generated_Source\PSoC4/BLE.c ****     ***************************************************************************//**
 883:Generated_Source\PSoC4/BLE.c ****     * 
 884:Generated_Source\PSoC4/BLE.c ****     *   This function is used for discovering GAP peripheral devices that are 
 885:Generated_Source\PSoC4/BLE.c ****     *   available for connection. It performs the scanning routine using the 
 886:Generated_Source\PSoC4/BLE.c ****     *   parameters entered in the component's customizer.
 887:Generated_Source\PSoC4/BLE.c ****     *   
 888:Generated_Source\PSoC4/BLE.c ****     *   As soon as the discovery operation starts, CYBLE_EVT_GAPC_SCAN_START_STOP 
 889:Generated_Source\PSoC4/BLE.c ****     *   event is generated. The CYBLE_EVT_GAPC_SCAN_PROGRESS_RESULT event is 
 890:Generated_Source\PSoC4/BLE.c ****     *   generated when a GAP peripheral device is located. There are three discovery
 891:Generated_Source\PSoC4/BLE.c ****     *   procedures can be selected in the customizer's GUI:
 892:Generated_Source\PSoC4/BLE.c ****     *   
 893:Generated_Source\PSoC4/BLE.c ****     *   * Observation procedure: A device performing the observer role receives only
 894:Generated_Source\PSoC4/BLE.c ****     *                            advertisement data from devices irrespective of 
 895:Generated_Source\PSoC4/BLE.c ****     *                            their discoverable mode settings. Advertisement 
 896:Generated_Source\PSoC4/BLE.c ****     *                            data received is provided by the event,      
 897:Generated_Source\PSoC4/BLE.c ****     *                            CYBLE_EVT_GAPC_SCAN_PROGRESS_RESULT. This procedure
 898:Generated_Source\PSoC4/BLE.c ****     *                            requires the scanType sub parameter to be passive
 899:Generated_Source\PSoC4/BLE.c ****     *                            scanning. 
 900:Generated_Source\PSoC4/BLE.c ****     *   
 901:Generated_Source\PSoC4/BLE.c ****     *   * Limited Discovery procedure: A device performing the limited discovery
 902:Generated_Source\PSoC4/BLE.c ****     *                                  procedure receives advertisement data and 
 903:Generated_Source\PSoC4/BLE.c ****     *                                  scan# response data from devices in the 
 904:Generated_Source\PSoC4/BLE.c ****     *                                  limited discoverable mode only. Received data
 905:Generated_Source\PSoC4/BLE.c ****     *                                  is provided by the event, 
 906:Generated_Source\PSoC4/BLE.c ****     *                                  CYBLE_EVT_GAPC_SCAN_PROGRESS_RESULT. This 
 907:Generated_Source\PSoC4/BLE.c ****     *                                  procedure requires the scanType sub-parameter 
 908:Generated_Source\PSoC4/BLE.c ****     *                                  to be active scanning.
 909:Generated_Source\PSoC4/BLE.c ****     *   
ARM GAS  C:\Users\bryan.lee\AppData\Local\Temp\ccDqoJhc.s 			page 28


 910:Generated_Source\PSoC4/BLE.c ****     *   * General Discovery procedure: A device performing the general discovery 
 911:Generated_Source\PSoC4/BLE.c ****     *                                  procedure receives the advertisement data and
 912:Generated_Source\PSoC4/BLE.c ****     *                                  scan response data from devices in both 
 913:Generated_Source\PSoC4/BLE.c ****     *                                  limited discoverable mode and the general 
 914:Generated_Source\PSoC4/BLE.c ****     *                                  discoverable mode. Received data is provided
 915:Generated_Source\PSoC4/BLE.c ****     *                                  by the event,
 916:Generated_Source\PSoC4/BLE.c ****     *                                  CYBLE_EVT_GAPC_SCAN_PROGRESS_RESULT. This 
 917:Generated_Source\PSoC4/BLE.c ****     *                                  procedure requires the scanType sub-parameter
 918:Generated_Source\PSoC4/BLE.c ****     *                                  to be active scanning.
 919:Generated_Source\PSoC4/BLE.c ****     *   
 920:Generated_Source\PSoC4/BLE.c ****     *   Every Advertisement / Scan response packet received results in a new event, 
 921:Generated_Source\PSoC4/BLE.c ****     *   CYBLE_EVT_GAPC_SCAN_PROGRESS_RESULT.
 922:Generated_Source\PSoC4/BLE.c ****     *   If 'scanTo' sub-parameter is a non-zero value, then upon commencement of 
 923:Generated_Source\PSoC4/BLE.c ****     *   discovery procedure and elapsed time = 'scanTo', CYBLE_EVT_TIMEOUT event
 924:Generated_Source\PSoC4/BLE.c ****     *   is generated with the event parameter indicating CYBLE_GAP_SCAN_TO.
 925:Generated_Source\PSoC4/BLE.c ****     *   Possible generated events are:
 926:Generated_Source\PSoC4/BLE.c ****     *   * CYBLE_EVT_GAPC_SCAN_START_STOP: If a device started or stopped scanning. 
 927:Generated_Source\PSoC4/BLE.c ****     *                                     Use CyBle_GetState() to determine the 
 928:Generated_Source\PSoC4/BLE.c ****     *                                     state. Sequential scanning could be 
 929:Generated_Source\PSoC4/BLE.c ****     *                                     started when CYBLE_STATE_DISCONNECTED 
 930:Generated_Source\PSoC4/BLE.c ****     *                                     state is returned. 
 931:Generated_Source\PSoC4/BLE.c ****     *   * CYBLE_EVT_GAPC_SCAN_PROGRESS_RESULT 
 932:Generated_Source\PSoC4/BLE.c ****     *   * CYBLE_EVT_TIMEOUT (CYBLE_GAP_SCAN_TO)
 933:Generated_Source\PSoC4/BLE.c ****     * 
 934:Generated_Source\PSoC4/BLE.c ****     *   \param scanningIntervalType:  Fast or slow scanning interval with
 935:Generated_Source\PSoC4/BLE.c ****     *       timings entered in Scan settings section of the customizer.
 936:Generated_Source\PSoC4/BLE.c ****     * 	  * CYBLE_SCANNING_FAST   0x00u
 937:Generated_Source\PSoC4/BLE.c ****     * 	  * CYBLE_SCANNING_SLOW   0x01u
 938:Generated_Source\PSoC4/BLE.c ****     * 	  * CYBLE_SCANNING_CUSTOM 0x02u
 939:Generated_Source\PSoC4/BLE.c ****     * 
 940:Generated_Source\PSoC4/BLE.c ****     * \return
 941:Generated_Source\PSoC4/BLE.c ****     *  CYBLE_API_RESULT_T : Return value indicates if the function succeeded or
 942:Generated_Source\PSoC4/BLE.c ****     *  failed. Following are the possible error codes.
 943:Generated_Source\PSoC4/BLE.c ****     *
 944:Generated_Source\PSoC4/BLE.c ****     *   Errors codes                       | Description
 945:Generated_Source\PSoC4/BLE.c ****     *   ---------------------------------- | -----------------------------------
 946:Generated_Source\PSoC4/BLE.c ****     *   CYBLE_ERROR_OK                     | On successful operation.
 947:Generated_Source\PSoC4/BLE.c ****     *   CYBLE_ERROR_STACK_INTERNAL         | An error occurred in the BLE stack.
 948:Generated_Source\PSoC4/BLE.c ****     *   CYBLE_ERROR_INVALID_PARAMETER      | On passing an invalid parameter.
 949:Generated_Source\PSoC4/BLE.c ****     *  
 950:Generated_Source\PSoC4/BLE.c ****     *******************************************************************************/
 951:Generated_Source\PSoC4/BLE.c ****     CYBLE_API_RESULT_T CyBle_GapcStartScan(uint8 scanningIntervalType)
 952:Generated_Source\PSoC4/BLE.c ****     {
 608              		.loc 1 952 0
 609              		.cfi_startproc
 610              		@ args = 0, pretend = 0, frame = 0
 611              		@ frame_needed = 0, uses_anonymous_args = 0
 612              	.LVL45:
 613 0000 10B5     		push	{r4, lr}
 614              		.cfi_def_cfa_offset 8
 615              		.cfi_offset 4, -8
 616              		.cfi_offset 14, -4
 953:Generated_Source\PSoC4/BLE.c ****         CYBLE_API_RESULT_T apiResult;
 954:Generated_Source\PSoC4/BLE.c **** 
 955:Generated_Source\PSoC4/BLE.c ****         if(scanningIntervalType > CYBLE_SCANNING_CUSTOM)
 617              		.loc 1 955 0
 618 0002 0228     		cmp	r0, #2
ARM GAS  C:\Users\bryan.lee\AppData\Local\Temp\ccDqoJhc.s 			page 29


 619 0004 20D8     		bhi	.L39
 956:Generated_Source\PSoC4/BLE.c ****         {
 957:Generated_Source\PSoC4/BLE.c ****             apiResult = CYBLE_ERROR_INVALID_PARAMETER;
 958:Generated_Source\PSoC4/BLE.c ****         }
 959:Generated_Source\PSoC4/BLE.c ****         else
 960:Generated_Source\PSoC4/BLE.c ****         {
 961:Generated_Source\PSoC4/BLE.c ****             if(scanningIntervalType == CYBLE_SCANNING_FAST)
 620              		.loc 1 961 0
 621 0006 0028     		cmp	r0, #0
 622 0008 06D1     		bne	.L37
 962:Generated_Source\PSoC4/BLE.c ****             {
 963:Generated_Source\PSoC4/BLE.c ****                 cyBle_discoveryInfo.scanTo = CYBLE_FAST_SCAN_TIMEOUT;
 623              		.loc 1 963 0
 624 000a 104B     		ldr	r3, .L40
 625 000c 1E22     		movs	r2, #30
 626 000e 1A81     		strh	r2, [r3, #8]
 964:Generated_Source\PSoC4/BLE.c ****                 cyBle_discoveryInfo.scanIntv = CYBLE_FAST_SCAN_INTERVAL;
 627              		.loc 1 964 0
 628 0010 1232     		adds	r2, r2, #18
 629 0012 5A80     		strh	r2, [r3, #2]
 965:Generated_Source\PSoC4/BLE.c ****                 cyBle_discoveryInfo.scanWindow = CYBLE_FAST_SCAN_WINDOW;
 630              		.loc 1 965 0
 631 0014 9A80     		strh	r2, [r3, #4]
 632 0016 09E0     		b	.L38
 633              	.L37:
 966:Generated_Source\PSoC4/BLE.c ****             }
 967:Generated_Source\PSoC4/BLE.c ****             else if(scanningIntervalType == CYBLE_SCANNING_SLOW)
 634              		.loc 1 967 0
 635 0018 0128     		cmp	r0, #1
 636 001a 07D1     		bne	.L38
 968:Generated_Source\PSoC4/BLE.c ****             {
 969:Generated_Source\PSoC4/BLE.c ****                 cyBle_discoveryInfo.scanTo = CYBLE_SLOW_SCAN_TIMEOUT;
 637              		.loc 1 969 0
 638 001c 0B4B     		ldr	r3, .L40
 639 001e 9622     		movs	r2, #150
 640 0020 1A81     		strh	r2, [r3, #8]
 970:Generated_Source\PSoC4/BLE.c ****                 cyBle_discoveryInfo.scanIntv = CYBLE_SLOW_SCAN_INTERVAL;
 641              		.loc 1 970 0
 642 0022 8022     		movs	r2, #128
 643 0024 1201     		lsls	r2, r2, #4
 644 0026 5A80     		strh	r2, [r3, #2]
 971:Generated_Source\PSoC4/BLE.c ****                 cyBle_discoveryInfo.scanWindow = CYBLE_SLOW_SCAN_WINDOW;
 645              		.loc 1 971 0
 646 0028 F83A     		subs	r2, r2, #248
 647 002a 9A80     		strh	r2, [r3, #4]
 648              	.L38:
 972:Generated_Source\PSoC4/BLE.c ****             }       
 973:Generated_Source\PSoC4/BLE.c ****             else /* Do not update scanning intervals */
 974:Generated_Source\PSoC4/BLE.c ****             {
 975:Generated_Source\PSoC4/BLE.c ****             }
 976:Generated_Source\PSoC4/BLE.c ****             
 977:Generated_Source\PSoC4/BLE.c ****             cyBle_scanningIntervalType = scanningIntervalType;
 649              		.loc 1 977 0
 650 002c 084B     		ldr	r3, .L40+4
 651 002e 1870     		strb	r0, [r3]
 978:Generated_Source\PSoC4/BLE.c ****             apiResult = CyBle_GapcStartDiscovery(&cyBle_discoveryInfo);
 652              		.loc 1 978 0
ARM GAS  C:\Users\bryan.lee\AppData\Local\Temp\ccDqoJhc.s 			page 30


 653 0030 0648     		ldr	r0, .L40
 654              	.LVL46:
 655 0032 FFF7FEFF 		bl	CyBle_GapcStartDiscovery
 656              	.LVL47:
 979:Generated_Source\PSoC4/BLE.c ****         
 980:Generated_Source\PSoC4/BLE.c ****             if(apiResult == CYBLE_ERROR_OK)
 657              		.loc 1 980 0
 658 0036 0028     		cmp	r0, #0
 659 0038 07D1     		bne	.L36
 981:Generated_Source\PSoC4/BLE.c ****             {
 982:Generated_Source\PSoC4/BLE.c ****                 cyBle_eventHandlerFlag |= CYBLE_START_FLAG;
 660              		.loc 1 982 0
 661 003a 064A     		ldr	r2, .L40+8
 662 003c 1178     		ldrb	r1, [r2]
 663 003e 0423     		movs	r3, #4
 664 0040 0B43     		orrs	r3, r1
 665 0042 DBB2     		uxtb	r3, r3
 666 0044 1370     		strb	r3, [r2]
 667 0046 00E0     		b	.L36
 668              	.LVL48:
 669              	.L39:
 957:Generated_Source\PSoC4/BLE.c ****         }
 670              		.loc 1 957 0
 671 0048 0120     		movs	r0, #1
 672              	.LVL49:
 673              	.L36:
 983:Generated_Source\PSoC4/BLE.c ****             }
 984:Generated_Source\PSoC4/BLE.c ****         }
 985:Generated_Source\PSoC4/BLE.c ****        
 986:Generated_Source\PSoC4/BLE.c ****         return (apiResult);
 987:Generated_Source\PSoC4/BLE.c ****     }
 674              		.loc 1 987 0
 675              		@ sp needed
 676 004a 10BD     		pop	{r4, pc}
 677              	.L41:
 678              		.align	2
 679              	.L40:
 680 004c 00000000 		.word	.LANCHOR0
 681 0050 00000000 		.word	cyBle_scanningIntervalType
 682 0054 00000000 		.word	cyBle_eventHandlerFlag
 683              		.cfi_endproc
 684              	.LFE8:
 685              		.size	CyBle_GapcStartScan, .-CyBle_GapcStartScan
 686              		.section	.text.CyBle_GapcStopScan,"ax",%progbits
 687              		.align	2
 688              		.global	CyBle_GapcStopScan
 689              		.code	16
 690              		.thumb_func
 691              		.type	CyBle_GapcStopScan, %function
 692              	CyBle_GapcStopScan:
 693              	.LFB9:
 988:Generated_Source\PSoC4/BLE.c ****     
 989:Generated_Source\PSoC4/BLE.c ****     
 990:Generated_Source\PSoC4/BLE.c ****     /******************************************************************************
 991:Generated_Source\PSoC4/BLE.c ****     * Function Name: CyBle_GapcStopScan
 992:Generated_Source\PSoC4/BLE.c ****     ***************************************************************************//**
 993:Generated_Source\PSoC4/BLE.c ****     * 
ARM GAS  C:\Users\bryan.lee\AppData\Local\Temp\ccDqoJhc.s 			page 31


 994:Generated_Source\PSoC4/BLE.c ****     *   This function used to stop the discovery of devices. On stopping discovery
 995:Generated_Source\PSoC4/BLE.c ****     *   operation, CYBLE_EVT_GAPC_SCAN_START_STOP event is generated. Application
 996:Generated_Source\PSoC4/BLE.c ****     *   layer needs to keep track of the function call made before receiving this
 997:Generated_Source\PSoC4/BLE.c ****     *   event to associate this event with either the start or stop discovery
 998:Generated_Source\PSoC4/BLE.c ****     *   function.
 999:Generated_Source\PSoC4/BLE.c ****     * 
1000:Generated_Source\PSoC4/BLE.c ****     *   Possible events generated are:
1001:Generated_Source\PSoC4/BLE.c ****     *    * CYBLE_EVT_GAPC_SCAN_START_STOP
1002:Generated_Source\PSoC4/BLE.c ****     * 
1003:Generated_Source\PSoC4/BLE.c ****     *  \return
1004:Generated_Source\PSoC4/BLE.c ****     *   None
1005:Generated_Source\PSoC4/BLE.c ****     * 
1006:Generated_Source\PSoC4/BLE.c ****     *******************************************************************************/
1007:Generated_Source\PSoC4/BLE.c ****     void CyBle_GapcStopScan(void)
1008:Generated_Source\PSoC4/BLE.c ****     {
 694              		.loc 1 1008 0
 695              		.cfi_startproc
 696              		@ args = 0, pretend = 0, frame = 0
 697              		@ frame_needed = 0, uses_anonymous_args = 0
 698 0000 10B5     		push	{r4, lr}
 699              		.cfi_def_cfa_offset 8
 700              		.cfi_offset 4, -8
 701              		.cfi_offset 14, -4
1009:Generated_Source\PSoC4/BLE.c ****         CyBle_GapcStopDiscovery();
 702              		.loc 1 1009 0
 703 0002 FFF7FEFF 		bl	CyBle_GapcStopDiscovery
 704              	.LVL50:
1010:Generated_Source\PSoC4/BLE.c ****         
1011:Generated_Source\PSoC4/BLE.c ****         cyBle_eventHandlerFlag |= CYBLE_STOP_FLAG;
 705              		.loc 1 1011 0
 706 0006 034A     		ldr	r2, .L43
 707 0008 1178     		ldrb	r1, [r2]
 708 000a 0823     		movs	r3, #8
 709 000c 0B43     		orrs	r3, r1
 710 000e DBB2     		uxtb	r3, r3
 711 0010 1370     		strb	r3, [r2]
1012:Generated_Source\PSoC4/BLE.c ****     }
 712              		.loc 1 1012 0
 713              		@ sp needed
 714 0012 10BD     		pop	{r4, pc}
 715              	.L44:
 716              		.align	2
 717              	.L43:
 718 0014 00000000 		.word	cyBle_eventHandlerFlag
 719              		.cfi_endproc
 720              	.LFE9:
 721              		.size	CyBle_GapcStopScan, .-CyBle_GapcStopScan
 722              		.section	.text.CyBle_GapcConnectDevice,"ax",%progbits
 723              		.align	2
 724              		.global	CyBle_GapcConnectDevice
 725              		.code	16
 726              		.thumb_func
 727              		.type	CyBle_GapcConnectDevice, %function
 728              	CyBle_GapcConnectDevice:
 729              	.LFB10:
1013:Generated_Source\PSoC4/BLE.c **** 
1014:Generated_Source\PSoC4/BLE.c ****     
ARM GAS  C:\Users\bryan.lee\AppData\Local\Temp\ccDqoJhc.s 			page 32


1015:Generated_Source\PSoC4/BLE.c **** #endif /* CYBLE_GAP_ROLE_CENTRAL || CYBLE_GAP_ROLE_OBSERVER */
1016:Generated_Source\PSoC4/BLE.c **** 
1017:Generated_Source\PSoC4/BLE.c **** 
1018:Generated_Source\PSoC4/BLE.c **** #if(CYBLE_GAP_ROLE_CENTRAL)
1019:Generated_Source\PSoC4/BLE.c **** 
1020:Generated_Source\PSoC4/BLE.c ****     /******************************************************************************
1021:Generated_Source\PSoC4/BLE.c ****     * Function Name: CyBle_GapcConnectDevice
1022:Generated_Source\PSoC4/BLE.c ****     ***************************************************************************//**
1023:Generated_Source\PSoC4/BLE.c ****     * 
1024:Generated_Source\PSoC4/BLE.c ****     *  This function is used to send a connection request to the remote device with
1025:Generated_Source\PSoC4/BLE.c ****     *  the connection parameters set in the component customizer. This function needs
1026:Generated_Source\PSoC4/BLE.c ****     *  to be called only once after the target device is discovered by 
1027:Generated_Source\PSoC4/BLE.c ****     *  CyBle_GapcStartScan() and further scanning has stopped. Scanning is 
1028:Generated_Source\PSoC4/BLE.c ****     *  successfully stopped on invoking CyBle_GapcStopScan() and then receiving the
1029:Generated_Source\PSoC4/BLE.c ****     *  event CYBLE_EVT_GAPC_SCAN_START_STOP with sub-parameter 'success' = 0x01u.
1030:Generated_Source\PSoC4/BLE.c ****     *  
1031:Generated_Source\PSoC4/BLE.c ****     *  On successful connection, the following events are generated at the GAP 
1032:Generated_Source\PSoC4/BLE.c ****     *  Central device (as well as the GAP Peripheral device), in the following order.
1033:Generated_Source\PSoC4/BLE.c ****     *  * CYBLE_EVT_GATT_CONNECT_IND
1034:Generated_Source\PSoC4/BLE.c ****     *  * CYBLE_EVT_GAP_DEVICE_CONNECTED - If the device connects to a GAP Central and 
1035:Generated_Source\PSoC4/BLE.c ****     *    Link Layer Privacy is disabled in component customizer.
1036:Generated_Source\PSoC4/BLE.c ****     *  * CYBLE_EVT_GAP_ENHANCE_CONN_COMPLETE - If the device connects to a GAP Central and 
1037:Generated_Source\PSoC4/BLE.c ****     *    Link Layer Privacy is enabled in component customizer.
1038:Generated_Source\PSoC4/BLE.c ****     *  * CYBLE_EVT_GAP_DEVICE_CONNECTED
1039:Generated_Source\PSoC4/BLE.c ****     *  
1040:Generated_Source\PSoC4/BLE.c ****     *  A procedure is considered to have timed out if a connection response packet is 
1041:Generated_Source\PSoC4/BLE.c ****     *  not received within time set by cyBle_connectingTimeout global variable
1042:Generated_Source\PSoC4/BLE.c ****     *  (30 seconds by default). CYBLE_EVT_TIMEOUT event with CYBLE_GENERIC_TO parameter
1043:Generated_Source\PSoC4/BLE.c ****     *  will indicate about connection procedure timeout. Connection will automatically
1044:Generated_Source\PSoC4/BLE.c ****     *  be canceled and state will be changed to CYBLE_STATE_DISCONNECTED.
1045:Generated_Source\PSoC4/BLE.c ****     * 
1046:Generated_Source\PSoC4/BLE.c ****     *  \param address: The device address of the remote device to connect to. 
1047:Generated_Source\PSoC4/BLE.c ****     *  
1048:Generated_Source\PSoC4/BLE.c ****     * \return
1049:Generated_Source\PSoC4/BLE.c ****     *  CYBLE_API_RESULT_T : Return value indicates if the function succeeded or 
1050:Generated_Source\PSoC4/BLE.c ****     *  failed. Following are the possible error codes.
1051:Generated_Source\PSoC4/BLE.c ****     *
1052:Generated_Source\PSoC4/BLE.c ****     *   Errors codes                       | Description
1053:Generated_Source\PSoC4/BLE.c ****     *   ------------                       | -----------
1054:Generated_Source\PSoC4/BLE.c ****     *   CYBLE_ERROR_OK                     | On successful operation.
1055:Generated_Source\PSoC4/BLE.c ****     *   CYBLE_ERROR_STACK_INTERNAL         | On error occurred in the BLE stack.
1056:Generated_Source\PSoC4/BLE.c ****     *   CYBLE_ERROR_INVALID_PARAMETER      | On passing an invalid parameter.
1057:Generated_Source\PSoC4/BLE.c ****     *   CYBLE_ERROR_INVALID_STATE          | On calling this function not in Disconnected state.
1058:Generated_Source\PSoC4/BLE.c ****     *  
1059:Generated_Source\PSoC4/BLE.c ****     ******************************************************************************/
1060:Generated_Source\PSoC4/BLE.c ****     CYBLE_API_RESULT_T CyBle_GapcConnectDevice(const CYBLE_GAP_BD_ADDR_T * address)
1061:Generated_Source\PSoC4/BLE.c ****     {
 730              		.loc 1 1061 0
 731              		.cfi_startproc
 732              		@ args = 0, pretend = 0, frame = 0
 733              		@ frame_needed = 0, uses_anonymous_args = 0
 734              	.LVL51:
 735 0000 10B5     		push	{r4, lr}
 736              		.cfi_def_cfa_offset 8
 737              		.cfi_offset 4, -8
 738              		.cfi_offset 14, -4
1062:Generated_Source\PSoC4/BLE.c ****         CYBLE_API_RESULT_T apiResult;
ARM GAS  C:\Users\bryan.lee\AppData\Local\Temp\ccDqoJhc.s 			page 33


1063:Generated_Source\PSoC4/BLE.c ****         uint8 i;
1064:Generated_Source\PSoC4/BLE.c **** 
1065:Generated_Source\PSoC4/BLE.c ****         if(CyBle_GetState() != CYBLE_STATE_DISCONNECTED)
 739              		.loc 1 1065 0
 740 0002 134B     		ldr	r3, .L51
 741 0004 1B78     		ldrb	r3, [r3]
 742 0006 052B     		cmp	r3, #5
 743 0008 1CD1     		bne	.L49
1066:Generated_Source\PSoC4/BLE.c ****         {
1067:Generated_Source\PSoC4/BLE.c ****             apiResult = CYBLE_ERROR_INVALID_STATE;
1068:Generated_Source\PSoC4/BLE.c ****         }
1069:Generated_Source\PSoC4/BLE.c ****         else if(address == NULL)
 744              		.loc 1 1069 0
 745 000a 0028     		cmp	r0, #0
 746 000c 1DD0     		beq	.L50
 747 000e 0023     		movs	r3, #0
 748 0010 05E0     		b	.L47
 749              	.LVL52:
 750              	.L48:
1070:Generated_Source\PSoC4/BLE.c ****         {
1071:Generated_Source\PSoC4/BLE.c ****             apiResult = CYBLE_ERROR_INVALID_PARAMETER;
1072:Generated_Source\PSoC4/BLE.c ****         }
1073:Generated_Source\PSoC4/BLE.c ****         else
1074:Generated_Source\PSoC4/BLE.c ****         {
1075:Generated_Source\PSoC4/BLE.c ****             for(i = 0u; i < CYBLE_GAP_BD_ADDR_SIZE; i++)
1076:Generated_Source\PSoC4/BLE.c ****             {
1077:Generated_Source\PSoC4/BLE.c ****                 cyBle_connectionParameters.peerBdAddr[i] = address->bdAddr[i];
 751              		.loc 1 1077 0 discriminator 3
 752 0012 C15C     		ldrb	r1, [r0, r3]
 753 0014 0F4A     		ldr	r2, .L51+4
 754 0016 D218     		adds	r2, r2, r3
 755 0018 5171     		strb	r1, [r2, #5]
1075:Generated_Source\PSoC4/BLE.c ****             {
 756              		.loc 1 1075 0 discriminator 3
 757 001a 0133     		adds	r3, r3, #1
 758              	.LVL53:
 759 001c DBB2     		uxtb	r3, r3
 760              	.LVL54:
 761              	.L47:
1075:Generated_Source\PSoC4/BLE.c ****             {
 762              		.loc 1 1075 0 is_stmt 0 discriminator 1
 763 001e 052B     		cmp	r3, #5
 764 0020 F7D9     		bls	.L48
1078:Generated_Source\PSoC4/BLE.c ****             }
1079:Generated_Source\PSoC4/BLE.c ****             cyBle_connectionParameters.peerAddrType = address -> type;
 765              		.loc 1 1079 0 is_stmt 1
 766 0022 8379     		ldrb	r3, [r0, #6]
 767              	.LVL55:
 768 0024 0B48     		ldr	r0, .L51+4
 769              	.LVL56:
 770 0026 C372     		strb	r3, [r0, #11]
1080:Generated_Source\PSoC4/BLE.c ****             apiResult = CyBle_GapcInitConnection(&cyBle_connectionParameters);
 771              		.loc 1 1080 0
 772 0028 FFF7FEFF 		bl	CyBle_GapcInitConnection
 773              	.LVL57:
 774 002c 041E     		subs	r4, r0, #0
 775              	.LVL58:
ARM GAS  C:\Users\bryan.lee\AppData\Local\Temp\ccDqoJhc.s 			page 34


1081:Generated_Source\PSoC4/BLE.c ****             
1082:Generated_Source\PSoC4/BLE.c ****             if(apiResult == CYBLE_ERROR_OK)
 776              		.loc 1 1082 0
 777 002e 0DD1     		bne	.L46
1083:Generated_Source\PSoC4/BLE.c ****             {
1084:Generated_Source\PSoC4/BLE.c ****                 CyBle_SetState(CYBLE_STATE_CONNECTING);
 778              		.loc 1 1084 0
 779 0030 0422     		movs	r2, #4
 780 0032 074B     		ldr	r3, .L51
 781 0034 1A70     		strb	r2, [r3]
1085:Generated_Source\PSoC4/BLE.c ****                 if(cyBle_connectingTimeout != 0u)
 782              		.loc 1 1085 0
 783 0036 084B     		ldr	r3, .L51+8
 784 0038 1888     		ldrh	r0, [r3]
 785              	.LVL59:
 786 003a 0028     		cmp	r0, #0
 787 003c 06D0     		beq	.L46
1086:Generated_Source\PSoC4/BLE.c ****                 {
1087:Generated_Source\PSoC4/BLE.c ****                     (void)CyBle_StartTimer(cyBle_connectingTimeout);
 788              		.loc 1 1087 0
 789 003e FFF7FEFF 		bl	CyBle_StartTimer
 790              	.LVL60:
 791 0042 03E0     		b	.L46
 792              	.LVL61:
 793              	.L49:
1067:Generated_Source\PSoC4/BLE.c ****         }
 794              		.loc 1 1067 0
 795 0044 0424     		movs	r4, #4
 796 0046 FF34     		adds	r4, r4, #255
 797 0048 00E0     		b	.L46
 798              	.L50:
1071:Generated_Source\PSoC4/BLE.c ****         }
 799              		.loc 1 1071 0
 800 004a 0124     		movs	r4, #1
 801              	.LVL62:
 802              	.L46:
1088:Generated_Source\PSoC4/BLE.c ****                 }
1089:Generated_Source\PSoC4/BLE.c ****             }
1090:Generated_Source\PSoC4/BLE.c ****         }
1091:Generated_Source\PSoC4/BLE.c ****         return (apiResult);
1092:Generated_Source\PSoC4/BLE.c ****     }
 803              		.loc 1 1092 0
 804 004c 2000     		movs	r0, r4
 805              		@ sp needed
 806              	.LVL63:
 807 004e 10BD     		pop	{r4, pc}
 808              	.L52:
 809              		.align	2
 810              	.L51:
 811 0050 00000000 		.word	cyBle_state
 812 0054 00000000 		.word	cyBle_connectionParameters
 813 0058 00000000 		.word	cyBle_connectingTimeout
 814              		.cfi_endproc
 815              	.LFE10:
 816              		.size	CyBle_GapcConnectDevice, .-CyBle_GapcConnectDevice
 817              		.section	.text.CyBle_GapcCancelDeviceConnection,"ax",%progbits
 818              		.align	2
ARM GAS  C:\Users\bryan.lee\AppData\Local\Temp\ccDqoJhc.s 			page 35


 819              		.global	CyBle_GapcCancelDeviceConnection
 820              		.code	16
 821              		.thumb_func
 822              		.type	CyBle_GapcCancelDeviceConnection, %function
 823              	CyBle_GapcCancelDeviceConnection:
 824              	.LFB11:
1093:Generated_Source\PSoC4/BLE.c ****     
1094:Generated_Source\PSoC4/BLE.c **** 
1095:Generated_Source\PSoC4/BLE.c ****     /******************************************************************************
1096:Generated_Source\PSoC4/BLE.c ****     * Function Name: CyBle_GapcCancelDeviceConnection
1097:Generated_Source\PSoC4/BLE.c ****     ***************************************************************************//**
1098:Generated_Source\PSoC4/BLE.c ****     * 
1099:Generated_Source\PSoC4/BLE.c ****     *  This function cancels a previously initiated connection with the remote 
1100:Generated_Source\PSoC4/BLE.c ****     *  device. It is a blocking function. No event is generated on calling this 
1101:Generated_Source\PSoC4/BLE.c ****     *  function. If the devices are already connected then this function should not
1102:Generated_Source\PSoC4/BLE.c ****     *  be used. If you intend to disconnect from an existing connection, the function
1103:Generated_Source\PSoC4/BLE.c ****     *  CyBle_GapDisconnect() should be used.
1104:Generated_Source\PSoC4/BLE.c ****     * 
1105:Generated_Source\PSoC4/BLE.c ****     * \return
1106:Generated_Source\PSoC4/BLE.c ****     *  CYBLE_API_RESULT_T : Return value indicates if the function succeeded or 
1107:Generated_Source\PSoC4/BLE.c ****     *  failed. Following are the possible error codes.
1108:Generated_Source\PSoC4/BLE.c ****     *
1109:Generated_Source\PSoC4/BLE.c ****     *   Errors codes                       | Description
1110:Generated_Source\PSoC4/BLE.c ****     *   ---------------------------------- | --------------------------------------
1111:Generated_Source\PSoC4/BLE.c ****     *   CYBLE_ERROR_OK                     | On successful operation.
1112:Generated_Source\PSoC4/BLE.c ****     *   CYBLE_ERROR_STACK_INTERNAL         | An error occurred in the BLE stack.
1113:Generated_Source\PSoC4/BLE.c ****     *   CYBLE_ERROR_INVALID_STATE          | On calling this function not in Connecting state.
1114:Generated_Source\PSoC4/BLE.c ****     *  
1115:Generated_Source\PSoC4/BLE.c ****     *******************************************************************************/
1116:Generated_Source\PSoC4/BLE.c ****     CYBLE_API_RESULT_T CyBle_GapcCancelDeviceConnection(void)
1117:Generated_Source\PSoC4/BLE.c ****     {
 825              		.loc 1 1117 0
 826              		.cfi_startproc
 827              		@ args = 0, pretend = 0, frame = 0
 828              		@ frame_needed = 0, uses_anonymous_args = 0
 829 0000 10B5     		push	{r4, lr}
 830              		.cfi_def_cfa_offset 8
 831              		.cfi_offset 4, -8
 832              		.cfi_offset 14, -4
1118:Generated_Source\PSoC4/BLE.c ****         CYBLE_API_RESULT_T apiResult;
1119:Generated_Source\PSoC4/BLE.c ****         
1120:Generated_Source\PSoC4/BLE.c ****         if(CyBle_GetState() != CYBLE_STATE_CONNECTING)
 833              		.loc 1 1120 0
 834 0002 0B4B     		ldr	r3, .L57
 835 0004 1B78     		ldrb	r3, [r3]
 836 0006 042B     		cmp	r3, #4
 837 0008 0ED1     		bne	.L56
1121:Generated_Source\PSoC4/BLE.c ****         {
1122:Generated_Source\PSoC4/BLE.c ****             apiResult = CYBLE_ERROR_INVALID_STATE;
1123:Generated_Source\PSoC4/BLE.c ****         }
1124:Generated_Source\PSoC4/BLE.c ****         else 
1125:Generated_Source\PSoC4/BLE.c ****         {
1126:Generated_Source\PSoC4/BLE.c ****             apiResult = CyBle_GapcCancelConnection();
 838              		.loc 1 1126 0
 839 000a FFF7FEFF 		bl	CyBle_GapcCancelConnection
 840              	.LVL64:
 841 000e 0400     		movs	r4, r0
ARM GAS  C:\Users\bryan.lee\AppData\Local\Temp\ccDqoJhc.s 			page 36


 842              	.LVL65:
1127:Generated_Source\PSoC4/BLE.c ****             
1128:Generated_Source\PSoC4/BLE.c ****             if(cyBle_connectingTimeout != 0u)
 843              		.loc 1 1128 0
 844 0010 084B     		ldr	r3, .L57+4
 845 0012 1B88     		ldrh	r3, [r3]
 846 0014 002B     		cmp	r3, #0
 847 0016 01D0     		beq	.L55
1129:Generated_Source\PSoC4/BLE.c ****             {
1130:Generated_Source\PSoC4/BLE.c ****                 (void)CyBle_StopTimer();
 848              		.loc 1 1130 0
 849 0018 FFF7FEFF 		bl	CyBle_StopTimer
 850              	.LVL66:
 851              	.L55:
1131:Generated_Source\PSoC4/BLE.c ****             }
1132:Generated_Source\PSoC4/BLE.c **** 
1133:Generated_Source\PSoC4/BLE.c ****             if(apiResult == CYBLE_ERROR_OK)
 852              		.loc 1 1133 0
 853 001c 002C     		cmp	r4, #0
 854 001e 05D1     		bne	.L54
1134:Generated_Source\PSoC4/BLE.c ****             {
1135:Generated_Source\PSoC4/BLE.c ****                 CyBle_SetState(CYBLE_STATE_DISCONNECTED);
 855              		.loc 1 1135 0
 856 0020 0522     		movs	r2, #5
 857 0022 034B     		ldr	r3, .L57
 858 0024 1A70     		strb	r2, [r3]
 859 0026 01E0     		b	.L54
 860              	.LVL67:
 861              	.L56:
1122:Generated_Source\PSoC4/BLE.c ****         }
 862              		.loc 1 1122 0
 863 0028 0424     		movs	r4, #4
 864 002a FF34     		adds	r4, r4, #255
 865              	.L54:
 866              	.LVL68:
1136:Generated_Source\PSoC4/BLE.c ****             }
1137:Generated_Source\PSoC4/BLE.c ****         }
1138:Generated_Source\PSoC4/BLE.c ****         return (apiResult);
1139:Generated_Source\PSoC4/BLE.c ****     }    
 867              		.loc 1 1139 0
 868 002c 2000     		movs	r0, r4
 869              		@ sp needed
 870              	.LVL69:
 871 002e 10BD     		pop	{r4, pc}
 872              	.L58:
 873              		.align	2
 874              	.L57:
 875 0030 00000000 		.word	cyBle_state
 876 0034 00000000 		.word	cyBle_connectingTimeout
 877              		.cfi_endproc
 878              	.LFE11:
 879              		.size	CyBle_GapcCancelDeviceConnection, .-CyBle_GapcCancelDeviceConnection
 880              		.section	.text.CyBle_GapSetLocalName,"ax",%progbits
 881              		.align	2
 882              		.global	CyBle_GapSetLocalName
 883              		.code	16
 884              		.thumb_func
ARM GAS  C:\Users\bryan.lee\AppData\Local\Temp\ccDqoJhc.s 			page 37


 885              		.type	CyBle_GapSetLocalName, %function
 886              	CyBle_GapSetLocalName:
 887              	.LFB12:
1140:Generated_Source\PSoC4/BLE.c **** 
1141:Generated_Source\PSoC4/BLE.c ****     
1142:Generated_Source\PSoC4/BLE.c **** #endif /* CYBLE_GAP_ROLE_CENTRAL */
1143:Generated_Source\PSoC4/BLE.c **** 
1144:Generated_Source\PSoC4/BLE.c **** 
1145:Generated_Source\PSoC4/BLE.c **** #if(CYBLE_GATT_ROLE_SERVER)
1146:Generated_Source\PSoC4/BLE.c **** 
1147:Generated_Source\PSoC4/BLE.c **** #if(CYBLE_GAP_ROLE_PERIPHERAL)
1148:Generated_Source\PSoC4/BLE.c **** 
1149:Generated_Source\PSoC4/BLE.c ****         /******************************************************************************
1150:Generated_Source\PSoC4/BLE.c ****         * Function Name: CyBle_ChangeAdLocalName
1151:Generated_Source\PSoC4/BLE.c ****         ***************************************************************************//**
1152:Generated_Source\PSoC4/BLE.c ****         *  This function is used to set the local device name in the advertisement or 
1153:Generated_Source\PSoC4/BLE.c ****         *  scan response data structure.
1154:Generated_Source\PSoC4/BLE.c ****         * 
1155:Generated_Source\PSoC4/BLE.c ****         *  \param name: The local device name string to be set in advertisement data 
1156:Generated_Source\PSoC4/BLE.c ****         *            structure.
1157:Generated_Source\PSoC4/BLE.c ****         *  \param dest: 0 - advertisement structure, not zero value selects scan response
1158:Generated_Source\PSoC4/BLE.c ****         *              structure.
1159:Generated_Source\PSoC4/BLE.c ****         * 
1160:Generated_Source\PSoC4/BLE.c ****         * \return
1161:Generated_Source\PSoC4/BLE.c ****         *  None
1162:Generated_Source\PSoC4/BLE.c ****         *  
1163:Generated_Source\PSoC4/BLE.c ****         *******************************************************************************/
1164:Generated_Source\PSoC4/BLE.c ****         static void CyBle_ChangeAdLocalName(const char8 name[], uint8 dest)
1165:Generated_Source\PSoC4/BLE.c ****         {
1166:Generated_Source\PSoC4/BLE.c ****             uint8 i;
1167:Generated_Source\PSoC4/BLE.c ****             uint8 flag = 0u;
1168:Generated_Source\PSoC4/BLE.c ****             uint8 adLength = 0u;
1169:Generated_Source\PSoC4/BLE.c ****             uint8 byteCounter = 0u;
1170:Generated_Source\PSoC4/BLE.c ****             uint8 *destBuffer;
1171:Generated_Source\PSoC4/BLE.c ****             uint8 maxLength;
1172:Generated_Source\PSoC4/BLE.c ****             
1173:Generated_Source\PSoC4/BLE.c ****             if(dest == 0u)      /* Destination - advertising structure */
1174:Generated_Source\PSoC4/BLE.c ****             {
1175:Generated_Source\PSoC4/BLE.c ****                 destBuffer = cyBle_discoveryData.advData;
1176:Generated_Source\PSoC4/BLE.c ****                 maxLength = cyBle_discoveryData.advDataLen;
1177:Generated_Source\PSoC4/BLE.c ****             }
1178:Generated_Source\PSoC4/BLE.c ****             else                /* Destination - scan response structure */
1179:Generated_Source\PSoC4/BLE.c ****             {
1180:Generated_Source\PSoC4/BLE.c ****                 destBuffer = cyBle_scanRspData.scanRspData;
1181:Generated_Source\PSoC4/BLE.c ****                 maxLength = cyBle_scanRspData.scanRspDataLen;
1182:Generated_Source\PSoC4/BLE.c ****             }
1183:Generated_Source\PSoC4/BLE.c ****             
1184:Generated_Source\PSoC4/BLE.c ****             while((byteCounter < maxLength) && (flag == 0u))
1185:Generated_Source\PSoC4/BLE.c ****             {
1186:Generated_Source\PSoC4/BLE.c ****                 adLength = destBuffer[byteCounter];
1187:Generated_Source\PSoC4/BLE.c ****                 
1188:Generated_Source\PSoC4/BLE.c ****                 if(0u != adLength)
1189:Generated_Source\PSoC4/BLE.c ****                 {
1190:Generated_Source\PSoC4/BLE.c ****                     /* Increment byte counter so it can point to AD type */
1191:Generated_Source\PSoC4/BLE.c ****                     byteCounter++;
1192:Generated_Source\PSoC4/BLE.c ****                     
1193:Generated_Source\PSoC4/BLE.c ****                     if((destBuffer[byteCounter] == CYBLE_SHORT_LOCAL_NAME) || 
ARM GAS  C:\Users\bryan.lee\AppData\Local\Temp\ccDqoJhc.s 			page 38


1194:Generated_Source\PSoC4/BLE.c ****                        (destBuffer[byteCounter] == CYBLE_COMPLETE_LOCAL_NAME))
1195:Generated_Source\PSoC4/BLE.c ****                     {
1196:Generated_Source\PSoC4/BLE.c ****                         /* Start of the Local Name AD type was fount. Set flag and exit the loop. *
1197:Generated_Source\PSoC4/BLE.c ****                         flag = 1u;
1198:Generated_Source\PSoC4/BLE.c ****                     }
1199:Generated_Source\PSoC4/BLE.c ****                     else
1200:Generated_Source\PSoC4/BLE.c ****                     {
1201:Generated_Source\PSoC4/BLE.c ****                         byteCounter += adLength;
1202:Generated_Source\PSoC4/BLE.c ****                     }
1203:Generated_Source\PSoC4/BLE.c ****                 }
1204:Generated_Source\PSoC4/BLE.c ****                 else
1205:Generated_Source\PSoC4/BLE.c ****                 {
1206:Generated_Source\PSoC4/BLE.c ****                     /* The end of advertisement data structure was encountered though exit the loop
1207:Generated_Source\PSoC4/BLE.c ****                     break;
1208:Generated_Source\PSoC4/BLE.c ****                 }
1209:Generated_Source\PSoC4/BLE.c ****             }
1210:Generated_Source\PSoC4/BLE.c ****             
1211:Generated_Source\PSoC4/BLE.c ****             if(0u != flag)
1212:Generated_Source\PSoC4/BLE.c ****             {
1213:Generated_Source\PSoC4/BLE.c ****                 /* Reuse "adLength" to hold location of the last character of local name in 
1214:Generated_Source\PSoC4/BLE.c ****                    AD structure. */
1215:Generated_Source\PSoC4/BLE.c ****                 adLength += byteCounter;
1216:Generated_Source\PSoC4/BLE.c ****                 
1217:Generated_Source\PSoC4/BLE.c ****                 /* Increment byte counter to point to start of the local Name string */
1218:Generated_Source\PSoC4/BLE.c ****                 byteCounter++;
1219:Generated_Source\PSoC4/BLE.c ****                 
1220:Generated_Source\PSoC4/BLE.c ****                 for(i = byteCounter; ((i < (adLength)) && (CYBLE_NULL_CHARCTER != name[i - byteCoun
1221:Generated_Source\PSoC4/BLE.c ****                 {
1222:Generated_Source\PSoC4/BLE.c ****                     destBuffer[i] = (uint8)name[i - byteCounter];
1223:Generated_Source\PSoC4/BLE.c ****                 }
1224:Generated_Source\PSoC4/BLE.c ****                 
1225:Generated_Source\PSoC4/BLE.c ****                 /* This loop handles the case when new local name is shorted than old one.
1226:Generated_Source\PSoC4/BLE.c ****                    In this case all remaining characters should be null characters. */
1227:Generated_Source\PSoC4/BLE.c ****                 while(adLength > i)
1228:Generated_Source\PSoC4/BLE.c ****                 {
1229:Generated_Source\PSoC4/BLE.c ****                     /* Terminate string */
1230:Generated_Source\PSoC4/BLE.c ****                     destBuffer[i] = (uint8)CYBLE_NULL_CHARCTER;
1231:Generated_Source\PSoC4/BLE.c ****                     i++;
1232:Generated_Source\PSoC4/BLE.c ****                 }
1233:Generated_Source\PSoC4/BLE.c ****             }
1234:Generated_Source\PSoC4/BLE.c ****         }
1235:Generated_Source\PSoC4/BLE.c ****         
1236:Generated_Source\PSoC4/BLE.c **** #endif /* (CYBLE_GAP_ROLE_PERIPHERAL) */  
1237:Generated_Source\PSoC4/BLE.c ****     
1238:Generated_Source\PSoC4/BLE.c ****     
1239:Generated_Source\PSoC4/BLE.c ****     /******************************************************************************
1240:Generated_Source\PSoC4/BLE.c ****     * Function Name: CyBle_GapSetLocalName
1241:Generated_Source\PSoC4/BLE.c ****     ***************************************************************************//**
1242:Generated_Source\PSoC4/BLE.c ****     *  This function is used to set the local device name - a Characteristic of the 
1243:Generated_Source\PSoC4/BLE.c ****     *  GAP Service. If the characteristic length entered in the component customizer
1244:Generated_Source\PSoC4/BLE.c ****     *  is shorter than the string specified by the "name" parameter, the local device
1245:Generated_Source\PSoC4/BLE.c ****     *  name will be cut to the length specified in the customizer.
1246:Generated_Source\PSoC4/BLE.c ****     * 
1247:Generated_Source\PSoC4/BLE.c ****     *  \param name: The local device name string. The name string to be written as
1248:Generated_Source\PSoC4/BLE.c ****     *              the local device name. It represents a UTF-8 encoded User
1249:Generated_Source\PSoC4/BLE.c ****     *              Friendly Descriptive Name for the device. The length of the local
1250:Generated_Source\PSoC4/BLE.c ****     *              device string is entered into the component customizer and it can
ARM GAS  C:\Users\bryan.lee\AppData\Local\Temp\ccDqoJhc.s 			page 39


1251:Generated_Source\PSoC4/BLE.c ****     *              be set to a value from 0 to 248 bytes. If the name contained in
1252:Generated_Source\PSoC4/BLE.c ****     *              the parameter is shorter than the length from the customizer, the
1253:Generated_Source\PSoC4/BLE.c ****     *              end of the name is indicated by a NULL octet (0x00).
1254:Generated_Source\PSoC4/BLE.c ****     * 
1255:Generated_Source\PSoC4/BLE.c ****     * \return
1256:Generated_Source\PSoC4/BLE.c ****     *  CYBLE_API_RESULT_T : Return value indicates if the function succeeded or 
1257:Generated_Source\PSoC4/BLE.c ****     *  failed. Following are the possible error codes.
1258:Generated_Source\PSoC4/BLE.c ****     *
1259:Generated_Source\PSoC4/BLE.c ****     *   Errors codes                       | Description
1260:Generated_Source\PSoC4/BLE.c ****     *   ------------                       | -----------
1261:Generated_Source\PSoC4/BLE.c ****     *   CYBLE_ERROR_OK                     | Function completed successfully.
1262:Generated_Source\PSoC4/BLE.c ****     *   CYBLE_ERROR_INVALID_PARAMETER      | On specifying NULL as input parameter
1263:Generated_Source\PSoC4/BLE.c ****     *  
1264:Generated_Source\PSoC4/BLE.c ****     *******************************************************************************/
1265:Generated_Source\PSoC4/BLE.c ****     CYBLE_API_RESULT_T CyBle_GapSetLocalName(const char8 name[])
1266:Generated_Source\PSoC4/BLE.c ****     {
 888              		.loc 1 1266 0
 889              		.cfi_startproc
 890              		@ args = 0, pretend = 0, frame = 0
 891              		@ frame_needed = 0, uses_anonymous_args = 0
 892              	.LVL70:
 893 0000 30B5     		push	{r4, r5, lr}
 894              		.cfi_def_cfa_offset 12
 895              		.cfi_offset 4, -12
 896              		.cfi_offset 5, -8
 897              		.cfi_offset 14, -4
 898              	.LVL71:
1267:Generated_Source\PSoC4/BLE.c ****         CYBLE_API_RESULT_T apiResult = CYBLE_ERROR_OK;
1268:Generated_Source\PSoC4/BLE.c ****         uint8 i;
1269:Generated_Source\PSoC4/BLE.c ****         char8 *ptr;
1270:Generated_Source\PSoC4/BLE.c ****         uint8 charLen;
1271:Generated_Source\PSoC4/BLE.c **** 
1272:Generated_Source\PSoC4/BLE.c ****         if(NULL != name)
 899              		.loc 1 1272 0
 900 0002 0028     		cmp	r0, #0
 901 0004 1ED0     		beq	.L64
1273:Generated_Source\PSoC4/BLE.c ****         {
1274:Generated_Source\PSoC4/BLE.c ****             /* Get the pointer to the Device Name characteristic  */
1275:Generated_Source\PSoC4/BLE.c ****             ptr = (char8 *) CYBLE_GATT_DB_ATTR_GET_ATTR_GEN_PTR(cyBle_gaps.deviceNameCharHandle);
 902              		.loc 1 1275 0
 903 0006 114B     		ldr	r3, .L66
 904 0008 5B88     		ldrh	r3, [r3, #2]
 905 000a 013B     		subs	r3, r3, #1
 906 000c 104D     		ldr	r5, .L66+4
 907 000e 9A00     		lsls	r2, r3, #2
 908 0010 D418     		adds	r4, r2, r3
 909 0012 A100     		lsls	r1, r4, #2
 910 0014 6918     		adds	r1, r5, r1
 911 0016 0969     		ldr	r1, [r1, #16]
 912 0018 4C68     		ldr	r4, [r1, #4]
 913              	.LVL72:
1276:Generated_Source\PSoC4/BLE.c **** 
1277:Generated_Source\PSoC4/BLE.c ****             /* First need to get the maximum length of the characteristic data in the GATT
1278:Generated_Source\PSoC4/BLE.c ****                 database to make sure there is enough place for the data. The length
1279:Generated_Source\PSoC4/BLE.c ****                 can't be longer than 248, so only the LSB of 16 bit of length is to
1280:Generated_Source\PSoC4/BLE.c ****                 be used. */
1281:Generated_Source\PSoC4/BLE.c ****             charLen = (uint8)CYBLE_GATT_DB_ATTR_GET_ATTR_GEN_MAX_LEN(cyBle_gaps.deviceNameCharHandl
ARM GAS  C:\Users\bryan.lee\AppData\Local\Temp\ccDqoJhc.s 			page 40


 914              		.loc 1 1281 0
 915 001a D318     		adds	r3, r2, r3
 916 001c 9A00     		lsls	r2, r3, #2
 917 001e AA18     		adds	r2, r5, r2
 918 0020 117B     		ldrb	r1, [r2, #12]
 919              	.LVL73:
1282:Generated_Source\PSoC4/BLE.c **** 
1283:Generated_Source\PSoC4/BLE.c ****             /* Copy name into characteristic */
1284:Generated_Source\PSoC4/BLE.c ****             for(i = 0u; ((i < charLen) && (CYBLE_NULL_CHARCTER != name[i])); i++)
 920              		.loc 1 1284 0
 921 0022 0023     		movs	r3, #0
 922 0024 02E0     		b	.L61
 923              	.LVL74:
 924              	.L63:
1285:Generated_Source\PSoC4/BLE.c ****             {
1286:Generated_Source\PSoC4/BLE.c ****                 ptr[i] = name[i];
 925              		.loc 1 1286 0 discriminator 4
 926 0026 E254     		strb	r2, [r4, r3]
1284:Generated_Source\PSoC4/BLE.c ****             {
 927              		.loc 1 1284 0 discriminator 4
 928 0028 0133     		adds	r3, r3, #1
 929              	.LVL75:
 930 002a DBB2     		uxtb	r3, r3
 931              	.LVL76:
 932              	.L61:
1284:Generated_Source\PSoC4/BLE.c ****             {
 933              		.loc 1 1284 0 is_stmt 0 discriminator 1
 934 002c 8B42     		cmp	r3, r1
 935 002e 02D2     		bcs	.L62
1284:Generated_Source\PSoC4/BLE.c ****             {
 936              		.loc 1 1284 0 discriminator 3
 937 0030 C25C     		ldrb	r2, [r0, r3]
 938 0032 002A     		cmp	r2, #0
 939 0034 F7D1     		bne	.L63
 940              	.L62:
1287:Generated_Source\PSoC4/BLE.c ****             }
1288:Generated_Source\PSoC4/BLE.c **** 
1289:Generated_Source\PSoC4/BLE.c ****             if(i < charLen)
 941              		.loc 1 1289 0 is_stmt 1
 942 0036 8B42     		cmp	r3, r1
 943 0038 06D2     		bcs	.L65
1290:Generated_Source\PSoC4/BLE.c ****             {
1291:Generated_Source\PSoC4/BLE.c ****                 /* Terminate string */
1292:Generated_Source\PSoC4/BLE.c ****                 ptr[i] = CYBLE_NULL_CHARCTER;
 944              		.loc 1 1292 0
 945 003a E318     		adds	r3, r4, r3
 946              	.LVL77:
 947 003c 0022     		movs	r2, #0
 948 003e 1A70     		strb	r2, [r3]
1267:Generated_Source\PSoC4/BLE.c ****         uint8 i;
 949              		.loc 1 1267 0
 950 0040 0020     		movs	r0, #0
 951              	.LVL78:
 952 0042 02E0     		b	.L60
 953              	.LVL79:
 954              	.L64:
1293:Generated_Source\PSoC4/BLE.c ****             }
ARM GAS  C:\Users\bryan.lee\AppData\Local\Temp\ccDqoJhc.s 			page 41


1294:Generated_Source\PSoC4/BLE.c ****             
1295:Generated_Source\PSoC4/BLE.c ****             /* Set new actual length */
1296:Generated_Source\PSoC4/BLE.c ****             
1297:Generated_Source\PSoC4/BLE.c ****             /* Update device name in advertising and scan response structure */
1298:Generated_Source\PSoC4/BLE.c ****             #if(CYBLE_GAP_ROLE_PERIPHERAL)
1299:Generated_Source\PSoC4/BLE.c ****                 CyBle_ChangeAdLocalName(name, 0u);
1300:Generated_Source\PSoC4/BLE.c ****                 CyBle_ChangeAdLocalName(name, 1u);
1301:Generated_Source\PSoC4/BLE.c ****             #endif /* (CYBLE_GAP_ROLE_PERIPHERAL) */
1302:Generated_Source\PSoC4/BLE.c ****         }
1303:Generated_Source\PSoC4/BLE.c ****         else
1304:Generated_Source\PSoC4/BLE.c ****         {
1305:Generated_Source\PSoC4/BLE.c ****             apiResult = CYBLE_ERROR_INVALID_PARAMETER;
 955              		.loc 1 1305 0
 956 0044 0120     		movs	r0, #1
 957              	.LVL80:
 958 0046 00E0     		b	.L60
 959              	.LVL81:
 960              	.L65:
1267:Generated_Source\PSoC4/BLE.c ****         uint8 i;
 961              		.loc 1 1267 0
 962 0048 0020     		movs	r0, #0
 963              	.LVL82:
 964              	.L60:
1306:Generated_Source\PSoC4/BLE.c ****         }
1307:Generated_Source\PSoC4/BLE.c ****         
1308:Generated_Source\PSoC4/BLE.c ****         return(apiResult);
1309:Generated_Source\PSoC4/BLE.c ****     }
 965              		.loc 1 1309 0
 966              		@ sp needed
 967 004a 30BD     		pop	{r4, r5, pc}
 968              	.L67:
 969              		.align	2
 970              	.L66:
 971 004c 00000000 		.word	cyBle_gaps
 972 0050 00000000 		.word	cyBle_gattDB
 973              		.cfi_endproc
 974              	.LFE12:
 975              		.size	CyBle_GapSetLocalName, .-CyBle_GapSetLocalName
 976              		.section	.text.CyBle_GapGetLocalName,"ax",%progbits
 977              		.align	2
 978              		.global	CyBle_GapGetLocalName
 979              		.code	16
 980              		.thumb_func
 981              		.type	CyBle_GapGetLocalName, %function
 982              	CyBle_GapGetLocalName:
 983              	.LFB13:
1310:Generated_Source\PSoC4/BLE.c **** 
1311:Generated_Source\PSoC4/BLE.c **** 
1312:Generated_Source\PSoC4/BLE.c ****     /******************************************************************************
1313:Generated_Source\PSoC4/BLE.c ****     * Function Name: CyBle_GapGetLocalName
1314:Generated_Source\PSoC4/BLE.c ****     ***************************************************************************//**
1315:Generated_Source\PSoC4/BLE.c ****     *  
1316:Generated_Source\PSoC4/BLE.c ****     *  This function is used to read the local device name - a Characteristic of the 
1317:Generated_Source\PSoC4/BLE.c ****     *  GAP Service.
1318:Generated_Source\PSoC4/BLE.c ****     * 
1319:Generated_Source\PSoC4/BLE.c ****     * \param name: The local device name string. Used to read the local name to the
1320:Generated_Source\PSoC4/BLE.c ****     *             given string array. It represents a UTF-8 encoded User Friendly 
ARM GAS  C:\Users\bryan.lee\AppData\Local\Temp\ccDqoJhc.s 			page 42


1321:Generated_Source\PSoC4/BLE.c ****     *             Descriptive Name for the device. The length of the local device
1322:Generated_Source\PSoC4/BLE.c ****     *             string is entered into the component customizer and it can be set
1323:Generated_Source\PSoC4/BLE.c ****     *             to a value from 0 to 248 bytes. If the name contained in the
1324:Generated_Source\PSoC4/BLE.c ****     *             parameter is shorter than the length from the customizer, the end
1325:Generated_Source\PSoC4/BLE.c ****     *             of the name is indicated by a NULL octet (0x00).
1326:Generated_Source\PSoC4/BLE.c ****     * 
1327:Generated_Source\PSoC4/BLE.c ****     * \return
1328:Generated_Source\PSoC4/BLE.c ****     *  CYBLE_API_RESULT_T : Return value indicates if the function succeeded or 
1329:Generated_Source\PSoC4/BLE.c ****     *  failed. Following are the possible error codes.
1330:Generated_Source\PSoC4/BLE.c ****     *
1331:Generated_Source\PSoC4/BLE.c ****     *   Errors codes                       | Description
1332:Generated_Source\PSoC4/BLE.c ****     *   ------------                       | -----------
1333:Generated_Source\PSoC4/BLE.c ****     *   CYBLE_ERROR_OK                     | Function completed successfully.
1334:Generated_Source\PSoC4/BLE.c ****     *   CYBLE_ERROR_INVALID_PARAMETER      | On specifying NULL as input parameter
1335:Generated_Source\PSoC4/BLE.c ****     *
1336:Generated_Source\PSoC4/BLE.c ****     *******************************************************************************/
1337:Generated_Source\PSoC4/BLE.c ****     CYBLE_API_RESULT_T CyBle_GapGetLocalName(char8 name[])
1338:Generated_Source\PSoC4/BLE.c ****     {
 984              		.loc 1 1338 0
 985              		.cfi_startproc
 986              		@ args = 0, pretend = 0, frame = 0
 987              		@ frame_needed = 0, uses_anonymous_args = 0
 988              	.LVL83:
 989 0000 10B5     		push	{r4, lr}
 990              		.cfi_def_cfa_offset 8
 991              		.cfi_offset 4, -8
 992              		.cfi_offset 14, -4
 993              	.LVL84:
1339:Generated_Source\PSoC4/BLE.c ****         CYBLE_API_RESULT_T apiResult = CYBLE_ERROR_OK;
1340:Generated_Source\PSoC4/BLE.c ****         uint8 charLen;
1341:Generated_Source\PSoC4/BLE.c ****         uint8 i;
1342:Generated_Source\PSoC4/BLE.c ****         char8 *ptr;
1343:Generated_Source\PSoC4/BLE.c **** 
1344:Generated_Source\PSoC4/BLE.c ****         if(NULL != name)
 994              		.loc 1 1344 0
 995 0002 0028     		cmp	r0, #0
 996 0004 19D0     		beq	.L73
1345:Generated_Source\PSoC4/BLE.c ****         {
1346:Generated_Source\PSoC4/BLE.c ****             /* Get the pointer to the Device Name characteristic  */
1347:Generated_Source\PSoC4/BLE.c ****             ptr = (char8 *) CYBLE_GATT_DB_ATTR_GET_ATTR_GEN_PTR(cyBle_gaps.deviceNameCharHandle);
 997              		.loc 1 1347 0
 998 0006 0E4B     		ldr	r3, .L74
 999 0008 5B88     		ldrh	r3, [r3, #2]
 1000 000a 013B     		subs	r3, r3, #1
 1001 000c 9A00     		lsls	r2, r3, #2
 1002 000e D318     		adds	r3, r2, r3
 1003 0010 9A00     		lsls	r2, r3, #2
 1004 0012 0C4B     		ldr	r3, .L74+4
 1005 0014 9A18     		adds	r2, r3, r2
 1006 0016 1369     		ldr	r3, [r2, #16]
 1007 0018 5C68     		ldr	r4, [r3, #4]
 1008              	.LVL85:
1348:Generated_Source\PSoC4/BLE.c **** 
1349:Generated_Source\PSoC4/BLE.c ****             /* First need to get the length of the characteristic data in the GATT
1350:Generated_Source\PSoC4/BLE.c ****                 database to make sure there is enough place for the data. The length
1351:Generated_Source\PSoC4/BLE.c ****                 can't be longer than 248, so only the LSB of 16 bit of length is to
1352:Generated_Source\PSoC4/BLE.c ****                 be used. */
ARM GAS  C:\Users\bryan.lee\AppData\Local\Temp\ccDqoJhc.s 			page 43


1353:Generated_Source\PSoC4/BLE.c ****             charLen = (uint8)CYBLE_GATT_DB_ATTR_GET_ATTR_GEN_LEN(cyBle_gaps.deviceNameCharHandle);
 1009              		.loc 1 1353 0
 1010 001a 1978     		ldrb	r1, [r3]
 1011              	.LVL86:
1354:Generated_Source\PSoC4/BLE.c **** 
1355:Generated_Source\PSoC4/BLE.c ****             /* Copy name from characteristic */
1356:Generated_Source\PSoC4/BLE.c ****             for(i = 0u; ((i < charLen) && (CYBLE_NULL_CHARCTER != ptr[i])); i++)
 1012              		.loc 1 1356 0
 1013 001c 0023     		movs	r3, #0
 1014 001e 02E0     		b	.L70
 1015              	.LVL87:
 1016              	.L72:
1357:Generated_Source\PSoC4/BLE.c ****             {
1358:Generated_Source\PSoC4/BLE.c ****                 name[i] = ptr[i];
 1017              		.loc 1 1358 0 discriminator 4
 1018 0020 C254     		strb	r2, [r0, r3]
1356:Generated_Source\PSoC4/BLE.c ****             {
 1019              		.loc 1 1356 0 discriminator 4
 1020 0022 0133     		adds	r3, r3, #1
 1021              	.LVL88:
 1022 0024 DBB2     		uxtb	r3, r3
 1023              	.LVL89:
 1024              	.L70:
1356:Generated_Source\PSoC4/BLE.c ****             {
 1025              		.loc 1 1356 0 is_stmt 0 discriminator 1
 1026 0026 8B42     		cmp	r3, r1
 1027 0028 02D2     		bcs	.L71
1356:Generated_Source\PSoC4/BLE.c ****             {
 1028              		.loc 1 1356 0 discriminator 3
 1029 002a E25C     		ldrb	r2, [r4, r3]
 1030 002c 002A     		cmp	r2, #0
 1031 002e F7D1     		bne	.L72
 1032              	.L71:
1359:Generated_Source\PSoC4/BLE.c ****             }
1360:Generated_Source\PSoC4/BLE.c **** 
1361:Generated_Source\PSoC4/BLE.c ****             /* Terminate string */
1362:Generated_Source\PSoC4/BLE.c ****             name[i] = CYBLE_NULL_CHARCTER;
 1033              		.loc 1 1362 0 is_stmt 1
 1034 0030 C318     		adds	r3, r0, r3
 1035              	.LVL90:
 1036 0032 0022     		movs	r2, #0
 1037 0034 1A70     		strb	r2, [r3]
1339:Generated_Source\PSoC4/BLE.c ****         uint8 charLen;
 1038              		.loc 1 1339 0
 1039 0036 0020     		movs	r0, #0
 1040              	.LVL91:
 1041 0038 00E0     		b	.L69
 1042              	.LVL92:
 1043              	.L73:
1363:Generated_Source\PSoC4/BLE.c ****         }
1364:Generated_Source\PSoC4/BLE.c ****         else
1365:Generated_Source\PSoC4/BLE.c ****         {
1366:Generated_Source\PSoC4/BLE.c ****             apiResult = CYBLE_ERROR_INVALID_PARAMETER;
 1044              		.loc 1 1366 0
 1045 003a 0120     		movs	r0, #1
 1046              	.LVL93:
 1047              	.L69:
ARM GAS  C:\Users\bryan.lee\AppData\Local\Temp\ccDqoJhc.s 			page 44


1367:Generated_Source\PSoC4/BLE.c ****         }
1368:Generated_Source\PSoC4/BLE.c ****         
1369:Generated_Source\PSoC4/BLE.c ****         return(apiResult);
1370:Generated_Source\PSoC4/BLE.c ****     }
 1048              		.loc 1 1370 0
 1049              		@ sp needed
 1050 003c 10BD     		pop	{r4, pc}
 1051              	.L75:
 1052 003e C046     		.align	2
 1053              	.L74:
 1054 0040 00000000 		.word	cyBle_gaps
 1055 0044 00000000 		.word	cyBle_gattDB
 1056              		.cfi_endproc
 1057              	.LFE13:
 1058              		.size	CyBle_GapGetLocalName, .-CyBle_GapGetLocalName
 1059              		.section	.text.CyBle_Get16ByPtr,"ax",%progbits
 1060              		.align	2
 1061              		.global	CyBle_Get16ByPtr
 1062              		.code	16
 1063              		.thumb_func
 1064              		.type	CyBle_Get16ByPtr, %function
 1065              	CyBle_Get16ByPtr:
 1066              	.LFB14:
1371:Generated_Source\PSoC4/BLE.c **** 
1372:Generated_Source\PSoC4/BLE.c **** #endif /* (CYBLE_GATT_ROLE_SERVER) */
1373:Generated_Source\PSoC4/BLE.c **** 
1374:Generated_Source\PSoC4/BLE.c **** 
1375:Generated_Source\PSoC4/BLE.c **** /******************************************************************************
1376:Generated_Source\PSoC4/BLE.c **** * Function Name: CyBle_Get16ByPtr
1377:Generated_Source\PSoC4/BLE.c **** ***************************************************************************//**
1378:Generated_Source\PSoC4/BLE.c **** * 
1379:Generated_Source\PSoC4/BLE.c **** *  Returns the two-bytes value by using a pointer to the LSB.
1380:Generated_Source\PSoC4/BLE.c **** * 
1381:Generated_Source\PSoC4/BLE.c **** *  \param ptr: Pointer to the LSB of two-bytes data (little endian).
1382:Generated_Source\PSoC4/BLE.c **** * 
1383:Generated_Source\PSoC4/BLE.c **** *  \return
1384:Generated_Source\PSoC4/BLE.c **** *  uint16: Two-bytes data.
1385:Generated_Source\PSoC4/BLE.c **** * 
1386:Generated_Source\PSoC4/BLE.c **** ******************************************************************************/
1387:Generated_Source\PSoC4/BLE.c **** uint16 CyBle_Get16ByPtr(const uint8 ptr[])
1388:Generated_Source\PSoC4/BLE.c **** {
 1067              		.loc 1 1388 0
 1068              		.cfi_startproc
 1069              		@ args = 0, pretend = 0, frame = 0
 1070              		@ frame_needed = 0, uses_anonymous_args = 0
 1071              		@ link register save eliminated.
 1072              	.LVL94:
1389:Generated_Source\PSoC4/BLE.c ****     return ((uint16) ptr[0u] | ((uint16) (((uint16) ptr[1u]) << 8u)));
 1073              		.loc 1 1389 0
 1074 0000 0378     		ldrb	r3, [r0]
 1075 0002 4078     		ldrb	r0, [r0, #1]
 1076              	.LVL95:
 1077 0004 0002     		lsls	r0, r0, #8
 1078 0006 1843     		orrs	r0, r3
1390:Generated_Source\PSoC4/BLE.c **** }
 1079              		.loc 1 1390 0
 1080              		@ sp needed
ARM GAS  C:\Users\bryan.lee\AppData\Local\Temp\ccDqoJhc.s 			page 45


 1081 0008 7047     		bx	lr
 1082              		.cfi_endproc
 1083              	.LFE14:
 1084              		.size	CyBle_Get16ByPtr, .-CyBle_Get16ByPtr
 1085 000a C046     		.section	.text.CyBle_Set16ByPtr,"ax",%progbits
 1086              		.align	2
 1087              		.global	CyBle_Set16ByPtr
 1088              		.code	16
 1089              		.thumb_func
 1090              		.type	CyBle_Set16ByPtr, %function
 1091              	CyBle_Set16ByPtr:
 1092              	.LFB15:
1391:Generated_Source\PSoC4/BLE.c **** 
1392:Generated_Source\PSoC4/BLE.c **** 
1393:Generated_Source\PSoC4/BLE.c **** /******************************************************************************
1394:Generated_Source\PSoC4/BLE.c **** * Function Name: CyBle_Set16ByPtr
1395:Generated_Source\PSoC4/BLE.c **** ***************************************************************************//**
1396:Generated_Source\PSoC4/BLE.c **** * 
1397:Generated_Source\PSoC4/BLE.c **** *  Sets the two-bytes value by using a pointer to the LSB.
1398:Generated_Source\PSoC4/BLE.c **** * 
1399:Generated_Source\PSoC4/BLE.c **** *  \param ptr:    Pointer to the LSB of two-bytes data (little endian).
1400:Generated_Source\PSoC4/BLE.c **** *  \param value:  Two-bytes data to be written.
1401:Generated_Source\PSoC4/BLE.c **** * 
1402:Generated_Source\PSoC4/BLE.c **** *  \return
1403:Generated_Source\PSoC4/BLE.c **** *  None
1404:Generated_Source\PSoC4/BLE.c **** * 
1405:Generated_Source\PSoC4/BLE.c **** ******************************************************************************/
1406:Generated_Source\PSoC4/BLE.c **** void CyBle_Set16ByPtr(uint8 ptr[], uint16 value)
1407:Generated_Source\PSoC4/BLE.c **** {
 1093              		.loc 1 1407 0
 1094              		.cfi_startproc
 1095              		@ args = 0, pretend = 0, frame = 0
 1096              		@ frame_needed = 0, uses_anonymous_args = 0
 1097              		@ link register save eliminated.
 1098              	.LVL96:
1408:Generated_Source\PSoC4/BLE.c ****     ptr[0u] = (uint8) value;
 1099              		.loc 1 1408 0
 1100 0000 0170     		strb	r1, [r0]
1409:Generated_Source\PSoC4/BLE.c ****     ptr[1u] = (uint8) (value >> 8u);
 1101              		.loc 1 1409 0
 1102 0002 090A     		lsrs	r1, r1, #8
 1103              	.LVL97:
 1104 0004 4170     		strb	r1, [r0, #1]
1410:Generated_Source\PSoC4/BLE.c **** }
 1105              		.loc 1 1410 0
 1106              		@ sp needed
 1107 0006 7047     		bx	lr
 1108              		.cfi_endproc
 1109              	.LFE15:
 1110              		.size	CyBle_Set16ByPtr, .-CyBle_Set16ByPtr
 1111              		.global	cyBle_sflashDeviceAddress
 1112              		.global	cyBle_deviceAddress
 1113              		.comm	CyBle_ApplCallback,4,4
 1114              		.comm	cyBle_pendingFlashWrite,1,1
 1115              		.comm	cyBle_peerBonding,1,1
 1116              		.global	cyBle_discoveryInfo
 1117              		.comm	cyBle_connectingTimeout,2,2
ARM GAS  C:\Users\bryan.lee\AppData\Local\Temp\ccDqoJhc.s 			page 46


 1118              		.comm	cyBle_connectionParameters,26,4
 1119              		.global	cyBle_stackMemoryRam
 1120              		.global	cyBle_initVar
 1121              		.section	.rodata
 1122              		.align	2
 1123              		.set	.LANCHOR1,. + 0
 1124              	.LC0:
 1125 0000 2400     		.short	36
 1126 0002 03       		.byte	3
 1127 0003 00       		.space	1
 1128 0004 3000     		.short	48
 1129 0006 01       		.byte	1
 1130 0007 00       		.space	1
 1131 0008 2800     		.short	40
 1132 000a 02       		.byte	2
 1133 000b 00       		.space	1
 1134 000c 2400     		.short	36
 1135 000e 01       		.byte	1
 1136 000f 00       		.space	1
 1137 0010 2400     		.short	36
 1138 0012 01       		.byte	1
 1139 0013 00       		.space	1
 1140              		.data
 1141              		.align	2
 1142              		.set	.LANCHOR0,. + 0
 1143              		.type	cyBle_discoveryInfo, %object
 1144              		.size	cyBle_discoveryInfo, 12
 1145              	cyBle_discoveryInfo:
 1146 0000 02       		.byte	2
 1147 0001 01       		.byte	1
 1148 0002 3000     		.short	48
 1149 0004 3000     		.short	48
 1150 0006 00       		.byte	0
 1151 0007 00       		.byte	0
 1152 0008 1E00     		.short	30
 1153 000a 00       		.byte	0
 1154 000b 00       		.space	1
 1155              		.type	cyBle_sflashDeviceAddress, %object
 1156              		.size	cyBle_sflashDeviceAddress, 4
 1157              	cyBle_sflashDeviceAddress:
 1158 000c 00F2FF0F 		.word	268431872
 1159              		.type	cyBle_deviceAddress, %object
 1160              		.size	cyBle_deviceAddress, 7
 1161              	cyBle_deviceAddress:
 1162 0010 00       		.byte	0
 1163 0011 00       		.byte	0
 1164 0012 00       		.byte	0
 1165 0013 50       		.byte	80
 1166 0014 A0       		.byte	-96
 1167 0015 00       		.byte	0
 1168 0016 00       		.byte	0
 1169              		.section	.noinit,"aw",%progbits
 1170              		.align	3
 1171              		.set	.LANCHOR3,. + 0
 1172              		.type	cyBle_stackMemoryRam, %object
 1173              		.size	cyBle_stackMemoryRam, 2784
 1174              	cyBle_stackMemoryRam:
ARM GAS  C:\Users\bryan.lee\AppData\Local\Temp\ccDqoJhc.s 			page 47


 1175 0000 00000000 		.space	2784
 1175      00000000 
 1175      00000000 
 1175      00000000 
 1175      00000000 
 1176              		.bss
 1177              		.set	.LANCHOR2,. + 0
 1178              		.type	cyBle_initVar, %object
 1179              		.size	cyBle_initVar, 1
 1180              	cyBle_initVar:
 1181 0000 00       		.space	1
 1182              		.type	cyBle_pendingFlashClearCccdHandle, %object
 1183              		.size	cyBle_pendingFlashClearCccdHandle, 1
 1184              	cyBle_pendingFlashClearCccdHandle:
 1185 0001 00       		.space	1
 1186              		.text
 1187              	.Letext0:
 1188              		.file 2 "Generated_Source\\PSoC4\\cytypes.h"
 1189              		.file 3 "Generated_Source\\PSoC4\\BLE_Stack.h"
 1190              		.file 4 "Generated_Source\\PSoC4\\BLE_StackGap.h"
 1191              		.file 5 "Generated_Source\\PSoC4\\BLE_StackGatt.h"
 1192              		.file 6 "Generated_Source\\PSoC4\\BLE_StackGattDb.h"
 1193              		.file 7 "Generated_Source\\PSoC4\\BLE.h"
 1194              		.file 8 "Generated_Source\\PSoC4\\BLE_gatt.h"
 1195              		.file 9 "Generated_Source\\PSoC4\\BLE_ans.h"
 1196              		.file 10 "Generated_Source\\PSoC4\\BLE_eventHandler.h"
 1197              		.file 11 "Generated_Source\\PSoC4\\BLE_StackHostMain.h"
 1198              		.file 12 "c:\\program files (x86)\\cypress\\psoc creator\\4.2\\psoc creator\\import\\gnu\\arm\\5.4
 1199              		.section	.debug_info,"",%progbits
 1200              	.Ldebug_info0:
 1201 0000 4B100000 		.4byte	0x104b
 1202 0004 0400     		.2byte	0x4
 1203 0006 00000000 		.4byte	.Ldebug_abbrev0
 1204 000a 04       		.byte	0x4
 1205 000b 01       		.uleb128 0x1
 1206 000c 6D010000 		.4byte	.LASF275
 1207 0010 0C       		.byte	0xc
 1208 0011 02120000 		.4byte	.LASF276
 1209 0015 9F0F0000 		.4byte	.LASF277
 1210 0019 00000000 		.4byte	.Ldebug_ranges0+0
 1211 001d 00000000 		.4byte	0
 1212 0021 00000000 		.4byte	.Ldebug_line0
 1213 0025 02       		.uleb128 0x2
 1214 0026 01       		.byte	0x1
 1215 0027 06       		.byte	0x6
 1216 0028 19050000 		.4byte	.LASF0
 1217 002c 02       		.uleb128 0x2
 1218 002d 01       		.byte	0x1
 1219 002e 08       		.byte	0x8
 1220 002f D4050000 		.4byte	.LASF1
 1221 0033 02       		.uleb128 0x2
 1222 0034 02       		.byte	0x2
 1223 0035 05       		.byte	0x5
 1224 0036 E1140000 		.4byte	.LASF2
 1225 003a 02       		.uleb128 0x2
 1226 003b 02       		.byte	0x2
 1227 003c 07       		.byte	0x7
ARM GAS  C:\Users\bryan.lee\AppData\Local\Temp\ccDqoJhc.s 			page 48


 1228 003d D9170000 		.4byte	.LASF3
 1229 0041 02       		.uleb128 0x2
 1230 0042 04       		.byte	0x4
 1231 0043 05       		.byte	0x5
 1232 0044 C6030000 		.4byte	.LASF4
 1233 0048 02       		.uleb128 0x2
 1234 0049 04       		.byte	0x4
 1235 004a 07       		.byte	0x7
 1236 004b 3B0A0000 		.4byte	.LASF5
 1237 004f 02       		.uleb128 0x2
 1238 0050 08       		.byte	0x8
 1239 0051 05       		.byte	0x5
 1240 0052 E10B0000 		.4byte	.LASF6
 1241 0056 02       		.uleb128 0x2
 1242 0057 08       		.byte	0x8
 1243 0058 07       		.byte	0x7
 1244 0059 6D110000 		.4byte	.LASF7
 1245 005d 03       		.uleb128 0x3
 1246 005e 04       		.byte	0x4
 1247 005f 05       		.byte	0x5
 1248 0060 696E7400 		.ascii	"int\000"
 1249 0064 02       		.uleb128 0x2
 1250 0065 04       		.byte	0x4
 1251 0066 07       		.byte	0x7
 1252 0067 C50D0000 		.4byte	.LASF8
 1253 006b 04       		.uleb128 0x4
 1254 006c 98140000 		.4byte	.LASF9
 1255 0070 02       		.byte	0x2
 1256 0071 E401     		.2byte	0x1e4
 1257 0073 2C000000 		.4byte	0x2c
 1258 0077 04       		.uleb128 0x4
 1259 0078 15190000 		.4byte	.LASF10
 1260 007c 02       		.byte	0x2
 1261 007d E501     		.2byte	0x1e5
 1262 007f 3A000000 		.4byte	0x3a
 1263 0083 04       		.uleb128 0x4
 1264 0084 B8000000 		.4byte	.LASF11
 1265 0088 02       		.byte	0x2
 1266 0089 E601     		.2byte	0x1e6
 1267 008b 48000000 		.4byte	0x48
 1268 008f 02       		.uleb128 0x2
 1269 0090 04       		.byte	0x4
 1270 0091 04       		.byte	0x4
 1271 0092 2B0D0000 		.4byte	.LASF12
 1272 0096 02       		.uleb128 0x2
 1273 0097 08       		.byte	0x8
 1274 0098 04       		.byte	0x4
 1275 0099 320C0000 		.4byte	.LASF13
 1276 009d 04       		.uleb128 0x4
 1277 009e 44010000 		.4byte	.LASF14
 1278 00a2 02       		.byte	0x2
 1279 00a3 F501     		.2byte	0x1f5
 1280 00a5 A9000000 		.4byte	0xa9
 1281 00a9 02       		.uleb128 0x2
 1282 00aa 01       		.byte	0x1
 1283 00ab 08       		.byte	0x8
 1284 00ac BF060000 		.4byte	.LASF15
ARM GAS  C:\Users\bryan.lee\AppData\Local\Temp\ccDqoJhc.s 			page 49


 1285 00b0 05       		.uleb128 0x5
 1286 00b1 6B000000 		.4byte	0x6b
 1287 00b5 02       		.uleb128 0x2
 1288 00b6 08       		.byte	0x8
 1289 00b7 04       		.byte	0x4
 1290 00b8 6D100000 		.4byte	.LASF16
 1291 00bc 02       		.uleb128 0x2
 1292 00bd 04       		.byte	0x4
 1293 00be 07       		.byte	0x7
 1294 00bf 2A000000 		.4byte	.LASF17
 1295 00c3 06       		.uleb128 0x6
 1296 00c4 04       		.byte	0x4
 1297 00c5 07       		.uleb128 0x7
 1298 00c6 04       		.byte	0x4
 1299 00c7 CB000000 		.4byte	0xcb
 1300 00cb 08       		.uleb128 0x8
 1301 00cc DB000000 		.4byte	0xdb
 1302 00d0 09       		.uleb128 0x9
 1303 00d1 83000000 		.4byte	0x83
 1304 00d5 09       		.uleb128 0x9
 1305 00d6 C3000000 		.4byte	0xc3
 1306 00da 00       		.byte	0
 1307 00db 0A       		.uleb128 0xa
 1308 00dc 01       		.byte	0x1
 1309 00dd 2C000000 		.4byte	0x2c
 1310 00e1 03       		.byte	0x3
 1311 00e2 3201     		.2byte	0x132
 1312 00e4 99020000 		.4byte	0x299
 1313 00e8 0B       		.uleb128 0xb
 1314 00e9 18070000 		.4byte	.LASF18
 1315 00ed 00       		.byte	0
 1316 00ee 0B       		.uleb128 0xb
 1317 00ef 26040000 		.4byte	.LASF19
 1318 00f3 01       		.byte	0x1
 1319 00f4 0B       		.uleb128 0xb
 1320 00f5 98110000 		.4byte	.LASF20
 1321 00f9 02       		.byte	0x2
 1322 00fa 0B       		.uleb128 0xb
 1323 00fb 4D050000 		.4byte	.LASF21
 1324 00ff 03       		.byte	0x3
 1325 0100 0B       		.uleb128 0xb
 1326 0101 4A180000 		.4byte	.LASF22
 1327 0105 04       		.byte	0x4
 1328 0106 0B       		.uleb128 0xb
 1329 0107 46170000 		.4byte	.LASF23
 1330 010b 05       		.byte	0x5
 1331 010c 0B       		.uleb128 0xb
 1332 010d 84100000 		.4byte	.LASF24
 1333 0111 06       		.byte	0x6
 1334 0112 0B       		.uleb128 0xb
 1335 0113 CF150000 		.4byte	.LASF25
 1336 0117 20       		.byte	0x20
 1337 0118 0B       		.uleb128 0xb
 1338 0119 89020000 		.4byte	.LASF26
 1339 011d 21       		.byte	0x21
 1340 011e 0B       		.uleb128 0xb
 1341 011f 700B0000 		.4byte	.LASF27
ARM GAS  C:\Users\bryan.lee\AppData\Local\Temp\ccDqoJhc.s 			page 50


 1342 0123 22       		.byte	0x22
 1343 0124 0B       		.uleb128 0xb
 1344 0125 470F0000 		.4byte	.LASF28
 1345 0129 23       		.byte	0x23
 1346 012a 0B       		.uleb128 0xb
 1347 012b AF090000 		.4byte	.LASF29
 1348 012f 24       		.byte	0x24
 1349 0130 0B       		.uleb128 0xb
 1350 0131 CB090000 		.4byte	.LASF30
 1351 0135 25       		.byte	0x25
 1352 0136 0B       		.uleb128 0xb
 1353 0137 5D140000 		.4byte	.LASF31
 1354 013b 26       		.byte	0x26
 1355 013c 0B       		.uleb128 0xb
 1356 013d 7E000000 		.4byte	.LASF32
 1357 0141 27       		.byte	0x27
 1358 0142 0B       		.uleb128 0xb
 1359 0143 D2180000 		.4byte	.LASF33
 1360 0147 28       		.byte	0x28
 1361 0148 0B       		.uleb128 0xb
 1362 0149 C3100000 		.4byte	.LASF34
 1363 014d 29       		.byte	0x29
 1364 014e 0B       		.uleb128 0xb
 1365 014f E50A0000 		.4byte	.LASF35
 1366 0153 2A       		.byte	0x2a
 1367 0154 0B       		.uleb128 0xb
 1368 0155 A30E0000 		.4byte	.LASF36
 1369 0159 2B       		.byte	0x2b
 1370 015a 0B       		.uleb128 0xb
 1371 015b 6E170000 		.4byte	.LASF37
 1372 015f 2C       		.byte	0x2c
 1373 0160 0B       		.uleb128 0xb
 1374 0161 33000000 		.4byte	.LASF38
 1375 0165 2D       		.byte	0x2d
 1376 0166 0B       		.uleb128 0xb
 1377 0167 AC140000 		.4byte	.LASF39
 1378 016b 2E       		.byte	0x2e
 1379 016c 0B       		.uleb128 0xb
 1380 016d 15030000 		.4byte	.LASF40
 1381 0171 2F       		.byte	0x2f
 1382 0172 0B       		.uleb128 0xb
 1383 0173 9E060000 		.4byte	.LASF41
 1384 0177 30       		.byte	0x30
 1385 0178 0B       		.uleb128 0xb
 1386 0179 8E0C0000 		.4byte	.LASF42
 1387 017d 31       		.byte	0x31
 1388 017e 0B       		.uleb128 0xb
 1389 017f 45070000 		.4byte	.LASF43
 1390 0183 32       		.byte	0x32
 1391 0184 0B       		.uleb128 0xb
 1392 0185 00060000 		.4byte	.LASF44
 1393 0189 33       		.byte	0x33
 1394 018a 0B       		.uleb128 0xb
 1395 018b 27060000 		.4byte	.LASF45
 1396 018f 34       		.byte	0x34
 1397 0190 0B       		.uleb128 0xb
 1398 0191 27160000 		.4byte	.LASF46
ARM GAS  C:\Users\bryan.lee\AppData\Local\Temp\ccDqoJhc.s 			page 51


 1399 0195 35       		.byte	0x35
 1400 0196 0B       		.uleb128 0xb
 1401 0197 F4020000 		.4byte	.LASF47
 1402 019b 36       		.byte	0x36
 1403 019c 0B       		.uleb128 0xb
 1404 019d 2D110000 		.4byte	.LASF48
 1405 01a1 37       		.byte	0x37
 1406 01a2 0B       		.uleb128 0xb
 1407 01a3 54150000 		.4byte	.LASF49
 1408 01a7 40       		.byte	0x40
 1409 01a8 0B       		.uleb128 0xb
 1410 01a9 9D000000 		.4byte	.LASF50
 1411 01ad 41       		.byte	0x41
 1412 01ae 0B       		.uleb128 0xb
 1413 01af 5F180000 		.4byte	.LASF51
 1414 01b3 42       		.byte	0x42
 1415 01b4 0B       		.uleb128 0xb
 1416 01b5 F7100000 		.4byte	.LASF52
 1417 01b9 43       		.byte	0x43
 1418 01ba 0B       		.uleb128 0xb
 1419 01bb E2050000 		.4byte	.LASF53
 1420 01bf 44       		.byte	0x44
 1421 01c0 0B       		.uleb128 0xb
 1422 01c1 99050000 		.4byte	.LASF54
 1423 01c5 45       		.byte	0x45
 1424 01c6 0B       		.uleb128 0xb
 1425 01c7 56130000 		.4byte	.LASF55
 1426 01cb 46       		.byte	0x46
 1427 01cc 0B       		.uleb128 0xb
 1428 01cd 38130000 		.4byte	.LASF56
 1429 01d1 47       		.byte	0x47
 1430 01d2 0B       		.uleb128 0xb
 1431 01d3 77060000 		.4byte	.LASF57
 1432 01d7 48       		.byte	0x48
 1433 01d8 0B       		.uleb128 0xb
 1434 01d9 EC0F0000 		.4byte	.LASF58
 1435 01dd 49       		.byte	0x49
 1436 01de 0B       		.uleb128 0xb
 1437 01df 83070000 		.4byte	.LASF59
 1438 01e3 4A       		.byte	0x4a
 1439 01e4 0B       		.uleb128 0xb
 1440 01e5 E2060000 		.4byte	.LASF60
 1441 01e9 4B       		.byte	0x4b
 1442 01ea 0B       		.uleb128 0xb
 1443 01eb D60E0000 		.4byte	.LASF61
 1444 01ef 4C       		.byte	0x4c
 1445 01f0 0B       		.uleb128 0xb
 1446 01f1 F3130000 		.4byte	.LASF62
 1447 01f5 4D       		.byte	0x4d
 1448 01f6 0B       		.uleb128 0xb
 1449 01f7 85030000 		.4byte	.LASF63
 1450 01fb 4E       		.byte	0x4e
 1451 01fc 0B       		.uleb128 0xb
 1452 01fd DF0D0000 		.4byte	.LASF64
 1453 0201 4F       		.byte	0x4f
 1454 0202 0B       		.uleb128 0xb
 1455 0203 B0150000 		.4byte	.LASF65
ARM GAS  C:\Users\bryan.lee\AppData\Local\Temp\ccDqoJhc.s 			page 52


 1456 0207 50       		.byte	0x50
 1457 0208 0B       		.uleb128 0xb
 1458 0209 A1070000 		.4byte	.LASF66
 1459 020d 51       		.byte	0x51
 1460 020e 0B       		.uleb128 0xb
 1461 020f 68020000 		.4byte	.LASF67
 1462 0213 52       		.byte	0x52
 1463 0214 0B       		.uleb128 0xb
 1464 0215 00170000 		.4byte	.LASF68
 1465 0219 53       		.byte	0x53
 1466 021a 0B       		.uleb128 0xb
 1467 021b F4180000 		.4byte	.LASF69
 1468 021f 54       		.byte	0x54
 1469 0220 0B       		.uleb128 0xb
 1470 0221 0B0F0000 		.4byte	.LASF70
 1471 0225 55       		.byte	0x55
 1472 0226 0B       		.uleb128 0xb
 1473 0227 CB070000 		.4byte	.LASF71
 1474 022b 56       		.byte	0x56
 1475 022c 0B       		.uleb128 0xb
 1476 022d 6A0D0000 		.4byte	.LASF72
 1477 0231 57       		.byte	0x57
 1478 0232 0B       		.uleb128 0xb
 1479 0233 AF180000 		.4byte	.LASF73
 1480 0237 58       		.byte	0x58
 1481 0238 0B       		.uleb128 0xb
 1482 0239 92170000 		.4byte	.LASF74
 1483 023d 70       		.byte	0x70
 1484 023e 0B       		.uleb128 0xb
 1485 023f 5B090000 		.4byte	.LASF75
 1486 0243 71       		.byte	0x71
 1487 0244 0B       		.uleb128 0xb
 1488 0245 C3040000 		.4byte	.LASF76
 1489 0249 72       		.byte	0x72
 1490 024a 0B       		.uleb128 0xb
 1491 024b 92150000 		.4byte	.LASF77
 1492 024f 73       		.byte	0x73
 1493 0250 0B       		.uleb128 0xb
 1494 0251 05100000 		.4byte	.LASF78
 1495 0255 74       		.byte	0x74
 1496 0256 0B       		.uleb128 0xb
 1497 0257 440B0000 		.4byte	.LASF79
 1498 025b 75       		.byte	0x75
 1499 025c 0B       		.uleb128 0xb
 1500 025d 56060000 		.4byte	.LASF80
 1501 0261 76       		.byte	0x76
 1502 0262 0B       		.uleb128 0xb
 1503 0263 1F120000 		.4byte	.LASF81
 1504 0267 77       		.byte	0x77
 1505 0268 0B       		.uleb128 0xb
 1506 0269 4A010000 		.4byte	.LASF82
 1507 026d 78       		.byte	0x78
 1508 026e 0B       		.uleb128 0xb
 1509 026f A3030000 		.4byte	.LASF83
 1510 0273 79       		.byte	0x79
 1511 0274 0B       		.uleb128 0xb
 1512 0275 8B180000 		.4byte	.LASF84
ARM GAS  C:\Users\bryan.lee\AppData\Local\Temp\ccDqoJhc.s 			page 53


 1513 0279 7A       		.byte	0x7a
 1514 027a 0B       		.uleb128 0xb
 1515 027b 5B0C0000 		.4byte	.LASF85
 1516 027f FA       		.byte	0xfa
 1517 0280 0B       		.uleb128 0xb
 1518 0281 BA160000 		.4byte	.LASF86
 1519 0285 FB       		.byte	0xfb
 1520 0286 0B       		.uleb128 0xb
 1521 0287 81090000 		.4byte	.LASF87
 1522 028b FC       		.byte	0xfc
 1523 028c 0B       		.uleb128 0xb
 1524 028d 55100000 		.4byte	.LASF88
 1525 0291 FD       		.byte	0xfd
 1526 0292 0B       		.uleb128 0xb
 1527 0293 950E0000 		.4byte	.LASF89
 1528 0297 FF       		.byte	0xff
 1529 0298 00       		.byte	0
 1530 0299 0A       		.uleb128 0xa
 1531 029a 02       		.byte	0x2
 1532 029b 3A000000 		.4byte	0x3a
 1533 029f 03       		.byte	0x3
 1534 02a0 E703     		.2byte	0x3e7
 1535 02a2 78030000 		.4byte	0x378
 1536 02a6 0B       		.uleb128 0xb
 1537 02a7 66050000 		.4byte	.LASF90
 1538 02ab 00       		.byte	0
 1539 02ac 0B       		.uleb128 0xb
 1540 02ad 56080000 		.4byte	.LASF91
 1541 02b1 01       		.byte	0x1
 1542 02b2 0B       		.uleb128 0xb
 1543 02b3 1B180000 		.4byte	.LASF92
 1544 02b7 02       		.byte	0x2
 1545 02b8 0B       		.uleb128 0xb
 1546 02b9 B7080000 		.4byte	.LASF93
 1547 02bd 03       		.byte	0x3
 1548 02be 0B       		.uleb128 0xb
 1549 02bf 180A0000 		.4byte	.LASF94
 1550 02c3 04       		.byte	0x4
 1551 02c4 0B       		.uleb128 0xb
 1552 02c5 140C0000 		.4byte	.LASF95
 1553 02c9 05       		.byte	0x5
 1554 02ca 0B       		.uleb128 0xb
 1555 02cb 99160000 		.4byte	.LASF96
 1556 02cf 06       		.byte	0x6
 1557 02d0 0B       		.uleb128 0xb
 1558 02d1 66070000 		.4byte	.LASF97
 1559 02d5 07       		.byte	0x7
 1560 02d6 0B       		.uleb128 0xb
 1561 02d7 040D0000 		.4byte	.LASF98
 1562 02db 08       		.byte	0x8
 1563 02dc 0B       		.uleb128 0xb
 1564 02dd FD150000 		.4byte	.LASF99
 1565 02e1 09       		.byte	0x9
 1566 02e2 0B       		.uleb128 0xb
 1567 02e3 28190000 		.4byte	.LASF100
 1568 02e7 0A       		.byte	0xa
 1569 02e8 0B       		.uleb128 0xb
ARM GAS  C:\Users\bryan.lee\AppData\Local\Temp\ccDqoJhc.s 			page 54


 1570 02e9 C1020000 		.4byte	.LASF101
 1571 02ed 0B       		.byte	0xb
 1572 02ee 0B       		.uleb128 0xb
 1573 02ef 21170000 		.4byte	.LASF102
 1574 02f3 0C       		.byte	0xc
 1575 02f4 0B       		.uleb128 0xb
 1576 02f5 320E0000 		.4byte	.LASF103
 1577 02f9 0D       		.byte	0xd
 1578 02fa 0B       		.uleb128 0xb
 1579 02fb AF0A0000 		.4byte	.LASF104
 1580 02ff 0E       		.byte	0xe
 1581 0300 0B       		.uleb128 0xb
 1582 0301 EF0B0000 		.4byte	.LASF105
 1583 0305 0F       		.byte	0xf
 1584 0306 0B       		.uleb128 0xb
 1585 0307 E1000000 		.4byte	.LASF106
 1586 030b 10       		.byte	0x10
 1587 030c 0B       		.uleb128 0xb
 1588 030d B20C0000 		.4byte	.LASF107
 1589 0311 11       		.byte	0x11
 1590 0312 0B       		.uleb128 0xb
 1591 0313 39040000 		.4byte	.LASF108
 1592 0317 12       		.byte	0x12
 1593 0318 0B       		.uleb128 0xb
 1594 0319 F1040000 		.4byte	.LASF109
 1595 031d 13       		.byte	0x13
 1596 031e 0B       		.uleb128 0xb
 1597 031f 390C0000 		.4byte	.LASF110
 1598 0323 27       		.byte	0x27
 1599 0324 0B       		.uleb128 0xb
 1600 0325 310D0000 		.4byte	.LASF111
 1601 0329 28       		.byte	0x28
 1602 032a 0B       		.uleb128 0xb
 1603 032b 0F010000 		.4byte	.LASF112
 1604 032f 29       		.byte	0x29
 1605 0330 0B       		.uleb128 0xb
 1606 0331 21150000 		.4byte	.LASF113
 1607 0335 2A       		.byte	0x2a
 1608 0336 0B       		.uleb128 0xb
 1609 0337 4D0A0000 		.4byte	.LASF114
 1610 033b 2B       		.byte	0x2b
 1611 033c 0B       		.uleb128 0xb
 1612 033d 60120000 		.4byte	.LASF115
 1613 0341 2C       		.byte	0x2c
 1614 0342 0B       		.uleb128 0xb
 1615 0343 C9130000 		.4byte	.LASF116
 1616 0347 2D       		.byte	0x2d
 1617 0348 0B       		.uleb128 0xb
 1618 0349 3A080000 		.4byte	.LASF117
 1619 034d FE       		.byte	0xfe
 1620 034e 0B       		.uleb128 0xb
 1621 034f 4B090000 		.4byte	.LASF118
 1622 0353 FF       		.byte	0xff
 1623 0354 0C       		.uleb128 0xc
 1624 0355 860F0000 		.4byte	.LASF119
 1625 0359 0001     		.2byte	0x100
 1626 035b 0C       		.uleb128 0xc
ARM GAS  C:\Users\bryan.lee\AppData\Local\Temp\ccDqoJhc.s 			page 55


 1627 035c 6D0F0000 		.4byte	.LASF120
 1628 0360 0101     		.2byte	0x101
 1629 0362 0C       		.uleb128 0xc
 1630 0363 8C040000 		.4byte	.LASF121
 1631 0367 0201     		.2byte	0x102
 1632 0369 0C       		.uleb128 0xc
 1633 036a CC110000 		.4byte	.LASF122
 1634 036e 0301     		.2byte	0x103
 1635 0370 0C       		.uleb128 0xc
 1636 0371 E5090000 		.4byte	.LASF123
 1637 0375 0401     		.2byte	0x104
 1638 0377 00       		.byte	0
 1639 0378 04       		.uleb128 0x4
 1640 0379 D9160000 		.4byte	.LASF124
 1641 037d 03       		.byte	0x3
 1642 037e 5904     		.2byte	0x459
 1643 0380 99020000 		.4byte	0x299
 1644 0384 0D       		.uleb128 0xd
 1645 0385 07       		.byte	0x7
 1646 0386 03       		.byte	0x3
 1647 0387 2705     		.2byte	0x527
 1648 0389 A8030000 		.4byte	0x3a8
 1649 038d 0E       		.uleb128 0xe
 1650 038e 64160000 		.4byte	.LASF125
 1651 0392 03       		.byte	0x3
 1652 0393 2A05     		.2byte	0x52a
 1653 0395 A8030000 		.4byte	0x3a8
 1654 0399 00       		.byte	0
 1655 039a 0E       		.uleb128 0xe
 1656 039b 22020000 		.4byte	.LASF126
 1657 039f 03       		.byte	0x3
 1658 03a0 2C05     		.2byte	0x52c
 1659 03a2 6B000000 		.4byte	0x6b
 1660 03a6 06       		.byte	0x6
 1661 03a7 00       		.byte	0
 1662 03a8 0F       		.uleb128 0xf
 1663 03a9 6B000000 		.4byte	0x6b
 1664 03ad B8030000 		.4byte	0x3b8
 1665 03b1 10       		.uleb128 0x10
 1666 03b2 BC000000 		.4byte	0xbc
 1667 03b6 05       		.byte	0x5
 1668 03b7 00       		.byte	0
 1669 03b8 04       		.uleb128 0x4
 1670 03b9 A7120000 		.4byte	.LASF127
 1671 03bd 03       		.byte	0x3
 1672 03be 2D05     		.2byte	0x52d
 1673 03c0 84030000 		.4byte	0x384
 1674 03c4 0D       		.uleb128 0xd
 1675 03c5 04       		.byte	0x4
 1676 03c6 03       		.byte	0x3
 1677 03c7 3705     		.2byte	0x537
 1678 03c9 E8030000 		.4byte	0x3e8
 1679 03cd 0E       		.uleb128 0xe
 1680 03ce 79100000 		.4byte	.LASF128
 1681 03d2 03       		.byte	0x3
 1682 03d3 3A05     		.2byte	0x53a
 1683 03d5 77000000 		.4byte	0x77
ARM GAS  C:\Users\bryan.lee\AppData\Local\Temp\ccDqoJhc.s 			page 56


 1684 03d9 00       		.byte	0
 1685 03da 0E       		.uleb128 0xe
 1686 03db 41050000 		.4byte	.LASF129
 1687 03df 03       		.byte	0x3
 1688 03e0 3C05     		.2byte	0x53c
 1689 03e2 6B000000 		.4byte	0x6b
 1690 03e6 02       		.byte	0x2
 1691 03e7 00       		.byte	0
 1692 03e8 04       		.uleb128 0x4
 1693 03e9 E1030000 		.4byte	.LASF130
 1694 03ed 03       		.byte	0x3
 1695 03ee 3D05     		.2byte	0x53d
 1696 03f0 C4030000 		.4byte	0x3c4
 1697 03f4 0D       		.uleb128 0xd
 1698 03f5 06       		.byte	0x6
 1699 03f6 03       		.byte	0x3
 1700 03f7 4105     		.2byte	0x541
 1701 03f9 25040000 		.4byte	0x425
 1702 03fd 0E       		.uleb128 0xe
 1703 03fe AF0B0000 		.4byte	.LASF131
 1704 0402 03       		.byte	0x3
 1705 0403 4405     		.2byte	0x544
 1706 0405 77000000 		.4byte	0x77
 1707 0409 00       		.byte	0
 1708 040a 0E       		.uleb128 0xe
 1709 040b 02180000 		.4byte	.LASF132
 1710 040f 03       		.byte	0x3
 1711 0410 4705     		.2byte	0x547
 1712 0412 77000000 		.4byte	0x77
 1713 0416 02       		.byte	0x2
 1714 0417 0E       		.uleb128 0xe
 1715 0418 B60D0000 		.4byte	.LASF133
 1716 041c 03       		.byte	0x3
 1717 041d 4A05     		.2byte	0x54a
 1718 041f 6B000000 		.4byte	0x6b
 1719 0423 04       		.byte	0x4
 1720 0424 00       		.byte	0
 1721 0425 04       		.uleb128 0x4
 1722 0426 6C030000 		.4byte	.LASF134
 1723 042a 03       		.byte	0x3
 1724 042b 4B05     		.2byte	0x54b
 1725 042d F4030000 		.4byte	0x3f4
 1726 0431 0D       		.uleb128 0xd
 1727 0432 01       		.byte	0x1
 1728 0433 03       		.byte	0x3
 1729 0434 4E05     		.2byte	0x54e
 1730 0436 48040000 		.4byte	0x448
 1731 043a 0E       		.uleb128 0xe
 1732 043b 9D0A0000 		.4byte	.LASF135
 1733 043f 03       		.byte	0x3
 1734 0440 5105     		.2byte	0x551
 1735 0442 6B000000 		.4byte	0x6b
 1736 0446 00       		.byte	0
 1737 0447 00       		.byte	0
 1738 0448 04       		.uleb128 0x4
 1739 0449 D60C0000 		.4byte	.LASF136
 1740 044d 03       		.byte	0x3
ARM GAS  C:\Users\bryan.lee\AppData\Local\Temp\ccDqoJhc.s 			page 57


 1741 044e 5205     		.2byte	0x552
 1742 0450 31040000 		.4byte	0x431
 1743 0454 0D       		.uleb128 0xd
 1744 0455 0C       		.byte	0xc
 1745 0456 03       		.byte	0x3
 1746 0457 5805     		.2byte	0x558
 1747 0459 85040000 		.4byte	0x485
 1748 045d 0E       		.uleb128 0xe
 1749 045e FB030000 		.4byte	.LASF137
 1750 0462 03       		.byte	0x3
 1751 0463 5B05     		.2byte	0x55b
 1752 0465 85040000 		.4byte	0x485
 1753 0469 00       		.byte	0
 1754 046a 0E       		.uleb128 0xe
 1755 046b D0120000 		.4byte	.LASF138
 1756 046f 03       		.byte	0x3
 1757 0470 5E05     		.2byte	0x55e
 1758 0472 8B040000 		.4byte	0x48b
 1759 0476 04       		.byte	0x4
 1760 0477 0E       		.uleb128 0xe
 1761 0478 D20D0000 		.4byte	.LASF139
 1762 047c 03       		.byte	0x3
 1763 047d 6405     		.2byte	0x564
 1764 047f 77000000 		.4byte	0x77
 1765 0483 08       		.byte	0x8
 1766 0484 00       		.byte	0
 1767 0485 07       		.uleb128 0x7
 1768 0486 04       		.byte	0x4
 1769 0487 25040000 		.4byte	0x425
 1770 048b 07       		.uleb128 0x7
 1771 048c 04       		.byte	0x4
 1772 048d 48040000 		.4byte	0x448
 1773 0491 04       		.uleb128 0x4
 1774 0492 940B0000 		.4byte	.LASF140
 1775 0496 03       		.byte	0x3
 1776 0497 6505     		.2byte	0x565
 1777 0499 54040000 		.4byte	0x454
 1778 049d 07       		.uleb128 0x7
 1779 049e 04       		.byte	0x4
 1780 049f 6B000000 		.4byte	0x6b
 1781 04a3 0D       		.uleb128 0xd
 1782 04a4 0C       		.byte	0xc
 1783 04a5 04       		.byte	0x4
 1784 04a6 9902     		.2byte	0x299
 1785 04a8 15050000 		.4byte	0x515
 1786 04ac 0E       		.uleb128 0xe
 1787 04ad A1090000 		.4byte	.LASF141
 1788 04b1 04       		.byte	0x4
 1789 04b2 A002     		.2byte	0x2a0
 1790 04b4 6B000000 		.4byte	0x6b
 1791 04b8 00       		.byte	0
 1792 04b9 0E       		.uleb128 0xe
 1793 04ba 83040000 		.4byte	.LASF142
 1794 04be 04       		.byte	0x4
 1795 04bf A602     		.2byte	0x2a6
 1796 04c1 6B000000 		.4byte	0x6b
 1797 04c5 01       		.byte	0x1
ARM GAS  C:\Users\bryan.lee\AppData\Local\Temp\ccDqoJhc.s 			page 58


 1798 04c6 0E       		.uleb128 0xe
 1799 04c7 220D0000 		.4byte	.LASF143
 1800 04cb 04       		.byte	0x4
 1801 04cc AC02     		.2byte	0x2ac
 1802 04ce 77000000 		.4byte	0x77
 1803 04d2 02       		.byte	0x2
 1804 04d3 0E       		.uleb128 0xe
 1805 04d4 62110000 		.4byte	.LASF144
 1806 04d8 04       		.byte	0x4
 1807 04d9 B102     		.2byte	0x2b1
 1808 04db 77000000 		.4byte	0x77
 1809 04df 04       		.byte	0x4
 1810 04e0 0E       		.uleb128 0xe
 1811 04e1 1C190000 		.4byte	.LASF145
 1812 04e5 04       		.byte	0x4
 1813 04e6 B902     		.2byte	0x2b9
 1814 04e8 6B000000 		.4byte	0x6b
 1815 04ec 06       		.byte	0x6
 1816 04ed 0E       		.uleb128 0xe
 1817 04ee 39180000 		.4byte	.LASF146
 1818 04f2 04       		.byte	0x4
 1819 04f3 C102     		.2byte	0x2c1
 1820 04f5 6B000000 		.4byte	0x6b
 1821 04f9 07       		.byte	0x7
 1822 04fa 0E       		.uleb128 0xe
 1823 04fb 18130000 		.4byte	.LASF147
 1824 04ff 04       		.byte	0x4
 1825 0500 C702     		.2byte	0x2c7
 1826 0502 77000000 		.4byte	0x77
 1827 0506 08       		.byte	0x8
 1828 0507 0E       		.uleb128 0xe
 1829 0508 A50D0000 		.4byte	.LASF148
 1830 050c 04       		.byte	0x4
 1831 050d D102     		.2byte	0x2d1
 1832 050f 6B000000 		.4byte	0x6b
 1833 0513 0A       		.byte	0xa
 1834 0514 00       		.byte	0
 1835 0515 04       		.uleb128 0x4
 1836 0516 E0100000 		.4byte	.LASF149
 1837 051a 04       		.byte	0x4
 1838 051b D302     		.2byte	0x2d3
 1839 051d A3040000 		.4byte	0x4a3
 1840 0521 0D       		.uleb128 0xd
 1841 0522 1A       		.byte	0x1a
 1842 0523 04       		.byte	0x4
 1843 0524 D602     		.2byte	0x2d6
 1844 0526 C7050000 		.4byte	0x5c7
 1845 052a 0E       		.uleb128 0xe
 1846 052b 220D0000 		.4byte	.LASF143
 1847 052f 04       		.byte	0x4
 1848 0530 DC02     		.2byte	0x2dc
 1849 0532 77000000 		.4byte	0x77
 1850 0536 00       		.byte	0
 1851 0537 0E       		.uleb128 0xe
 1852 0538 62110000 		.4byte	.LASF144
 1853 053c 04       		.byte	0x4
 1854 053d E102     		.2byte	0x2e1
ARM GAS  C:\Users\bryan.lee\AppData\Local\Temp\ccDqoJhc.s 			page 59


 1855 053f 77000000 		.4byte	0x77
 1856 0543 02       		.byte	0x2
 1857 0544 0E       		.uleb128 0xe
 1858 0545 0B0E0000 		.4byte	.LASF150
 1859 0549 04       		.byte	0x4
 1860 054a E902     		.2byte	0x2e9
 1861 054c 6B000000 		.4byte	0x6b
 1862 0550 04       		.byte	0x4
 1863 0551 0E       		.uleb128 0xe
 1864 0552 8E050000 		.4byte	.LASF151
 1865 0556 04       		.byte	0x4
 1866 0557 EC02     		.2byte	0x2ec
 1867 0559 A8030000 		.4byte	0x3a8
 1868 055d 05       		.byte	0x5
 1869 055e 0E       		.uleb128 0xe
 1870 055f 3F060000 		.4byte	.LASF152
 1871 0563 04       		.byte	0x4
 1872 0564 F402     		.2byte	0x2f4
 1873 0566 6B000000 		.4byte	0x6b
 1874 056a 0B       		.byte	0xb
 1875 056b 0E       		.uleb128 0xe
 1876 056c 1C190000 		.4byte	.LASF145
 1877 0570 04       		.byte	0x4
 1878 0571 FC02     		.2byte	0x2fc
 1879 0573 6B000000 		.4byte	0x6b
 1880 0577 0C       		.byte	0xc
 1881 0578 0E       		.uleb128 0xe
 1882 0579 AF040000 		.4byte	.LASF153
 1883 057d 04       		.byte	0x4
 1884 057e 0303     		.2byte	0x303
 1885 0580 77000000 		.4byte	0x77
 1886 0584 0E       		.byte	0xe
 1887 0585 0E       		.uleb128 0xe
 1888 0586 CD170000 		.4byte	.LASF154
 1889 058a 04       		.byte	0x4
 1890 058b 0A03     		.2byte	0x30a
 1891 058d 77000000 		.4byte	0x77
 1892 0591 10       		.byte	0x10
 1893 0592 0E       		.uleb128 0xe
 1894 0593 62170000 		.4byte	.LASF155
 1895 0597 04       		.byte	0x4
 1896 0598 0F03     		.2byte	0x30f
 1897 059a 77000000 		.4byte	0x77
 1898 059e 12       		.byte	0x12
 1899 059f 0E       		.uleb128 0xe
 1900 05a0 7D180000 		.4byte	.LASF156
 1901 05a4 04       		.byte	0x4
 1902 05a5 1503     		.2byte	0x315
 1903 05a7 77000000 		.4byte	0x77
 1904 05ab 14       		.byte	0x14
 1905 05ac 0E       		.uleb128 0xe
 1906 05ad C20B0000 		.4byte	.LASF157
 1907 05b1 04       		.byte	0x4
 1908 05b2 1A03     		.2byte	0x31a
 1909 05b4 77000000 		.4byte	0x77
 1910 05b8 16       		.byte	0x16
 1911 05b9 0E       		.uleb128 0xe
ARM GAS  C:\Users\bryan.lee\AppData\Local\Temp\ccDqoJhc.s 			page 60


 1912 05ba 1F0B0000 		.4byte	.LASF158
 1913 05be 04       		.byte	0x4
 1914 05bf 1F03     		.2byte	0x31f
 1915 05c1 77000000 		.4byte	0x77
 1916 05c5 18       		.byte	0x18
 1917 05c6 00       		.byte	0
 1918 05c7 04       		.uleb128 0x4
 1919 05c8 EB120000 		.4byte	.LASF159
 1920 05cc 04       		.byte	0x4
 1921 05cd 2103     		.2byte	0x321
 1922 05cf 21050000 		.4byte	0x521
 1923 05d3 04       		.uleb128 0x4
 1924 05d4 E6110000 		.4byte	.LASF160
 1925 05d8 05       		.byte	0x5
 1926 05d9 8901     		.2byte	0x189
 1927 05db 77000000 		.4byte	0x77
 1928 05df 0D       		.uleb128 0xd
 1929 05e0 02       		.byte	0x2
 1930 05e1 05       		.byte	0x5
 1931 05e2 9301     		.2byte	0x193
 1932 05e4 03060000 		.4byte	0x603
 1933 05e8 0E       		.uleb128 0xe
 1934 05e9 3E030000 		.4byte	.LASF161
 1935 05ed 05       		.byte	0x5
 1936 05ee 9A01     		.2byte	0x19a
 1937 05f0 6B000000 		.4byte	0x6b
 1938 05f4 00       		.byte	0
 1939 05f5 0E       		.uleb128 0xe
 1940 05f6 15180000 		.4byte	.LASF162
 1941 05fa 05       		.byte	0x5
 1942 05fb A001     		.2byte	0x1a0
 1943 05fd 6B000000 		.4byte	0x6b
 1944 0601 01       		.byte	0x1
 1945 0602 00       		.byte	0
 1946 0603 04       		.uleb128 0x4
 1947 0604 A0020000 		.4byte	.LASF163
 1948 0608 05       		.byte	0x5
 1949 0609 A201     		.2byte	0x1a2
 1950 060b DF050000 		.4byte	0x5df
 1951 060f 11       		.uleb128 0x11
 1952 0610 08       		.byte	0x8
 1953 0611 06       		.byte	0x6
 1954 0612 CE       		.byte	0xce
 1955 0613 30060000 		.4byte	0x630
 1956 0617 12       		.uleb128 0x12
 1957 0618 DE120000 		.4byte	.LASF164
 1958 061c 06       		.byte	0x6
 1959 061d D1       		.byte	0xd1
 1960 061e 77000000 		.4byte	0x77
 1961 0622 00       		.byte	0
 1962 0623 12       		.uleb128 0x12
 1963 0624 85140000 		.4byte	.LASF165
 1964 0628 06       		.byte	0x6
 1965 0629 D6       		.byte	0xd6
 1966 062a C3000000 		.4byte	0xc3
 1967 062e 04       		.byte	0x4
 1968 062f 00       		.byte	0
ARM GAS  C:\Users\bryan.lee\AppData\Local\Temp\ccDqoJhc.s 			page 61


 1969 0630 13       		.uleb128 0x13
 1970 0631 37100000 		.4byte	.LASF166
 1971 0635 06       		.byte	0x6
 1972 0636 D8       		.byte	0xd8
 1973 0637 0F060000 		.4byte	0x60f
 1974 063b 11       		.uleb128 0x11
 1975 063c 08       		.byte	0x8
 1976 063d 06       		.byte	0x6
 1977 063e DB       		.byte	0xdb
 1978 063f 5C060000 		.4byte	0x65c
 1979 0643 12       		.uleb128 0x12
 1980 0644 D4060000 		.4byte	.LASF167
 1981 0648 06       		.byte	0x6
 1982 0649 DE       		.byte	0xde
 1983 064a 77000000 		.4byte	0x77
 1984 064e 00       		.byte	0
 1985 064f 12       		.uleb128 0x12
 1986 0650 01150000 		.4byte	.LASF168
 1987 0654 06       		.byte	0x6
 1988 0655 E3       		.byte	0xe3
 1989 0656 5C060000 		.4byte	0x65c
 1990 065a 04       		.byte	0x4
 1991 065b 00       		.byte	0
 1992 065c 07       		.uleb128 0x7
 1993 065d 04       		.byte	0x4
 1994 065e 30060000 		.4byte	0x630
 1995 0662 13       		.uleb128 0x13
 1996 0663 3E140000 		.4byte	.LASF169
 1997 0667 06       		.byte	0x6
 1998 0668 E5       		.byte	0xe5
 1999 0669 3B060000 		.4byte	0x63b
 2000 066d 14       		.uleb128 0x14
 2001 066e 08       		.byte	0x8
 2002 066f 06       		.byte	0x6
 2003 0670 E8       		.byte	0xe8
 2004 0671 8C060000 		.4byte	0x68c
 2005 0675 15       		.uleb128 0x15
 2006 0676 12150000 		.4byte	.LASF170
 2007 067a 06       		.byte	0x6
 2008 067b EF       		.byte	0xef
 2009 067c 62060000 		.4byte	0x662
 2010 0680 15       		.uleb128 0x15
 2011 0681 D80A0000 		.4byte	.LASF171
 2012 0685 06       		.byte	0x6
 2013 0686 F2       		.byte	0xf2
 2014 0687 77000000 		.4byte	0x77
 2015 068b 00       		.byte	0
 2016 068c 13       		.uleb128 0x13
 2017 068d 26140000 		.4byte	.LASF172
 2018 0691 06       		.byte	0x6
 2019 0692 F4       		.byte	0xf4
 2020 0693 6D060000 		.4byte	0x66d
 2021 0697 11       		.uleb128 0x11
 2022 0698 14       		.byte	0x14
 2023 0699 06       		.byte	0x6
 2024 069a F7       		.byte	0xf7
 2025 069b E0060000 		.4byte	0x6e0
ARM GAS  C:\Users\bryan.lee\AppData\Local\Temp\ccDqoJhc.s 			page 62


 2026 069f 12       		.uleb128 0x12
 2027 06a0 4C060000 		.4byte	.LASF173
 2028 06a4 06       		.byte	0x6
 2029 06a5 FA       		.byte	0xfa
 2030 06a6 77000000 		.4byte	0x77
 2031 06aa 00       		.byte	0
 2032 06ab 0E       		.uleb128 0xe
 2033 06ac BB040000 		.4byte	.LASF174
 2034 06b0 06       		.byte	0x6
 2035 06b1 0001     		.2byte	0x100
 2036 06b3 77000000 		.4byte	0x77
 2037 06b7 02       		.byte	0x2
 2038 06b8 0E       		.uleb128 0xe
 2039 06b9 17020000 		.4byte	.LASF175
 2040 06bd 06       		.byte	0x6
 2041 06be 0B01     		.2byte	0x10b
 2042 06c0 83000000 		.4byte	0x83
 2043 06c4 04       		.byte	0x4
 2044 06c5 0E       		.uleb128 0xe
 2045 06c6 FE0D0000 		.4byte	.LASF176
 2046 06ca 06       		.byte	0x6
 2047 06cb 0E01     		.2byte	0x10e
 2048 06cd 77000000 		.4byte	0x77
 2049 06d1 08       		.byte	0x8
 2050 06d2 0E       		.uleb128 0xe
 2051 06d3 44120000 		.4byte	.LASF177
 2052 06d7 06       		.byte	0x6
 2053 06d8 1701     		.2byte	0x117
 2054 06da 8C060000 		.4byte	0x68c
 2055 06de 0C       		.byte	0xc
 2056 06df 00       		.byte	0
 2057 06e0 04       		.uleb128 0x4
 2058 06e1 ED070000 		.4byte	.LASF178
 2059 06e5 06       		.byte	0x6
 2060 06e6 1801     		.2byte	0x118
 2061 06e8 97060000 		.4byte	0x697
 2062 06ec 04       		.uleb128 0x4
 2063 06ed 3C020000 		.4byte	.LASF179
 2064 06f1 07       		.byte	0x7
 2065 06f2 FE01     		.2byte	0x1fe
 2066 06f4 C5000000 		.4byte	0xc5
 2067 06f8 16       		.uleb128 0x16
 2068 06f9 9902     		.2byte	0x299
 2069 06fb 08       		.byte	0x8
 2070 06fc 9D       		.byte	0x9d
 2071 06fd 35070000 		.4byte	0x735
 2072 0701 12       		.uleb128 0x12
 2073 0702 93090000 		.4byte	.LASF180
 2074 0706 08       		.byte	0x8
 2075 0707 A0       		.byte	0xa0
 2076 0708 35070000 		.4byte	0x735
 2077 070c 00       		.byte	0
 2078 070d 17       		.uleb128 0x17
 2079 070e 17090000 		.4byte	.LASF181
 2080 0712 08       		.byte	0x8
 2081 0713 A3       		.byte	0xa3
 2082 0714 46070000 		.4byte	0x746
ARM GAS  C:\Users\bryan.lee\AppData\Local\Temp\ccDqoJhc.s 			page 63


 2083 0718 7902     		.2byte	0x279
 2084 071a 17       		.uleb128 0x17
 2085 071b F3150000 		.4byte	.LASF182
 2086 071f 08       		.byte	0x8
 2087 0720 A6       		.byte	0xa6
 2088 0721 6B000000 		.4byte	0x6b
 2089 0725 9702     		.2byte	0x297
 2090 0727 17       		.uleb128 0x17
 2091 0728 88080000 		.4byte	.LASF183
 2092 072c 08       		.byte	0x8
 2093 072d A9       		.byte	0xa9
 2094 072e 6B000000 		.4byte	0x6b
 2095 0732 9802     		.2byte	0x298
 2096 0734 00       		.byte	0
 2097 0735 0F       		.uleb128 0xf
 2098 0736 6B000000 		.4byte	0x6b
 2099 073a 46070000 		.4byte	0x746
 2100 073e 18       		.uleb128 0x18
 2101 073f BC000000 		.4byte	0xbc
 2102 0743 7802     		.2byte	0x278
 2103 0745 00       		.byte	0
 2104 0746 0F       		.uleb128 0xf
 2105 0747 6B000000 		.4byte	0x6b
 2106 074b 5C070000 		.4byte	0x75c
 2107 074f 10       		.uleb128 0x10
 2108 0750 BC000000 		.4byte	0xbc
 2109 0754 04       		.byte	0x4
 2110 0755 10       		.uleb128 0x10
 2111 0756 BC000000 		.4byte	0xbc
 2112 075a 05       		.byte	0x5
 2113 075b 00       		.byte	0
 2114 075c 13       		.uleb128 0x13
 2115 075d 880A0000 		.4byte	.LASF184
 2116 0761 08       		.byte	0x8
 2117 0762 AA       		.byte	0xaa
 2118 0763 F8060000 		.4byte	0x6f8
 2119 0767 19       		.uleb128 0x19
 2120 0768 01       		.byte	0x1
 2121 0769 2C000000 		.4byte	0x2c
 2122 076d 09       		.byte	0x9
 2123 076e 23       		.byte	0x23
 2124 076f 98070000 		.4byte	0x798
 2125 0773 0B       		.uleb128 0xb
 2126 0774 BF000000 		.4byte	.LASF185
 2127 0778 00       		.byte	0
 2128 0779 0B       		.uleb128 0xb
 2129 077a 560D0000 		.4byte	.LASF186
 2130 077e 01       		.byte	0x1
 2131 077f 0B       		.uleb128 0xb
 2132 0780 47030000 		.4byte	.LASF187
 2133 0784 02       		.byte	0x2
 2134 0785 0B       		.uleb128 0xb
 2135 0786 5F0E0000 		.4byte	.LASF188
 2136 078a 03       		.byte	0x3
 2137 078b 0B       		.uleb128 0xb
 2138 078c 78120000 		.4byte	.LASF189
 2139 0790 04       		.byte	0x4
ARM GAS  C:\Users\bryan.lee\AppData\Local\Temp\ccDqoJhc.s 			page 64


 2140 0791 0B       		.uleb128 0xb
 2141 0792 03130000 		.4byte	.LASF190
 2142 0796 05       		.byte	0x5
 2143 0797 00       		.byte	0
 2144 0798 19       		.uleb128 0x19
 2145 0799 01       		.byte	0x1
 2146 079a 2C000000 		.4byte	0x2c
 2147 079e 09       		.byte	0x9
 2148 079f 2E       		.byte	0x2e
 2149 07a0 B1070000 		.4byte	0x7b1
 2150 07a4 0B       		.uleb128 0xb
 2151 07a5 42190000 		.4byte	.LASF191
 2152 07a9 00       		.byte	0
 2153 07aa 0B       		.uleb128 0xb
 2154 07ab 7C150000 		.4byte	.LASF192
 2155 07af 01       		.byte	0x1
 2156 07b0 00       		.byte	0
 2157 07b1 0A       		.uleb128 0xa
 2158 07b2 01       		.byte	0x1
 2159 07b3 2C000000 		.4byte	0x2c
 2160 07b7 0A       		.byte	0xa
 2161 07b8 5A08     		.2byte	0x85a
 2162 07ba E3070000 		.4byte	0x7e3
 2163 07be 0B       		.uleb128 0xb
 2164 07bf C0050000 		.4byte	.LASF193
 2165 07c3 00       		.byte	0
 2166 07c4 0B       		.uleb128 0xb
 2167 07c5 2B0B0000 		.4byte	.LASF194
 2168 07c9 01       		.byte	0x1
 2169 07ca 0B       		.uleb128 0xb
 2170 07cb EC170000 		.4byte	.LASF195
 2171 07cf 02       		.byte	0x2
 2172 07d0 0B       		.uleb128 0xb
 2173 07d1 AA110000 		.4byte	.LASF196
 2174 07d5 03       		.byte	0x3
 2175 07d6 0B       		.uleb128 0xb
 2176 07d7 01070000 		.4byte	.LASF197
 2177 07db 04       		.byte	0x4
 2178 07dc 0B       		.uleb128 0xb
 2179 07dd 0D140000 		.4byte	.LASF198
 2180 07e1 05       		.byte	0x5
 2181 07e2 00       		.byte	0
 2182 07e3 04       		.uleb128 0x4
 2183 07e4 6E150000 		.4byte	.LASF199
 2184 07e8 0A       		.byte	0xa
 2185 07e9 6808     		.2byte	0x868
 2186 07eb B1070000 		.4byte	0x7b1
 2187 07ef 0D       		.uleb128 0xd
 2188 07f0 0C       		.byte	0xc
 2189 07f1 0A       		.byte	0xa
 2190 07f2 A309     		.2byte	0x9a3
 2191 07f4 47080000 		.4byte	0x847
 2192 07f8 0E       		.uleb128 0xe
 2193 07f9 B8170000 		.4byte	.LASF200
 2194 07fd 0A       		.byte	0xa
 2195 07fe A609     		.2byte	0x9a6
 2196 0800 D3050000 		.4byte	0x5d3
ARM GAS  C:\Users\bryan.lee\AppData\Local\Temp\ccDqoJhc.s 			page 65


 2197 0804 00       		.byte	0
 2198 0805 0E       		.uleb128 0xe
 2199 0806 790C0000 		.4byte	.LASF201
 2200 080a 0A       		.byte	0xa
 2201 080b A809     		.2byte	0x9a8
 2202 080d D3050000 		.4byte	0x5d3
 2203 0811 02       		.byte	0x2
 2204 0812 0E       		.uleb128 0xe
 2205 0813 AE100000 		.4byte	.LASF202
 2206 0817 0A       		.byte	0xa
 2207 0818 AA09     		.2byte	0x9aa
 2208 081a D3050000 		.4byte	0x5d3
 2209 081e 04       		.byte	0x4
 2210 081f 0E       		.uleb128 0xe
 2211 0820 2F0F0000 		.4byte	.LASF203
 2212 0824 0A       		.byte	0xa
 2213 0825 AD09     		.2byte	0x9ad
 2214 0827 D3050000 		.4byte	0x5d3
 2215 082b 06       		.byte	0x6
 2216 082c 0E       		.uleb128 0xe
 2217 082d 44160000 		.4byte	.LASF204
 2218 0831 0A       		.byte	0xa
 2219 0832 AF09     		.2byte	0x9af
 2220 0834 D3050000 		.4byte	0x5d3
 2221 0838 08       		.byte	0x8
 2222 0839 0E       		.uleb128 0xe
 2223 083a DF040000 		.4byte	.LASF205
 2224 083e 0A       		.byte	0xa
 2225 083f B109     		.2byte	0x9b1
 2226 0841 D3050000 		.4byte	0x5d3
 2227 0845 0A       		.byte	0xa
 2228 0846 00       		.byte	0
 2229 0847 04       		.uleb128 0x4
 2230 0848 9A120000 		.4byte	.LASF206
 2231 084c 0A       		.byte	0xa
 2232 084d B209     		.2byte	0x9b2
 2233 084f EF070000 		.4byte	0x7ef
 2234 0853 1A       		.uleb128 0x1a
 2235 0854 CF030000 		.4byte	.LASF207
 2236 0858 01       		.byte	0x1
 2237 0859 AC       		.byte	0xac
 2238 085a 00000000 		.4byte	.LFB3
 2239 085e 08000000 		.4byte	.LFE3-.LFB3
 2240 0862 01       		.uleb128 0x1
 2241 0863 9C       		.byte	0x9c
 2242 0864 72080000 		.4byte	0x872
 2243 0868 1B       		.uleb128 0x1b
 2244 0869 06000000 		.4byte	.LVL0
 2245 086d 820F0000 		.4byte	0xf82
 2246 0871 00       		.byte	0
 2247 0872 1A       		.uleb128 0x1a
 2248 0873 C0070000 		.4byte	.LASF208
 2249 0877 01       		.byte	0x1
 2250 0878 7B       		.byte	0x7b
 2251 0879 00000000 		.4byte	.LFB2
 2252 087d 70000000 		.4byte	.LFE2-.LFB2
 2253 0881 01       		.uleb128 0x1
ARM GAS  C:\Users\bryan.lee\AppData\Local\Temp\ccDqoJhc.s 			page 66


 2254 0882 9C       		.byte	0x9c
 2255 0883 91080000 		.4byte	0x891
 2256 0887 1B       		.uleb128 0x1b
 2257 0888 46000000 		.4byte	.LVL1
 2258 088c 53080000 		.4byte	0x853
 2259 0890 00       		.byte	0
 2260 0891 1C       		.uleb128 0x1c
 2261 0892 9A130000 		.4byte	.LASF216
 2262 0896 01       		.byte	0x1
 2263 0897 7A01     		.2byte	0x17a
 2264 0899 78030000 		.4byte	0x378
 2265 089d 00000000 		.4byte	.LFB4
 2266 08a1 AC000000 		.4byte	.LFE4-.LFB4
 2267 08a5 01       		.uleb128 0x1
 2268 08a6 9C       		.byte	0x9c
 2269 08a7 AC090000 		.4byte	0x9ac
 2270 08ab 1D       		.uleb128 0x1d
 2271 08ac B4020000 		.4byte	.LASF218
 2272 08b0 01       		.byte	0x1
 2273 08b1 7A01     		.2byte	0x17a
 2274 08b3 EC060000 		.4byte	0x6ec
 2275 08b7 00000000 		.4byte	.LLST0
 2276 08bb 1E       		.uleb128 0x1e
 2277 08bc 74000000 		.4byte	.LASF209
 2278 08c0 01       		.byte	0x1
 2279 08c1 7C01     		.2byte	0x17c
 2280 08c3 78030000 		.4byte	0x378
 2281 08c7 2C000000 		.4byte	.LLST1
 2282 08cb 1F       		.uleb128 0x1f
 2283 08cc 74080000 		.4byte	.LASF210
 2284 08d0 01       		.byte	0x1
 2285 08d1 8001     		.2byte	0x180
 2286 08d3 AC090000 		.4byte	0x9ac
 2287 08d7 02       		.uleb128 0x2
 2288 08d8 91       		.byte	0x91
 2289 08d9 64       		.sleb128 -28
 2290 08da 20       		.uleb128 0x20
 2291 08db 2A000000 		.4byte	.LBB2
 2292 08df 24000000 		.4byte	.LBE2-.LBB2
 2293 08e3 3A090000 		.4byte	0x93a
 2294 08e7 1F       		.uleb128 0x1f
 2295 08e8 B2130000 		.4byte	.LASF211
 2296 08ec 01       		.byte	0x1
 2297 08ed A201     		.2byte	0x1a2
 2298 08ef 25040000 		.4byte	0x425
 2299 08f3 02       		.uleb128 0x2
 2300 08f4 91       		.byte	0x91
 2301 08f5 50       		.sleb128 -48
 2302 08f6 1F       		.uleb128 0x1f
 2303 08f7 23100000 		.4byte	.LASF212
 2304 08fb 01       		.byte	0x1
 2305 08fc A301     		.2byte	0x1a3
 2306 08fe 48040000 		.4byte	0x448
 2307 0902 02       		.uleb128 0x2
 2308 0903 91       		.byte	0x91
 2309 0904 4C       		.sleb128 -52
 2310 0905 1F       		.uleb128 0x1f
ARM GAS  C:\Users\bryan.lee\AppData\Local\Temp\ccDqoJhc.s 			page 67


 2311 0906 1A040000 		.4byte	.LASF213
 2312 090a 01       		.byte	0x1
 2313 090b A401     		.2byte	0x1a4
 2314 090d 91040000 		.4byte	0x491
 2315 0911 02       		.uleb128 0x2
 2316 0912 91       		.byte	0x91
 2317 0913 58       		.sleb128 -40
 2318 0914 1F       		.uleb128 0x1f
 2319 0915 98080000 		.4byte	.LASF214
 2320 0919 01       		.byte	0x1
 2321 091a A501     		.2byte	0x1a5
 2322 091c 77000000 		.4byte	0x77
 2323 0920 02       		.uleb128 0x2
 2324 0921 91       		.byte	0x91
 2325 0922 4E       		.sleb128 -50
 2326 0923 21       		.uleb128 0x21
 2327 0924 4E000000 		.4byte	.LVL7
 2328 0928 8D0F0000 		.4byte	0xf8d
 2329 092c 22       		.uleb128 0x22
 2330 092d 01       		.uleb128 0x1
 2331 092e 50       		.byte	0x50
 2332 092f 02       		.uleb128 0x2
 2333 0930 91       		.byte	0x91
 2334 0931 58       		.sleb128 -40
 2335 0932 22       		.uleb128 0x22
 2336 0933 01       		.uleb128 0x1
 2337 0934 51       		.byte	0x51
 2338 0935 02       		.uleb128 0x2
 2339 0936 91       		.byte	0x91
 2340 0937 4E       		.sleb128 -50
 2341 0938 00       		.byte	0
 2342 0939 00       		.byte	0
 2343 093a 23       		.uleb128 0x23
 2344 093b 10000000 		.4byte	.LVL5
 2345 093f 990F0000 		.4byte	0xf99
 2346 0943 5C090000 		.4byte	0x95c
 2347 0947 22       		.uleb128 0x22
 2348 0948 01       		.uleb128 0x1
 2349 0949 50       		.byte	0x50
 2350 094a 02       		.uleb128 0x2
 2351 094b 91       		.byte	0x91
 2352 094c 64       		.sleb128 -28
 2353 094d 22       		.uleb128 0x22
 2354 094e 01       		.uleb128 0x1
 2355 094f 51       		.byte	0x51
 2356 0950 05       		.uleb128 0x5
 2357 0951 03       		.byte	0x3
 2358 0952 00000000 		.4byte	.LANCHOR1
 2359 0956 22       		.uleb128 0x22
 2360 0957 01       		.uleb128 0x1
 2361 0958 52       		.byte	0x52
 2362 0959 01       		.uleb128 0x1
 2363 095a 44       		.byte	0x44
 2364 095b 00       		.byte	0
 2365 095c 1B       		.uleb128 0x1b
 2366 095d 1C000000 		.4byte	.LVL6
 2367 0961 72080000 		.4byte	0x872
ARM GAS  C:\Users\bryan.lee\AppData\Local\Temp\ccDqoJhc.s 			page 68


 2368 0965 23       		.uleb128 0x23
 2369 0966 6C000000 		.4byte	.LVL9
 2370 096a A20F0000 		.4byte	0xfa2
 2371 096e 97090000 		.4byte	0x997
 2372 0972 22       		.uleb128 0x22
 2373 0973 01       		.uleb128 0x1
 2374 0974 51       		.byte	0x51
 2375 0975 05       		.uleb128 0x5
 2376 0976 03       		.byte	0x3
 2377 0977 00000000 		.4byte	.LANCHOR3
 2378 097b 22       		.uleb128 0x22
 2379 097c 01       		.uleb128 0x1
 2380 097d 52       		.byte	0x52
 2381 097e 03       		.uleb128 0x3
 2382 097f 0A       		.byte	0xa
 2383 0980 E00A     		.2byte	0xae0
 2384 0982 22       		.uleb128 0x22
 2385 0983 01       		.uleb128 0x1
 2386 0984 53       		.byte	0x53
 2387 0985 02       		.uleb128 0x2
 2388 0986 91       		.byte	0x91
 2389 0987 64       		.sleb128 -28
 2390 0988 22       		.uleb128 0x22
 2391 0989 02       		.uleb128 0x2
 2392 098a 7D       		.byte	0x7d
 2393 098b 00       		.sleb128 0
 2394 098c 01       		.uleb128 0x1
 2395 098d 35       		.byte	0x35
 2396 098e 22       		.uleb128 0x22
 2397 098f 02       		.uleb128 0x2
 2398 0990 7D       		.byte	0x7d
 2399 0991 08       		.sleb128 8
 2400 0992 03       		.uleb128 0x3
 2401 0993 0A       		.byte	0xa
 2402 0994 7902     		.2byte	0x279
 2403 0996 00       		.byte	0
 2404 0997 21       		.uleb128 0x21
 2405 0998 80000000 		.4byte	.LVL11
 2406 099c AE0F0000 		.4byte	0xfae
 2407 09a0 22       		.uleb128 0x22
 2408 09a1 01       		.uleb128 0x1
 2409 09a2 51       		.byte	0x51
 2410 09a3 01       		.uleb128 0x1
 2411 09a4 4C       		.byte	0x4c
 2412 09a5 22       		.uleb128 0x22
 2413 09a6 01       		.uleb128 0x1
 2414 09a7 52       		.byte	0x52
 2415 09a8 01       		.uleb128 0x1
 2416 09a9 38       		.byte	0x38
 2417 09aa 00       		.byte	0
 2418 09ab 00       		.byte	0
 2419 09ac 0F       		.uleb128 0xf
 2420 09ad E8030000 		.4byte	0x3e8
 2421 09b1 BC090000 		.4byte	0x9bc
 2422 09b5 10       		.uleb128 0x10
 2423 09b6 BC000000 		.4byte	0xbc
 2424 09ba 04       		.byte	0x4
ARM GAS  C:\Users\bryan.lee\AppData\Local\Temp\ccDqoJhc.s 			page 69


 2425 09bb 00       		.byte	0
 2426 09bc 24       		.uleb128 0x24
 2427 09bd 650B0000 		.4byte	.LASF215
 2428 09c1 01       		.byte	0x1
 2429 09c2 FF01     		.2byte	0x1ff
 2430 09c4 00000000 		.4byte	.LFB5
 2431 09c8 14000000 		.4byte	.LFE5-.LFB5
 2432 09cc 01       		.uleb128 0x1
 2433 09cd 9C       		.byte	0x9c
 2434 09ce DC090000 		.4byte	0x9dc
 2435 09d2 1B       		.uleb128 0x1b
 2436 09d3 06000000 		.4byte	.LVL15
 2437 09d7 BA0F0000 		.4byte	0xfba
 2438 09db 00       		.byte	0
 2439 09dc 1C       		.uleb128 0x1c
 2440 09dd 82160000 		.4byte	.LASF217
 2441 09e1 01       		.byte	0x1
 2442 09e2 3702     		.2byte	0x237
 2443 09e4 78030000 		.4byte	0x378
 2444 09e8 00000000 		.4byte	.LFB6
 2445 09ec 04010000 		.4byte	.LFE6-.LFB6
 2446 09f0 01       		.uleb128 0x1
 2447 09f1 9C       		.byte	0x9c
 2448 09f2 EC0A0000 		.4byte	0xaec
 2449 09f6 1D       		.uleb128 0x1d
 2450 09f7 BF110000 		.4byte	.LASF219
 2451 09fb 01       		.byte	0x1
 2452 09fc 3702     		.2byte	0x237
 2453 09fe 6B000000 		.4byte	0x6b
 2454 0a02 78000000 		.4byte	.LLST2
 2455 0a06 1E       		.uleb128 0x1e
 2456 0a07 74000000 		.4byte	.LASF209
 2457 0a0b 01       		.byte	0x1
 2458 0a0c 3902     		.2byte	0x239
 2459 0a0e 78030000 		.4byte	0x378
 2460 0a12 B2000000 		.4byte	.LLST3
 2461 0a16 20       		.uleb128 0x20
 2462 0a17 86000000 		.4byte	.LBB3
 2463 0a1b 26000000 		.4byte	.LBE3-.LBB3
 2464 0a1f 6C0A0000 		.4byte	0xa6c
 2465 0a23 1F       		.uleb128 0x1f
 2466 0a24 930D0000 		.4byte	.LASF220
 2467 0a28 01       		.byte	0x1
 2468 0a29 5D02     		.2byte	0x25d
 2469 0a2b 46070000 		.4byte	0x746
 2470 0a2f 02       		.uleb128 0x2
 2471 0a30 91       		.byte	0x91
 2472 0a31 58       		.sleb128 -40
 2473 0a32 23       		.uleb128 0x23
 2474 0a33 90000000 		.4byte	.LVL27
 2475 0a37 C60F0000 		.4byte	0xfc6
 2476 0a3b 500A0000 		.4byte	0xa50
 2477 0a3f 22       		.uleb128 0x22
 2478 0a40 01       		.uleb128 0x1
 2479 0a41 50       		.byte	0x50
 2480 0a42 02       		.uleb128 0x2
 2481 0a43 7D       		.byte	0x7d
ARM GAS  C:\Users\bryan.lee\AppData\Local\Temp\ccDqoJhc.s 			page 70


 2482 0a44 00       		.sleb128 0
 2483 0a45 22       		.uleb128 0x22
 2484 0a46 01       		.uleb128 0x1
 2485 0a47 51       		.byte	0x51
 2486 0a48 01       		.uleb128 0x1
 2487 0a49 30       		.byte	0x30
 2488 0a4a 22       		.uleb128 0x22
 2489 0a4b 01       		.uleb128 0x1
 2490 0a4c 52       		.byte	0x52
 2491 0a4d 01       		.uleb128 0x1
 2492 0a4e 4E       		.byte	0x4e
 2493 0a4f 00       		.byte	0
 2494 0a50 21       		.uleb128 0x21
 2495 0a51 9C000000 		.4byte	.LVL28
 2496 0a55 CF0F0000 		.4byte	0xfcf
 2497 0a59 22       		.uleb128 0x22
 2498 0a5a 01       		.uleb128 0x1
 2499 0a5b 50       		.byte	0x50
 2500 0a5c 02       		.uleb128 0x2
 2501 0a5d 7D       		.byte	0x7d
 2502 0a5e 00       		.sleb128 0
 2503 0a5f 22       		.uleb128 0x22
 2504 0a60 01       		.uleb128 0x1
 2505 0a61 52       		.byte	0x52
 2506 0a62 01       		.uleb128 0x1
 2507 0a63 4E       		.byte	0x4e
 2508 0a64 22       		.uleb128 0x22
 2509 0a65 01       		.uleb128 0x1
 2510 0a66 53       		.byte	0x53
 2511 0a67 02       		.uleb128 0x2
 2512 0a68 74       		.byte	0x74
 2513 0a69 00       		.sleb128 0
 2514 0a6a 00       		.byte	0
 2515 0a6b 00       		.byte	0
 2516 0a6c 20       		.uleb128 0x20
 2517 0a6d AC000000 		.4byte	.LBB4
 2518 0a71 3A000000 		.4byte	.LBE4-.LBB4
 2519 0a75 C20A0000 		.4byte	0xac2
 2520 0a79 1F       		.uleb128 0x1f
 2521 0a7a 930D0000 		.4byte	.LASF220
 2522 0a7e 01       		.byte	0x1
 2523 0a7f 6A02     		.2byte	0x26a
 2524 0a81 A8030000 		.4byte	0x3a8
 2525 0a85 02       		.uleb128 0x2
 2526 0a86 91       		.byte	0x91
 2527 0a87 58       		.sleb128 -40
 2528 0a88 23       		.uleb128 0x23
 2529 0a89 B6000000 		.4byte	.LVL30
 2530 0a8d C60F0000 		.4byte	0xfc6
 2531 0a91 A60A0000 		.4byte	0xaa6
 2532 0a95 22       		.uleb128 0x22
 2533 0a96 01       		.uleb128 0x1
 2534 0a97 50       		.byte	0x50
 2535 0a98 02       		.uleb128 0x2
 2536 0a99 7D       		.byte	0x7d
 2537 0a9a 00       		.sleb128 0
 2538 0a9b 22       		.uleb128 0x22
ARM GAS  C:\Users\bryan.lee\AppData\Local\Temp\ccDqoJhc.s 			page 71


 2539 0a9c 01       		.uleb128 0x1
 2540 0a9d 51       		.byte	0x51
 2541 0a9e 01       		.uleb128 0x1
 2542 0a9f 30       		.byte	0x30
 2543 0aa0 22       		.uleb128 0x22
 2544 0aa1 01       		.uleb128 0x1
 2545 0aa2 52       		.byte	0x52
 2546 0aa3 01       		.uleb128 0x1
 2547 0aa4 36       		.byte	0x36
 2548 0aa5 00       		.byte	0
 2549 0aa6 21       		.uleb128 0x21
 2550 0aa7 D8000000 		.4byte	.LVL31
 2551 0aab CF0F0000 		.4byte	0xfcf
 2552 0aaf 22       		.uleb128 0x22
 2553 0ab0 01       		.uleb128 0x1
 2554 0ab1 50       		.byte	0x50
 2555 0ab2 02       		.uleb128 0x2
 2556 0ab3 7D       		.byte	0x7d
 2557 0ab4 00       		.sleb128 0
 2558 0ab5 22       		.uleb128 0x22
 2559 0ab6 01       		.uleb128 0x1
 2560 0ab7 52       		.byte	0x52
 2561 0ab8 01       		.uleb128 0x1
 2562 0ab9 36       		.byte	0x36
 2563 0aba 22       		.uleb128 0x22
 2564 0abb 01       		.uleb128 0x1
 2565 0abc 53       		.byte	0x53
 2566 0abd 02       		.uleb128 0x2
 2567 0abe 74       		.byte	0x74
 2568 0abf 00       		.sleb128 0
 2569 0ac0 00       		.byte	0
 2570 0ac1 00       		.byte	0
 2571 0ac2 23       		.uleb128 0x23
 2572 0ac3 12000000 		.4byte	.LVL18
 2573 0ac7 DA0F0000 		.4byte	0xfda
 2574 0acb D60A0000 		.4byte	0xad6
 2575 0acf 22       		.uleb128 0x22
 2576 0ad0 01       		.uleb128 0x1
 2577 0ad1 50       		.byte	0x50
 2578 0ad2 02       		.uleb128 0x2
 2579 0ad3 74       		.byte	0x74
 2580 0ad4 00       		.sleb128 0
 2581 0ad5 00       		.byte	0
 2582 0ad6 21       		.uleb128 0x21
 2583 0ad7 62000000 		.4byte	.LVL24
 2584 0adb CF0F0000 		.4byte	0xfcf
 2585 0adf 22       		.uleb128 0x22
 2586 0ae0 01       		.uleb128 0x1
 2587 0ae1 52       		.byte	0x52
 2588 0ae2 01       		.uleb128 0x1
 2589 0ae3 36       		.byte	0x36
 2590 0ae4 22       		.uleb128 0x22
 2591 0ae5 01       		.uleb128 0x1
 2592 0ae6 53       		.byte	0x53
 2593 0ae7 02       		.uleb128 0x2
 2594 0ae8 74       		.byte	0x74
 2595 0ae9 00       		.sleb128 0
ARM GAS  C:\Users\bryan.lee\AppData\Local\Temp\ccDqoJhc.s 			page 72


 2596 0aea 00       		.byte	0
 2597 0aeb 00       		.byte	0
 2598 0aec 1C       		.uleb128 0x1c
 2599 0aed 25050000 		.4byte	.LASF221
 2600 0af1 01       		.byte	0x1
 2601 0af2 9902     		.2byte	0x299
 2602 0af4 78030000 		.4byte	0x378
 2603 0af8 00000000 		.4byte	.LFB7
 2604 0afc 6C000000 		.4byte	.LFE7-.LFB7
 2605 0b00 01       		.uleb128 0x1
 2606 0b01 9C       		.byte	0x9c
 2607 0b02 B60B0000 		.4byte	0xbb6
 2608 0b06 1D       		.uleb128 0x1d
 2609 0b07 64160000 		.4byte	.LASF125
 2610 0b0b 01       		.byte	0x1
 2611 0b0c 9902     		.2byte	0x299
 2612 0b0e B60B0000 		.4byte	0xbb6
 2613 0b12 09010000 		.4byte	.LLST4
 2614 0b16 1E       		.uleb128 0x1e
 2615 0b17 74000000 		.4byte	.LASF209
 2616 0b1b 01       		.byte	0x1
 2617 0b1c 9B02     		.2byte	0x29b
 2618 0b1e 78030000 		.4byte	0x378
 2619 0b22 4B010000 		.4byte	.LLST5
 2620 0b26 25       		.uleb128 0x25
 2621 0b27 0E000000 		.4byte	.LBB5
 2622 0b2b 4E000000 		.4byte	.LBE5-.LBB5
 2623 0b2f 1F       		.uleb128 0x1f
 2624 0b30 FB010000 		.4byte	.LASF222
 2625 0b34 01       		.byte	0x1
 2626 0b35 A202     		.2byte	0x2a2
 2627 0b37 6B000000 		.4byte	0x6b
 2628 0b3b 02       		.uleb128 0x2
 2629 0b3c 91       		.byte	0x91
 2630 0b3d 67       		.sleb128 -25
 2631 0b3e 1F       		.uleb128 0x1f
 2632 0b3f 38170000 		.4byte	.LASF223
 2633 0b43 01       		.byte	0x1
 2634 0b44 A302     		.2byte	0x2a3
 2635 0b46 B8030000 		.4byte	0x3b8
 2636 0b4a 02       		.uleb128 0x2
 2637 0b4b 91       		.byte	0x91
 2638 0b4c 68       		.sleb128 -24
 2639 0b4d 23       		.uleb128 0x23
 2640 0b4e 18000000 		.4byte	.LVL36
 2641 0b52 C60F0000 		.4byte	0xfc6
 2642 0b56 6B0B0000 		.4byte	0xb6b
 2643 0b5a 22       		.uleb128 0x22
 2644 0b5b 01       		.uleb128 0x1
 2645 0b5c 50       		.byte	0x50
 2646 0b5d 02       		.uleb128 0x2
 2647 0b5e 91       		.byte	0x91
 2648 0b5f 68       		.sleb128 -24
 2649 0b60 22       		.uleb128 0x22
 2650 0b61 01       		.uleb128 0x1
 2651 0b62 51       		.byte	0x51
 2652 0b63 01       		.uleb128 0x1
ARM GAS  C:\Users\bryan.lee\AppData\Local\Temp\ccDqoJhc.s 			page 73


 2653 0b64 30       		.byte	0x30
 2654 0b65 22       		.uleb128 0x22
 2655 0b66 01       		.uleb128 0x1
 2656 0b67 52       		.byte	0x52
 2657 0b68 01       		.uleb128 0x1
 2658 0b69 37       		.byte	0x37
 2659 0b6a 00       		.byte	0
 2660 0b6b 23       		.uleb128 0x23
 2661 0b6c 22000000 		.4byte	.LVL37
 2662 0b70 E50F0000 		.4byte	0xfe5
 2663 0b74 8A0B0000 		.4byte	0xb8a
 2664 0b78 22       		.uleb128 0x22
 2665 0b79 01       		.uleb128 0x1
 2666 0b7a 50       		.byte	0x50
 2667 0b7b 02       		.uleb128 0x2
 2668 0b7c 75       		.byte	0x75
 2669 0b7d 00       		.sleb128 0
 2670 0b7e 22       		.uleb128 0x22
 2671 0b7f 01       		.uleb128 0x1
 2672 0b80 51       		.byte	0x51
 2673 0b81 02       		.uleb128 0x2
 2674 0b82 91       		.byte	0x91
 2675 0b83 68       		.sleb128 -24
 2676 0b84 22       		.uleb128 0x22
 2677 0b85 01       		.uleb128 0x1
 2678 0b86 52       		.byte	0x52
 2679 0b87 01       		.uleb128 0x1
 2680 0b88 36       		.byte	0x36
 2681 0b89 00       		.byte	0
 2682 0b8a 23       		.uleb128 0x23
 2683 0b8b 3A000000 		.4byte	.LVL38
 2684 0b8f F00F0000 		.4byte	0xff0
 2685 0b93 A40B0000 		.4byte	0xba4
 2686 0b97 22       		.uleb128 0x22
 2687 0b98 01       		.uleb128 0x1
 2688 0b99 50       		.byte	0x50
 2689 0b9a 02       		.uleb128 0x2
 2690 0b9b 7D       		.byte	0x7d
 2691 0b9c 07       		.sleb128 7
 2692 0b9d 22       		.uleb128 0x22
 2693 0b9e 01       		.uleb128 0x1
 2694 0b9f 51       		.byte	0x51
 2695 0ba0 02       		.uleb128 0x2
 2696 0ba1 75       		.byte	0x75
 2697 0ba2 00       		.sleb128 0
 2698 0ba3 00       		.byte	0
 2699 0ba4 21       		.uleb128 0x21
 2700 0ba5 5A000000 		.4byte	.LVL41
 2701 0ba9 FC0F0000 		.4byte	0xffc
 2702 0bad 22       		.uleb128 0x22
 2703 0bae 01       		.uleb128 0x1
 2704 0baf 50       		.byte	0x50
 2705 0bb0 02       		.uleb128 0x2
 2706 0bb1 75       		.byte	0x75
 2707 0bb2 00       		.sleb128 0
 2708 0bb3 00       		.byte	0
 2709 0bb4 00       		.byte	0
ARM GAS  C:\Users\bryan.lee\AppData\Local\Temp\ccDqoJhc.s 			page 74


 2710 0bb5 00       		.byte	0
 2711 0bb6 07       		.uleb128 0x7
 2712 0bb7 04       		.byte	0x4
 2713 0bb8 B8030000 		.4byte	0x3b8
 2714 0bbc 1C       		.uleb128 0x1c
 2715 0bbd 84110000 		.4byte	.LASF224
 2716 0bc1 01       		.byte	0x1
 2717 0bc2 B703     		.2byte	0x3b7
 2718 0bc4 78030000 		.4byte	0x378
 2719 0bc8 00000000 		.4byte	.LFB8
 2720 0bcc 58000000 		.4byte	.LFE8-.LFB8
 2721 0bd0 01       		.uleb128 0x1
 2722 0bd1 9C       		.byte	0x9c
 2723 0bd2 0A0C0000 		.4byte	0xc0a
 2724 0bd6 1D       		.uleb128 0x1d
 2725 0bd7 27020000 		.4byte	.LASF225
 2726 0bdb 01       		.byte	0x1
 2727 0bdc B703     		.2byte	0x3b7
 2728 0bde 6B000000 		.4byte	0x6b
 2729 0be2 8C010000 		.4byte	.LLST6
 2730 0be6 1E       		.uleb128 0x1e
 2731 0be7 74000000 		.4byte	.LASF209
 2732 0beb 01       		.byte	0x1
 2733 0bec B903     		.2byte	0x3b9
 2734 0bee 78030000 		.4byte	0x378
 2735 0bf2 D2010000 		.4byte	.LLST7
 2736 0bf6 21       		.uleb128 0x21
 2737 0bf7 36000000 		.4byte	.LVL47
 2738 0bfb 08100000 		.4byte	0x1008
 2739 0bff 22       		.uleb128 0x22
 2740 0c00 01       		.uleb128 0x1
 2741 0c01 50       		.byte	0x50
 2742 0c02 05       		.uleb128 0x5
 2743 0c03 03       		.byte	0x3
 2744 0c04 00000000 		.4byte	.LANCHOR0
 2745 0c08 00       		.byte	0
 2746 0c09 00       		.byte	0
 2747 0c0a 24       		.uleb128 0x24
 2748 0c0b E1020000 		.4byte	.LASF226
 2749 0c0f 01       		.byte	0x1
 2750 0c10 EF03     		.2byte	0x3ef
 2751 0c12 00000000 		.4byte	.LFB9
 2752 0c16 18000000 		.4byte	.LFE9-.LFB9
 2753 0c1a 01       		.uleb128 0x1
 2754 0c1b 9C       		.byte	0x9c
 2755 0c1c 2A0C0000 		.4byte	0xc2a
 2756 0c20 1B       		.uleb128 0x1b
 2757 0c21 06000000 		.4byte	.LVL50
 2758 0c25 14100000 		.4byte	0x1014
 2759 0c29 00       		.byte	0
 2760 0c2a 1C       		.uleb128 0x1c
 2761 0c2b 12000000 		.4byte	.LASF227
 2762 0c2f 01       		.byte	0x1
 2763 0c30 2404     		.2byte	0x424
 2764 0c32 78030000 		.4byte	0x378
 2765 0c36 00000000 		.4byte	.LFB10
 2766 0c3a 5C000000 		.4byte	.LFE10-.LFB10
ARM GAS  C:\Users\bryan.lee\AppData\Local\Temp\ccDqoJhc.s 			page 75


 2767 0c3e 01       		.uleb128 0x1
 2768 0c3f 9C       		.byte	0x9c
 2769 0c40 930C0000 		.4byte	0xc93
 2770 0c44 1D       		.uleb128 0x1d
 2771 0c45 800A0000 		.4byte	.LASF228
 2772 0c49 01       		.byte	0x1
 2773 0c4a 2404     		.2byte	0x424
 2774 0c4c 930C0000 		.4byte	0xc93
 2775 0c50 F0010000 		.4byte	.LLST8
 2776 0c54 1E       		.uleb128 0x1e
 2777 0c55 74000000 		.4byte	.LASF209
 2778 0c59 01       		.byte	0x1
 2779 0c5a 2604     		.2byte	0x426
 2780 0c5c 78030000 		.4byte	0x378
 2781 0c60 2A020000 		.4byte	.LLST9
 2782 0c64 26       		.uleb128 0x26
 2783 0c65 6900     		.ascii	"i\000"
 2784 0c67 01       		.byte	0x1
 2785 0c68 2704     		.2byte	0x427
 2786 0c6a 6B000000 		.4byte	0x6b
 2787 0c6e 53020000 		.4byte	.LLST10
 2788 0c72 23       		.uleb128 0x23
 2789 0c73 2C000000 		.4byte	.LVL57
 2790 0c77 20100000 		.4byte	0x1020
 2791 0c7b 890C0000 		.4byte	0xc89
 2792 0c7f 22       		.uleb128 0x22
 2793 0c80 01       		.uleb128 0x1
 2794 0c81 50       		.byte	0x50
 2795 0c82 05       		.uleb128 0x5
 2796 0c83 03       		.byte	0x3
 2797 0c84 00000000 		.4byte	cyBle_connectionParameters
 2798 0c88 00       		.byte	0
 2799 0c89 1B       		.uleb128 0x1b
 2800 0c8a 42000000 		.4byte	.LVL60
 2801 0c8e 2C100000 		.4byte	0x102c
 2802 0c92 00       		.byte	0
 2803 0c93 07       		.uleb128 0x7
 2804 0c94 04       		.byte	0x4
 2805 0c95 990C0000 		.4byte	0xc99
 2806 0c99 27       		.uleb128 0x27
 2807 0c9a B8030000 		.4byte	0x3b8
 2808 0c9e 1C       		.uleb128 0x1c
 2809 0c9f DC080000 		.4byte	.LASF229
 2810 0ca3 01       		.byte	0x1
 2811 0ca4 5C04     		.2byte	0x45c
 2812 0ca6 78030000 		.4byte	0x378
 2813 0caa 00000000 		.4byte	.LFB11
 2814 0cae 38000000 		.4byte	.LFE11-.LFB11
 2815 0cb2 01       		.uleb128 0x1
 2816 0cb3 9C       		.byte	0x9c
 2817 0cb4 DB0C0000 		.4byte	0xcdb
 2818 0cb8 1E       		.uleb128 0x1e
 2819 0cb9 74000000 		.4byte	.LASF209
 2820 0cbd 01       		.byte	0x1
 2821 0cbe 5E04     		.2byte	0x45e
 2822 0cc0 78030000 		.4byte	0x378
 2823 0cc4 71020000 		.4byte	.LLST11
ARM GAS  C:\Users\bryan.lee\AppData\Local\Temp\ccDqoJhc.s 			page 76


 2824 0cc8 1B       		.uleb128 0x1b
 2825 0cc9 0E000000 		.4byte	.LVL64
 2826 0ccd 37100000 		.4byte	0x1037
 2827 0cd1 1B       		.uleb128 0x1b
 2828 0cd2 1C000000 		.4byte	.LVL66
 2829 0cd6 43100000 		.4byte	0x1043
 2830 0cda 00       		.byte	0
 2831 0cdb 1C       		.uleb128 0x1c
 2832 0cdc EB140000 		.4byte	.LASF230
 2833 0ce0 01       		.byte	0x1
 2834 0ce1 F104     		.2byte	0x4f1
 2835 0ce3 78030000 		.4byte	0x378
 2836 0ce7 00000000 		.4byte	.LFB12
 2837 0ceb 54000000 		.4byte	.LFE12-.LFB12
 2838 0cef 01       		.uleb128 0x1
 2839 0cf0 9C       		.byte	0x9c
 2840 0cf1 440D0000 		.4byte	0xd44
 2841 0cf5 1D       		.uleb128 0x1d
 2842 0cf6 93140000 		.4byte	.LASF231
 2843 0cfa 01       		.byte	0x1
 2844 0cfb F104     		.2byte	0x4f1
 2845 0cfd 440D0000 		.4byte	0xd44
 2846 0d01 9A020000 		.4byte	.LLST12
 2847 0d05 1E       		.uleb128 0x1e
 2848 0d06 74000000 		.4byte	.LASF209
 2849 0d0a 01       		.byte	0x1
 2850 0d0b F304     		.2byte	0x4f3
 2851 0d0d 78030000 		.4byte	0x378
 2852 0d11 ED020000 		.4byte	.LLST13
 2853 0d15 26       		.uleb128 0x26
 2854 0d16 6900     		.ascii	"i\000"
 2855 0d18 01       		.byte	0x1
 2856 0d19 F404     		.2byte	0x4f4
 2857 0d1b 6B000000 		.4byte	0x6b
 2858 0d1f 0C030000 		.4byte	.LLST14
 2859 0d23 26       		.uleb128 0x26
 2860 0d24 70747200 		.ascii	"ptr\000"
 2861 0d28 01       		.byte	0x1
 2862 0d29 F504     		.2byte	0x4f5
 2863 0d2b 4F0D0000 		.4byte	0xd4f
 2864 0d2f 41030000 		.4byte	.LLST15
 2865 0d33 1E       		.uleb128 0x1e
 2866 0d34 570E0000 		.4byte	.LASF232
 2867 0d38 01       		.byte	0x1
 2868 0d39 F604     		.2byte	0x4f6
 2869 0d3b 6B000000 		.4byte	0x6b
 2870 0d3f 5F030000 		.4byte	.LLST16
 2871 0d43 00       		.byte	0
 2872 0d44 07       		.uleb128 0x7
 2873 0d45 04       		.byte	0x4
 2874 0d46 4A0D0000 		.4byte	0xd4a
 2875 0d4a 27       		.uleb128 0x27
 2876 0d4b 9D000000 		.4byte	0x9d
 2877 0d4f 07       		.uleb128 0x7
 2878 0d50 04       		.byte	0x4
 2879 0d51 9D000000 		.4byte	0x9d
 2880 0d55 1C       		.uleb128 0x1c
ARM GAS  C:\Users\bryan.lee\AppData\Local\Temp\ccDqoJhc.s 			page 77


 2881 0d56 2F070000 		.4byte	.LASF233
 2882 0d5a 01       		.byte	0x1
 2883 0d5b 3905     		.2byte	0x539
 2884 0d5d 78030000 		.4byte	0x378
 2885 0d61 00000000 		.4byte	.LFB13
 2886 0d65 48000000 		.4byte	.LFE13-.LFB13
 2887 0d69 01       		.uleb128 0x1
 2888 0d6a 9C       		.byte	0x9c
 2889 0d6b BE0D0000 		.4byte	0xdbe
 2890 0d6f 1D       		.uleb128 0x1d
 2891 0d70 93140000 		.4byte	.LASF231
 2892 0d74 01       		.byte	0x1
 2893 0d75 3905     		.2byte	0x539
 2894 0d77 4F0D0000 		.4byte	0xd4f
 2895 0d7b 7D030000 		.4byte	.LLST17
 2896 0d7f 1E       		.uleb128 0x1e
 2897 0d80 74000000 		.4byte	.LASF209
 2898 0d84 01       		.byte	0x1
 2899 0d85 3B05     		.2byte	0x53b
 2900 0d87 78030000 		.4byte	0x378
 2901 0d8b B7030000 		.4byte	.LLST18
 2902 0d8f 1E       		.uleb128 0x1e
 2903 0d90 570E0000 		.4byte	.LASF232
 2904 0d94 01       		.byte	0x1
 2905 0d95 3C05     		.2byte	0x53c
 2906 0d97 6B000000 		.4byte	0x6b
 2907 0d9b D6030000 		.4byte	.LLST19
 2908 0d9f 26       		.uleb128 0x26
 2909 0da0 6900     		.ascii	"i\000"
 2910 0da2 01       		.byte	0x1
 2911 0da3 3D05     		.2byte	0x53d
 2912 0da5 6B000000 		.4byte	0x6b
 2913 0da9 E9030000 		.4byte	.LLST20
 2914 0dad 26       		.uleb128 0x26
 2915 0dae 70747200 		.ascii	"ptr\000"
 2916 0db2 01       		.byte	0x1
 2917 0db3 3E05     		.2byte	0x53e
 2918 0db5 4F0D0000 		.4byte	0xd4f
 2919 0db9 13040000 		.4byte	.LLST21
 2920 0dbd 00       		.byte	0
 2921 0dbe 1C       		.uleb128 0x1c
 2922 0dbf 9D100000 		.4byte	.LASF234
 2923 0dc3 01       		.byte	0x1
 2924 0dc4 6B05     		.2byte	0x56b
 2925 0dc6 77000000 		.4byte	0x77
 2926 0dca 00000000 		.4byte	.LFB14
 2927 0dce 0A000000 		.4byte	.LFE14-.LFB14
 2928 0dd2 01       		.uleb128 0x1
 2929 0dd3 9C       		.byte	0x9c
 2930 0dd4 E90D0000 		.4byte	0xde9
 2931 0dd8 28       		.uleb128 0x28
 2932 0dd9 70747200 		.ascii	"ptr\000"
 2933 0ddd 01       		.byte	0x1
 2934 0dde 6B05     		.2byte	0x56b
 2935 0de0 E90D0000 		.4byte	0xde9
 2936 0de4 26040000 		.4byte	.LLST22
 2937 0de8 00       		.byte	0
ARM GAS  C:\Users\bryan.lee\AppData\Local\Temp\ccDqoJhc.s 			page 78


 2938 0de9 07       		.uleb128 0x7
 2939 0dea 04       		.byte	0x4
 2940 0deb EF0D0000 		.4byte	0xdef
 2941 0def 27       		.uleb128 0x27
 2942 0df0 6B000000 		.4byte	0x6b
 2943 0df4 24       		.uleb128 0x24
 2944 0df5 210E0000 		.4byte	.LASF235
 2945 0df9 01       		.byte	0x1
 2946 0dfa 7E05     		.2byte	0x57e
 2947 0dfc 00000000 		.4byte	.LFB15
 2948 0e00 08000000 		.4byte	.LFE15-.LFB15
 2949 0e04 01       		.uleb128 0x1
 2950 0e05 9C       		.byte	0x9c
 2951 0e06 290E0000 		.4byte	0xe29
 2952 0e0a 29       		.uleb128 0x29
 2953 0e0b 70747200 		.ascii	"ptr\000"
 2954 0e0f 01       		.byte	0x1
 2955 0e10 7E05     		.2byte	0x57e
 2956 0e12 9D040000 		.4byte	0x49d
 2957 0e16 01       		.uleb128 0x1
 2958 0e17 50       		.byte	0x50
 2959 0e18 1D       		.uleb128 0x1d
 2960 0e19 3E120000 		.4byte	.LASF236
 2961 0e1d 01       		.byte	0x1
 2962 0e1e 7E05     		.2byte	0x57e
 2963 0e20 77000000 		.4byte	0x77
 2964 0e24 47040000 		.4byte	.LLST23
 2965 0e28 00       		.byte	0
 2966 0e29 2A       		.uleb128 0x2a
 2967 0e2a FE070000 		.4byte	.LASF237
 2968 0e2e 01       		.byte	0x1
 2969 0e2f 67       		.byte	0x67
 2970 0e30 6B000000 		.4byte	0x6b
 2971 0e34 05       		.uleb128 0x5
 2972 0e35 03       		.byte	0x3
 2973 0e36 01000000 		.4byte	cyBle_pendingFlashClearCccdHandle
 2974 0e3a 2B       		.uleb128 0x2b
 2975 0e3b 4D120000 		.4byte	.LASF238
 2976 0e3f 01       		.byte	0x1
 2977 0e40 6C       		.byte	0x6c
 2978 0e41 EC060000 		.4byte	0x6ec
 2979 0e45 05       		.uleb128 0x5
 2980 0e46 03       		.byte	0x3
 2981 0e47 00000000 		.4byte	CyBle_ApplCallback
 2982 0e4b 2B       		.uleb128 0x2b
 2983 0e4c 9E140000 		.4byte	.LASF239
 2984 0e50 01       		.byte	0x1
 2985 0e51 2B       		.byte	0x2b
 2986 0e52 6B000000 		.4byte	0x6b
 2987 0e56 05       		.uleb128 0x5
 2988 0e57 03       		.byte	0x3
 2989 0e58 00000000 		.4byte	cyBle_initVar
 2990 0e5c 0F       		.uleb128 0xf
 2991 0e5d 6B000000 		.4byte	0x6b
 2992 0e61 6D0E0000 		.4byte	0xe6d
 2993 0e65 18       		.uleb128 0x18
 2994 0e66 BC000000 		.4byte	0xbc
ARM GAS  C:\Users\bryan.lee\AppData\Local\Temp\ccDqoJhc.s 			page 79


 2995 0e6a DF0A     		.2byte	0xadf
 2996 0e6c 00       		.byte	0
 2997 0e6d 2B       		.uleb128 0x2b
 2998 0e6e 12160000 		.4byte	.LASF240
 2999 0e72 01       		.byte	0x1
 3000 0e73 36       		.byte	0x36
 3001 0e74 5C0E0000 		.4byte	0xe5c
 3002 0e78 05       		.uleb128 0x5
 3003 0e79 03       		.byte	0x3
 3004 0e7a 00000000 		.4byte	cyBle_stackMemoryRam
 3005 0e7e 2C       		.uleb128 0x2c
 3006 0e7f 6B160000 		.4byte	.LASF241
 3007 0e83 07       		.byte	0x7
 3008 0e84 9E02     		.2byte	0x29e
 3009 0e86 B0000000 		.4byte	0xb0
 3010 0e8a 2B       		.uleb128 0x2b
 3011 0e8b 6F040000 		.4byte	.LASF242
 3012 0e8f 01       		.byte	0x1
 3013 0e90 6D       		.byte	0x6d
 3014 0e91 B8030000 		.4byte	0x3b8
 3015 0e95 05       		.uleb128 0x5
 3016 0e96 03       		.byte	0x3
 3017 0e97 00000000 		.4byte	cyBle_deviceAddress
 3018 0e9b 2B       		.uleb128 0x2b
 3019 0e9c FD080000 		.4byte	.LASF243
 3020 0ea0 01       		.byte	0x1
 3021 0ea1 6E       		.byte	0x6e
 3022 0ea2 B60B0000 		.4byte	0xbb6
 3023 0ea6 05       		.uleb128 0x5
 3024 0ea7 03       		.byte	0x3
 3025 0ea8 00000000 		.4byte	cyBle_sflashDeviceAddress
 3026 0eac 2B       		.uleb128 0x2b
 3027 0ead C20E0000 		.4byte	.LASF244
 3028 0eb1 01       		.byte	0x1
 3029 0eb2 53       		.byte	0x53
 3030 0eb3 15050000 		.4byte	0x515
 3031 0eb7 05       		.uleb128 0x5
 3032 0eb8 03       		.byte	0x3
 3033 0eb9 00000000 		.4byte	cyBle_discoveryInfo
 3034 0ebd 2B       		.uleb128 0x2b
 3035 0ebe 30090000 		.4byte	.LASF245
 3036 0ec2 01       		.byte	0x1
 3037 0ec3 42       		.byte	0x42
 3038 0ec4 C7050000 		.4byte	0x5c7
 3039 0ec8 05       		.uleb128 0x5
 3040 0ec9 03       		.byte	0x3
 3041 0eca 00000000 		.4byte	cyBle_connectionParameters
 3042 0ece 2B       		.uleb128 0x2b
 3043 0ecf 7D0E0000 		.4byte	.LASF246
 3044 0ed3 01       		.byte	0x1
 3045 0ed4 47       		.byte	0x47
 3046 0ed5 77000000 		.4byte	0x77
 3047 0ed9 05       		.uleb128 0x5
 3048 0eda 03       		.byte	0x3
 3049 0edb 00000000 		.4byte	cyBle_connectingTimeout
 3050 0edf 2B       		.uleb128 0x2b
 3051 0ee0 15110000 		.4byte	.LASF247
ARM GAS  C:\Users\bryan.lee\AppData\Local\Temp\ccDqoJhc.s 			page 80


 3052 0ee4 01       		.byte	0x1
 3053 0ee5 64       		.byte	0x64
 3054 0ee6 6B000000 		.4byte	0x6b
 3055 0eea 05       		.uleb128 0x5
 3056 0eeb 03       		.byte	0x3
 3057 0eec 00000000 		.4byte	cyBle_pendingFlashWrite
 3058 0ef0 2B       		.uleb128 0x2b
 3059 0ef1 00000000 		.4byte	.LASF248
 3060 0ef5 01       		.byte	0x1
 3061 0ef6 63       		.byte	0x63
 3062 0ef7 6B000000 		.4byte	0x6b
 3063 0efb 05       		.uleb128 0x5
 3064 0efc 03       		.byte	0x3
 3065 0efd 00000000 		.4byte	cyBle_peerBonding
 3066 0f01 0F       		.uleb128 0xf
 3067 0f02 110F0000 		.4byte	0xf11
 3068 0f06 110F0000 		.4byte	0xf11
 3069 0f0a 10       		.uleb128 0x10
 3070 0f0b BC000000 		.4byte	0xbc
 3071 0f0f 1B       		.byte	0x1b
 3072 0f10 00       		.byte	0
 3073 0f11 27       		.uleb128 0x27
 3074 0f12 E0060000 		.4byte	0x6e0
 3075 0f16 2D       		.uleb128 0x2d
 3076 0f17 F70C0000 		.4byte	.LASF249
 3077 0f1b 08       		.byte	0x8
 3078 0f1c E9       		.byte	0xe9
 3079 0f1d 210F0000 		.4byte	0xf21
 3080 0f21 27       		.uleb128 0x27
 3081 0f22 010F0000 		.4byte	0xf01
 3082 0f26 2D       		.uleb128 0x2d
 3083 0f27 EC160000 		.4byte	.LASF250
 3084 0f2b 08       		.byte	0x8
 3085 0f2c ED       		.byte	0xed
 3086 0f2d A8030000 		.4byte	0x3a8
 3087 0f31 2D       		.uleb128 0x2d
 3088 0f32 CE0B0000 		.4byte	.LASF251
 3089 0f36 08       		.byte	0x8
 3090 0f37 F5       		.byte	0xf5
 3091 0f38 3C0F0000 		.4byte	0xf3c
 3092 0f3c 27       		.uleb128 0x27
 3093 0f3d 5C070000 		.4byte	0x75c
 3094 0f41 2C       		.uleb128 0x2c
 3095 0f42 A6130000 		.4byte	.LASF252
 3096 0f46 0A       		.byte	0xa
 3097 0f47 B30A     		.2byte	0xab3
 3098 0f49 E3070000 		.4byte	0x7e3
 3099 0f4d 2C       		.uleb128 0x2c
 3100 0f4e D0140000 		.4byte	.LASF253
 3101 0f52 0A       		.byte	0xa
 3102 0f53 B40A     		.2byte	0xab4
 3103 0f55 03060000 		.4byte	0x603
 3104 0f59 2C       		.uleb128 0x2c
 3105 0f5a 0E0B0000 		.4byte	.LASF254
 3106 0f5e 0A       		.byte	0xa
 3107 0f5f B50A     		.2byte	0xab5
 3108 0f61 B0000000 		.4byte	0xb0
ARM GAS  C:\Users\bryan.lee\AppData\Local\Temp\ccDqoJhc.s 			page 81


 3109 0f65 2C       		.uleb128 0x2c
 3110 0f66 20080000 		.4byte	.LASF255
 3111 0f6a 0A       		.byte	0xa
 3112 0f6b B60A     		.2byte	0xab6
 3113 0f6d 710F0000 		.4byte	0xf71
 3114 0f71 27       		.uleb128 0x27
 3115 0f72 47080000 		.4byte	0x847
 3116 0f76 2C       		.uleb128 0x2c
 3117 0f77 4D020000 		.4byte	.LASF256
 3118 0f7b 0A       		.byte	0xa
 3119 0f7c BD0A     		.2byte	0xabd
 3120 0f7e 6B000000 		.4byte	0x6b
 3121 0f82 2E       		.uleb128 0x2e
 3122 0f83 BB120000 		.4byte	.LASF257
 3123 0f87 BB120000 		.4byte	.LASF257
 3124 0f8b 09       		.byte	0x9
 3125 0f8c C5       		.byte	0xc5
 3126 0f8d 2F       		.uleb128 0x2f
 3127 0f8e FC090000 		.4byte	.LASF258
 3128 0f92 FC090000 		.4byte	.LASF258
 3129 0f96 03       		.byte	0x3
 3130 0f97 0E06     		.2byte	0x60e
 3131 0f99 30       		.uleb128 0x30
 3132 0f9a B3160000 		.4byte	.LASF262
 3133 0f9e B3160000 		.4byte	.LASF262
 3134 0fa2 2F       		.uleb128 0x2f
 3135 0fa3 C4060000 		.4byte	.LASF259
 3136 0fa7 C4060000 		.4byte	.LASF259
 3137 0fab 03       		.byte	0x3
 3138 0fac D606     		.2byte	0x6d6
 3139 0fae 2F       		.uleb128 0x2f
 3140 0faf 3E150000 		.4byte	.LASF260
 3141 0fb3 3E150000 		.4byte	.LASF260
 3142 0fb7 06       		.byte	0x6
 3143 0fb8 5A01     		.2byte	0x15a
 3144 0fba 2F       		.uleb128 0x2f
 3145 0fbb 2B080000 		.4byte	.LASF261
 3146 0fbf 2B080000 		.4byte	.LASF261
 3147 0fc3 03       		.byte	0x3
 3148 0fc4 F106     		.2byte	0x6f1
 3149 0fc6 30       		.uleb128 0x30
 3150 0fc7 C9120000 		.4byte	.LASF263
 3151 0fcb C9120000 		.4byte	.LASF263
 3152 0fcf 2E       		.uleb128 0x2e
 3153 0fd0 5C040000 		.4byte	.LASF264
 3154 0fd4 5C040000 		.4byte	.LASF264
 3155 0fd8 0B       		.byte	0xb
 3156 0fd9 82       		.byte	0x82
 3157 0fda 2E       		.uleb128 0x2e
 3158 0fdb 05040000 		.4byte	.LASF265
 3159 0fdf 05040000 		.4byte	.LASF265
 3160 0fe3 0B       		.byte	0xb
 3161 0fe4 64       		.byte	0x64
 3162 0fe5 2E       		.uleb128 0x2e
 3163 0fe6 C2130000 		.4byte	.LASF266
 3164 0fea C2130000 		.4byte	.LASF266
 3165 0fee 0C       		.byte	0xc
ARM GAS  C:\Users\bryan.lee\AppData\Local\Temp\ccDqoJhc.s 			page 82


 3166 0fef 16       		.byte	0x16
 3167 0ff0 2F       		.uleb128 0x2f
 3168 0ff1 2B010000 		.4byte	.LASF267
 3169 0ff5 2B010000 		.4byte	.LASF267
 3170 0ff9 04       		.byte	0x4
 3171 0ffa 9005     		.2byte	0x590
 3172 0ffc 2F       		.uleb128 0x2f
 3173 0ffd 77130000 		.4byte	.LASF268
 3174 1001 77130000 		.4byte	.LASF268
 3175 1005 04       		.byte	0x4
 3176 1006 C108     		.2byte	0x8c1
 3177 1008 2F       		.uleb128 0x2f
 3178 1009 75050000 		.4byte	.LASF269
 3179 100d 75050000 		.4byte	.LASF269
 3180 1011 04       		.byte	0x4
 3181 1012 5106     		.2byte	0x651
 3182 1014 2F       		.uleb128 0x2f
 3183 1015 5C000000 		.4byte	.LASF270
 3184 1019 5C000000 		.4byte	.LASF270
 3185 101d 04       		.byte	0x4
 3186 101e 6206     		.2byte	0x662
 3187 1020 2F       		.uleb128 0x2f
 3188 1021 1F130000 		.4byte	.LASF271
 3189 1025 1F130000 		.4byte	.LASF271
 3190 1029 04       		.byte	0x4
 3191 102a A206     		.2byte	0x6a2
 3192 102c 2E       		.uleb128 0x2e
 3193 102d 06020000 		.4byte	.LASF272
 3194 1031 06020000 		.4byte	.LASF272
 3195 1035 0B       		.byte	0xb
 3196 1036 A8       		.byte	0xa8
 3197 1037 2F       		.uleb128 0x2f
 3198 1038 F00E0000 		.4byte	.LASF273
 3199 103c F00E0000 		.4byte	.LASF273
 3200 1040 04       		.byte	0x4
 3201 1041 BC06     		.2byte	0x6bc
 3202 1043 2E       		.uleb128 0x2e
 3203 1044 A7080000 		.4byte	.LASF274
 3204 1048 A7080000 		.4byte	.LASF274
 3205 104c 0B       		.byte	0xb
 3206 104d C1       		.byte	0xc1
 3207 104e 00       		.byte	0
 3208              		.section	.debug_abbrev,"",%progbits
 3209              	.Ldebug_abbrev0:
 3210 0000 01       		.uleb128 0x1
 3211 0001 11       		.uleb128 0x11
 3212 0002 01       		.byte	0x1
 3213 0003 25       		.uleb128 0x25
 3214 0004 0E       		.uleb128 0xe
 3215 0005 13       		.uleb128 0x13
 3216 0006 0B       		.uleb128 0xb
 3217 0007 03       		.uleb128 0x3
 3218 0008 0E       		.uleb128 0xe
 3219 0009 1B       		.uleb128 0x1b
 3220 000a 0E       		.uleb128 0xe
 3221 000b 55       		.uleb128 0x55
 3222 000c 17       		.uleb128 0x17
ARM GAS  C:\Users\bryan.lee\AppData\Local\Temp\ccDqoJhc.s 			page 83


 3223 000d 11       		.uleb128 0x11
 3224 000e 01       		.uleb128 0x1
 3225 000f 10       		.uleb128 0x10
 3226 0010 17       		.uleb128 0x17
 3227 0011 00       		.byte	0
 3228 0012 00       		.byte	0
 3229 0013 02       		.uleb128 0x2
 3230 0014 24       		.uleb128 0x24
 3231 0015 00       		.byte	0
 3232 0016 0B       		.uleb128 0xb
 3233 0017 0B       		.uleb128 0xb
 3234 0018 3E       		.uleb128 0x3e
 3235 0019 0B       		.uleb128 0xb
 3236 001a 03       		.uleb128 0x3
 3237 001b 0E       		.uleb128 0xe
 3238 001c 00       		.byte	0
 3239 001d 00       		.byte	0
 3240 001e 03       		.uleb128 0x3
 3241 001f 24       		.uleb128 0x24
 3242 0020 00       		.byte	0
 3243 0021 0B       		.uleb128 0xb
 3244 0022 0B       		.uleb128 0xb
 3245 0023 3E       		.uleb128 0x3e
 3246 0024 0B       		.uleb128 0xb
 3247 0025 03       		.uleb128 0x3
 3248 0026 08       		.uleb128 0x8
 3249 0027 00       		.byte	0
 3250 0028 00       		.byte	0
 3251 0029 04       		.uleb128 0x4
 3252 002a 16       		.uleb128 0x16
 3253 002b 00       		.byte	0
 3254 002c 03       		.uleb128 0x3
 3255 002d 0E       		.uleb128 0xe
 3256 002e 3A       		.uleb128 0x3a
 3257 002f 0B       		.uleb128 0xb
 3258 0030 3B       		.uleb128 0x3b
 3259 0031 05       		.uleb128 0x5
 3260 0032 49       		.uleb128 0x49
 3261 0033 13       		.uleb128 0x13
 3262 0034 00       		.byte	0
 3263 0035 00       		.byte	0
 3264 0036 05       		.uleb128 0x5
 3265 0037 35       		.uleb128 0x35
 3266 0038 00       		.byte	0
 3267 0039 49       		.uleb128 0x49
 3268 003a 13       		.uleb128 0x13
 3269 003b 00       		.byte	0
 3270 003c 00       		.byte	0
 3271 003d 06       		.uleb128 0x6
 3272 003e 0F       		.uleb128 0xf
 3273 003f 00       		.byte	0
 3274 0040 0B       		.uleb128 0xb
 3275 0041 0B       		.uleb128 0xb
 3276 0042 00       		.byte	0
 3277 0043 00       		.byte	0
 3278 0044 07       		.uleb128 0x7
 3279 0045 0F       		.uleb128 0xf
ARM GAS  C:\Users\bryan.lee\AppData\Local\Temp\ccDqoJhc.s 			page 84


 3280 0046 00       		.byte	0
 3281 0047 0B       		.uleb128 0xb
 3282 0048 0B       		.uleb128 0xb
 3283 0049 49       		.uleb128 0x49
 3284 004a 13       		.uleb128 0x13
 3285 004b 00       		.byte	0
 3286 004c 00       		.byte	0
 3287 004d 08       		.uleb128 0x8
 3288 004e 15       		.uleb128 0x15
 3289 004f 01       		.byte	0x1
 3290 0050 27       		.uleb128 0x27
 3291 0051 19       		.uleb128 0x19
 3292 0052 01       		.uleb128 0x1
 3293 0053 13       		.uleb128 0x13
 3294 0054 00       		.byte	0
 3295 0055 00       		.byte	0
 3296 0056 09       		.uleb128 0x9
 3297 0057 05       		.uleb128 0x5
 3298 0058 00       		.byte	0
 3299 0059 49       		.uleb128 0x49
 3300 005a 13       		.uleb128 0x13
 3301 005b 00       		.byte	0
 3302 005c 00       		.byte	0
 3303 005d 0A       		.uleb128 0xa
 3304 005e 04       		.uleb128 0x4
 3305 005f 01       		.byte	0x1
 3306 0060 0B       		.uleb128 0xb
 3307 0061 0B       		.uleb128 0xb
 3308 0062 49       		.uleb128 0x49
 3309 0063 13       		.uleb128 0x13
 3310 0064 3A       		.uleb128 0x3a
 3311 0065 0B       		.uleb128 0xb
 3312 0066 3B       		.uleb128 0x3b
 3313 0067 05       		.uleb128 0x5
 3314 0068 01       		.uleb128 0x1
 3315 0069 13       		.uleb128 0x13
 3316 006a 00       		.byte	0
 3317 006b 00       		.byte	0
 3318 006c 0B       		.uleb128 0xb
 3319 006d 28       		.uleb128 0x28
 3320 006e 00       		.byte	0
 3321 006f 03       		.uleb128 0x3
 3322 0070 0E       		.uleb128 0xe
 3323 0071 1C       		.uleb128 0x1c
 3324 0072 0B       		.uleb128 0xb
 3325 0073 00       		.byte	0
 3326 0074 00       		.byte	0
 3327 0075 0C       		.uleb128 0xc
 3328 0076 28       		.uleb128 0x28
 3329 0077 00       		.byte	0
 3330 0078 03       		.uleb128 0x3
 3331 0079 0E       		.uleb128 0xe
 3332 007a 1C       		.uleb128 0x1c
 3333 007b 05       		.uleb128 0x5
 3334 007c 00       		.byte	0
 3335 007d 00       		.byte	0
 3336 007e 0D       		.uleb128 0xd
ARM GAS  C:\Users\bryan.lee\AppData\Local\Temp\ccDqoJhc.s 			page 85


 3337 007f 13       		.uleb128 0x13
 3338 0080 01       		.byte	0x1
 3339 0081 0B       		.uleb128 0xb
 3340 0082 0B       		.uleb128 0xb
 3341 0083 3A       		.uleb128 0x3a
 3342 0084 0B       		.uleb128 0xb
 3343 0085 3B       		.uleb128 0x3b
 3344 0086 05       		.uleb128 0x5
 3345 0087 01       		.uleb128 0x1
 3346 0088 13       		.uleb128 0x13
 3347 0089 00       		.byte	0
 3348 008a 00       		.byte	0
 3349 008b 0E       		.uleb128 0xe
 3350 008c 0D       		.uleb128 0xd
 3351 008d 00       		.byte	0
 3352 008e 03       		.uleb128 0x3
 3353 008f 0E       		.uleb128 0xe
 3354 0090 3A       		.uleb128 0x3a
 3355 0091 0B       		.uleb128 0xb
 3356 0092 3B       		.uleb128 0x3b
 3357 0093 05       		.uleb128 0x5
 3358 0094 49       		.uleb128 0x49
 3359 0095 13       		.uleb128 0x13
 3360 0096 38       		.uleb128 0x38
 3361 0097 0B       		.uleb128 0xb
 3362 0098 00       		.byte	0
 3363 0099 00       		.byte	0
 3364 009a 0F       		.uleb128 0xf
 3365 009b 01       		.uleb128 0x1
 3366 009c 01       		.byte	0x1
 3367 009d 49       		.uleb128 0x49
 3368 009e 13       		.uleb128 0x13
 3369 009f 01       		.uleb128 0x1
 3370 00a0 13       		.uleb128 0x13
 3371 00a1 00       		.byte	0
 3372 00a2 00       		.byte	0
 3373 00a3 10       		.uleb128 0x10
 3374 00a4 21       		.uleb128 0x21
 3375 00a5 00       		.byte	0
 3376 00a6 49       		.uleb128 0x49
 3377 00a7 13       		.uleb128 0x13
 3378 00a8 2F       		.uleb128 0x2f
 3379 00a9 0B       		.uleb128 0xb
 3380 00aa 00       		.byte	0
 3381 00ab 00       		.byte	0
 3382 00ac 11       		.uleb128 0x11
 3383 00ad 13       		.uleb128 0x13
 3384 00ae 01       		.byte	0x1
 3385 00af 0B       		.uleb128 0xb
 3386 00b0 0B       		.uleb128 0xb
 3387 00b1 3A       		.uleb128 0x3a
 3388 00b2 0B       		.uleb128 0xb
 3389 00b3 3B       		.uleb128 0x3b
 3390 00b4 0B       		.uleb128 0xb
 3391 00b5 01       		.uleb128 0x1
 3392 00b6 13       		.uleb128 0x13
 3393 00b7 00       		.byte	0
ARM GAS  C:\Users\bryan.lee\AppData\Local\Temp\ccDqoJhc.s 			page 86


 3394 00b8 00       		.byte	0
 3395 00b9 12       		.uleb128 0x12
 3396 00ba 0D       		.uleb128 0xd
 3397 00bb 00       		.byte	0
 3398 00bc 03       		.uleb128 0x3
 3399 00bd 0E       		.uleb128 0xe
 3400 00be 3A       		.uleb128 0x3a
 3401 00bf 0B       		.uleb128 0xb
 3402 00c0 3B       		.uleb128 0x3b
 3403 00c1 0B       		.uleb128 0xb
 3404 00c2 49       		.uleb128 0x49
 3405 00c3 13       		.uleb128 0x13
 3406 00c4 38       		.uleb128 0x38
 3407 00c5 0B       		.uleb128 0xb
 3408 00c6 00       		.byte	0
 3409 00c7 00       		.byte	0
 3410 00c8 13       		.uleb128 0x13
 3411 00c9 16       		.uleb128 0x16
 3412 00ca 00       		.byte	0
 3413 00cb 03       		.uleb128 0x3
 3414 00cc 0E       		.uleb128 0xe
 3415 00cd 3A       		.uleb128 0x3a
 3416 00ce 0B       		.uleb128 0xb
 3417 00cf 3B       		.uleb128 0x3b
 3418 00d0 0B       		.uleb128 0xb
 3419 00d1 49       		.uleb128 0x49
 3420 00d2 13       		.uleb128 0x13
 3421 00d3 00       		.byte	0
 3422 00d4 00       		.byte	0
 3423 00d5 14       		.uleb128 0x14
 3424 00d6 17       		.uleb128 0x17
 3425 00d7 01       		.byte	0x1
 3426 00d8 0B       		.uleb128 0xb
 3427 00d9 0B       		.uleb128 0xb
 3428 00da 3A       		.uleb128 0x3a
 3429 00db 0B       		.uleb128 0xb
 3430 00dc 3B       		.uleb128 0x3b
 3431 00dd 0B       		.uleb128 0xb
 3432 00de 01       		.uleb128 0x1
 3433 00df 13       		.uleb128 0x13
 3434 00e0 00       		.byte	0
 3435 00e1 00       		.byte	0
 3436 00e2 15       		.uleb128 0x15
 3437 00e3 0D       		.uleb128 0xd
 3438 00e4 00       		.byte	0
 3439 00e5 03       		.uleb128 0x3
 3440 00e6 0E       		.uleb128 0xe
 3441 00e7 3A       		.uleb128 0x3a
 3442 00e8 0B       		.uleb128 0xb
 3443 00e9 3B       		.uleb128 0x3b
 3444 00ea 0B       		.uleb128 0xb
 3445 00eb 49       		.uleb128 0x49
 3446 00ec 13       		.uleb128 0x13
 3447 00ed 00       		.byte	0
 3448 00ee 00       		.byte	0
 3449 00ef 16       		.uleb128 0x16
 3450 00f0 13       		.uleb128 0x13
ARM GAS  C:\Users\bryan.lee\AppData\Local\Temp\ccDqoJhc.s 			page 87


 3451 00f1 01       		.byte	0x1
 3452 00f2 0B       		.uleb128 0xb
 3453 00f3 05       		.uleb128 0x5
 3454 00f4 3A       		.uleb128 0x3a
 3455 00f5 0B       		.uleb128 0xb
 3456 00f6 3B       		.uleb128 0x3b
 3457 00f7 0B       		.uleb128 0xb
 3458 00f8 01       		.uleb128 0x1
 3459 00f9 13       		.uleb128 0x13
 3460 00fa 00       		.byte	0
 3461 00fb 00       		.byte	0
 3462 00fc 17       		.uleb128 0x17
 3463 00fd 0D       		.uleb128 0xd
 3464 00fe 00       		.byte	0
 3465 00ff 03       		.uleb128 0x3
 3466 0100 0E       		.uleb128 0xe
 3467 0101 3A       		.uleb128 0x3a
 3468 0102 0B       		.uleb128 0xb
 3469 0103 3B       		.uleb128 0x3b
 3470 0104 0B       		.uleb128 0xb
 3471 0105 49       		.uleb128 0x49
 3472 0106 13       		.uleb128 0x13
 3473 0107 38       		.uleb128 0x38
 3474 0108 05       		.uleb128 0x5
 3475 0109 00       		.byte	0
 3476 010a 00       		.byte	0
 3477 010b 18       		.uleb128 0x18
 3478 010c 21       		.uleb128 0x21
 3479 010d 00       		.byte	0
 3480 010e 49       		.uleb128 0x49
 3481 010f 13       		.uleb128 0x13
 3482 0110 2F       		.uleb128 0x2f
 3483 0111 05       		.uleb128 0x5
 3484 0112 00       		.byte	0
 3485 0113 00       		.byte	0
 3486 0114 19       		.uleb128 0x19
 3487 0115 04       		.uleb128 0x4
 3488 0116 01       		.byte	0x1
 3489 0117 0B       		.uleb128 0xb
 3490 0118 0B       		.uleb128 0xb
 3491 0119 49       		.uleb128 0x49
 3492 011a 13       		.uleb128 0x13
 3493 011b 3A       		.uleb128 0x3a
 3494 011c 0B       		.uleb128 0xb
 3495 011d 3B       		.uleb128 0x3b
 3496 011e 0B       		.uleb128 0xb
 3497 011f 01       		.uleb128 0x1
 3498 0120 13       		.uleb128 0x13
 3499 0121 00       		.byte	0
 3500 0122 00       		.byte	0
 3501 0123 1A       		.uleb128 0x1a
 3502 0124 2E       		.uleb128 0x2e
 3503 0125 01       		.byte	0x1
 3504 0126 3F       		.uleb128 0x3f
 3505 0127 19       		.uleb128 0x19
 3506 0128 03       		.uleb128 0x3
 3507 0129 0E       		.uleb128 0xe
ARM GAS  C:\Users\bryan.lee\AppData\Local\Temp\ccDqoJhc.s 			page 88


 3508 012a 3A       		.uleb128 0x3a
 3509 012b 0B       		.uleb128 0xb
 3510 012c 3B       		.uleb128 0x3b
 3511 012d 0B       		.uleb128 0xb
 3512 012e 27       		.uleb128 0x27
 3513 012f 19       		.uleb128 0x19
 3514 0130 11       		.uleb128 0x11
 3515 0131 01       		.uleb128 0x1
 3516 0132 12       		.uleb128 0x12
 3517 0133 06       		.uleb128 0x6
 3518 0134 40       		.uleb128 0x40
 3519 0135 18       		.uleb128 0x18
 3520 0136 9742     		.uleb128 0x2117
 3521 0138 19       		.uleb128 0x19
 3522 0139 01       		.uleb128 0x1
 3523 013a 13       		.uleb128 0x13
 3524 013b 00       		.byte	0
 3525 013c 00       		.byte	0
 3526 013d 1B       		.uleb128 0x1b
 3527 013e 898201   		.uleb128 0x4109
 3528 0141 00       		.byte	0
 3529 0142 11       		.uleb128 0x11
 3530 0143 01       		.uleb128 0x1
 3531 0144 31       		.uleb128 0x31
 3532 0145 13       		.uleb128 0x13
 3533 0146 00       		.byte	0
 3534 0147 00       		.byte	0
 3535 0148 1C       		.uleb128 0x1c
 3536 0149 2E       		.uleb128 0x2e
 3537 014a 01       		.byte	0x1
 3538 014b 3F       		.uleb128 0x3f
 3539 014c 19       		.uleb128 0x19
 3540 014d 03       		.uleb128 0x3
 3541 014e 0E       		.uleb128 0xe
 3542 014f 3A       		.uleb128 0x3a
 3543 0150 0B       		.uleb128 0xb
 3544 0151 3B       		.uleb128 0x3b
 3545 0152 05       		.uleb128 0x5
 3546 0153 27       		.uleb128 0x27
 3547 0154 19       		.uleb128 0x19
 3548 0155 49       		.uleb128 0x49
 3549 0156 13       		.uleb128 0x13
 3550 0157 11       		.uleb128 0x11
 3551 0158 01       		.uleb128 0x1
 3552 0159 12       		.uleb128 0x12
 3553 015a 06       		.uleb128 0x6
 3554 015b 40       		.uleb128 0x40
 3555 015c 18       		.uleb128 0x18
 3556 015d 9742     		.uleb128 0x2117
 3557 015f 19       		.uleb128 0x19
 3558 0160 01       		.uleb128 0x1
 3559 0161 13       		.uleb128 0x13
 3560 0162 00       		.byte	0
 3561 0163 00       		.byte	0
 3562 0164 1D       		.uleb128 0x1d
 3563 0165 05       		.uleb128 0x5
 3564 0166 00       		.byte	0
ARM GAS  C:\Users\bryan.lee\AppData\Local\Temp\ccDqoJhc.s 			page 89


 3565 0167 03       		.uleb128 0x3
 3566 0168 0E       		.uleb128 0xe
 3567 0169 3A       		.uleb128 0x3a
 3568 016a 0B       		.uleb128 0xb
 3569 016b 3B       		.uleb128 0x3b
 3570 016c 05       		.uleb128 0x5
 3571 016d 49       		.uleb128 0x49
 3572 016e 13       		.uleb128 0x13
 3573 016f 02       		.uleb128 0x2
 3574 0170 17       		.uleb128 0x17
 3575 0171 00       		.byte	0
 3576 0172 00       		.byte	0
 3577 0173 1E       		.uleb128 0x1e
 3578 0174 34       		.uleb128 0x34
 3579 0175 00       		.byte	0
 3580 0176 03       		.uleb128 0x3
 3581 0177 0E       		.uleb128 0xe
 3582 0178 3A       		.uleb128 0x3a
 3583 0179 0B       		.uleb128 0xb
 3584 017a 3B       		.uleb128 0x3b
 3585 017b 05       		.uleb128 0x5
 3586 017c 49       		.uleb128 0x49
 3587 017d 13       		.uleb128 0x13
 3588 017e 02       		.uleb128 0x2
 3589 017f 17       		.uleb128 0x17
 3590 0180 00       		.byte	0
 3591 0181 00       		.byte	0
 3592 0182 1F       		.uleb128 0x1f
 3593 0183 34       		.uleb128 0x34
 3594 0184 00       		.byte	0
 3595 0185 03       		.uleb128 0x3
 3596 0186 0E       		.uleb128 0xe
 3597 0187 3A       		.uleb128 0x3a
 3598 0188 0B       		.uleb128 0xb
 3599 0189 3B       		.uleb128 0x3b
 3600 018a 05       		.uleb128 0x5
 3601 018b 49       		.uleb128 0x49
 3602 018c 13       		.uleb128 0x13
 3603 018d 02       		.uleb128 0x2
 3604 018e 18       		.uleb128 0x18
 3605 018f 00       		.byte	0
 3606 0190 00       		.byte	0
 3607 0191 20       		.uleb128 0x20
 3608 0192 0B       		.uleb128 0xb
 3609 0193 01       		.byte	0x1
 3610 0194 11       		.uleb128 0x11
 3611 0195 01       		.uleb128 0x1
 3612 0196 12       		.uleb128 0x12
 3613 0197 06       		.uleb128 0x6
 3614 0198 01       		.uleb128 0x1
 3615 0199 13       		.uleb128 0x13
 3616 019a 00       		.byte	0
 3617 019b 00       		.byte	0
 3618 019c 21       		.uleb128 0x21
 3619 019d 898201   		.uleb128 0x4109
 3620 01a0 01       		.byte	0x1
 3621 01a1 11       		.uleb128 0x11
ARM GAS  C:\Users\bryan.lee\AppData\Local\Temp\ccDqoJhc.s 			page 90


 3622 01a2 01       		.uleb128 0x1
 3623 01a3 31       		.uleb128 0x31
 3624 01a4 13       		.uleb128 0x13
 3625 01a5 00       		.byte	0
 3626 01a6 00       		.byte	0
 3627 01a7 22       		.uleb128 0x22
 3628 01a8 8A8201   		.uleb128 0x410a
 3629 01ab 00       		.byte	0
 3630 01ac 02       		.uleb128 0x2
 3631 01ad 18       		.uleb128 0x18
 3632 01ae 9142     		.uleb128 0x2111
 3633 01b0 18       		.uleb128 0x18
 3634 01b1 00       		.byte	0
 3635 01b2 00       		.byte	0
 3636 01b3 23       		.uleb128 0x23
 3637 01b4 898201   		.uleb128 0x4109
 3638 01b7 01       		.byte	0x1
 3639 01b8 11       		.uleb128 0x11
 3640 01b9 01       		.uleb128 0x1
 3641 01ba 31       		.uleb128 0x31
 3642 01bb 13       		.uleb128 0x13
 3643 01bc 01       		.uleb128 0x1
 3644 01bd 13       		.uleb128 0x13
 3645 01be 00       		.byte	0
 3646 01bf 00       		.byte	0
 3647 01c0 24       		.uleb128 0x24
 3648 01c1 2E       		.uleb128 0x2e
 3649 01c2 01       		.byte	0x1
 3650 01c3 3F       		.uleb128 0x3f
 3651 01c4 19       		.uleb128 0x19
 3652 01c5 03       		.uleb128 0x3
 3653 01c6 0E       		.uleb128 0xe
 3654 01c7 3A       		.uleb128 0x3a
 3655 01c8 0B       		.uleb128 0xb
 3656 01c9 3B       		.uleb128 0x3b
 3657 01ca 05       		.uleb128 0x5
 3658 01cb 27       		.uleb128 0x27
 3659 01cc 19       		.uleb128 0x19
 3660 01cd 11       		.uleb128 0x11
 3661 01ce 01       		.uleb128 0x1
 3662 01cf 12       		.uleb128 0x12
 3663 01d0 06       		.uleb128 0x6
 3664 01d1 40       		.uleb128 0x40
 3665 01d2 18       		.uleb128 0x18
 3666 01d3 9742     		.uleb128 0x2117
 3667 01d5 19       		.uleb128 0x19
 3668 01d6 01       		.uleb128 0x1
 3669 01d7 13       		.uleb128 0x13
 3670 01d8 00       		.byte	0
 3671 01d9 00       		.byte	0
 3672 01da 25       		.uleb128 0x25
 3673 01db 0B       		.uleb128 0xb
 3674 01dc 01       		.byte	0x1
 3675 01dd 11       		.uleb128 0x11
 3676 01de 01       		.uleb128 0x1
 3677 01df 12       		.uleb128 0x12
 3678 01e0 06       		.uleb128 0x6
ARM GAS  C:\Users\bryan.lee\AppData\Local\Temp\ccDqoJhc.s 			page 91


 3679 01e1 00       		.byte	0
 3680 01e2 00       		.byte	0
 3681 01e3 26       		.uleb128 0x26
 3682 01e4 34       		.uleb128 0x34
 3683 01e5 00       		.byte	0
 3684 01e6 03       		.uleb128 0x3
 3685 01e7 08       		.uleb128 0x8
 3686 01e8 3A       		.uleb128 0x3a
 3687 01e9 0B       		.uleb128 0xb
 3688 01ea 3B       		.uleb128 0x3b
 3689 01eb 05       		.uleb128 0x5
 3690 01ec 49       		.uleb128 0x49
 3691 01ed 13       		.uleb128 0x13
 3692 01ee 02       		.uleb128 0x2
 3693 01ef 17       		.uleb128 0x17
 3694 01f0 00       		.byte	0
 3695 01f1 00       		.byte	0
 3696 01f2 27       		.uleb128 0x27
 3697 01f3 26       		.uleb128 0x26
 3698 01f4 00       		.byte	0
 3699 01f5 49       		.uleb128 0x49
 3700 01f6 13       		.uleb128 0x13
 3701 01f7 00       		.byte	0
 3702 01f8 00       		.byte	0
 3703 01f9 28       		.uleb128 0x28
 3704 01fa 05       		.uleb128 0x5
 3705 01fb 00       		.byte	0
 3706 01fc 03       		.uleb128 0x3
 3707 01fd 08       		.uleb128 0x8
 3708 01fe 3A       		.uleb128 0x3a
 3709 01ff 0B       		.uleb128 0xb
 3710 0200 3B       		.uleb128 0x3b
 3711 0201 05       		.uleb128 0x5
 3712 0202 49       		.uleb128 0x49
 3713 0203 13       		.uleb128 0x13
 3714 0204 02       		.uleb128 0x2
 3715 0205 17       		.uleb128 0x17
 3716 0206 00       		.byte	0
 3717 0207 00       		.byte	0
 3718 0208 29       		.uleb128 0x29
 3719 0209 05       		.uleb128 0x5
 3720 020a 00       		.byte	0
 3721 020b 03       		.uleb128 0x3
 3722 020c 08       		.uleb128 0x8
 3723 020d 3A       		.uleb128 0x3a
 3724 020e 0B       		.uleb128 0xb
 3725 020f 3B       		.uleb128 0x3b
 3726 0210 05       		.uleb128 0x5
 3727 0211 49       		.uleb128 0x49
 3728 0212 13       		.uleb128 0x13
 3729 0213 02       		.uleb128 0x2
 3730 0214 18       		.uleb128 0x18
 3731 0215 00       		.byte	0
 3732 0216 00       		.byte	0
 3733 0217 2A       		.uleb128 0x2a
 3734 0218 34       		.uleb128 0x34
 3735 0219 00       		.byte	0
ARM GAS  C:\Users\bryan.lee\AppData\Local\Temp\ccDqoJhc.s 			page 92


 3736 021a 03       		.uleb128 0x3
 3737 021b 0E       		.uleb128 0xe
 3738 021c 3A       		.uleb128 0x3a
 3739 021d 0B       		.uleb128 0xb
 3740 021e 3B       		.uleb128 0x3b
 3741 021f 0B       		.uleb128 0xb
 3742 0220 49       		.uleb128 0x49
 3743 0221 13       		.uleb128 0x13
 3744 0222 02       		.uleb128 0x2
 3745 0223 18       		.uleb128 0x18
 3746 0224 00       		.byte	0
 3747 0225 00       		.byte	0
 3748 0226 2B       		.uleb128 0x2b
 3749 0227 34       		.uleb128 0x34
 3750 0228 00       		.byte	0
 3751 0229 03       		.uleb128 0x3
 3752 022a 0E       		.uleb128 0xe
 3753 022b 3A       		.uleb128 0x3a
 3754 022c 0B       		.uleb128 0xb
 3755 022d 3B       		.uleb128 0x3b
 3756 022e 0B       		.uleb128 0xb
 3757 022f 49       		.uleb128 0x49
 3758 0230 13       		.uleb128 0x13
 3759 0231 3F       		.uleb128 0x3f
 3760 0232 19       		.uleb128 0x19
 3761 0233 02       		.uleb128 0x2
 3762 0234 18       		.uleb128 0x18
 3763 0235 00       		.byte	0
 3764 0236 00       		.byte	0
 3765 0237 2C       		.uleb128 0x2c
 3766 0238 34       		.uleb128 0x34
 3767 0239 00       		.byte	0
 3768 023a 03       		.uleb128 0x3
 3769 023b 0E       		.uleb128 0xe
 3770 023c 3A       		.uleb128 0x3a
 3771 023d 0B       		.uleb128 0xb
 3772 023e 3B       		.uleb128 0x3b
 3773 023f 05       		.uleb128 0x5
 3774 0240 49       		.uleb128 0x49
 3775 0241 13       		.uleb128 0x13
 3776 0242 3F       		.uleb128 0x3f
 3777 0243 19       		.uleb128 0x19
 3778 0244 3C       		.uleb128 0x3c
 3779 0245 19       		.uleb128 0x19
 3780 0246 00       		.byte	0
 3781 0247 00       		.byte	0
 3782 0248 2D       		.uleb128 0x2d
 3783 0249 34       		.uleb128 0x34
 3784 024a 00       		.byte	0
 3785 024b 03       		.uleb128 0x3
 3786 024c 0E       		.uleb128 0xe
 3787 024d 3A       		.uleb128 0x3a
 3788 024e 0B       		.uleb128 0xb
 3789 024f 3B       		.uleb128 0x3b
 3790 0250 0B       		.uleb128 0xb
 3791 0251 49       		.uleb128 0x49
 3792 0252 13       		.uleb128 0x13
ARM GAS  C:\Users\bryan.lee\AppData\Local\Temp\ccDqoJhc.s 			page 93


 3793 0253 3F       		.uleb128 0x3f
 3794 0254 19       		.uleb128 0x19
 3795 0255 3C       		.uleb128 0x3c
 3796 0256 19       		.uleb128 0x19
 3797 0257 00       		.byte	0
 3798 0258 00       		.byte	0
 3799 0259 2E       		.uleb128 0x2e
 3800 025a 2E       		.uleb128 0x2e
 3801 025b 00       		.byte	0
 3802 025c 3F       		.uleb128 0x3f
 3803 025d 19       		.uleb128 0x19
 3804 025e 3C       		.uleb128 0x3c
 3805 025f 19       		.uleb128 0x19
 3806 0260 6E       		.uleb128 0x6e
 3807 0261 0E       		.uleb128 0xe
 3808 0262 03       		.uleb128 0x3
 3809 0263 0E       		.uleb128 0xe
 3810 0264 3A       		.uleb128 0x3a
 3811 0265 0B       		.uleb128 0xb
 3812 0266 3B       		.uleb128 0x3b
 3813 0267 0B       		.uleb128 0xb
 3814 0268 00       		.byte	0
 3815 0269 00       		.byte	0
 3816 026a 2F       		.uleb128 0x2f
 3817 026b 2E       		.uleb128 0x2e
 3818 026c 00       		.byte	0
 3819 026d 3F       		.uleb128 0x3f
 3820 026e 19       		.uleb128 0x19
 3821 026f 3C       		.uleb128 0x3c
 3822 0270 19       		.uleb128 0x19
 3823 0271 6E       		.uleb128 0x6e
 3824 0272 0E       		.uleb128 0xe
 3825 0273 03       		.uleb128 0x3
 3826 0274 0E       		.uleb128 0xe
 3827 0275 3A       		.uleb128 0x3a
 3828 0276 0B       		.uleb128 0xb
 3829 0277 3B       		.uleb128 0x3b
 3830 0278 05       		.uleb128 0x5
 3831 0279 00       		.byte	0
 3832 027a 00       		.byte	0
 3833 027b 30       		.uleb128 0x30
 3834 027c 2E       		.uleb128 0x2e
 3835 027d 00       		.byte	0
 3836 027e 3F       		.uleb128 0x3f
 3837 027f 19       		.uleb128 0x19
 3838 0280 3C       		.uleb128 0x3c
 3839 0281 19       		.uleb128 0x19
 3840 0282 6E       		.uleb128 0x6e
 3841 0283 0E       		.uleb128 0xe
 3842 0284 03       		.uleb128 0x3
 3843 0285 0E       		.uleb128 0xe
 3844 0286 00       		.byte	0
 3845 0287 00       		.byte	0
 3846 0288 00       		.byte	0
 3847              		.section	.debug_loc,"",%progbits
 3848              	.Ldebug_loc0:
 3849              	.LLST0:
ARM GAS  C:\Users\bryan.lee\AppData\Local\Temp\ccDqoJhc.s 			page 94


 3850 0000 00000000 		.4byte	.LVL2
 3851 0004 0C000000 		.4byte	.LVL4
 3852 0008 0100     		.2byte	0x1
 3853 000a 50       		.byte	0x50
 3854 000b 0C000000 		.4byte	.LVL4
 3855 000f 86000000 		.4byte	.LVL14
 3856 0013 0100     		.2byte	0x1
 3857 0015 54       		.byte	0x54
 3858 0016 86000000 		.4byte	.LVL14
 3859 001a AC000000 		.4byte	.LFE4
 3860 001e 0400     		.2byte	0x4
 3861 0020 F3       		.byte	0xf3
 3862 0021 01       		.uleb128 0x1
 3863 0022 50       		.byte	0x50
 3864 0023 9F       		.byte	0x9f
 3865 0024 00000000 		.4byte	0
 3866 0028 00000000 		.4byte	0
 3867              	.LLST1:
 3868 002c 06000000 		.4byte	.LVL3
 3869 0030 4E000000 		.4byte	.LVL7
 3870 0034 0200     		.2byte	0x2
 3871 0036 30       		.byte	0x30
 3872 0037 9F       		.byte	0x9f
 3873 0038 4E000000 		.4byte	.LVL7
 3874 003c 68000000 		.4byte	.LVL8
 3875 0040 0100     		.2byte	0x1
 3876 0042 50       		.byte	0x50
 3877 0043 6C000000 		.4byte	.LVL9
 3878 0047 7C000000 		.4byte	.LVL10
 3879 004b 0100     		.2byte	0x1
 3880 004d 50       		.byte	0x50
 3881 004e 80000000 		.4byte	.LVL11
 3882 0052 82000000 		.4byte	.LVL12
 3883 0056 0100     		.2byte	0x1
 3884 0058 50       		.byte	0x50
 3885 0059 82000000 		.4byte	.LVL12
 3886 005d 84000000 		.4byte	.LVL13
 3887 0061 0200     		.2byte	0x2
 3888 0063 30       		.byte	0x30
 3889 0064 9F       		.byte	0x9f
 3890 0065 84000000 		.4byte	.LVL13
 3891 0069 AC000000 		.4byte	.LFE4
 3892 006d 0100     		.2byte	0x1
 3893 006f 50       		.byte	0x50
 3894 0070 00000000 		.4byte	0
 3895 0074 00000000 		.4byte	0
 3896              	.LLST2:
 3897 0078 00000000 		.4byte	.LVL16
 3898 007c 11000000 		.4byte	.LVL18-1
 3899 0080 0100     		.2byte	0x1
 3900 0082 50       		.byte	0x50
 3901 0083 11000000 		.4byte	.LVL18-1
 3902 0087 26000000 		.4byte	.LVL19
 3903 008b 0400     		.2byte	0x4
 3904 008d F3       		.byte	0xf3
 3905 008e 01       		.uleb128 0x1
 3906 008f 50       		.byte	0x50
ARM GAS  C:\Users\bryan.lee\AppData\Local\Temp\ccDqoJhc.s 			page 95


 3907 0090 9F       		.byte	0x9f
 3908 0091 26000000 		.4byte	.LVL19
 3909 0095 28000000 		.4byte	.LVL20
 3910 0099 0100     		.2byte	0x1
 3911 009b 50       		.byte	0x50
 3912 009c 28000000 		.4byte	.LVL20
 3913 00a0 04010000 		.4byte	.LFE6
 3914 00a4 0400     		.2byte	0x4
 3915 00a6 F3       		.byte	0xf3
 3916 00a7 01       		.uleb128 0x1
 3917 00a8 50       		.byte	0x50
 3918 00a9 9F       		.byte	0x9f
 3919 00aa 00000000 		.4byte	0
 3920 00ae 00000000 		.4byte	0
 3921              	.LLST3:
 3922 00b2 06000000 		.4byte	.LVL17
 3923 00b6 12000000 		.4byte	.LVL18
 3924 00ba 0200     		.2byte	0x2
 3925 00bc 30       		.byte	0x30
 3926 00bd 9F       		.byte	0x9f
 3927 00be 12000000 		.4byte	.LVL18
 3928 00c2 26000000 		.4byte	.LVL19
 3929 00c6 0100     		.2byte	0x1
 3930 00c8 50       		.byte	0x50
 3931 00c9 26000000 		.4byte	.LVL19
 3932 00cd 2A000000 		.4byte	.LVL21
 3933 00d1 0200     		.2byte	0x2
 3934 00d3 30       		.byte	0x30
 3935 00d4 9F       		.byte	0x9f
 3936 00d5 2A000000 		.4byte	.LVL21
 3937 00d9 5E000000 		.4byte	.LVL23
 3938 00dd 0100     		.2byte	0x1
 3939 00df 50       		.byte	0x50
 3940 00e0 62000000 		.4byte	.LVL24
 3941 00e4 8C000000 		.4byte	.LVL26
 3942 00e8 0100     		.2byte	0x1
 3943 00ea 50       		.byte	0x50
 3944 00eb 9C000000 		.4byte	.LVL28
 3945 00ef B2000000 		.4byte	.LVL29
 3946 00f3 0100     		.2byte	0x1
 3947 00f5 50       		.byte	0x50
 3948 00f6 D8000000 		.4byte	.LVL31
 3949 00fa 04010000 		.4byte	.LFE6
 3950 00fe 0100     		.2byte	0x1
 3951 0100 50       		.byte	0x50
 3952 0101 00000000 		.4byte	0
 3953 0105 00000000 		.4byte	0
 3954              	.LLST4:
 3955 0109 00000000 		.4byte	.LVL33
 3956 010d 14000000 		.4byte	.LVL35
 3957 0111 0100     		.2byte	0x1
 3958 0113 50       		.byte	0x50
 3959 0114 14000000 		.4byte	.LVL35
 3960 0118 5C000000 		.4byte	.LVL42
 3961 011c 0100     		.2byte	0x1
 3962 011e 55       		.byte	0x55
 3963 011f 5C000000 		.4byte	.LVL42
ARM GAS  C:\Users\bryan.lee\AppData\Local\Temp\ccDqoJhc.s 			page 96


 3964 0123 5E000000 		.4byte	.LVL43
 3965 0127 0100     		.2byte	0x1
 3966 0129 50       		.byte	0x50
 3967 012a 5E000000 		.4byte	.LVL43
 3968 012e 60000000 		.4byte	.LVL44
 3969 0132 0100     		.2byte	0x1
 3970 0134 55       		.byte	0x55
 3971 0135 60000000 		.4byte	.LVL44
 3972 0139 6C000000 		.4byte	.LFE7
 3973 013d 0400     		.2byte	0x4
 3974 013f F3       		.byte	0xf3
 3975 0140 01       		.uleb128 0x1
 3976 0141 50       		.byte	0x50
 3977 0142 9F       		.byte	0x9f
 3978 0143 00000000 		.4byte	0
 3979 0147 00000000 		.4byte	0
 3980              	.LLST5:
 3981 014b 06000000 		.4byte	.LVL34
 3982 014f 3A000000 		.4byte	.LVL38
 3983 0153 0200     		.2byte	0x2
 3984 0155 30       		.byte	0x30
 3985 0156 9F       		.byte	0x9f
 3986 0157 3A000000 		.4byte	.LVL38
 3987 015b 56000000 		.4byte	.LVL40
 3988 015f 0100     		.2byte	0x1
 3989 0161 50       		.byte	0x50
 3990 0162 5A000000 		.4byte	.LVL41
 3991 0166 5C000000 		.4byte	.LVL42
 3992 016a 0100     		.2byte	0x1
 3993 016c 50       		.byte	0x50
 3994 016d 5C000000 		.4byte	.LVL42
 3995 0171 5E000000 		.4byte	.LVL43
 3996 0175 0200     		.2byte	0x2
 3997 0177 30       		.byte	0x30
 3998 0178 9F       		.byte	0x9f
 3999 0179 5E000000 		.4byte	.LVL43
 4000 017d 6C000000 		.4byte	.LFE7
 4001 0181 0100     		.2byte	0x1
 4002 0183 50       		.byte	0x50
 4003 0184 00000000 		.4byte	0
 4004 0188 00000000 		.4byte	0
 4005              	.LLST6:
 4006 018c 00000000 		.4byte	.LVL45
 4007 0190 32000000 		.4byte	.LVL46
 4008 0194 0100     		.2byte	0x1
 4009 0196 50       		.byte	0x50
 4010 0197 32000000 		.4byte	.LVL46
 4011 019b 35000000 		.4byte	.LVL47-1
 4012 019f 0200     		.2byte	0x2
 4013 01a1 73       		.byte	0x73
 4014 01a2 00       		.sleb128 0
 4015 01a3 35000000 		.4byte	.LVL47-1
 4016 01a7 48000000 		.4byte	.LVL48
 4017 01ab 0400     		.2byte	0x4
 4018 01ad F3       		.byte	0xf3
 4019 01ae 01       		.uleb128 0x1
 4020 01af 50       		.byte	0x50
ARM GAS  C:\Users\bryan.lee\AppData\Local\Temp\ccDqoJhc.s 			page 97


 4021 01b0 9F       		.byte	0x9f
 4022 01b1 48000000 		.4byte	.LVL48
 4023 01b5 4A000000 		.4byte	.LVL49
 4024 01b9 0100     		.2byte	0x1
 4025 01bb 50       		.byte	0x50
 4026 01bc 4A000000 		.4byte	.LVL49
 4027 01c0 58000000 		.4byte	.LFE8
 4028 01c4 0400     		.2byte	0x4
 4029 01c6 F3       		.byte	0xf3
 4030 01c7 01       		.uleb128 0x1
 4031 01c8 50       		.byte	0x50
 4032 01c9 9F       		.byte	0x9f
 4033 01ca 00000000 		.4byte	0
 4034 01ce 00000000 		.4byte	0
 4035              	.LLST7:
 4036 01d2 36000000 		.4byte	.LVL47
 4037 01d6 48000000 		.4byte	.LVL48
 4038 01da 0100     		.2byte	0x1
 4039 01dc 50       		.byte	0x50
 4040 01dd 4A000000 		.4byte	.LVL49
 4041 01e1 58000000 		.4byte	.LFE8
 4042 01e5 0100     		.2byte	0x1
 4043 01e7 50       		.byte	0x50
 4044 01e8 00000000 		.4byte	0
 4045 01ec 00000000 		.4byte	0
 4046              	.LLST8:
 4047 01f0 00000000 		.4byte	.LVL51
 4048 01f4 26000000 		.4byte	.LVL56
 4049 01f8 0100     		.2byte	0x1
 4050 01fa 50       		.byte	0x50
 4051 01fb 26000000 		.4byte	.LVL56
 4052 01ff 44000000 		.4byte	.LVL61
 4053 0203 0400     		.2byte	0x4
 4054 0205 F3       		.byte	0xf3
 4055 0206 01       		.uleb128 0x1
 4056 0207 50       		.byte	0x50
 4057 0208 9F       		.byte	0x9f
 4058 0209 44000000 		.4byte	.LVL61
 4059 020d 4C000000 		.4byte	.LVL62
 4060 0211 0100     		.2byte	0x1
 4061 0213 50       		.byte	0x50
 4062 0214 4C000000 		.4byte	.LVL62
 4063 0218 5C000000 		.4byte	.LFE10
 4064 021c 0400     		.2byte	0x4
 4065 021e F3       		.byte	0xf3
 4066 021f 01       		.uleb128 0x1
 4067 0220 50       		.byte	0x50
 4068 0221 9F       		.byte	0x9f
 4069 0222 00000000 		.4byte	0
 4070 0226 00000000 		.4byte	0
 4071              	.LLST9:
 4072 022a 2E000000 		.4byte	.LVL58
 4073 022e 3A000000 		.4byte	.LVL59
 4074 0232 0100     		.2byte	0x1
 4075 0234 50       		.byte	0x50
 4076 0235 3A000000 		.4byte	.LVL59
 4077 0239 44000000 		.4byte	.LVL61
ARM GAS  C:\Users\bryan.lee\AppData\Local\Temp\ccDqoJhc.s 			page 98


 4078 023d 0100     		.2byte	0x1
 4079 023f 54       		.byte	0x54
 4080 0240 4C000000 		.4byte	.LVL62
 4081 0244 4E000000 		.4byte	.LVL63
 4082 0248 0100     		.2byte	0x1
 4083 024a 54       		.byte	0x54
 4084 024b 00000000 		.4byte	0
 4085 024f 00000000 		.4byte	0
 4086              	.LLST10:
 4087 0253 12000000 		.4byte	.LVL52
 4088 0257 1C000000 		.4byte	.LVL53
 4089 025b 0100     		.2byte	0x1
 4090 025d 53       		.byte	0x53
 4091 025e 1E000000 		.4byte	.LVL54
 4092 0262 24000000 		.4byte	.LVL55
 4093 0266 0100     		.2byte	0x1
 4094 0268 53       		.byte	0x53
 4095 0269 00000000 		.4byte	0
 4096 026d 00000000 		.4byte	0
 4097              	.LLST11:
 4098 0271 10000000 		.4byte	.LVL65
 4099 0275 1B000000 		.4byte	.LVL66-1
 4100 0279 0100     		.2byte	0x1
 4101 027b 50       		.byte	0x50
 4102 027c 1B000000 		.4byte	.LVL66-1
 4103 0280 28000000 		.4byte	.LVL67
 4104 0284 0100     		.2byte	0x1
 4105 0286 54       		.byte	0x54
 4106 0287 2C000000 		.4byte	.LVL68
 4107 028b 2E000000 		.4byte	.LVL69
 4108 028f 0100     		.2byte	0x1
 4109 0291 54       		.byte	0x54
 4110 0292 00000000 		.4byte	0
 4111 0296 00000000 		.4byte	0
 4112              	.LLST12:
 4113 029a 00000000 		.4byte	.LVL70
 4114 029e 42000000 		.4byte	.LVL78
 4115 02a2 0100     		.2byte	0x1
 4116 02a4 50       		.byte	0x50
 4117 02a5 42000000 		.4byte	.LVL78
 4118 02a9 44000000 		.4byte	.LVL79
 4119 02ad 0400     		.2byte	0x4
 4120 02af F3       		.byte	0xf3
 4121 02b0 01       		.uleb128 0x1
 4122 02b1 50       		.byte	0x50
 4123 02b2 9F       		.byte	0x9f
 4124 02b3 44000000 		.4byte	.LVL79
 4125 02b7 46000000 		.4byte	.LVL80
 4126 02bb 0100     		.2byte	0x1
 4127 02bd 50       		.byte	0x50
 4128 02be 46000000 		.4byte	.LVL80
 4129 02c2 48000000 		.4byte	.LVL81
 4130 02c6 0400     		.2byte	0x4
 4131 02c8 F3       		.byte	0xf3
 4132 02c9 01       		.uleb128 0x1
 4133 02ca 50       		.byte	0x50
 4134 02cb 9F       		.byte	0x9f
ARM GAS  C:\Users\bryan.lee\AppData\Local\Temp\ccDqoJhc.s 			page 99


 4135 02cc 48000000 		.4byte	.LVL81
 4136 02d0 4A000000 		.4byte	.LVL82
 4137 02d4 0100     		.2byte	0x1
 4138 02d6 50       		.byte	0x50
 4139 02d7 4A000000 		.4byte	.LVL82
 4140 02db 54000000 		.4byte	.LFE12
 4141 02df 0400     		.2byte	0x4
 4142 02e1 F3       		.byte	0xf3
 4143 02e2 01       		.uleb128 0x1
 4144 02e3 50       		.byte	0x50
 4145 02e4 9F       		.byte	0x9f
 4146 02e5 00000000 		.4byte	0
 4147 02e9 00000000 		.4byte	0
 4148              	.LLST13:
 4149 02ed 02000000 		.4byte	.LVL71
 4150 02f1 4A000000 		.4byte	.LVL82
 4151 02f5 0200     		.2byte	0x2
 4152 02f7 30       		.byte	0x30
 4153 02f8 9F       		.byte	0x9f
 4154 02f9 4A000000 		.4byte	.LVL82
 4155 02fd 54000000 		.4byte	.LFE12
 4156 0301 0100     		.2byte	0x1
 4157 0303 50       		.byte	0x50
 4158 0304 00000000 		.4byte	0
 4159 0308 00000000 		.4byte	0
 4160              	.LLST14:
 4161 030c 22000000 		.4byte	.LVL73
 4162 0310 26000000 		.4byte	.LVL74
 4163 0314 0200     		.2byte	0x2
 4164 0316 30       		.byte	0x30
 4165 0317 9F       		.byte	0x9f
 4166 0318 26000000 		.4byte	.LVL74
 4167 031c 2A000000 		.4byte	.LVL75
 4168 0320 0100     		.2byte	0x1
 4169 0322 53       		.byte	0x53
 4170 0323 2C000000 		.4byte	.LVL76
 4171 0327 3C000000 		.4byte	.LVL77
 4172 032b 0100     		.2byte	0x1
 4173 032d 53       		.byte	0x53
 4174 032e 48000000 		.4byte	.LVL81
 4175 0332 4A000000 		.4byte	.LVL82
 4176 0336 0100     		.2byte	0x1
 4177 0338 53       		.byte	0x53
 4178 0339 00000000 		.4byte	0
 4179 033d 00000000 		.4byte	0
 4180              	.LLST15:
 4181 0341 1A000000 		.4byte	.LVL72
 4182 0345 44000000 		.4byte	.LVL79
 4183 0349 0100     		.2byte	0x1
 4184 034b 54       		.byte	0x54
 4185 034c 48000000 		.4byte	.LVL81
 4186 0350 4A000000 		.4byte	.LVL82
 4187 0354 0100     		.2byte	0x1
 4188 0356 54       		.byte	0x54
 4189 0357 00000000 		.4byte	0
 4190 035b 00000000 		.4byte	0
 4191              	.LLST16:
ARM GAS  C:\Users\bryan.lee\AppData\Local\Temp\ccDqoJhc.s 			page 100


 4192 035f 22000000 		.4byte	.LVL73
 4193 0363 44000000 		.4byte	.LVL79
 4194 0367 0100     		.2byte	0x1
 4195 0369 51       		.byte	0x51
 4196 036a 48000000 		.4byte	.LVL81
 4197 036e 4A000000 		.4byte	.LVL82
 4198 0372 0100     		.2byte	0x1
 4199 0374 51       		.byte	0x51
 4200 0375 00000000 		.4byte	0
 4201 0379 00000000 		.4byte	0
 4202              	.LLST17:
 4203 037d 00000000 		.4byte	.LVL83
 4204 0381 38000000 		.4byte	.LVL91
 4205 0385 0100     		.2byte	0x1
 4206 0387 50       		.byte	0x50
 4207 0388 38000000 		.4byte	.LVL91
 4208 038c 3A000000 		.4byte	.LVL92
 4209 0390 0400     		.2byte	0x4
 4210 0392 F3       		.byte	0xf3
 4211 0393 01       		.uleb128 0x1
 4212 0394 50       		.byte	0x50
 4213 0395 9F       		.byte	0x9f
 4214 0396 3A000000 		.4byte	.LVL92
 4215 039a 3C000000 		.4byte	.LVL93
 4216 039e 0100     		.2byte	0x1
 4217 03a0 50       		.byte	0x50
 4218 03a1 3C000000 		.4byte	.LVL93
 4219 03a5 48000000 		.4byte	.LFE13
 4220 03a9 0400     		.2byte	0x4
 4221 03ab F3       		.byte	0xf3
 4222 03ac 01       		.uleb128 0x1
 4223 03ad 50       		.byte	0x50
 4224 03ae 9F       		.byte	0x9f
 4225 03af 00000000 		.4byte	0
 4226 03b3 00000000 		.4byte	0
 4227              	.LLST18:
 4228 03b7 02000000 		.4byte	.LVL84
 4229 03bb 3C000000 		.4byte	.LVL93
 4230 03bf 0200     		.2byte	0x2
 4231 03c1 30       		.byte	0x30
 4232 03c2 9F       		.byte	0x9f
 4233 03c3 3C000000 		.4byte	.LVL93
 4234 03c7 48000000 		.4byte	.LFE13
 4235 03cb 0100     		.2byte	0x1
 4236 03cd 50       		.byte	0x50
 4237 03ce 00000000 		.4byte	0
 4238 03d2 00000000 		.4byte	0
 4239              	.LLST19:
 4240 03d6 1C000000 		.4byte	.LVL86
 4241 03da 3A000000 		.4byte	.LVL92
 4242 03de 0100     		.2byte	0x1
 4243 03e0 51       		.byte	0x51
 4244 03e1 00000000 		.4byte	0
 4245 03e5 00000000 		.4byte	0
 4246              	.LLST20:
 4247 03e9 1C000000 		.4byte	.LVL86
 4248 03ed 20000000 		.4byte	.LVL87
ARM GAS  C:\Users\bryan.lee\AppData\Local\Temp\ccDqoJhc.s 			page 101


 4249 03f1 0200     		.2byte	0x2
 4250 03f3 30       		.byte	0x30
 4251 03f4 9F       		.byte	0x9f
 4252 03f5 20000000 		.4byte	.LVL87
 4253 03f9 24000000 		.4byte	.LVL88
 4254 03fd 0100     		.2byte	0x1
 4255 03ff 53       		.byte	0x53
 4256 0400 26000000 		.4byte	.LVL89
 4257 0404 32000000 		.4byte	.LVL90
 4258 0408 0100     		.2byte	0x1
 4259 040a 53       		.byte	0x53
 4260 040b 00000000 		.4byte	0
 4261 040f 00000000 		.4byte	0
 4262              	.LLST21:
 4263 0413 1A000000 		.4byte	.LVL85
 4264 0417 3A000000 		.4byte	.LVL92
 4265 041b 0100     		.2byte	0x1
 4266 041d 54       		.byte	0x54
 4267 041e 00000000 		.4byte	0
 4268 0422 00000000 		.4byte	0
 4269              	.LLST22:
 4270 0426 00000000 		.4byte	.LVL94
 4271 042a 04000000 		.4byte	.LVL95
 4272 042e 0100     		.2byte	0x1
 4273 0430 50       		.byte	0x50
 4274 0431 04000000 		.4byte	.LVL95
 4275 0435 0A000000 		.4byte	.LFE14
 4276 0439 0400     		.2byte	0x4
 4277 043b F3       		.byte	0xf3
 4278 043c 01       		.uleb128 0x1
 4279 043d 50       		.byte	0x50
 4280 043e 9F       		.byte	0x9f
 4281 043f 00000000 		.4byte	0
 4282 0443 00000000 		.4byte	0
 4283              	.LLST23:
 4284 0447 00000000 		.4byte	.LVL96
 4285 044b 04000000 		.4byte	.LVL97
 4286 044f 0100     		.2byte	0x1
 4287 0451 51       		.byte	0x51
 4288 0452 04000000 		.4byte	.LVL97
 4289 0456 08000000 		.4byte	.LFE15
 4290 045a 0400     		.2byte	0x4
 4291 045c F3       		.byte	0xf3
 4292 045d 01       		.uleb128 0x1
 4293 045e 51       		.byte	0x51
 4294 045f 9F       		.byte	0x9f
 4295 0460 00000000 		.4byte	0
 4296 0464 00000000 		.4byte	0
 4297              		.section	.debug_aranges,"",%progbits
 4298 0000 84000000 		.4byte	0x84
 4299 0004 0200     		.2byte	0x2
 4300 0006 00000000 		.4byte	.Ldebug_info0
 4301 000a 04       		.byte	0x4
 4302 000b 00       		.byte	0
 4303 000c 0000     		.2byte	0
 4304 000e 0000     		.2byte	0
 4305 0010 00000000 		.4byte	.LFB3
ARM GAS  C:\Users\bryan.lee\AppData\Local\Temp\ccDqoJhc.s 			page 102


 4306 0014 08000000 		.4byte	.LFE3-.LFB3
 4307 0018 00000000 		.4byte	.LFB2
 4308 001c 70000000 		.4byte	.LFE2-.LFB2
 4309 0020 00000000 		.4byte	.LFB4
 4310 0024 AC000000 		.4byte	.LFE4-.LFB4
 4311 0028 00000000 		.4byte	.LFB5
 4312 002c 14000000 		.4byte	.LFE5-.LFB5
 4313 0030 00000000 		.4byte	.LFB6
 4314 0034 04010000 		.4byte	.LFE6-.LFB6
 4315 0038 00000000 		.4byte	.LFB7
 4316 003c 6C000000 		.4byte	.LFE7-.LFB7
 4317 0040 00000000 		.4byte	.LFB8
 4318 0044 58000000 		.4byte	.LFE8-.LFB8
 4319 0048 00000000 		.4byte	.LFB9
 4320 004c 18000000 		.4byte	.LFE9-.LFB9
 4321 0050 00000000 		.4byte	.LFB10
 4322 0054 5C000000 		.4byte	.LFE10-.LFB10
 4323 0058 00000000 		.4byte	.LFB11
 4324 005c 38000000 		.4byte	.LFE11-.LFB11
 4325 0060 00000000 		.4byte	.LFB12
 4326 0064 54000000 		.4byte	.LFE12-.LFB12
 4327 0068 00000000 		.4byte	.LFB13
 4328 006c 48000000 		.4byte	.LFE13-.LFB13
 4329 0070 00000000 		.4byte	.LFB14
 4330 0074 0A000000 		.4byte	.LFE14-.LFB14
 4331 0078 00000000 		.4byte	.LFB15
 4332 007c 08000000 		.4byte	.LFE15-.LFB15
 4333 0080 00000000 		.4byte	0
 4334 0084 00000000 		.4byte	0
 4335              		.section	.debug_ranges,"",%progbits
 4336              	.Ldebug_ranges0:
 4337 0000 00000000 		.4byte	.LFB3
 4338 0004 08000000 		.4byte	.LFE3
 4339 0008 00000000 		.4byte	.LFB2
 4340 000c 70000000 		.4byte	.LFE2
 4341 0010 00000000 		.4byte	.LFB4
 4342 0014 AC000000 		.4byte	.LFE4
 4343 0018 00000000 		.4byte	.LFB5
 4344 001c 14000000 		.4byte	.LFE5
 4345 0020 00000000 		.4byte	.LFB6
 4346 0024 04010000 		.4byte	.LFE6
 4347 0028 00000000 		.4byte	.LFB7
 4348 002c 6C000000 		.4byte	.LFE7
 4349 0030 00000000 		.4byte	.LFB8
 4350 0034 58000000 		.4byte	.LFE8
 4351 0038 00000000 		.4byte	.LFB9
 4352 003c 18000000 		.4byte	.LFE9
 4353 0040 00000000 		.4byte	.LFB10
 4354 0044 5C000000 		.4byte	.LFE10
 4355 0048 00000000 		.4byte	.LFB11
 4356 004c 38000000 		.4byte	.LFE11
 4357 0050 00000000 		.4byte	.LFB12
 4358 0054 54000000 		.4byte	.LFE12
 4359 0058 00000000 		.4byte	.LFB13
 4360 005c 48000000 		.4byte	.LFE13
 4361 0060 00000000 		.4byte	.LFB14
 4362 0064 0A000000 		.4byte	.LFE14
ARM GAS  C:\Users\bryan.lee\AppData\Local\Temp\ccDqoJhc.s 			page 103


 4363 0068 00000000 		.4byte	.LFB15
 4364 006c 08000000 		.4byte	.LFE15
 4365 0070 00000000 		.4byte	0
 4366 0074 00000000 		.4byte	0
 4367              		.section	.debug_line,"",%progbits
 4368              	.Ldebug_line0:
 4369 0000 46030000 		.section	.debug_str,"MS",%progbits,1
 4369      02004E01 
 4369      00000201 
 4369      FB0E0D00 
 4369      01010101 
 4370              	.LASF248:
 4371 0000 6379426C 		.ascii	"cyBle_peerBonding\000"
 4371      655F7065 
 4371      6572426F 
 4371      6E64696E 
 4371      6700
 4372              	.LASF227:
 4373 0012 4379426C 		.ascii	"CyBle_GapcConnectDevice\000"
 4373      655F4761 
 4373      7063436F 
 4373      6E6E6563 
 4373      74446576 
 4374              	.LASF17:
 4375 002a 73697A65 		.ascii	"sizetype\000"
 4375      74797065 
 4375      00
 4376              	.LASF38:
 4377 0033 4359424C 		.ascii	"CYBLE_EVT_GAP_NUMERIC_COMPARISON_REQUEST\000"
 4377      455F4556 
 4377      545F4741 
 4377      505F4E55 
 4377      4D455249 
 4378              	.LASF270:
 4379 005c 4379426C 		.ascii	"CyBle_GapcStopDiscovery\000"
 4379      655F4761 
 4379      70635374 
 4379      6F704469 
 4379      73636F76 
 4380              	.LASF209:
 4381 0074 61706952 		.ascii	"apiResult\000"
 4381      6573756C 
 4381      7400
 4382              	.LASF32:
 4383 007e 4359424C 		.ascii	"CYBLE_EVT_GAP_DEVICE_CONNECTED\000"
 4383      455F4556 
 4383      545F4741 
 4383      505F4445 
 4383      56494345 
 4384              	.LASF50:
 4385 009d 4359424C 		.ascii	"CYBLE_EVT_GATT_CONNECT_IND\000"
 4385      455F4556 
 4385      545F4741 
 4385      54545F43 
 4385      4F4E4E45 
 4386              	.LASF11:
 4387 00b8 75696E74 		.ascii	"uint32\000"
ARM GAS  C:\Users\bryan.lee\AppData\Local\Temp\ccDqoJhc.s 			page 104


 4387      333200
 4388              	.LASF185:
 4389 00bf 4359424C 		.ascii	"CYBLE_ANS_SUPPORTED_NEW_ALERT_CAT\000"
 4389      455F414E 
 4389      535F5355 
 4389      50504F52 
 4389      5445445F 
 4390              	.LASF106:
 4391 00e1 4359424C 		.ascii	"CYBLE_ERROR_L2CAP_CONNECTION_ENTITY_NOT_FOUND\000"
 4391      455F4552 
 4391      524F525F 
 4391      4C324341 
 4391      505F434F 
 4392              	.LASF112:
 4393 010f 4359424C 		.ascii	"CYBLE_ERROR_MIC_AUTH_FAILED\000"
 4393      455F4552 
 4393      524F525F 
 4393      4D49435F 
 4393      41555448 
 4394              	.LASF267:
 4395 012b 4379426C 		.ascii	"CyBle_GapGetPeerBdHandle\000"
 4395      655F4761 
 4395      70476574 
 4395      50656572 
 4395      42644861 
 4396              	.LASF14:
 4397 0144 63686172 		.ascii	"char8\000"
 4397      3800
 4398              	.LASF82:
 4399 014a 4359424C 		.ascii	"CYBLE_EVT_L2CAP_CBFC_RX_CREDIT_IND\000"
 4399      455F4556 
 4399      545F4C32 
 4399      4341505F 
 4399      43424643 
 4400              	.LASF275:
 4401 016d 474E5520 		.ascii	"GNU C11 5.4.1 20160609 (release) [ARM/embedded-5-br"
 4401      43313120 
 4401      352E342E 
 4401      31203230 
 4401      31363036 
 4402 01a0 616E6368 		.ascii	"anch revision 237715] -mcpu=cortex-m0 -mthumb -g -O"
 4402      20726576 
 4402      6973696F 
 4402      6E203233 
 4402      37373135 
 4403 01d3 67202D66 		.ascii	"g -ffunction-sections -ffat-lto-objects\000"
 4403      66756E63 
 4403      74696F6E 
 4403      2D736563 
 4403      74696F6E 
 4404              	.LASF222:
 4405 01fb 62446576 		.ascii	"bDevHandle\000"
 4405      48616E64 
 4405      6C6500
 4406              	.LASF272:
 4407 0206 4379426C 		.ascii	"CyBle_StartTimer\000"
 4407      655F5374 
ARM GAS  C:\Users\bryan.lee\AppData\Local\Temp\ccDqoJhc.s 			page 105


 4407      61727454 
 4407      696D6572 
 4407      00
 4408              	.LASF175:
 4409 0217 7065726D 		.ascii	"permission\000"
 4409      69737369 
 4409      6F6E00
 4410              	.LASF126:
 4411 0222 74797065 		.ascii	"type\000"
 4411      00
 4412              	.LASF225:
 4413 0227 7363616E 		.ascii	"scanningIntervalType\000"
 4413      6E696E67 
 4413      496E7465 
 4413      7276616C 
 4413      54797065 
 4414              	.LASF179:
 4415 023c 4359424C 		.ascii	"CYBLE_CALLBACK_T\000"
 4415      455F4341 
 4415      4C4C4241 
 4415      434B5F54 
 4415      00
 4416              	.LASF256:
 4417 024d 6379426C 		.ascii	"cyBle_scanningIntervalType\000"
 4417      655F7363 
 4417      616E6E69 
 4417      6E67496E 
 4417      74657276 
 4418              	.LASF67:
 4419 0268 4359424C 		.ascii	"CYBLE_EVT_GATTC_HANDLE_VALUE_NTF\000"
 4419      455F4556 
 4419      545F4741 
 4419      5454435F 
 4419      48414E44 
 4420              	.LASF26:
 4421 0289 4359424C 		.ascii	"CYBLE_EVT_GAP_AUTH_REQ\000"
 4421      455F4556 
 4421      545F4741 
 4421      505F4155 
 4421      54485F52 
 4422              	.LASF163:
 4423 02a0 4359424C 		.ascii	"CYBLE_CONN_HANDLE_T\000"
 4423      455F434F 
 4423      4E4E5F48 
 4423      414E444C 
 4423      455F5400 
 4424              	.LASF218:
 4425 02b4 63616C6C 		.ascii	"callbackFunc\000"
 4425      6261636B 
 4425      46756E63 
 4425      00
 4426              	.LASF101:
 4427 02c1 4359424C 		.ascii	"CYBLE_ERROR_BT_ON_NOT_COMPLETED\000"
 4427      455F4552 
 4427      524F525F 
 4427      42545F4F 
 4427      4E5F4E4F 
ARM GAS  C:\Users\bryan.lee\AppData\Local\Temp\ccDqoJhc.s 			page 106


 4428              	.LASF226:
 4429 02e1 4379426C 		.ascii	"CyBle_GapcStopScan\000"
 4429      655F4761 
 4429      70635374 
 4429      6F705363 
 4429      616E00
 4430              	.LASF47:
 4431 02f4 4359424C 		.ascii	"CYBLE_EVT_GAP_AUTH_REQ_REPLY_ERR\000"
 4431      455F4556 
 4431      545F4741 
 4431      505F4155 
 4431      54485F52 
 4432              	.LASF40:
 4433 0315 4359424C 		.ascii	"CYBLE_EVT_GAP_OOB_GENERATED_NOTIFICATION\000"
 4433      455F4556 
 4433      545F4741 
 4433      505F4F4F 
 4433      425F4745 
 4434              	.LASF161:
 4435 033e 62644861 		.ascii	"bdHandle\000"
 4435      6E646C65 
 4435      00
 4436              	.LASF187:
 4437 0347 4359424C 		.ascii	"CYBLE_ANS_SUPPORTED_UNREAD_ALERT_CAT\000"
 4437      455F414E 
 4437      535F5355 
 4437      50504F52 
 4437      5445445F 
 4438              	.LASF134:
 4439 036c 4359424C 		.ascii	"CYBLE_DLE_CONFIG_PARAM_T\000"
 4439      455F444C 
 4439      455F434F 
 4439      4E464947 
 4439      5F504152 
 4440              	.LASF63:
 4441 0385 4359424C 		.ascii	"CYBLE_EVT_GATTS_WRITE_CMD_REQ\000"
 4441      455F4556 
 4441      545F4741 
 4441      5454535F 
 4441      57524954 
 4442              	.LASF83:
 4443 03a3 4359424C 		.ascii	"CYBLE_EVT_L2CAP_CBFC_TX_CREDIT_IND\000"
 4443      455F4556 
 4443      545F4C32 
 4443      4341505F 
 4443      43424643 
 4444              	.LASF4:
 4445 03c6 6C6F6E67 		.ascii	"long int\000"
 4445      20696E74 
 4445      00
 4446              	.LASF207:
 4447 03cf 4379426C 		.ascii	"CyBle_ServiceInit\000"
 4447      655F5365 
 4447      72766963 
 4447      65496E69 
 4447      7400
 4448              	.LASF130:
ARM GAS  C:\Users\bryan.lee\AppData\Local\Temp\ccDqoJhc.s 			page 107


 4449 03e1 4359424C 		.ascii	"CYBLE_STK_APP_DATA_BUFF_T\000"
 4449      455F5354 
 4449      4B5F4150 
 4449      505F4441 
 4449      54415F42 
 4450              	.LASF137:
 4451 03fb 646C6543 		.ascii	"dleConfig\000"
 4451      6F6E6669 
 4451      6700
 4452              	.LASF265:
 4453 0405 4379426C 		.ascii	"CyBle_StoreStackData\000"
 4453      655F5374 
 4453      6F726553 
 4453      7461636B 
 4453      44617461 
 4454              	.LASF213:
 4455 041a 73746163 		.ascii	"stackConfig\000"
 4455      6B436F6E 
 4455      66696700 
 4456              	.LASF19:
 4457 0426 4359424C 		.ascii	"CYBLE_EVT_STACK_ON\000"
 4457      455F4556 
 4457      545F5354 
 4457      41434B5F 
 4457      4F4E00
 4458              	.LASF108:
 4459 0439 4359424C 		.ascii	"CYBLE_ERROR_L2CAP_PSM_NOT_IN_RANGE\000"
 4459      455F4552 
 4459      524F525F 
 4459      4C324341 
 4459      505F5053 
 4460              	.LASF264:
 4461 045c 4379426C 		.ascii	"CyBle_StoreAppData\000"
 4461      655F5374 
 4461      6F726541 
 4461      70704461 
 4461      746100
 4462              	.LASF242:
 4463 046f 6379426C 		.ascii	"cyBle_deviceAddress\000"
 4463      655F6465 
 4463      76696365 
 4463      41646472 
 4463      65737300 
 4464              	.LASF142:
 4465 0483 7363616E 		.ascii	"scanType\000"
 4465      54797065 
 4465      00
 4466              	.LASF121:
 4467 048c 4359424C 		.ascii	"CYBLE_ERROR_CHAR_IS_NOT_DISCOVERED\000"
 4467      455F4552 
 4467      524F525F 
 4467      43484152 
 4467      5F49535F 
 4468              	.LASF153:
 4469 04af 636F6E6E 		.ascii	"connIntvMin\000"
 4469      496E7476 
 4469      4D696E00 
ARM GAS  C:\Users\bryan.lee\AppData\Local\Temp\ccDqoJhc.s 			page 108


 4470              	.LASF174:
 4471 04bb 61747454 		.ascii	"attType\000"
 4471      79706500 
 4472              	.LASF76:
 4473 04c3 4359424C 		.ascii	"CYBLE_EVT_L2CAP_COMMAND_REJ\000"
 4473      455F4556 
 4473      545F4C32 
 4473      4341505F 
 4473      434F4D4D 
 4474              	.LASF205:
 4475 04df 7270614F 		.ascii	"rpaOnlyCharHandle\000"
 4475      6E6C7943 
 4475      68617248 
 4475      616E646C 
 4475      6500
 4476              	.LASF109:
 4477 04f1 4359424C 		.ascii	"CYBLE_ERROR_GATT_DB_INVALID_ATTR_HANDLE\000"
 4477      455F4552 
 4477      524F525F 
 4477      47415454 
 4477      5F44425F 
 4478              	.LASF0:
 4479 0519 7369676E 		.ascii	"signed char\000"
 4479      65642063 
 4479      68617200 
 4480              	.LASF221:
 4481 0525 4379426C 		.ascii	"CyBle_GapRemoveBondedDevice\000"
 4481      655F4761 
 4481      7052656D 
 4481      6F766542 
 4481      6F6E6465 
 4482              	.LASF129:
 4483 0541 62756666 		.ascii	"bufferUnits\000"
 4483      6572556E 
 4483      69747300 
 4484              	.LASF21:
 4485 054d 4359424C 		.ascii	"CYBLE_EVT_HARDWARE_ERROR\000"
 4485      455F4556 
 4485      545F4841 
 4485      52445741 
 4485      52455F45 
 4486              	.LASF90:
 4487 0566 4359424C 		.ascii	"CYBLE_ERROR_OK\000"
 4487      455F4552 
 4487      524F525F 
 4487      4F4B00
 4488              	.LASF269:
 4489 0575 4379426C 		.ascii	"CyBle_GapcStartDiscovery\000"
 4489      655F4761 
 4489      70635374 
 4489      61727444 
 4489      6973636F 
 4490              	.LASF151:
 4491 058e 70656572 		.ascii	"peerBdAddr\000"
 4491      42644164 
 4491      647200
 4492              	.LASF54:
ARM GAS  C:\Users\bryan.lee\AppData\Local\Temp\ccDqoJhc.s 			page 109


 4493 0599 4359424C 		.ascii	"CYBLE_EVT_GATTC_READ_BY_GROUP_TYPE_RSP\000"
 4493      455F4556 
 4493      545F4741 
 4493      5454435F 
 4493      52454144 
 4494              	.LASF193:
 4495 05c0 4359424C 		.ascii	"CYBLE_STATE_STOPPED\000"
 4495      455F5354 
 4495      4154455F 
 4495      53544F50 
 4495      50454400 
 4496              	.LASF1:
 4497 05d4 756E7369 		.ascii	"unsigned char\000"
 4497      676E6564 
 4497      20636861 
 4497      7200
 4498              	.LASF53:
 4499 05e2 4359424C 		.ascii	"CYBLE_EVT_GATTC_XCHNG_MTU_RSP\000"
 4499      455F4556 
 4499      545F4741 
 4499      5454435F 
 4499      5843484E 
 4500              	.LASF44:
 4501 0600 4359424C 		.ascii	"CYBLE_EVT_GAP_SMP_NEGOTIATED_AUTH_INFO\000"
 4501      455F4556 
 4501      545F4741 
 4501      505F534D 
 4501      505F4E45 
 4502              	.LASF45:
 4503 0627 4359424C 		.ascii	"CYBLE_EVT_GAP_CONN_ESTB\000"
 4503      455F4556 
 4503      545F4741 
 4503      505F434F 
 4503      4E4E5F45 
 4504              	.LASF152:
 4505 063f 70656572 		.ascii	"peerAddrType\000"
 4505      41646472 
 4505      54797065 
 4505      00
 4506              	.LASF173:
 4507 064c 61747448 		.ascii	"attHandle\000"
 4507      616E646C 
 4507      6500
 4508              	.LASF80:
 4509 0656 4359424C 		.ascii	"CYBLE_EVT_L2CAP_CBFC_DISCONN_CNF\000"
 4509      455F4556 
 4509      545F4C32 
 4509      4341505F 
 4509      43424643 
 4510              	.LASF57:
 4511 0677 4359424C 		.ascii	"CYBLE_EVT_GATTC_FIND_BY_TYPE_VALUE_RSP\000"
 4511      455F4556 
 4511      545F4741 
 4511      5454435F 
 4511      46494E44 
 4512              	.LASF41:
 4513 069e 4359424C 		.ascii	"CYBLE_EVT_GAP_DATA_LENGTH_CHANGE\000"
ARM GAS  C:\Users\bryan.lee\AppData\Local\Temp\ccDqoJhc.s 			page 110


 4513      455F4556 
 4513      545F4741 
 4513      505F4441 
 4513      54415F4C 
 4514              	.LASF15:
 4515 06bf 63686172 		.ascii	"char\000"
 4515      00
 4516              	.LASF259:
 4517 06c4 4379426C 		.ascii	"CyBle_StackInit\000"
 4517      655F5374 
 4517      61636B49 
 4517      6E697400 
 4518              	.LASF167:
 4519 06d4 6D617841 		.ascii	"maxAttrLength\000"
 4519      7474724C 
 4519      656E6774 
 4519      6800
 4520              	.LASF60:
 4521 06e2 4359424C 		.ascii	"CYBLE_EVT_GATTC_READ_MULTI_RSP\000"
 4521      455F4556 
 4521      545F4741 
 4521      5454435F 
 4521      52454144 
 4522              	.LASF197:
 4523 0701 4359424C 		.ascii	"CYBLE_STATE_CONNECTING\000"
 4523      455F5354 
 4523      4154455F 
 4523      434F4E4E 
 4523      45435449 
 4524              	.LASF18:
 4525 0718 4359424C 		.ascii	"CYBLE_EVT_HOST_INVALID\000"
 4525      455F4556 
 4525      545F484F 
 4525      53545F49 
 4525      4E56414C 
 4526              	.LASF233:
 4527 072f 4379426C 		.ascii	"CyBle_GapGetLocalName\000"
 4527      655F4761 
 4527      70476574 
 4527      4C6F6361 
 4527      6C4E616D 
 4528              	.LASF43:
 4529 0745 4359424C 		.ascii	"CYBLE_EVT_GAPC_DIRECT_ADV_REPORT\000"
 4529      455F4556 
 4529      545F4741 
 4529      50435F44 
 4529      49524543 
 4530              	.LASF97:
 4531 0766 4359424C 		.ascii	"CYBLE_ERROR_NO_DEVICE_ENTITY\000"
 4531      455F4552 
 4531      524F525F 
 4531      4E4F5F44 
 4531      45564943 
 4532              	.LASF59:
 4533 0783 4359424C 		.ascii	"CYBLE_EVT_GATTC_READ_BLOB_RSP\000"
 4533      455F4556 
 4533      545F4741 
ARM GAS  C:\Users\bryan.lee\AppData\Local\Temp\ccDqoJhc.s 			page 111


 4533      5454435F 
 4533      52454144 
 4534              	.LASF66:
 4535 07a1 4359424C 		.ascii	"CYBLE_EVT_GATTC_EXEC_WRITE_RSP\000"
 4535      455F4556 
 4535      545F4741 
 4535      5454435F 
 4535      45584543 
 4536              	.LASF208:
 4537 07c0 4379426C 		.ascii	"CyBle_Init\000"
 4537      655F496E 
 4537      697400
 4538              	.LASF71:
 4539 07cb 4359424C 		.ascii	"CYBLE_EVT_GATTC_STOP_CMD_COMPLETE\000"
 4539      455F4556 
 4539      545F4741 
 4539      5454435F 
 4539      53544F50 
 4540              	.LASF178:
 4541 07ed 4359424C 		.ascii	"CYBLE_GATTS_DB_T\000"
 4541      455F4741 
 4541      5454535F 
 4541      44425F54 
 4541      00
 4542              	.LASF237:
 4543 07fe 6379426C 		.ascii	"cyBle_pendingFlashClearCccdHandle\000"
 4543      655F7065 
 4543      6E64696E 
 4543      67466C61 
 4543      7368436C 
 4544              	.LASF255:
 4545 0820 6379426C 		.ascii	"cyBle_gaps\000"
 4545      655F6761 
 4545      707300
 4546              	.LASF261:
 4547 082b 4379426C 		.ascii	"CyBle_Shutdown\000"
 4547      655F5368 
 4547      7574646F 
 4547      776E00
 4548              	.LASF117:
 4549 083a 4359424C 		.ascii	"CYBLE_ERROR_CONTROLLER_BUSY\000"
 4549      455F4552 
 4549      524F525F 
 4549      434F4E54 
 4549      524F4C4C 
 4550              	.LASF91:
 4551 0856 4359424C 		.ascii	"CYBLE_ERROR_INVALID_PARAMETER\000"
 4551      455F4552 
 4551      524F525F 
 4551      494E5641 
 4551      4C49445F 
 4552              	.LASF210:
 4553 0874 6379426C 		.ascii	"cyBle_stackDataBuff\000"
 4553      655F7374 
 4553      61636B44 
 4553      61746142 
 4553      75666600 
ARM GAS  C:\Users\bryan.lee\AppData\Local\Temp\ccDqoJhc.s 			page 112


 4554              	.LASF183:
 4555 0888 626F756E 		.ascii	"boundedDevCount\000"
 4555      64656444 
 4555      6576436F 
 4555      756E7400 
 4556              	.LASF214:
 4557 0898 66656174 		.ascii	"featureHeapReq\000"
 4557      75726548 
 4557      65617052 
 4557      657100
 4558              	.LASF274:
 4559 08a7 4379426C 		.ascii	"CyBle_StopTimer\000"
 4559      655F5374 
 4559      6F705469 
 4559      6D657200 
 4560              	.LASF93:
 4561 08b7 4359424C 		.ascii	"CYBLE_ERROR_MEMORY_ALLOCATION_FAILED\000"
 4561      455F4552 
 4561      524F525F 
 4561      4D454D4F 
 4561      52595F41 
 4562              	.LASF229:
 4563 08dc 4379426C 		.ascii	"CyBle_GapcCancelDeviceConnection\000"
 4563      655F4761 
 4563      70634361 
 4563      6E63656C 
 4563      44657669 
 4564              	.LASF243:
 4565 08fd 6379426C 		.ascii	"cyBle_sflashDeviceAddress\000"
 4565      655F7366 
 4565      6C617368 
 4565      44657669 
 4565      63654164 
 4566              	.LASF181:
 4567 0917 61747456 		.ascii	"attValuesCCCDFlashMemory\000"
 4567      616C7565 
 4567      73434343 
 4567      44466C61 
 4567      73684D65 
 4568              	.LASF245:
 4569 0930 6379426C 		.ascii	"cyBle_connectionParameters\000"
 4569      655F636F 
 4569      6E6E6563 
 4569      74696F6E 
 4569      50617261 
 4570              	.LASF118:
 4571 094b 4359424C 		.ascii	"CYBLE_ERROR_MAX\000"
 4571      455F4552 
 4571      524F525F 
 4571      4D415800 
 4572              	.LASF75:
 4573 095b 4359424C 		.ascii	"CYBLE_EVT_L2CAP_CONN_PARAM_UPDATE_RSP\000"
 4573      455F4556 
 4573      545F4C32 
 4573      4341505F 
 4573      434F4E4E 
 4574              	.LASF87:
ARM GAS  C:\Users\bryan.lee\AppData\Local\Temp\ccDqoJhc.s 			page 113


 4575 0981 4359424C 		.ascii	"CYBLE_EVT_HCI_PKT\000"
 4575      455F4556 
 4575      545F4843 
 4575      495F504B 
 4575      5400
 4576              	.LASF180:
 4577 0993 73746163 		.ascii	"stackFlashptr\000"
 4577      6B466C61 
 4577      73687074 
 4577      7200
 4578              	.LASF141:
 4579 09a1 64697363 		.ascii	"discProcedure\000"
 4579      50726F63 
 4579      65647572 
 4579      6500
 4580              	.LASF29:
 4581 09af 4359424C 		.ascii	"CYBLE_EVT_GAP_AUTH_COMPLETE\000"
 4581      455F4556 
 4581      545F4741 
 4581      505F4155 
 4581      54485F43 
 4582              	.LASF30:
 4583 09cb 4359424C 		.ascii	"CYBLE_EVT_GAP_AUTH_FAILED\000"
 4583      455F4556 
 4583      545F4741 
 4583      505F4155 
 4583      54485F46 
 4584              	.LASF123:
 4585 09e5 4359424C 		.ascii	"CYBLE_ERROR_STACK_BUSY\000"
 4585      455F4552 
 4585      524F525F 
 4585      53544143 
 4585      4B5F4255 
 4586              	.LASF258:
 4587 09fc 4379426C 		.ascii	"CyBle_StackSetFeatureConfig\000"
 4587      655F5374 
 4587      61636B53 
 4587      65744665 
 4587      61747572 
 4588              	.LASF94:
 4589 0a18 4359424C 		.ascii	"CYBLE_ERROR_INSUFFICIENT_RESOURCES\000"
 4589      455F4552 
 4589      524F525F 
 4589      494E5355 
 4589      46464943 
 4590              	.LASF5:
 4591 0a3b 6C6F6E67 		.ascii	"long unsigned int\000"
 4591      20756E73 
 4591      69676E65 
 4591      6420696E 
 4591      7400
 4592              	.LASF114:
 4593 0a4d 4359424C 		.ascii	"CYBLE_ERROR_UNSUPPORTED_FEATURE_OR_PARAMETER_VALUE\000"
 4593      455F4552 
 4593      524F525F 
 4593      554E5355 
 4593      50504F52 
ARM GAS  C:\Users\bryan.lee\AppData\Local\Temp\ccDqoJhc.s 			page 114


 4594              	.LASF228:
 4595 0a80 61646472 		.ascii	"address\000"
 4595      65737300 
 4596              	.LASF184:
 4597 0a88 43595F42 		.ascii	"CY_BLE_FLASH_STORAGE\000"
 4597      4C455F46 
 4597      4C415348 
 4597      5F53544F 
 4597      52414745 
 4598              	.LASF135:
 4599 0a9d 7265736F 		.ascii	"resolvingListSize\000"
 4599      6C76696E 
 4599      674C6973 
 4599      7453697A 
 4599      6500
 4600              	.LASF104:
 4601 0aaf 4359424C 		.ascii	"CYBLE_ERROR_L2CAP_PSM_ALREADY_REGISTERED\000"
 4601      455F4552 
 4601      524F525F 
 4601      4C324341 
 4601      505F5053 
 4602              	.LASF171:
 4603 0ad8 61747456 		.ascii	"attValueUuid\000"
 4603      616C7565 
 4603      55756964 
 4603      00
 4604              	.LASF35:
 4605 0ae5 4359424C 		.ascii	"CYBLE_EVT_GAP_CONNECTION_UPDATE_COMPLETE\000"
 4605      455F4556 
 4605      545F4741 
 4605      505F434F 
 4605      4E4E4543 
 4606              	.LASF254:
 4607 0b0e 6379426C 		.ascii	"cyBle_busyStatus\000"
 4607      655F6275 
 4607      73795374 
 4607      61747573 
 4607      00
 4608              	.LASF158:
 4609 0b1f 6D617843 		.ascii	"maxCeLength\000"
 4609      654C656E 
 4609      67746800 
 4610              	.LASF194:
 4611 0b2b 4359424C 		.ascii	"CYBLE_STATE_INITIALIZING\000"
 4611      455F5354 
 4611      4154455F 
 4611      494E4954 
 4611      49414C49 
 4612              	.LASF79:
 4613 0b44 4359424C 		.ascii	"CYBLE_EVT_L2CAP_CBFC_DISCONN_IND\000"
 4613      455F4556 
 4613      545F4C32 
 4613      4341505F 
 4613      43424643 
 4614              	.LASF215:
 4615 0b65 4379426C 		.ascii	"CyBle_Stop\000"
 4615      655F5374 
ARM GAS  C:\Users\bryan.lee\AppData\Local\Temp\ccDqoJhc.s 			page 115


 4615      6F7000
 4616              	.LASF27:
 4617 0b70 4359424C 		.ascii	"CYBLE_EVT_GAP_PASSKEY_ENTRY_REQUEST\000"
 4617      455F4556 
 4617      545F4741 
 4617      505F5041 
 4617      53534B45 
 4618              	.LASF140:
 4619 0b94 4359424C 		.ascii	"CYBLE_STACK_CONFIG_PARAM_T\000"
 4619      455F5354 
 4619      41434B5F 
 4619      434F4E46 
 4619      49475F50 
 4620              	.LASF131:
 4621 0baf 646C654D 		.ascii	"dleMaxTxCapability\000"
 4621      61785478 
 4621      43617061 
 4621      62696C69 
 4621      747900
 4622              	.LASF157:
 4623 0bc2 6D696E43 		.ascii	"minCeLength\000"
 4623      654C656E 
 4623      67746800 
 4624              	.LASF251:
 4625 0bce 6379426C 		.ascii	"cyBle_flashStorage\000"
 4625      655F666C 
 4625      61736853 
 4625      746F7261 
 4625      676500
 4626              	.LASF6:
 4627 0be1 6C6F6E67 		.ascii	"long long int\000"
 4627      206C6F6E 
 4627      6720696E 
 4627      7400
 4628              	.LASF105:
 4629 0bef 4359424C 		.ascii	"CYBLE_ERROR_L2CAP_PSM_NOT_REGISTERED\000"
 4629      455F4552 
 4629      524F525F 
 4629      4C324341 
 4629      505F5053 
 4630              	.LASF95:
 4631 0c14 4359424C 		.ascii	"CYBLE_ERROR_OOB_NOT_AVAILABLE\000"
 4631      455F4552 
 4631      524F525F 
 4631      4F4F425F 
 4631      4E4F545F 
 4632              	.LASF13:
 4633 0c32 646F7562 		.ascii	"double\000"
 4633      6C6500
 4634              	.LASF110:
 4635 0c39 4359424C 		.ascii	"CYBLE_ERROR_DEVICE_ALREADY_EXISTS\000"
 4635      455F4552 
 4635      524F525F 
 4635      44455649 
 4635      43455F41 
 4636              	.LASF85:
 4637 0c5b 4359424C 		.ascii	"CYBLE_EVT_PENDING_FLASH_WRITE\000"
ARM GAS  C:\Users\bryan.lee\AppData\Local\Temp\ccDqoJhc.s 			page 116


 4637      455F4556 
 4637      545F5045 
 4637      4E44494E 
 4637      475F464C 
 4638              	.LASF201:
 4639 0c79 64657669 		.ascii	"deviceNameCharHandle\000"
 4639      63654E61 
 4639      6D654368 
 4639      61724861 
 4639      6E646C65 
 4640              	.LASF42:
 4641 0c8e 4359424C 		.ascii	"CYBLE_EVT_GAP_ENHANCE_CONN_COMPLETE\000"
 4641      455F4556 
 4641      545F4741 
 4641      505F454E 
 4641      48414E43 
 4642              	.LASF107:
 4643 0cb2 4359424C 		.ascii	"CYBLE_ERROR_L2CAP_CHANNEL_NOT_FOUND\000"
 4643      455F4552 
 4643      524F525F 
 4643      4C324341 
 4643      505F4348 
 4644              	.LASF136:
 4645 0cd6 4359424C 		.ascii	"CYBLE_PRIVACY_1_2_CONFIG_PARAM_T\000"
 4645      455F5052 
 4645      49564143 
 4645      595F315F 
 4645      325F434F 
 4646              	.LASF249:
 4647 0cf7 6379426C 		.ascii	"cyBle_gattDB\000"
 4647      655F6761 
 4647      74744442 
 4647      00
 4648              	.LASF98:
 4649 0d04 4359424C 		.ascii	"CYBLE_ERROR_REPEATED_ATTEMPTS\000"
 4649      455F4552 
 4649      524F525F 
 4649      52455045 
 4649      41544544 
 4650              	.LASF143:
 4651 0d22 7363616E 		.ascii	"scanIntv\000"
 4651      496E7476 
 4651      00
 4652              	.LASF12:
 4653 0d2b 666C6F61 		.ascii	"float\000"
 4653      7400
 4654              	.LASF111:
 4655 0d31 4359424C 		.ascii	"CYBLE_ERROR_FLASH_WRITE_NOT_PERMITED\000"
 4655      455F4552 
 4655      524F525F 
 4655      464C4153 
 4655      485F5752 
 4656              	.LASF186:
 4657 0d56 4359424C 		.ascii	"CYBLE_ANS_NEW_ALERT\000"
 4657      455F414E 
 4657      535F4E45 
 4657      575F414C 
ARM GAS  C:\Users\bryan.lee\AppData\Local\Temp\ccDqoJhc.s 			page 117


 4657      45525400 
 4658              	.LASF72:
 4659 0d6a 4359424C 		.ascii	"CYBLE_EVT_GATTS_READ_CHAR_VAL_ACCESS_REQ\000"
 4659      455F4556 
 4659      545F4741 
 4659      5454535F 
 4659      52454144 
 4660              	.LASF220:
 4661 0d93 64656661 		.ascii	"defaultValuesCCCD\000"
 4661      756C7456 
 4661      616C7565 
 4661      73434343 
 4661      4400
 4662              	.LASF148:
 4663 0da5 66696C74 		.ascii	"filterDuplicates\000"
 4663      65724475 
 4663      706C6963 
 4663      61746573 
 4663      00
 4664              	.LASF133:
 4665 0db6 646C654E 		.ascii	"dleNumTxBuffer\000"
 4665      756D5478 
 4665      42756666 
 4665      657200
 4666              	.LASF8:
 4667 0dc5 756E7369 		.ascii	"unsigned int\000"
 4667      676E6564 
 4667      20696E74 
 4667      00
 4668              	.LASF139:
 4669 0dd2 66656174 		.ascii	"feature_mask\000"
 4669      7572655F 
 4669      6D61736B 
 4669      00
 4670              	.LASF64:
 4671 0ddf 4359424C 		.ascii	"CYBLE_EVT_GATTS_PREP_WRITE_REQ\000"
 4671      455F4556 
 4671      545F4741 
 4671      5454535F 
 4671      50524550 
 4672              	.LASF176:
 4673 0dfe 61747445 		.ascii	"attEndHandle\000"
 4673      6E644861 
 4673      6E646C65 
 4673      00
 4674              	.LASF150:
 4675 0e0b 696E6974 		.ascii	"initiatorFilterPolicy\000"
 4675      6961746F 
 4675      7246696C 
 4675      74657250 
 4675      6F6C6963 
 4676              	.LASF235:
 4677 0e21 4379426C 		.ascii	"CyBle_Set16ByPtr\000"
 4677      655F5365 
 4677      74313642 
 4677      79507472 
 4677      00
ARM GAS  C:\Users\bryan.lee\AppData\Local\Temp\ccDqoJhc.s 			page 118


 4678              	.LASF103:
 4679 0e32 4359424C 		.ascii	"CYBLE_ERROR_L2CAP_PSM_WRONG_ENCODING\000"
 4679      455F4552 
 4679      524F525F 
 4679      4C324341 
 4679      505F5053 
 4680              	.LASF232:
 4681 0e57 63686172 		.ascii	"charLen\000"
 4681      4C656E00 
 4682              	.LASF188:
 4683 0e5f 4359424C 		.ascii	"CYBLE_ANS_UNREAD_ALERT_STATUS\000"
 4683      455F414E 
 4683      535F554E 
 4683      52454144 
 4683      5F414C45 
 4684              	.LASF246:
 4685 0e7d 6379426C 		.ascii	"cyBle_connectingTimeout\000"
 4685      655F636F 
 4685      6E6E6563 
 4685      74696E67 
 4685      54696D65 
 4686              	.LASF89:
 4687 0e95 4359424C 		.ascii	"CYBLE_EVT_MAX\000"
 4687      455F4556 
 4687      545F4D41 
 4687      5800
 4688              	.LASF36:
 4689 0ea3 4359424C 		.ascii	"CYBLE_EVT_GAPC_SCAN_START_STOP\000"
 4689      455F4556 
 4689      545F4741 
 4689      50435F53 
 4689      43414E5F 
 4690              	.LASF244:
 4691 0ec2 6379426C 		.ascii	"cyBle_discoveryInfo\000"
 4691      655F6469 
 4691      73636F76 
 4691      65727949 
 4691      6E666F00 
 4692              	.LASF61:
 4693 0ed6 4359424C 		.ascii	"CYBLE_EVT_GATTS_WRITE_REQ\000"
 4693      455F4556 
 4693      545F4741 
 4693      5454535F 
 4693      57524954 
 4694              	.LASF273:
 4695 0ef0 4379426C 		.ascii	"CyBle_GapcCancelConnection\000"
 4695      655F4761 
 4695      70634361 
 4695      6E63656C 
 4695      436F6E6E 
 4696              	.LASF70:
 4697 0f0b 4359424C 		.ascii	"CYBLE_EVT_GATTS_DATA_SIGNED_CMD_REQ\000"
 4697      455F4556 
 4697      545F4741 
 4697      5454535F 
 4697      44415441 
 4698              	.LASF203:
ARM GAS  C:\Users\bryan.lee\AppData\Local\Temp\ccDqoJhc.s 			page 119


 4699 0f2f 70726566 		.ascii	"prefConnParamCharHandle\000"
 4699      436F6E6E 
 4699      50617261 
 4699      6D436861 
 4699      7248616E 
 4700              	.LASF28:
 4701 0f47 4359424C 		.ascii	"CYBLE_EVT_GAP_PASSKEY_DISPLAY_REQUEST\000"
 4701      455F4556 
 4701      545F4741 
 4701      505F5041 
 4701      53534B45 
 4702              	.LASF120:
 4703 0f6d 4359424C 		.ascii	"CYBLE_ERROR_IND_DISABLED\000"
 4703      455F4552 
 4703      524F525F 
 4703      494E445F 
 4703      44495341 
 4704              	.LASF119:
 4705 0f86 4359424C 		.ascii	"CYBLE_ERROR_NTF_DISABLED\000"
 4705      455F4552 
 4705      524F525F 
 4705      4E54465F 
 4705      44495341 
 4706              	.LASF277:
 4707 0f9f 433A5C55 		.ascii	"C:\\Users\\bryan.lee\\Documents\\GitHub\\hello-worl"
 4707      73657273 
 4707      5C627279 
 4707      616E2E6C 
 4707      65655C44 
 4708 0fcd 645C5073 		.ascii	"d\\Psoc_101_4BLE\\Design16.cydsn\000"
 4708      6F635F31 
 4708      30315F34 
 4708      424C455C 
 4708      44657369 
 4709              	.LASF58:
 4710 0fec 4359424C 		.ascii	"CYBLE_EVT_GATTC_READ_RSP\000"
 4710      455F4556 
 4710      545F4741 
 4710      5454435F 
 4710      52454144 
 4711              	.LASF78:
 4712 1005 4359424C 		.ascii	"CYBLE_EVT_L2CAP_CBFC_CONN_CNF\000"
 4712      455F4556 
 4712      545F4C32 
 4712      4341505F 
 4712      43424643 
 4713              	.LASF212:
 4714 1023 70726976 		.ascii	"privacyConfigParams\000"
 4714      61637943 
 4714      6F6E6669 
 4714      67506172 
 4714      616D7300 
 4715              	.LASF166:
 4716 1037 4359424C 		.ascii	"CYBLE_GATTS_ATT_GEN_VAL_LEN_T\000"
 4716      455F4741 
 4716      5454535F 
 4716      4154545F 
ARM GAS  C:\Users\bryan.lee\AppData\Local\Temp\ccDqoJhc.s 			page 120


 4716      47454E5F 
 4717              	.LASF88:
 4718 1055 4359424C 		.ascii	"CYBLE_EVT_FLASH_CORRUPT\000"
 4718      455F4556 
 4718      545F464C 
 4718      4153485F 
 4718      434F5252 
 4719              	.LASF16:
 4720 106d 6C6F6E67 		.ascii	"long double\000"
 4720      20646F75 
 4720      626C6500 
 4721              	.LASF128:
 4722 1079 62756666 		.ascii	"bufferSize\000"
 4722      65725369 
 4722      7A6500
 4723              	.LASF24:
 4724 1084 4359424C 		.ascii	"CYBLE_EVT_MEMORY_REQUEST\000"
 4724      455F4556 
 4724      545F4D45 
 4724      4D4F5259 
 4724      5F524551 
 4725              	.LASF234:
 4726 109d 4379426C 		.ascii	"CyBle_Get16ByPtr\000"
 4726      655F4765 
 4726      74313642 
 4726      79507472 
 4726      00
 4727              	.LASF202:
 4728 10ae 61707065 		.ascii	"appearanceCharHandle\000"
 4728      6172616E 
 4728      63654368 
 4728      61724861 
 4728      6E646C65 
 4729              	.LASF34:
 4730 10c3 4359424C 		.ascii	"CYBLE_EVT_GAP_ENCRYPT_CHANGE\000"
 4730      455F4556 
 4730      545F4741 
 4730      505F454E 
 4730      43525950 
 4731              	.LASF149:
 4732 10e0 4359424C 		.ascii	"CYBLE_GAPC_DISC_INFO_T\000"
 4732      455F4741 
 4732      50435F44 
 4732      4953435F 
 4732      494E464F 
 4733              	.LASF52:
 4734 10f7 4359424C 		.ascii	"CYBLE_EVT_GATTS_XCNHG_MTU_REQ\000"
 4734      455F4556 
 4734      545F4741 
 4734      5454535F 
 4734      58434E48 
 4735              	.LASF247:
 4736 1115 6379426C 		.ascii	"cyBle_pendingFlashWrite\000"
 4736      655F7065 
 4736      6E64696E 
 4736      67466C61 
 4736      73685772 
ARM GAS  C:\Users\bryan.lee\AppData\Local\Temp\ccDqoJhc.s 			page 121


 4737              	.LASF48:
 4738 112d 4359424C 		.ascii	"CYBLE_EVT_GAP_SMP_LOC_P256_KEYS_GEN_AND_SET_COMPLET"
 4738      455F4556 
 4738      545F4741 
 4738      505F534D 
 4738      505F4C4F 
 4739 1160 4500     		.ascii	"E\000"
 4740              	.LASF144:
 4741 1162 7363616E 		.ascii	"scanWindow\000"
 4741      57696E64 
 4741      6F7700
 4742              	.LASF7:
 4743 116d 6C6F6E67 		.ascii	"long long unsigned int\000"
 4743      206C6F6E 
 4743      6720756E 
 4743      7369676E 
 4743      65642069 
 4744              	.LASF224:
 4745 1184 4379426C 		.ascii	"CyBle_GapcStartScan\000"
 4745      655F4761 
 4745      70635374 
 4745      61727453 
 4745      63616E00 
 4746              	.LASF20:
 4747 1198 4359424C 		.ascii	"CYBLE_EVT_TIMEOUT\000"
 4747      455F4556 
 4747      545F5449 
 4747      4D454F55 
 4747      5400
 4748              	.LASF196:
 4749 11aa 4359424C 		.ascii	"CYBLE_STATE_SCANNING\000"
 4749      455F5354 
 4749      4154455F 
 4749      5343414E 
 4749      4E494E47 
 4750              	.LASF219:
 4751 11bf 6973466F 		.ascii	"isForceWrite\000"
 4751      72636557 
 4751      72697465 
 4751      00
 4752              	.LASF122:
 4753 11cc 4359424C 		.ascii	"CYBLE_ERROR_INVALID_STATE\000"
 4753      455F4552 
 4753      524F525F 
 4753      494E5641 
 4753      4C49445F 
 4754              	.LASF160:
 4755 11e6 4359424C 		.ascii	"CYBLE_GATT_DB_ATTR_HANDLE_T\000"
 4755      455F4741 
 4755      54545F44 
 4755      425F4154 
 4755      54525F48 
 4756              	.LASF276:
 4757 1202 47656E65 		.ascii	"Generated_Source\\PSoC4\\BLE.c\000"
 4757      72617465 
 4757      645F536F 
 4757      75726365 
ARM GAS  C:\Users\bryan.lee\AppData\Local\Temp\ccDqoJhc.s 			page 122


 4757      5C50536F 
 4758              	.LASF81:
 4759 121f 4359424C 		.ascii	"CYBLE_EVT_L2CAP_CBFC_DATA_READ\000"
 4759      455F4556 
 4759      545F4C32 
 4759      4341505F 
 4759      43424643 
 4760              	.LASF236:
 4761 123e 76616C75 		.ascii	"value\000"
 4761      6500
 4762              	.LASF177:
 4763 1244 61747456 		.ascii	"attValue\000"
 4763      616C7565 
 4763      00
 4764              	.LASF238:
 4765 124d 4379426C 		.ascii	"CyBle_ApplCallback\000"
 4765      655F4170 
 4765      706C4361 
 4765      6C6C6261 
 4765      636B00
 4766              	.LASF115:
 4767 1260 4359424C 		.ascii	"CYBLE_ERROR_FLASH_WRITE\000"
 4767      455F4552 
 4767      524F525F 
 4767      464C4153 
 4767      485F5752 
 4768              	.LASF189:
 4769 1278 4359424C 		.ascii	"CYBLE_ANS_ALERT_NTF_CONTROL_POINT\000"
 4769      455F414E 
 4769      535F414C 
 4769      4552545F 
 4769      4E54465F 
 4770              	.LASF206:
 4771 129a 4359424C 		.ascii	"CYBLE_GAPS_T\000"
 4771      455F4741 
 4771      50535F54 
 4771      00
 4772              	.LASF127:
 4773 12a7 4359424C 		.ascii	"CYBLE_GAP_BD_ADDR_T\000"
 4773      455F4741 
 4773      505F4244 
 4773      5F414444 
 4773      525F5400 
 4774              	.LASF257:
 4775 12bb 4379426C 		.ascii	"CyBle_AnsInit\000"
 4775      655F416E 
 4775      73496E69 
 4775      7400
 4776              	.LASF263:
 4777 12c9 6D656D73 		.ascii	"memset\000"
 4777      657400
 4778              	.LASF138:
 4779 12d0 70726976 		.ascii	"privacyConfig\000"
 4779      61637943 
 4779      6F6E6669 
 4779      6700
 4780              	.LASF164:
ARM GAS  C:\Users\bryan.lee\AppData\Local\Temp\ccDqoJhc.s 			page 123


 4781 12de 61637475 		.ascii	"actualLength\000"
 4781      616C4C65 
 4781      6E677468 
 4781      00
 4782              	.LASF159:
 4783 12eb 4359424C 		.ascii	"CYBLE_GAPC_CONN_PARAM_T\000"
 4783      455F4741 
 4783      50435F43 
 4783      4F4E4E5F 
 4783      50415241 
 4784              	.LASF190:
 4785 1303 4359424C 		.ascii	"CYBLE_ANS_CHAR_COUNT\000"
 4785      455F414E 
 4785      535F4348 
 4785      41525F43 
 4785      4F554E54 
 4786              	.LASF147:
 4787 1318 7363616E 		.ascii	"scanTo\000"
 4787      546F00
 4788              	.LASF271:
 4789 131f 4379426C 		.ascii	"CyBle_GapcInitConnection\000"
 4789      655F4761 
 4789      7063496E 
 4789      6974436F 
 4789      6E6E6563 
 4790              	.LASF56:
 4791 1338 4359424C 		.ascii	"CYBLE_EVT_GATTC_FIND_INFO_RSP\000"
 4791      455F4556 
 4791      545F4741 
 4791      5454435F 
 4791      46494E44 
 4792              	.LASF55:
 4793 1356 4359424C 		.ascii	"CYBLE_EVT_GATTC_READ_BY_TYPE_RSP\000"
 4793      455F4556 
 4793      545F4741 
 4793      5454435F 
 4793      52454144 
 4794              	.LASF268:
 4795 1377 4379426C 		.ascii	"CyBle_GapRemoveDeviceFromWhiteList\000"
 4795      655F4761 
 4795      7052656D 
 4795      6F766544 
 4795      65766963 
 4796              	.LASF216:
 4797 139a 4379426C 		.ascii	"CyBle_Start\000"
 4797      655F5374 
 4797      61727400 
 4798              	.LASF252:
 4799 13a6 6379426C 		.ascii	"cyBle_state\000"
 4799      655F7374 
 4799      61746500 
 4800              	.LASF211:
 4801 13b2 646C6543 		.ascii	"dleConfigParams\000"
 4801      6F6E6669 
 4801      67506172 
 4801      616D7300 
 4802              	.LASF266:
ARM GAS  C:\Users\bryan.lee\AppData\Local\Temp\ccDqoJhc.s 			page 124


 4803 13c2 6D656D63 		.ascii	"memcmp\000"
 4803      6D7000
 4804              	.LASF116:
 4805 13c9 4359424C 		.ascii	"CYBLE_ERROR_LL_SAME_TRANSACTION_COLLISION\000"
 4805      455F4552 
 4805      524F525F 
 4805      4C4C5F53 
 4805      414D455F 
 4806              	.LASF62:
 4807 13f3 4359424C 		.ascii	"CYBLE_EVT_GATTC_WRITE_RSP\000"
 4807      455F4556 
 4807      545F4741 
 4807      5454435F 
 4807      57524954 
 4808              	.LASF198:
 4809 140d 4359424C 		.ascii	"CYBLE_STATE_DISCONNECTED\000"
 4809      455F5354 
 4809      4154455F 
 4809      44495343 
 4809      4F4E4E45 
 4810              	.LASF172:
 4811 1426 4359424C 		.ascii	"CYBLE_GATTS_ATT_VALUE_T\000"
 4811      455F4741 
 4811      5454535F 
 4811      4154545F 
 4811      56414C55 
 4812              	.LASF169:
 4813 143e 4359424C 		.ascii	"CYBLE_GATTS_ATT_PACK_VAL_LEN_T\000"
 4813      455F4741 
 4813      5454535F 
 4813      4154545F 
 4813      5041434B 
 4814              	.LASF31:
 4815 145d 4359424C 		.ascii	"CYBLE_EVT_GAPP_ADVERTISEMENT_START_STOP\000"
 4815      455F4556 
 4815      545F4741 
 4815      50505F41 
 4815      44564552 
 4816              	.LASF165:
 4817 1485 61747447 		.ascii	"attGenericVal\000"
 4817      656E6572 
 4817      69635661 
 4817      6C00
 4818              	.LASF231:
 4819 1493 6E616D65 		.ascii	"name\000"
 4819      00
 4820              	.LASF9:
 4821 1498 75696E74 		.ascii	"uint8\000"
 4821      3800
 4822              	.LASF239:
 4823 149e 6379426C 		.ascii	"cyBle_initVar\000"
 4823      655F696E 
 4823      69745661 
 4823      7200
 4824              	.LASF39:
 4825 14ac 4359424C 		.ascii	"CYBLE_EVT_GAP_KEYPRESS_NOTIFICATION\000"
 4825      455F4556 
ARM GAS  C:\Users\bryan.lee\AppData\Local\Temp\ccDqoJhc.s 			page 125


 4825      545F4741 
 4825      505F4B45 
 4825      59505245 
 4826              	.LASF253:
 4827 14d0 6379426C 		.ascii	"cyBle_connHandle\000"
 4827      655F636F 
 4827      6E6E4861 
 4827      6E646C65 
 4827      00
 4828              	.LASF2:
 4829 14e1 73686F72 		.ascii	"short int\000"
 4829      7420696E 
 4829      7400
 4830              	.LASF230:
 4831 14eb 4379426C 		.ascii	"CyBle_GapSetLocalName\000"
 4831      655F4761 
 4831      70536574 
 4831      4C6F6361 
 4831      6C4E616D 
 4832              	.LASF168:
 4833 1501 61747447 		.ascii	"attGenericValLen\000"
 4833      656E6572 
 4833      69635661 
 4833      6C4C656E 
 4833      00
 4834              	.LASF170:
 4835 1512 61747446 		.ascii	"attFormatValue\000"
 4835      6F726D61 
 4835      7456616C 
 4835      756500
 4836              	.LASF113:
 4837 1521 4359424C 		.ascii	"CYBLE_ERROR_HARDWARE_FAILURE\000"
 4837      455F4552 
 4837      524F525F 
 4837      48415244 
 4837      57415245 
 4838              	.LASF260:
 4839 153e 4379426C 		.ascii	"CyBle_GattsDbRegister\000"
 4839      655F4761 
 4839      74747344 
 4839      62526567 
 4839      69737465 
 4840              	.LASF49:
 4841 1554 4359424C 		.ascii	"CYBLE_EVT_GATTC_ERROR_RSP\000"
 4841      455F4556 
 4841      545F4741 
 4841      5454435F 
 4841      4552524F 
 4842              	.LASF199:
 4843 156e 4359424C 		.ascii	"CYBLE_STATE_T\000"
 4843      455F5354 
 4843      4154455F 
 4843      5400
 4844              	.LASF192:
 4845 157c 4359424C 		.ascii	"CYBLE_ANS_DESCR_COUNT\000"
 4845      455F414E 
 4845      535F4445 
ARM GAS  C:\Users\bryan.lee\AppData\Local\Temp\ccDqoJhc.s 			page 126


 4845      5343525F 
 4845      434F554E 
 4846              	.LASF77:
 4847 1592 4359424C 		.ascii	"CYBLE_EVT_L2CAP_CBFC_CONN_IND\000"
 4847      455F4556 
 4847      545F4C32 
 4847      4341505F 
 4847      43424643 
 4848              	.LASF65:
 4849 15b0 4359424C 		.ascii	"CYBLE_EVT_GATTS_EXEC_WRITE_REQ\000"
 4849      455F4556 
 4849      545F4741 
 4849      5454535F 
 4849      45584543 
 4850              	.LASF25:
 4851 15cf 4359424C 		.ascii	"CYBLE_EVT_GAPC_SCAN_PROGRESS_RESULT\000"
 4851      455F4556 
 4851      545F4741 
 4851      50435F53 
 4851      43414E5F 
 4852              	.LASF182:
 4853 15f3 63636364 		.ascii	"cccdCount\000"
 4853      436F756E 
 4853      7400
 4854              	.LASF99:
 4855 15fd 4359424C 		.ascii	"CYBLE_ERROR_GAP_ROLE\000"
 4855      455F4552 
 4855      524F525F 
 4855      4741505F 
 4855      524F4C45 
 4856              	.LASF240:
 4857 1612 6379426C 		.ascii	"cyBle_stackMemoryRam\000"
 4857      655F7374 
 4857      61636B4D 
 4857      656D6F72 
 4857      7952616D 
 4858              	.LASF46:
 4859 1627 4359424C 		.ascii	"CYBLE_EVT_GAP_SCAN_REQ_RECVD\000"
 4859      455F4556 
 4859      545F4741 
 4859      505F5343 
 4859      414E5F52 
 4860              	.LASF204:
 4861 1644 63656E74 		.ascii	"centralAddrResolutionCharHandle\000"
 4861      72616C41 
 4861      64647252 
 4861      65736F6C 
 4861      7574696F 
 4862              	.LASF125:
 4863 1664 62644164 		.ascii	"bdAddr\000"
 4863      647200
 4864              	.LASF241:
 4865 166b 6379426C 		.ascii	"cyBle_eventHandlerFlag\000"
 4865      655F6576 
 4865      656E7448 
 4865      616E646C 
 4865      6572466C 
ARM GAS  C:\Users\bryan.lee\AppData\Local\Temp\ccDqoJhc.s 			page 127


 4866              	.LASF217:
 4867 1682 4379426C 		.ascii	"CyBle_StoreBondingData\000"
 4867      655F5374 
 4867      6F726542 
 4867      6F6E6469 
 4867      6E674461 
 4868              	.LASF96:
 4869 1699 4359424C 		.ascii	"CYBLE_ERROR_NO_CONNECTION\000"
 4869      455F4552 
 4869      524F525F 
 4869      4E4F5F43 
 4869      4F4E4E45 
 4870              	.LASF262:
 4871 16b3 6D656D63 		.ascii	"memcpy\000"
 4871      707900
 4872              	.LASF86:
 4873 16ba 4359424C 		.ascii	"CYBLE_EVT_LE_PING_AUTH_TIMEOUT\000"
 4873      455F4556 
 4873      545F4C45 
 4873      5F50494E 
 4873      475F4155 
 4874              	.LASF124:
 4875 16d9 4359424C 		.ascii	"CYBLE_API_RESULT_T\000"
 4875      455F4150 
 4875      495F5245 
 4875      53554C54 
 4875      5F5400
 4876              	.LASF250:
 4877 16ec 6379426C 		.ascii	"cyBle_attValuesCCCD\000"
 4877      655F6174 
 4877      7456616C 
 4877      75657343 
 4877      43434400 
 4878              	.LASF68:
 4879 1700 4359424C 		.ascii	"CYBLE_EVT_GATTC_HANDLE_VALUE_IND\000"
 4879      455F4556 
 4879      545F4741 
 4879      5454435F 
 4879      48414E44 
 4880              	.LASF102:
 4881 1721 4359424C 		.ascii	"CYBLE_ERROR_SEC_FAILED\000"
 4881      455F4552 
 4881      524F525F 
 4881      5345435F 
 4881      4641494C 
 4882              	.LASF223:
 4883 1738 696E7661 		.ascii	"invalidBdAddr\000"
 4883      6C696442 
 4883      64416464 
 4883      7200
 4884              	.LASF23:
 4885 1746 4359424C 		.ascii	"CYBLE_EVT_STACK_BUSY_STATUS\000"
 4885      455F4556 
 4885      545F5354 
 4885      41434B5F 
 4885      42555359 
 4886              	.LASF155:
ARM GAS  C:\Users\bryan.lee\AppData\Local\Temp\ccDqoJhc.s 			page 128


 4887 1762 636F6E6E 		.ascii	"connLatency\000"
 4887      4C617465 
 4887      6E637900 
 4888              	.LASF37:
 4889 176e 4359424C 		.ascii	"CYBLE_EVT_GAP_KEYINFO_EXCHNGE_CMPLT\000"
 4889      455F4556 
 4889      545F4741 
 4889      505F4B45 
 4889      59494E46 
 4890              	.LASF74:
 4891 1792 4359424C 		.ascii	"CYBLE_EVT_L2CAP_CONN_PARAM_UPDATE_REQ\000"
 4891      455F4556 
 4891      545F4C32 
 4891      4341505F 
 4891      434F4E4E 
 4892              	.LASF200:
 4893 17b8 67617053 		.ascii	"gapServiceCharHandle\000"
 4893      65727669 
 4893      63654368 
 4893      61724861 
 4893      6E646C65 
 4894              	.LASF154:
 4895 17cd 636F6E6E 		.ascii	"connIntvMax\000"
 4895      496E7476 
 4895      4D617800 
 4896              	.LASF3:
 4897 17d9 73686F72 		.ascii	"short unsigned int\000"
 4897      7420756E 
 4897      7369676E 
 4897      65642069 
 4897      6E7400
 4898              	.LASF195:
 4899 17ec 4359424C 		.ascii	"CYBLE_STATE_CONNECTED\000"
 4899      455F5354 
 4899      4154455F 
 4899      434F4E4E 
 4899      45435445 
 4900              	.LASF132:
 4901 1802 646C654D 		.ascii	"dleMaxRxCapability\000"
 4901      61785278 
 4901      43617061 
 4901      62696C69 
 4901      747900
 4902              	.LASF162:
 4903 1815 61747449 		.ascii	"attId\000"
 4903      6400
 4904              	.LASF92:
 4905 181b 4359424C 		.ascii	"CYBLE_ERROR_INVALID_OPERATION\000"
 4905      455F4552 
 4905      524F525F 
 4905      494E5641 
 4905      4C49445F 
 4906              	.LASF146:
 4907 1839 7363616E 		.ascii	"scanFilterPolicy\000"
 4907      46696C74 
 4907      6572506F 
 4907      6C696379 
ARM GAS  C:\Users\bryan.lee\AppData\Local\Temp\ccDqoJhc.s 			page 129


 4907      00
 4908              	.LASF22:
 4909 184a 4359424C 		.ascii	"CYBLE_EVT_HCI_STATUS\000"
 4909      455F4556 
 4909      545F4843 
 4909      495F5354 
 4909      41545553 
 4910              	.LASF51:
 4911 185f 4359424C 		.ascii	"CYBLE_EVT_GATT_DISCONNECT_IND\000"
 4911      455F4556 
 4911      545F4741 
 4911      54545F44 
 4911      4953434F 
 4912              	.LASF156:
 4913 187d 73757065 		.ascii	"supervisionTO\000"
 4913      72766973 
 4913      696F6E54 
 4913      4F00
 4914              	.LASF84:
 4915 188b 4359424C 		.ascii	"CYBLE_EVT_L2CAP_CBFC_DATA_WRITE_IND\000"
 4915      455F4556 
 4915      545F4C32 
 4915      4341505F 
 4915      43424643 
 4916              	.LASF73:
 4917 18af 4359424C 		.ascii	"CYBLE_EVT_GATTC_LONG_PROCEDURE_END\000"
 4917      455F4556 
 4917      545F4741 
 4917      5454435F 
 4917      4C4F4E47 
 4918              	.LASF33:
 4919 18d2 4359424C 		.ascii	"CYBLE_EVT_GAP_DEVICE_DISCONNECTED\000"
 4919      455F4556 
 4919      545F4741 
 4919      505F4445 
 4919      56494345 
 4920              	.LASF69:
 4921 18f4 4359424C 		.ascii	"CYBLE_EVT_GATTS_HANDLE_VALUE_CNF\000"
 4921      455F4556 
 4921      545F4741 
 4921      5454535F 
 4921      48414E44 
 4922              	.LASF10:
 4923 1915 75696E74 		.ascii	"uint16\000"
 4923      313600
 4924              	.LASF145:
 4925 191c 6F776E41 		.ascii	"ownAddrType\000"
 4925      64647254 
 4925      79706500 
 4926              	.LASF100:
 4927 1928 4359424C 		.ascii	"CYBLE_ERROR_TX_POWER_READ\000"
 4927      455F4552 
 4927      524F525F 
 4927      54585F50 
 4927      4F574552 
 4928              	.LASF191:
 4929 1942 4359424C 		.ascii	"CYBLE_ANS_CCCD\000"
ARM GAS  C:\Users\bryan.lee\AppData\Local\Temp\ccDqoJhc.s 			page 130


 4929      455F414E 
 4929      535F4343 
 4929      434400
 4930              		.ident	"GCC: (GNU Tools for ARM Embedded Processors) 5.4.1 20160609 (release) [ARM/embedded-5-bran
