ARM GAS  C:\Users\bryan.lee\AppData\Local\Temp\ccDqoJhc.s 			page 1


   1              		.syntax unified
   2              		.cpu cortex-m0
   3              		.fpu softvfp
   4              		.eabi_attribute 20, 1
   5              		.eabi_attribute 21, 1
   6              		.eabi_attribute 23, 3
   7              		.eabi_attribute 24, 1
   8              		.eabi_attribute 25, 1
   9              		.eabi_attribute 26, 1
  10              		.eabi_attribute 30, 1
  11              		.eabi_attribute 34, 0
  12              		.eabi_attribute 18, 4
  13              		.thumb
  14              		.syntax unified
  15              		.file	"BLE.c"
  16              		.text
  17              	.Ltext0:
  18              		.cfi_sections	.debug_frame
  19              		.section	.text.CyBle_ServiceInit,"ax",%progbits
  20              		.align	2
  21              		.global	CyBle_ServiceInit
  22              		.code	16
  23              		.thumb_func
  24              		.type	CyBle_ServiceInit, %function
  25              	CyBle_ServiceInit:
  26              	.LFB3:
  27              		.file 1 "Generated_Source\\PSoC4\\BLE.c"
   1:Generated_Source\PSoC4/BLE.c **** /***************************************************************************//**
   2:Generated_Source\PSoC4/BLE.c **** * \file CYBLE.c
   3:Generated_Source\PSoC4/BLE.c **** * \version 3.50
   4:Generated_Source\PSoC4/BLE.c **** * 
   5:Generated_Source\PSoC4/BLE.c **** * \brief
   6:Generated_Source\PSoC4/BLE.c **** *  This file contains the source code for the Common APIs of the BLE Component.
   7:Generated_Source\PSoC4/BLE.c **** * 
   8:Generated_Source\PSoC4/BLE.c **** ********************************************************************************
   9:Generated_Source\PSoC4/BLE.c **** * \copyright
  10:Generated_Source\PSoC4/BLE.c **** * Copyright 2014-2018, Cypress Semiconductor Corporation.  All rights reserved.
  11:Generated_Source\PSoC4/BLE.c **** * You may use this file only in accordance with the license, terms, conditions,
  12:Generated_Source\PSoC4/BLE.c **** * disclaimers, and limitations in the end user license agreement accompanying
  13:Generated_Source\PSoC4/BLE.c **** * the software package with which this file was provided.
  14:Generated_Source\PSoC4/BLE.c **** *******************************************************************************/
  15:Generated_Source\PSoC4/BLE.c **** 
  16:Generated_Source\PSoC4/BLE.c **** #include "BLE_eventHandler.h"
  17:Generated_Source\PSoC4/BLE.c **** #include "BLE_HAL_PVT.h"
  18:Generated_Source\PSoC4/BLE.c **** #include <stdlib.h>
  19:Generated_Source\PSoC4/BLE.c **** 
  20:Generated_Source\PSoC4/BLE.c **** 
  21:Generated_Source\PSoC4/BLE.c **** /***************************************
  22:Generated_Source\PSoC4/BLE.c **** * Function Prototypes
  23:Generated_Source\PSoC4/BLE.c **** ***************************************/
  24:Generated_Source\PSoC4/BLE.c **** 
  25:Generated_Source\PSoC4/BLE.c **** #if(CYBLE_GATT_ROLE_SERVER)
  26:Generated_Source\PSoC4/BLE.c ****     #if(CYBLE_GAP_ROLE_PERIPHERAL)
  27:Generated_Source\PSoC4/BLE.c ****         static void CyBle_ChangeAdLocalName(const char8 name[], uint8 dest);
  28:Generated_Source\PSoC4/BLE.c ****     #endif /* (CYBLE_GAP_ROLE_PERIPHERAL) */
  29:Generated_Source\PSoC4/BLE.c **** #endif /* (CYBLE_GATT_ROLE_SERVER) */
  30:Generated_Source\PSoC4/BLE.c ****     
ARM GAS  C:\Users\bryan.lee\AppData\Local\Temp\ccDqoJhc.s 			page 2


  31:Generated_Source\PSoC4/BLE.c **** 
  32:Generated_Source\PSoC4/BLE.c **** /***************************************
  33:Generated_Source\PSoC4/BLE.c **** * Global Variables
  34:Generated_Source\PSoC4/BLE.c **** ***************************************/
  35:Generated_Source\PSoC4/BLE.c **** 
  36:Generated_Source\PSoC4/BLE.c **** /* Indicates whether the BLE has been initialized. The variable is initialized to
  37:Generated_Source\PSoC4/BLE.c ****    0 and set to 1 the first time CyBle_Start() is called. This allows the component
  38:Generated_Source\PSoC4/BLE.c ****    to restart without reinitialization after the first call to the CyBle_Start() 
  39:Generated_Source\PSoC4/BLE.c ****    routine. If reinitialization of the component is required, the variable should 
  40:Generated_Source\PSoC4/BLE.c ****    be set to 0 before the CyBle_Start() routine is called. Alternatively, the BLE
  41:Generated_Source\PSoC4/BLE.c ****    can be reinitialized by calling the CyBle_Init() function.
  42:Generated_Source\PSoC4/BLE.c **** */
  43:Generated_Source\PSoC4/BLE.c **** uint8  cyBle_initVar = 0u;
  44:Generated_Source\PSoC4/BLE.c **** 
  45:Generated_Source\PSoC4/BLE.c **** /* Allocate RAM memory for stack. This buffer could be reused by application when 
  46:Generated_Source\PSoC4/BLE.c ****    BLE component is stopped. For export mode buffer is allocated in heap.
  47:Generated_Source\PSoC4/BLE.c **** */
  48:Generated_Source\PSoC4/BLE.c **** #if(CYBLE_SHARING_MODE_EXPORT)
  49:Generated_Source\PSoC4/BLE.c ****     
  50:Generated_Source\PSoC4/BLE.c **** uint8 *cyBle_stackMemoryRam = NULL;
  51:Generated_Source\PSoC4/BLE.c **** 
  52:Generated_Source\PSoC4/BLE.c **** #else
  53:Generated_Source\PSoC4/BLE.c **** 
  54:Generated_Source\PSoC4/BLE.c **** CYBLE_CYALIGNED_BEGIN CY_NOINIT uint8 cyBle_stackMemoryRam[CYBLE_STACK_RAM_SIZE] CYBLE_CYALIGNED_EN
  55:Generated_Source\PSoC4/BLE.c **** 
  56:Generated_Source\PSoC4/BLE.c **** #endif  /* CYBLE_SHARING_MODE_EXPORT */
  57:Generated_Source\PSoC4/BLE.c **** 
  58:Generated_Source\PSoC4/BLE.c **** #if(CYBLE_GAP_ROLE_PERIPHERAL || CYBLE_GAP_ROLE_BROADCASTER)
  59:Generated_Source\PSoC4/BLE.c **** 
  60:Generated_Source\PSoC4/BLE.c **** 
  61:Generated_Source\PSoC4/BLE.c **** 
  62:Generated_Source\PSoC4/BLE.c **** #endif /* CYBLE_GAP_ROLE_PERIPHERAL || CYBLE_GAP_ROLE_BROADCASTER */
  63:Generated_Source\PSoC4/BLE.c **** 
  64:Generated_Source\PSoC4/BLE.c **** #if(CYBLE_GAP_ROLE_CENTRAL)
  65:Generated_Source\PSoC4/BLE.c ****     
  66:Generated_Source\PSoC4/BLE.c **** CYBLE_GAPC_CONN_PARAM_T cyBle_connectionParameters;
  67:Generated_Source\PSoC4/BLE.c **** 
  68:Generated_Source\PSoC4/BLE.c **** /* Connecting timeout is set to 30 seconds in CyBle_Init function. 
  69:Generated_Source\PSoC4/BLE.c ****    Not zero value starts timer in CyBle_GapcConnectDevice() API fucntion.
  70:Generated_Source\PSoC4/BLE.c **** */
  71:Generated_Source\PSoC4/BLE.c **** uint16 cyBle_connectingTimeout;
  72:Generated_Source\PSoC4/BLE.c ****     
  73:Generated_Source\PSoC4/BLE.c **** #endif /* CYBLE_GAP_ROLE_CENTRAL */
  74:Generated_Source\PSoC4/BLE.c **** 
  75:Generated_Source\PSoC4/BLE.c **** #if(CYBLE_GAP_ROLE_CENTRAL || CYBLE_GAP_ROLE_OBSERVER)
  76:Generated_Source\PSoC4/BLE.c ****     
  77:Generated_Source\PSoC4/BLE.c **** /* This variable of type CYBLE_GAPC_DISC_INFO_T is present only when  
  78:Generated_Source\PSoC4/BLE.c ****    the BLE component is configured for Central GAP role or Central and  
  79:Generated_Source\PSoC4/BLE.c ****    Peripheral GAP role. It contains the Scan settings entered in the  
  80:Generated_Source\PSoC4/BLE.c ****    customizer. This variable can be used by advanced users to change Scan  
  81:Generated_Source\PSoC4/BLE.c ****    settings in runtime.
  82:Generated_Source\PSoC4/BLE.c **** */
  83:Generated_Source\PSoC4/BLE.c **** CYBLE_GAPC_DISC_INFO_T cyBle_discoveryInfo =
  84:Generated_Source\PSoC4/BLE.c **** {
  85:Generated_Source\PSoC4/BLE.c ****     0x02u,      /* discProcedure */
  86:Generated_Source\PSoC4/BLE.c ****     0x01u,      /* scanType */
  87:Generated_Source\PSoC4/BLE.c ****     0x0030u,    /* scanInterval */
ARM GAS  C:\Users\bryan.lee\AppData\Local\Temp\ccDqoJhc.s 			page 3


  88:Generated_Source\PSoC4/BLE.c ****     0x0030u,    /* scanWindow */
  89:Generated_Source\PSoC4/BLE.c ****     0x00u,      /* ownAddrType */
  90:Generated_Source\PSoC4/BLE.c ****     0x00u,      /* scanFilterPolicy */
  91:Generated_Source\PSoC4/BLE.c ****     0x001Eu,    /* scanTO */
  92:Generated_Source\PSoC4/BLE.c ****     0x00u,      /* filterDuplicates */
  93:Generated_Source\PSoC4/BLE.c **** };
  94:Generated_Source\PSoC4/BLE.c ****     
  95:Generated_Source\PSoC4/BLE.c **** #endif /* CYBLE_GAP_ROLE_CENTRAL || CYBLE_GAP_ROLE_OBSERVER */
  96:Generated_Source\PSoC4/BLE.c **** 
  97:Generated_Source\PSoC4/BLE.c **** #if((CYBLE_GAP_ROLE_PERIPHERAL || CYBLE_GAP_ROLE_CENTRAL) && (CYBLE_BONDING_REQUIREMENT == CYBLE_BO
  98:Generated_Source\PSoC4/BLE.c **** 
  99:Generated_Source\PSoC4/BLE.c **** uint8 cyBle_peerBonding;
 100:Generated_Source\PSoC4/BLE.c **** uint8 cyBle_pendingFlashWrite;
 101:Generated_Source\PSoC4/BLE.c ****     
 102:Generated_Source\PSoC4/BLE.c **** #if(CYBLE_GATT_DB_CCCD_COUNT != 0u)
 103:Generated_Source\PSoC4/BLE.c ****     static uint8 cyBle_pendingFlashClearCccdHandle;
 104:Generated_Source\PSoC4/BLE.c **** #endif /* CYBLE_GATT_DB_CCCD_COUNT != 0u */
 105:Generated_Source\PSoC4/BLE.c ****     
 106:Generated_Source\PSoC4/BLE.c **** #endif  /* (CYBLE_BONDING_REQUIREMENT == CYBLE_BONDING_YES) */
 107:Generated_Source\PSoC4/BLE.c **** 
 108:Generated_Source\PSoC4/BLE.c **** CYBLE_CALLBACK_T CyBle_ApplCallback;
 109:Generated_Source\PSoC4/BLE.c **** CYBLE_GAP_BD_ADDR_T cyBle_deviceAddress = {{0x00u, 0x00u, 0x00u, 0x50u, 0xA0u, 0x00u}, 0x00u };
 110:Generated_Source\PSoC4/BLE.c **** CYBLE_GAP_BD_ADDR_T * cyBle_sflashDeviceAddress = CYBLE_SFLASH_DEVICE_ADDRESS_PTR;
 111:Generated_Source\PSoC4/BLE.c **** 
 112:Generated_Source\PSoC4/BLE.c **** 
 113:Generated_Source\PSoC4/BLE.c **** /******************************************************************************
 114:Generated_Source\PSoC4/BLE.c **** * Function Name: CyBle_Init
 115:Generated_Source\PSoC4/BLE.c **** ***************************************************************************//**
 116:Generated_Source\PSoC4/BLE.c **** *
 117:Generated_Source\PSoC4/BLE.c **** *   Initializes the component with the parameters set in the customizer.
 118:Generated_Source\PSoC4/BLE.c **** * 
 119:Generated_Source\PSoC4/BLE.c **** *  \return
 120:Generated_Source\PSoC4/BLE.c **** *   None
 121:Generated_Source\PSoC4/BLE.c **** * 
 122:Generated_Source\PSoC4/BLE.c **** ******************************************************************************/
 123:Generated_Source\PSoC4/BLE.c **** void CyBle_Init(void)
 124:Generated_Source\PSoC4/BLE.c **** {
 125:Generated_Source\PSoC4/BLE.c ****     cyBle_eventHandlerFlag = 0u;
 126:Generated_Source\PSoC4/BLE.c ****     cyBle_busyStatus = CYBLE_STACK_STATE_FREE;
 127:Generated_Source\PSoC4/BLE.c **** 
 128:Generated_Source\PSoC4/BLE.c ****     #if(CYBLE_GAP_ROLE_PERIPHERAL || CYBLE_GAP_ROLE_BROADCASTER) 
 129:Generated_Source\PSoC4/BLE.c ****         cyBle_advertisingIntervalType = CYBLE_ADVERTISING_FAST; 
 130:Generated_Source\PSoC4/BLE.c ****     #endif /* (CYBLE_GAP_ROLE_PERIPHERAL || CYBLE_GAP_ROLE_BROADCASTER)  */
 131:Generated_Source\PSoC4/BLE.c ****     #if(CYBLE_GAP_ROLE_CENTRAL || CYBLE_GAP_ROLE_OBSERVER)
 132:Generated_Source\PSoC4/BLE.c ****         cyBle_scanningIntervalType = CYBLE_SCANNING_FAST; 
 133:Generated_Source\PSoC4/BLE.c ****     #endif /* (CYBLE_GAP_ROLE_CENTRAL || CYBLE_GAP_ROLE_OBSERVER) */
 134:Generated_Source\PSoC4/BLE.c ****         
 135:Generated_Source\PSoC4/BLE.c ****     /* Init default connection parameters. 
 136:Generated_Source\PSoC4/BLE.c ****        Application may change it before initiating a connection */
 137:Generated_Source\PSoC4/BLE.c ****     #if(CYBLE_GAP_ROLE_CENTRAL)
 138:Generated_Source\PSoC4/BLE.c ****         cyBle_connectionParameters.scanIntv = cyBle_discoveryInfo.scanIntv;
 139:Generated_Source\PSoC4/BLE.c ****         cyBle_connectionParameters.scanWindow = cyBle_discoveryInfo.scanWindow;
 140:Generated_Source\PSoC4/BLE.c ****         cyBle_connectionParameters.ownAddrType = cyBle_discoveryInfo.ownAddrType;
 141:Generated_Source\PSoC4/BLE.c ****         cyBle_connectionParameters.initiatorFilterPolicy = cyBle_discoveryInfo.scanFilterPolicy;
 142:Generated_Source\PSoC4/BLE.c ****         cyBle_connectionParameters.connIntvMin = CYBLE_GAPC_CONNECTION_INTERVAL_MIN;
 143:Generated_Source\PSoC4/BLE.c ****         cyBle_connectionParameters.connIntvMax = CYBLE_GAPC_CONNECTION_INTERVAL_MAX;
 144:Generated_Source\PSoC4/BLE.c ****         cyBle_connectionParameters.connLatency = CYBLE_GAPC_CONNECTION_SLAVE_LATENCY;
ARM GAS  C:\Users\bryan.lee\AppData\Local\Temp\ccDqoJhc.s 			page 4


 145:Generated_Source\PSoC4/BLE.c ****         cyBle_connectionParameters.supervisionTO = CYBLE_GAPC_CONNECTION_TIME_OUT;
 146:Generated_Source\PSoC4/BLE.c ****         cyBle_connectionParameters.minCeLength = 0x0000u;
 147:Generated_Source\PSoC4/BLE.c ****         cyBle_connectionParameters.maxCeLength = 0xFFFFu;
 148:Generated_Source\PSoC4/BLE.c ****         
 149:Generated_Source\PSoC4/BLE.c ****         cyBle_connectingTimeout = CYBLE_GAPC_CONNECTING_TIMEOUT;
 150:Generated_Source\PSoC4/BLE.c ****     #endif /* CYBLE_GAP_ROLE_CENTRAL */
 151:Generated_Source\PSoC4/BLE.c **** 
 152:Generated_Source\PSoC4/BLE.c ****     CyBle_ServiceInit();
 153:Generated_Source\PSoC4/BLE.c **** 
 154:Generated_Source\PSoC4/BLE.c ****     #if((CYBLE_GAP_ROLE_PERIPHERAL || CYBLE_GAP_ROLE_CENTRAL) && (CYBLE_BONDING_REQUIREMENT == CYBL
 155:Generated_Source\PSoC4/BLE.c ****         cyBle_pendingFlashWrite = 0u;
 156:Generated_Source\PSoC4/BLE.c ****         cyBle_peerBonding = CYBLE_GAP_BONDING_NONE;
 157:Generated_Source\PSoC4/BLE.c ****     #endif  /* (CYBLE_BONDING_REQUIREMENT == CYBLE_BONDING_YES) */
 158:Generated_Source\PSoC4/BLE.c **** 
 159:Generated_Source\PSoC4/BLE.c **** }
 160:Generated_Source\PSoC4/BLE.c **** 
 161:Generated_Source\PSoC4/BLE.c **** 
 162:Generated_Source\PSoC4/BLE.c **** /******************************************************************************
 163:Generated_Source\PSoC4/BLE.c **** * Function Name: CyBle_ServiceInit
 164:Generated_Source\PSoC4/BLE.c **** ***************************************************************************//**
 165:Generated_Source\PSoC4/BLE.c **** * 
 166:Generated_Source\PSoC4/BLE.c **** *  Initializes all included services.
 167:Generated_Source\PSoC4/BLE.c **** * 
 168:Generated_Source\PSoC4/BLE.c **** * \return
 169:Generated_Source\PSoC4/BLE.c **** *  None
 170:Generated_Source\PSoC4/BLE.c **** * 
 171:Generated_Source\PSoC4/BLE.c **** ******************************************************************************/
 172:Generated_Source\PSoC4/BLE.c **** void CyBle_ServiceInit(void)
 173:Generated_Source\PSoC4/BLE.c **** {
  28              		.loc 1 173 0
  29              		.cfi_startproc
  30              		@ args = 0, pretend = 0, frame = 0
  31              		@ frame_needed = 0, uses_anonymous_args = 0
  32 0000 10B5     		push	{r4, lr}
  33              		.cfi_def_cfa_offset 8
  34              		.cfi_offset 4, -8
  35              		.cfi_offset 14, -4
 174:Generated_Source\PSoC4/BLE.c ****     #if(CYBLE_GATT_ROLE_CLIENT)
 175:Generated_Source\PSoC4/BLE.c ****         /* Check service range before clearing to support partial discovery */
 176:Generated_Source\PSoC4/BLE.c ****         if(cyBle_serverInfo[CYBLE_SRVI_GAP].range.startHandle == CYBLE_GATT_INVALID_ATTR_HANDLE_VAL
 177:Generated_Source\PSoC4/BLE.c ****         {
 178:Generated_Source\PSoC4/BLE.c ****             (void)memset(&cyBle_gapc, 0, sizeof(cyBle_gapc));
 179:Generated_Source\PSoC4/BLE.c ****         }
 180:Generated_Source\PSoC4/BLE.c ****         if(cyBle_serverInfo[CYBLE_SRVI_GATT].range.startHandle == CYBLE_GATT_INVALID_ATTR_HANDLE_VA
 181:Generated_Source\PSoC4/BLE.c ****         {
 182:Generated_Source\PSoC4/BLE.c ****             (void)memset(&cyBle_gattc, 0, sizeof(cyBle_gattc));
 183:Generated_Source\PSoC4/BLE.c ****         }
 184:Generated_Source\PSoC4/BLE.c ****     #endif /* CYBLE_GATT_ROLE_CLIENT */
 185:Generated_Source\PSoC4/BLE.c **** 
 186:Generated_Source\PSoC4/BLE.c ****    	#ifdef CYBLE_AIOS
 187:Generated_Source\PSoC4/BLE.c ****         CyBle_AiosInit();
 188:Generated_Source\PSoC4/BLE.c ****     #endif /* CYBLE_AIOS */
 189:Generated_Source\PSoC4/BLE.c **** 
 190:Generated_Source\PSoC4/BLE.c **** 	#ifdef CYBLE_ANCS
 191:Generated_Source\PSoC4/BLE.c ****         CyBle_AncsInit();
 192:Generated_Source\PSoC4/BLE.c ****     #endif /* CYBLE_ANCS */
 193:Generated_Source\PSoC4/BLE.c **** 	
ARM GAS  C:\Users\bryan.lee\AppData\Local\Temp\ccDqoJhc.s 			page 5


 194:Generated_Source\PSoC4/BLE.c ****     #ifdef CYBLE_ANS
 195:Generated_Source\PSoC4/BLE.c ****         CyBle_AnsInit();
  36              		.loc 1 195 0
  37 0002 FFF7FEFF 		bl	CyBle_AnsInit
  38              	.LVL0:
 196:Generated_Source\PSoC4/BLE.c ****     #endif /* CYBLE_ANS */
 197:Generated_Source\PSoC4/BLE.c ****     
 198:Generated_Source\PSoC4/BLE.c ****     #ifdef CYBLE_BAS
 199:Generated_Source\PSoC4/BLE.c ****         CyBle_BasInit();
 200:Generated_Source\PSoC4/BLE.c ****     #endif /* CYBLE_BAS */
 201:Generated_Source\PSoC4/BLE.c ****     
 202:Generated_Source\PSoC4/BLE.c ****     #ifdef CYBLE_BCS
 203:Generated_Source\PSoC4/BLE.c ****         CyBle_BcsInit();
 204:Generated_Source\PSoC4/BLE.c ****     #endif /* CYBLE_BCS */
 205:Generated_Source\PSoC4/BLE.c **** 
 206:Generated_Source\PSoC4/BLE.c ****     #ifdef CYBLE_BLS
 207:Generated_Source\PSoC4/BLE.c ****         CyBle_BlsInit();
 208:Generated_Source\PSoC4/BLE.c ****     #endif /* CYBLE_BLS */
 209:Generated_Source\PSoC4/BLE.c ****     
 210:Generated_Source\PSoC4/BLE.c ****     #ifdef CYBLE_BMS
 211:Generated_Source\PSoC4/BLE.c ****         CyBle_BmsInit();
 212:Generated_Source\PSoC4/BLE.c ****     #endif /* CYBLE_BMS */
 213:Generated_Source\PSoC4/BLE.c ****     
 214:Generated_Source\PSoC4/BLE.c ****     #ifdef CYBLE_CGMS
 215:Generated_Source\PSoC4/BLE.c ****         CyBle_CgmsInit();
 216:Generated_Source\PSoC4/BLE.c ****     #endif /* CYBLE_CGMS */
 217:Generated_Source\PSoC4/BLE.c **** 
 218:Generated_Source\PSoC4/BLE.c ****     #ifdef CYBLE_CPS
 219:Generated_Source\PSoC4/BLE.c ****         CyBle_CpsInit();
 220:Generated_Source\PSoC4/BLE.c ****     #endif /* CYBLE_CPS */
 221:Generated_Source\PSoC4/BLE.c **** 
 222:Generated_Source\PSoC4/BLE.c ****     #ifdef CYBLE_CSCS
 223:Generated_Source\PSoC4/BLE.c ****         CyBle_CscsInit();
 224:Generated_Source\PSoC4/BLE.c ****     #endif /* CYBLE_CSCS */
 225:Generated_Source\PSoC4/BLE.c ****     
 226:Generated_Source\PSoC4/BLE.c ****     #ifdef CYBLE_CTS
 227:Generated_Source\PSoC4/BLE.c ****         CyBle_CtsInit();
 228:Generated_Source\PSoC4/BLE.c ****     #endif /* CYBLE_CTS */
 229:Generated_Source\PSoC4/BLE.c **** 
 230:Generated_Source\PSoC4/BLE.c ****     #ifdef CYBLE_CUSTOM
 231:Generated_Source\PSoC4/BLE.c ****         CyBle_CustomInit();
 232:Generated_Source\PSoC4/BLE.c ****     #endif /* CYBLE_CUSTOM */
 233:Generated_Source\PSoC4/BLE.c **** 
 234:Generated_Source\PSoC4/BLE.c ****     #ifdef CYBLE_DIS
 235:Generated_Source\PSoC4/BLE.c ****         CyBle_DisInit();
 236:Generated_Source\PSoC4/BLE.c ****     #endif /* CYBLE_DIS */
 237:Generated_Source\PSoC4/BLE.c **** 
 238:Generated_Source\PSoC4/BLE.c ****     #ifdef CYBLE_ESS
 239:Generated_Source\PSoC4/BLE.c ****         CyBle_EssInit();
 240:Generated_Source\PSoC4/BLE.c ****     #endif /* CYBLE_ESS */
 241:Generated_Source\PSoC4/BLE.c ****     
 242:Generated_Source\PSoC4/BLE.c ****     #ifdef CYBLE_GLS
 243:Generated_Source\PSoC4/BLE.c ****         CyBle_GlsInit();
 244:Generated_Source\PSoC4/BLE.c ****     #endif /* CYBLE_GLS */
 245:Generated_Source\PSoC4/BLE.c ****     
 246:Generated_Source\PSoC4/BLE.c ****     #ifdef CYBLE_HIDS
 247:Generated_Source\PSoC4/BLE.c ****         CyBle_HidsInit();
ARM GAS  C:\Users\bryan.lee\AppData\Local\Temp\ccDqoJhc.s 			page 6


 248:Generated_Source\PSoC4/BLE.c ****     #endif /* CYBLE_HIDS */
 249:Generated_Source\PSoC4/BLE.c **** 
 250:Generated_Source\PSoC4/BLE.c ****     #ifdef CYBLE_HPS
 251:Generated_Source\PSoC4/BLE.c ****         CyBle_HpsInit();
 252:Generated_Source\PSoC4/BLE.c ****     #endif /* CYBLE_HPS */
 253:Generated_Source\PSoC4/BLE.c **** 
 254:Generated_Source\PSoC4/BLE.c ****     #ifdef CYBLE_HRS
 255:Generated_Source\PSoC4/BLE.c ****         CyBle_HrsInit();
 256:Generated_Source\PSoC4/BLE.c ****     #endif /* CYBLE_HRS */
 257:Generated_Source\PSoC4/BLE.c ****     
 258:Generated_Source\PSoC4/BLE.c ****     #ifdef CYBLE_HTS
 259:Generated_Source\PSoC4/BLE.c ****         CyBle_HtsInit();
 260:Generated_Source\PSoC4/BLE.c ****     #endif /* CYBLE_RSCS */
 261:Generated_Source\PSoC4/BLE.c **** 
 262:Generated_Source\PSoC4/BLE.c ****     #ifdef CYBLE_IAS
 263:Generated_Source\PSoC4/BLE.c ****         CyBle_IasInit();
 264:Generated_Source\PSoC4/BLE.c ****     #endif /* CYBLE_IAS */
 265:Generated_Source\PSoC4/BLE.c **** 
 266:Generated_Source\PSoC4/BLE.c ****     #ifdef CYBLE_IPS
 267:Generated_Source\PSoC4/BLE.c ****         CyBle_IpsInit();
 268:Generated_Source\PSoC4/BLE.c ****     #endif /* CYBLE_IPS */
 269:Generated_Source\PSoC4/BLE.c ****     
 270:Generated_Source\PSoC4/BLE.c ****     #ifdef CYBLE_LLS
 271:Generated_Source\PSoC4/BLE.c ****         CyBle_LlsInit();
 272:Generated_Source\PSoC4/BLE.c ****     #endif /* CYBLE_LLS */
 273:Generated_Source\PSoC4/BLE.c **** 
 274:Generated_Source\PSoC4/BLE.c ****     #ifdef CYBLE_LNS
 275:Generated_Source\PSoC4/BLE.c ****         CyBle_LnsInit();
 276:Generated_Source\PSoC4/BLE.c ****     #endif /* CYBLE_LNS */
 277:Generated_Source\PSoC4/BLE.c ****     
 278:Generated_Source\PSoC4/BLE.c ****     #ifdef CYBLE_NDCS
 279:Generated_Source\PSoC4/BLE.c ****         CyBle_NdcsInit();
 280:Generated_Source\PSoC4/BLE.c ****     #endif /* CYBLE_NDCS */
 281:Generated_Source\PSoC4/BLE.c ****     
 282:Generated_Source\PSoC4/BLE.c ****     #ifdef CYBLE_PASS
 283:Generated_Source\PSoC4/BLE.c ****         CyBle_PassInit();
 284:Generated_Source\PSoC4/BLE.c ****     #endif /* CYBLE_PASS */
 285:Generated_Source\PSoC4/BLE.c ****     
 286:Generated_Source\PSoC4/BLE.c ****     #ifdef CYBLE_PLXS
 287:Generated_Source\PSoC4/BLE.c ****         CyBle_PlxsInit();
 288:Generated_Source\PSoC4/BLE.c ****     #endif /* CYBLE_PLXS */
 289:Generated_Source\PSoC4/BLE.c ****     
 290:Generated_Source\PSoC4/BLE.c ****     #ifdef CYBLE_RSCS
 291:Generated_Source\PSoC4/BLE.c ****         CyBle_RscsInit();
 292:Generated_Source\PSoC4/BLE.c ****     #endif /* CYBLE_RSCS */
 293:Generated_Source\PSoC4/BLE.c **** 
 294:Generated_Source\PSoC4/BLE.c ****     #ifdef CYBLE_RTUS
 295:Generated_Source\PSoC4/BLE.c ****         CyBle_RtusInit();
 296:Generated_Source\PSoC4/BLE.c ****     #endif /* CYBLE_RTUS */
 297:Generated_Source\PSoC4/BLE.c **** 
 298:Generated_Source\PSoC4/BLE.c ****     #ifdef CYBLE_SCPS
 299:Generated_Source\PSoC4/BLE.c ****         CyBle_ScpsInit();
 300:Generated_Source\PSoC4/BLE.c ****     #endif /* CYBLE_SCPS */
 301:Generated_Source\PSoC4/BLE.c ****     
 302:Generated_Source\PSoC4/BLE.c ****     #ifdef CYBLE_TPS
 303:Generated_Source\PSoC4/BLE.c ****         CyBle_TpsInit();
 304:Generated_Source\PSoC4/BLE.c ****     #endif /* CYBLE_TPS */
ARM GAS  C:\Users\bryan.lee\AppData\Local\Temp\ccDqoJhc.s 			page 7


 305:Generated_Source\PSoC4/BLE.c ****     
 306:Generated_Source\PSoC4/BLE.c ****     #ifdef CYBLE_UDS
 307:Generated_Source\PSoC4/BLE.c ****         CyBle_UdsInit();
 308:Generated_Source\PSoC4/BLE.c ****     #endif /* CYBLE_UDS */
 309:Generated_Source\PSoC4/BLE.c **** 
 310:Generated_Source\PSoC4/BLE.c ****     #ifdef CYBLE_WPTS
 311:Generated_Source\PSoC4/BLE.c ****         CyBle_WptsInit();
 312:Generated_Source\PSoC4/BLE.c ****     #endif /* CYBLE_WPTS */
 313:Generated_Source\PSoC4/BLE.c **** 
 314:Generated_Source\PSoC4/BLE.c ****     #ifdef CYBLE_WSS
 315:Generated_Source\PSoC4/BLE.c ****         CyBle_WssInit();
 316:Generated_Source\PSoC4/BLE.c ****     #endif /* CYBLE_WSS */
 317:Generated_Source\PSoC4/BLE.c **** }
  39              		.loc 1 317 0
  40              		@ sp needed
  41 0006 10BD     		pop	{r4, pc}
  42              		.cfi_endproc
  43              	.LFE3:
  44              		.size	CyBle_ServiceInit, .-CyBle_ServiceInit
  45              		.section	.text.CyBle_Init,"ax",%progbits
  46              		.align	2
  47              		.global	CyBle_Init
  48              		.code	16
  49              		.thumb_func
  50              		.type	CyBle_Init, %function
  51              	CyBle_Init:
  52              	.LFB2:
 124:Generated_Source\PSoC4/BLE.c ****     cyBle_eventHandlerFlag = 0u;
  53              		.loc 1 124 0
  54              		.cfi_startproc
  55              		@ args = 0, pretend = 0, frame = 0
  56              		@ frame_needed = 0, uses_anonymous_args = 0
  57 0000 10B5     		push	{r4, lr}
  58              		.cfi_def_cfa_offset 8
  59              		.cfi_offset 4, -8
  60              		.cfi_offset 14, -4
 125:Generated_Source\PSoC4/BLE.c ****     cyBle_busyStatus = CYBLE_STACK_STATE_FREE;
  61              		.loc 1 125 0
  62 0002 0022     		movs	r2, #0
  63 0004 124B     		ldr	r3, .L3
  64 0006 1A70     		strb	r2, [r3]
 126:Generated_Source\PSoC4/BLE.c **** 
  65              		.loc 1 126 0
  66 0008 124B     		ldr	r3, .L3+4
  67 000a 1A70     		strb	r2, [r3]
 132:Generated_Source\PSoC4/BLE.c ****     #endif /* (CYBLE_GAP_ROLE_CENTRAL || CYBLE_GAP_ROLE_OBSERVER) */
  68              		.loc 1 132 0
  69 000c 124B     		ldr	r3, .L3+8
  70 000e 1A70     		strb	r2, [r3]
 138:Generated_Source\PSoC4/BLE.c ****         cyBle_connectionParameters.scanWindow = cyBle_discoveryInfo.scanWindow;
  71              		.loc 1 138 0
  72 0010 1249     		ldr	r1, .L3+12
  73 0012 4888     		ldrh	r0, [r1, #2]
  74 0014 124B     		ldr	r3, .L3+16
  75 0016 1880     		strh	r0, [r3]
 139:Generated_Source\PSoC4/BLE.c ****         cyBle_connectionParameters.ownAddrType = cyBle_discoveryInfo.ownAddrType;
  76              		.loc 1 139 0
ARM GAS  C:\Users\bryan.lee\AppData\Local\Temp\ccDqoJhc.s 			page 8


  77 0018 8888     		ldrh	r0, [r1, #4]
  78 001a 5880     		strh	r0, [r3, #2]
 140:Generated_Source\PSoC4/BLE.c ****         cyBle_connectionParameters.initiatorFilterPolicy = cyBle_discoveryInfo.scanFilterPolicy;
  79              		.loc 1 140 0
  80 001c 8879     		ldrb	r0, [r1, #6]
  81 001e 1873     		strb	r0, [r3, #12]
 141:Generated_Source\PSoC4/BLE.c ****         cyBle_connectionParameters.connIntvMin = CYBLE_GAPC_CONNECTION_INTERVAL_MIN;
  82              		.loc 1 141 0
  83 0020 C979     		ldrb	r1, [r1, #7]
  84 0022 1971     		strb	r1, [r3, #4]
 142:Generated_Source\PSoC4/BLE.c ****         cyBle_connectionParameters.connIntvMax = CYBLE_GAPC_CONNECTION_INTERVAL_MAX;
  85              		.loc 1 142 0
  86 0024 0621     		movs	r1, #6
  87 0026 D981     		strh	r1, [r3, #14]
 143:Generated_Source\PSoC4/BLE.c ****         cyBle_connectionParameters.connLatency = CYBLE_GAPC_CONNECTION_SLAVE_LATENCY;
  88              		.loc 1 143 0
  89 0028 2231     		adds	r1, r1, #34
  90 002a 1982     		strh	r1, [r3, #16]
 144:Generated_Source\PSoC4/BLE.c ****         cyBle_connectionParameters.supervisionTO = CYBLE_GAPC_CONNECTION_TIME_OUT;
  91              		.loc 1 144 0
  92 002c 0024     		movs	r4, #0
  93 002e 5A82     		strh	r2, [r3, #18]
 145:Generated_Source\PSoC4/BLE.c ****         cyBle_connectionParameters.minCeLength = 0x0000u;
  94              		.loc 1 145 0
  95 0030 FA21     		movs	r1, #250
  96 0032 8900     		lsls	r1, r1, #2
  97 0034 9982     		strh	r1, [r3, #20]
 146:Generated_Source\PSoC4/BLE.c ****         cyBle_connectionParameters.maxCeLength = 0xFFFFu;
  98              		.loc 1 146 0
  99 0036 DA82     		strh	r2, [r3, #22]
 147:Generated_Source\PSoC4/BLE.c ****         
 100              		.loc 1 147 0
 101 0038 013A     		subs	r2, r2, #1
 102 003a 1A83     		strh	r2, [r3, #24]
 149:Generated_Source\PSoC4/BLE.c ****     #endif /* CYBLE_GAP_ROLE_CENTRAL */
 103              		.loc 1 149 0
 104 003c 1F32     		adds	r2, r2, #31
 105 003e 094B     		ldr	r3, .L3+20
 106 0040 1A80     		strh	r2, [r3]
 152:Generated_Source\PSoC4/BLE.c **** 
 107              		.loc 1 152 0
 108 0042 FFF7FEFF 		bl	CyBle_ServiceInit
 109              	.LVL1:
 155:Generated_Source\PSoC4/BLE.c ****         cyBle_peerBonding = CYBLE_GAP_BONDING_NONE;
 110              		.loc 1 155 0
 111 0046 084B     		ldr	r3, .L3+24
 112 0048 1C70     		strb	r4, [r3]
 156:Generated_Source\PSoC4/BLE.c ****     #endif  /* (CYBLE_BONDING_REQUIREMENT == CYBLE_BONDING_YES) */
 113              		.loc 1 156 0
 114 004a 084B     		ldr	r3, .L3+28
 115 004c 1C70     		strb	r4, [r3]
 159:Generated_Source\PSoC4/BLE.c **** 
 116              		.loc 1 159 0
 117              		@ sp needed
 118 004e 10BD     		pop	{r4, pc}
 119              	.L4:
 120              		.align	2
ARM GAS  C:\Users\bryan.lee\AppData\Local\Temp\ccDqoJhc.s 			page 9


 121              	.L3:
 122 0050 00000000 		.word	cyBle_eventHandlerFlag
 123 0054 00000000 		.word	cyBle_busyStatus
 124 0058 00000000 		.word	cyBle_scanningIntervalType
 125 005c 00000000 		.word	.LANCHOR0
 126 0060 00000000 		.word	cyBle_connectionParameters
 127 0064 00000000 		.word	cyBle_connectingTimeout
 128 0068 00000000 		.word	cyBle_pendingFlashWrite
 129 006c 00000000 		.word	cyBle_peerBonding
 130              		.cfi_endproc
 131              	.LFE2:
 132              		.size	CyBle_Init, .-CyBle_Init
 133              		.section	.text.CyBle_Start,"ax",%progbits
 134              		.align	2
 135              		.global	CyBle_Start
 136              		.code	16
 137              		.thumb_func
 138              		.type	CyBle_Start, %function
 139              	CyBle_Start:
 140              	.LFB4:
 318:Generated_Source\PSoC4/BLE.c **** 
 319:Generated_Source\PSoC4/BLE.c **** 
 320:Generated_Source\PSoC4/BLE.c **** /******************************************************************************
 321:Generated_Source\PSoC4/BLE.c **** * Function Name: CyBle_Start
 322:Generated_Source\PSoC4/BLE.c **** ***************************************************************************//**
 323:Generated_Source\PSoC4/BLE.c **** * 
 324:Generated_Source\PSoC4/BLE.c **** *  This function initializes the BLE Stack, which consists of the BLE Stack 
 325:Generated_Source\PSoC4/BLE.c **** *  Manager, BLE Controller, and BLE Host modules. It takes care of initializing
 326:Generated_Source\PSoC4/BLE.c **** *  the Profile layer, schedulers, Timer and other platform related
 327:Generated_Source\PSoC4/BLE.c **** *  resources required for the BLE component. It also registers the callback 
 328:Generated_Source\PSoC4/BLE.c **** *  function for BLE events that will be registered in the BLE stack.
 329:Generated_Source\PSoC4/BLE.c **** * 
 330:Generated_Source\PSoC4/BLE.c **** *  Note that this function does not reset the BLE Stack.
 331:Generated_Source\PSoC4/BLE.c **** * 
 332:Generated_Source\PSoC4/BLE.c **** *  For HCI-Mode of operation, this function will not initialize the BLE Host 
 333:Generated_Source\PSoC4/BLE.c **** *  module.
 334:Generated_Source\PSoC4/BLE.c **** * 
 335:Generated_Source\PSoC4/BLE.c **** *  Calling this function results in the generation of CYBLE_EVT_STACK_ON event
 336:Generated_Source\PSoC4/BLE.c **** *  on successful initialization of the BLE Stack.
 337:Generated_Source\PSoC4/BLE.c **** * 
 338:Generated_Source\PSoC4/BLE.c **** *  \param callbackFunc: Event callback function to receive events from BLE stack.
 339:Generated_Source\PSoC4/BLE.c **** *   CYBLE_CALLBACK_T is a function pointer type.
 340:Generated_Source\PSoC4/BLE.c **** * 
 341:Generated_Source\PSoC4/BLE.c **** * \return
 342:Generated_Source\PSoC4/BLE.c **** *  CYBLE_API_RESULT_T : Return value indicates if the function succeeded or 
 343:Generated_Source\PSoC4/BLE.c **** *  failed. Following are the possible error codes.
 344:Generated_Source\PSoC4/BLE.c **** * 
 345:Generated_Source\PSoC4/BLE.c **** *   <table>
 346:Generated_Source\PSoC4/BLE.c **** *  	  <tr>
 347:Generated_Source\PSoC4/BLE.c **** *       <th>Error codes</th>
 348:Generated_Source\PSoC4/BLE.c **** *       <th>Description</th>
 349:Generated_Source\PSoC4/BLE.c **** *     </tr>
 350:Generated_Source\PSoC4/BLE.c **** *     <tr>
 351:Generated_Source\PSoC4/BLE.c **** *       <td>CYBLE_ERROR_OK</td>
 352:Generated_Source\PSoC4/BLE.c **** *       <td>On successful operation.</td>
 353:Generated_Source\PSoC4/BLE.c **** *     </tr>
 354:Generated_Source\PSoC4/BLE.c **** *     <tr>
ARM GAS  C:\Users\bryan.lee\AppData\Local\Temp\ccDqoJhc.s 			page 10


 355:Generated_Source\PSoC4/BLE.c **** *       <td>CYBLE_ERROR_INVALID_PARAMETER</td>
 356:Generated_Source\PSoC4/BLE.c **** *       <td>On passing a NULL pointer to the function. 
 357:Generated_Source\PSoC4/BLE.c **** *		</td>
 358:Generated_Source\PSoC4/BLE.c **** *     </tr>
 359:Generated_Source\PSoC4/BLE.c **** *     <tr>
 360:Generated_Source\PSoC4/BLE.c **** *       <td>CYBLE_ERROR_REPEATED_ATTEMPTS</td>
 361:Generated_Source\PSoC4/BLE.c **** *       <td>On invoking this function more than once without calling CyBle_Shutdown() 
 362:Generated_Source\PSoC4/BLE.c **** *           function between calls to this function.</td>
 363:Generated_Source\PSoC4/BLE.c **** *     </tr>
 364:Generated_Source\PSoC4/BLE.c **** *     <tr>
 365:Generated_Source\PSoC4/BLE.c **** *       <td>CYBLE_ERROR_MEMORY_ALLOCATION_FAILED</td>
 366:Generated_Source\PSoC4/BLE.c **** *       <td>There is insufficient memory available.</td>
 367:Generated_Source\PSoC4/BLE.c **** *     </tr>
 368:Generated_Source\PSoC4/BLE.c **** *   </table>
 369:Generated_Source\PSoC4/BLE.c **** * 
 370:Generated_Source\PSoC4/BLE.c **** *  \globalvars
 371:Generated_Source\PSoC4/BLE.c **** *   The CyBle_initVar variable is used to indicate initial
 372:Generated_Source\PSoC4/BLE.c **** *   configuration of this component. The variable is initialized to zero (0u)
 373:Generated_Source\PSoC4/BLE.c **** *   and set to one (1u) the first time CyBle_Start() is called. This
 374:Generated_Source\PSoC4/BLE.c **** *   allows for component initialization without re-initialization in all
 375:Generated_Source\PSoC4/BLE.c **** *   subsequent calls to the CyBle_Start() routine.
 376:Generated_Source\PSoC4/BLE.c **** * 
 377:Generated_Source\PSoC4/BLE.c **** ******************************************************************************/
 378:Generated_Source\PSoC4/BLE.c **** CYBLE_API_RESULT_T CyBle_Start(CYBLE_CALLBACK_T callbackFunc)
 379:Generated_Source\PSoC4/BLE.c **** {
 141              		.loc 1 379 0
 142              		.cfi_startproc
 143              		@ args = 0, pretend = 0, frame = 48
 144              		@ frame_needed = 0, uses_anonymous_args = 0
 145              	.LVL2:
 146 0000 10B5     		push	{r4, lr}
 147              		.cfi_def_cfa_offset 8
 148              		.cfi_offset 4, -8
 149              		.cfi_offset 14, -4
 150 0002 90B0     		sub	sp, sp, #64
 151              		.cfi_def_cfa_offset 72
 152 0004 0400     		movs	r4, r0
 153              	.LVL3:
 380:Generated_Source\PSoC4/BLE.c ****     CYBLE_API_RESULT_T apiResult = CYBLE_ERROR_OK;
 381:Generated_Source\PSoC4/BLE.c ****     
 382:Generated_Source\PSoC4/BLE.c ****     #if(CYBLE_MODE_PROFILE)
 383:Generated_Source\PSoC4/BLE.c ****     
 384:Generated_Source\PSoC4/BLE.c ****     CYBLE_STK_APP_DATA_BUFF_T cyBle_stackDataBuff[CYBLE_STACK_APP_MIN_POOL] = 
 154              		.loc 1 384 0
 155 0006 1422     		movs	r2, #20
 156 0008 1F49     		ldr	r1, .L9
 157 000a 0BA8     		add	r0, sp, #44
 158              	.LVL4:
 159 000c FFF7FEFF 		bl	memcpy
 160              	.LVL5:
 385:Generated_Source\PSoC4/BLE.c ****     {
 386:Generated_Source\PSoC4/BLE.c ****         {CYBLE_GATT_MTU_PLUS_L2CAP_MEM_EXT, CYBLE_GATT_MTU_BUFF_COUNT + CYBLE_GATT_MAX_ATTR_BUFF_CO
 387:Generated_Source\PSoC4/BLE.c ****         {CYBLE_L2CAP_PSM_PLUS_L2CAP_MEM_EXT, CYBLE_L2CAP_PSM_COUNT},
 388:Generated_Source\PSoC4/BLE.c ****         {CYBLE_L2CAP_CBFC_PLUS_L2CAP_MEM_EXT, 2u * CYBLE_L2CAP_LOGICAL_CHANNEL_COUNT},
 389:Generated_Source\PSoC4/BLE.c ****         {CYBLE_L2CAP_MTU_PLUS_L2CAP_MEM_EXT, CYBLE_L2CAP_LOGICAL_CHANNEL_COUNT},
 390:Generated_Source\PSoC4/BLE.c ****         {CYBLE_L2CAP_MPS_PLUS_L2CAP_MEM_EXT, CYBLE_L2CAP_LOGICAL_CHANNEL_COUNT * (CYBLE_L2CAP_MTU_M
 391:Generated_Source\PSoC4/BLE.c ****     }; 
ARM GAS  C:\Users\bryan.lee\AppData\Local\Temp\ccDqoJhc.s 			page 11


 392:Generated_Source\PSoC4/BLE.c **** 
 393:Generated_Source\PSoC4/BLE.c ****     #endif /* CYBLE_MODE_PROFILE */
 394:Generated_Source\PSoC4/BLE.c ****     
 395:Generated_Source\PSoC4/BLE.c ****     /* If not initialized then initialize all the required hardware and software */
 396:Generated_Source\PSoC4/BLE.c ****     if(cyBle_initVar == 0u)
 161              		.loc 1 396 0
 162 0010 1E4B     		ldr	r3, .L9+4
 163 0012 1B78     		ldrb	r3, [r3]
 164 0014 002B     		cmp	r3, #0
 165 0016 04D1     		bne	.L6
 397:Generated_Source\PSoC4/BLE.c ****     {
 398:Generated_Source\PSoC4/BLE.c ****         CyBle_Init();
 166              		.loc 1 398 0
 167 0018 FFF7FEFF 		bl	CyBle_Init
 168              	.LVL6:
 399:Generated_Source\PSoC4/BLE.c ****         cyBle_initVar = 1u;
 169              		.loc 1 399 0
 170 001c 0122     		movs	r2, #1
 171 001e 1B4B     		ldr	r3, .L9+4
 172 0020 1A70     		strb	r2, [r3]
 173              	.L6:
 400:Generated_Source\PSoC4/BLE.c ****     }
 401:Generated_Source\PSoC4/BLE.c ****     
 402:Generated_Source\PSoC4/BLE.c ****     if(callbackFunc != NULL)
 174              		.loc 1 402 0
 175 0022 002C     		cmp	r4, #0
 176 0024 2DD0     		beq	.L8
 403:Generated_Source\PSoC4/BLE.c ****     {
 404:Generated_Source\PSoC4/BLE.c ****         CyBle_ApplCallback = callbackFunc;
 177              		.loc 1 404 0
 178 0026 1A4B     		ldr	r3, .L9+8
 179 0028 1C60     		str	r4, [r3]
 180              	.LBB2:
 405:Generated_Source\PSoC4/BLE.c ****         
 406:Generated_Source\PSoC4/BLE.c ****     #if(CYBLE_SHARING_MODE_EXPORT)
 407:Generated_Source\PSoC4/BLE.c ****         if(cyBle_stackMemoryRam == NULL)
 408:Generated_Source\PSoC4/BLE.c ****         {
 409:Generated_Source\PSoC4/BLE.c ****             cyBle_stackMemoryRam = (uint8 *)malloc(CYBLE_STACK_RAM_SIZE);
 410:Generated_Source\PSoC4/BLE.c ****             if(cyBle_stackMemoryRam == NULL)
 411:Generated_Source\PSoC4/BLE.c ****             {
 412:Generated_Source\PSoC4/BLE.c ****                 apiResult = CYBLE_ERROR_MEMORY_ALLOCATION_FAILED;
 413:Generated_Source\PSoC4/BLE.c ****             }
 414:Generated_Source\PSoC4/BLE.c ****         }
 415:Generated_Source\PSoC4/BLE.c ****     #endif /* CYBLE_SHARING_MODE_EXPORT */
 416:Generated_Source\PSoC4/BLE.c ****         if(apiResult == CYBLE_ERROR_OK)
 417:Generated_Source\PSoC4/BLE.c ****         {
 418:Generated_Source\PSoC4/BLE.c ****             CYBLE_DLE_CONFIG_PARAM_T dleConfigParams;
 419:Generated_Source\PSoC4/BLE.c ****             CYBLE_PRIVACY_1_2_CONFIG_PARAM_T privacyConfigParams;
 420:Generated_Source\PSoC4/BLE.c ****             CYBLE_STACK_CONFIG_PARAM_T stackConfig;
 421:Generated_Source\PSoC4/BLE.c ****             uint16 featureHeapReq;
 422:Generated_Source\PSoC4/BLE.c ****             
 423:Generated_Source\PSoC4/BLE.c ****             stackConfig.privacyConfig = &privacyConfigParams;
 181              		.loc 1 423 0
 182 002a 08A8     		add	r0, sp, #32
 183 002c 05AA     		add	r2, sp, #20
 184 002e 4260     		str	r2, [r0, #4]
 424:Generated_Source\PSoC4/BLE.c ****             stackConfig.dleConfig = &dleConfigParams;
ARM GAS  C:\Users\bryan.lee\AppData\Local\Temp\ccDqoJhc.s 			page 12


 185              		.loc 1 424 0
 186 0030 06AB     		add	r3, sp, #24
 187 0032 0893     		str	r3, [sp, #32]
 425:Generated_Source\PSoC4/BLE.c ****             
 426:Generated_Source\PSoC4/BLE.c ****             /* Configure default BLE 4.1 features and enabled 4.2 features */
 427:Generated_Source\PSoC4/BLE.c ****             stackConfig.feature_mask = CYBLE_DLE_FEATURE | CYBLE_LL_PRIVACY_FEATURE | 
 188              		.loc 1 427 0
 189 0034 0021     		movs	r1, #0
 190 0036 0181     		strh	r1, [r0, #8]
 428:Generated_Source\PSoC4/BLE.c ****                                        CYBLE_SECURE_CONN_FEATURE;
 429:Generated_Source\PSoC4/BLE.c **** 
 430:Generated_Source\PSoC4/BLE.c ****             /* Configure DLE */
 431:Generated_Source\PSoC4/BLE.c ****             dleConfigParams.dleMaxTxCapability = CYBLE_LL_MAX_TX_PAYLOAD_SIZE;
 191              		.loc 1 431 0
 192 0038 1B31     		adds	r1, r1, #27
 193 003a 1980     		strh	r1, [r3]
 432:Generated_Source\PSoC4/BLE.c ****             dleConfigParams.dleMaxRxCapability = CYBLE_LL_MAX_RX_PAYLOAD_SIZE;
 194              		.loc 1 432 0
 195 003c 5980     		strh	r1, [r3, #2]
 433:Generated_Source\PSoC4/BLE.c ****             dleConfigParams.dleNumTxBuffer = CYBLE_LL_DEFAULT_NUM_ACL_TX_PACKETS;
 196              		.loc 1 433 0
 197 003e 1739     		subs	r1, r1, #23
 198 0040 1971     		strb	r1, [r3, #4]
 434:Generated_Source\PSoC4/BLE.c ****         #if(CYBLE_DLE_FEATURE_ENABLED)
 435:Generated_Source\PSoC4/BLE.c ****             CyBle_EnableDleFeature();              /* Enable DLE code in stack */
 436:Generated_Source\PSoC4/BLE.c ****         #endif /* CYBLE_DLE_FEATURE_ENABLED */
 437:Generated_Source\PSoC4/BLE.c ****         
 438:Generated_Source\PSoC4/BLE.c ****             /* Configure LL Privacy */
 439:Generated_Source\PSoC4/BLE.c ****             privacyConfigParams.resolvingListSize = CYBLE_MAX_RESOLVABLE_DEVICES;
 199              		.loc 1 439 0
 200 0042 0023     		movs	r3, #0
 201 0044 1370     		strb	r3, [r2]
 440:Generated_Source\PSoC4/BLE.c ****         #if(CYBLE_LL_PRIVACY_FEATURE_ENABLED)
 441:Generated_Source\PSoC4/BLE.c ****             CyBle_EnablePrivacyFeature();          /* Enable LL Privacy code in stack */
 442:Generated_Source\PSoC4/BLE.c ****         #endif /* CYBLE_LL_PRIVACY_FEATURE_ENABLED */
 443:Generated_Source\PSoC4/BLE.c **** 
 444:Generated_Source\PSoC4/BLE.c ****             apiResult = CyBle_StackSetFeatureConfig(&stackConfig, &featureHeapReq);
 202              		.loc 1 444 0
 203 0046 1231     		adds	r1, r1, #18
 204 0048 6944     		add	r1, r1, sp
 205 004a FFF7FEFF 		bl	CyBle_StackSetFeatureConfig
 206              	.LVL7:
 207              	.LBE2:
 445:Generated_Source\PSoC4/BLE.c ****             }
 446:Generated_Source\PSoC4/BLE.c ****     
 447:Generated_Source\PSoC4/BLE.c ****         if(apiResult == CYBLE_ERROR_OK)
 208              		.loc 1 447 0
 209 004e 0028     		cmp	r0, #0
 210 0050 18D1     		bne	.L7
 448:Generated_Source\PSoC4/BLE.c ****         {
 449:Generated_Source\PSoC4/BLE.c ****         
 450:Generated_Source\PSoC4/BLE.c ****         #if(CYBLE_MODE_PROFILE)
 451:Generated_Source\PSoC4/BLE.c ****             #if(CYBLE_BONDING_REQUIREMENT == CYBLE_BONDING_YES)
 452:Generated_Source\PSoC4/BLE.c ****                 apiResult = CyBle_StackInit(&CyBle_EventHandler, cyBle_stackMemoryRam, 
 211              		.loc 1 452 0
 212 0052 104B     		ldr	r3, .L9+12
 213 0054 0293     		str	r3, [sp, #8]
ARM GAS  C:\Users\bryan.lee\AppData\Local\Temp\ccDqoJhc.s 			page 13


 214 0056 104B     		ldr	r3, .L9+16
 215 0058 0193     		str	r3, [sp, #4]
 216 005a 0523     		movs	r3, #5
 217 005c 0093     		str	r3, [sp]
 218 005e 0BAB     		add	r3, sp, #44
 219 0060 AE22     		movs	r2, #174
 220 0062 1201     		lsls	r2, r2, #4
 221 0064 0D49     		ldr	r1, .L9+20
 222 0066 0E48     		ldr	r0, .L9+24
 223              	.LVL8:
 224 0068 FFF7FEFF 		bl	CyBle_StackInit
 225              	.LVL9:
 453:Generated_Source\PSoC4/BLE.c ****                     CYBLE_STACK_RAM_SIZE - CYBLE_GATT_PREPARE_WRITE_BUFF_LEN, cyBle_stackDataBuff, 
 454:Generated_Source\PSoC4/BLE.c ****                     CYBLE_STACK_APP_MIN_POOL, cyBle_flashStorage.stackFlashptr, CYBLE_STACK_FLASH_S
 455:Generated_Source\PSoC4/BLE.c ****             #else
 456:Generated_Source\PSoC4/BLE.c ****                 apiResult = CyBle_StackInit(&CyBle_EventHandler, cyBle_stackMemoryRam, 
 457:Generated_Source\PSoC4/BLE.c ****                     CYBLE_STACK_RAM_SIZE - CYBLE_GATT_PREPARE_WRITE_BUFF_LEN, cyBle_stackDataBuff, 
 458:Generated_Source\PSoC4/BLE.c ****                     CYBLE_STACK_APP_MIN_POOL, NULL, 0u);
 459:Generated_Source\PSoC4/BLE.c ****             #endif  /* CYBLE_BONDING_REQUIREMENT == CYBLE_BONDING_YES */
 460:Generated_Source\PSoC4/BLE.c ****         #else /* HCI mode */
 461:Generated_Source\PSoC4/BLE.c ****             /* The following will perform preparation to use HCI over UART or over
 462:Generated_Source\PSoC4/BLE.c ****                software. But the following fucntions will not initialize the HCI
 463:Generated_Source\PSoC4/BLE.c ****                Transport. This will be done as part of Stack initialization, so
 464:Generated_Source\PSoC4/BLE.c ****                the functions should be called prior CyBle_StackInit().
 465:Generated_Source\PSoC4/BLE.c ****             */
 466:Generated_Source\PSoC4/BLE.c ****             #if (CYBLE_HCI_TYPE == CYBLE_HCI_OVER_UART)
 467:Generated_Source\PSoC4/BLE.c ****                 CyBle_HciUartTransportEnable();
 468:Generated_Source\PSoC4/BLE.c ****             #else
 469:Generated_Source\PSoC4/BLE.c ****                 CyBle_HciSoftTransportEnable();
 470:Generated_Source\PSoC4/BLE.c ****             #endif /* (CYBLE_HCI_TYPE == CYBLE_HCI_OVER_UART) */
 471:Generated_Source\PSoC4/BLE.c ****             /* This will initialize BLE stack for HCI mode operation */
 472:Generated_Source\PSoC4/BLE.c ****             apiResult = CyBle_StackInit(&CyBle_EventHandler, cyBle_stackMemoryRam, CYBLE_STACK_RAM_
 473:Generated_Source\PSoC4/BLE.c ****                 NULL, 0u, NULL, 0u);
 474:Generated_Source\PSoC4/BLE.c ****         #endif /* CYBLE_MODE_PROFILE */
 475:Generated_Source\PSoC4/BLE.c **** 
 476:Generated_Source\PSoC4/BLE.c ****             if(apiResult == CYBLE_ERROR_OK)
 226              		.loc 1 476 0
 227 006c 0028     		cmp	r0, #0
 228 006e 09D1     		bne	.L7
 477:Generated_Source\PSoC4/BLE.c ****             {
 478:Generated_Source\PSoC4/BLE.c ****                 CyBle_SetState(CYBLE_STATE_INITIALIZING);
 229              		.loc 1 478 0
 230 0070 0122     		movs	r2, #1
 231 0072 0C4B     		ldr	r3, .L9+28
 232 0074 1A70     		strb	r2, [r3]
 479:Generated_Source\PSoC4/BLE.c ****                 
 480:Generated_Source\PSoC4/BLE.c ****             #if (CYBLE_GATT_ROLE_CLIENT)
 481:Generated_Source\PSoC4/BLE.c ****                 CyBle_SetClientState(CYBLE_CLIENT_STATE_DISCONNECTED);
 482:Generated_Source\PSoC4/BLE.c ****             #endif /* CYBLE_GATT_ROLE_CLIENT */
 483:Generated_Source\PSoC4/BLE.c ****                 
 484:Generated_Source\PSoC4/BLE.c ****             #if(CYBLE_GATT_ROLE_SERVER)
 485:Generated_Source\PSoC4/BLE.c ****                 apiResult = CyBle_GattsDbRegister(cyBle_gattDB, CYBLE_GATT_DB_INDEX_COUNT, CYBLE_GA
 233              		.loc 1 485 0
 234 0076 0732     		adds	r2, r2, #7
 235 0078 1C21     		movs	r1, #28
 236 007a 0B48     		ldr	r0, .L9+32
 237              	.LVL10:
ARM GAS  C:\Users\bryan.lee\AppData\Local\Temp\ccDqoJhc.s 			page 14


 238 007c FFF7FEFF 		bl	CyBle_GattsDbRegister
 239              	.LVL11:
 240 0080 00E0     		b	.L7
 241              	.LVL12:
 242              	.L8:
 486:Generated_Source\PSoC4/BLE.c ****             #endif /* CYBLE_GATT_ROLE_SERVER */
 487:Generated_Source\PSoC4/BLE.c ****             }
 488:Generated_Source\PSoC4/BLE.c ****         }
 489:Generated_Source\PSoC4/BLE.c ****     }
 490:Generated_Source\PSoC4/BLE.c ****     else
 491:Generated_Source\PSoC4/BLE.c ****     {
 492:Generated_Source\PSoC4/BLE.c ****         apiResult = CYBLE_ERROR_INVALID_PARAMETER;
 243              		.loc 1 492 0
 244 0082 0120     		movs	r0, #1
 245              	.LVL13:
 246              	.L7:
 493:Generated_Source\PSoC4/BLE.c ****     }
 494:Generated_Source\PSoC4/BLE.c **** 
 495:Generated_Source\PSoC4/BLE.c ****     return (apiResult);
 496:Generated_Source\PSoC4/BLE.c **** }
 247              		.loc 1 496 0
 248 0084 10B0     		add	sp, sp, #64
 249              		@ sp needed
 250              	.LVL14:
 251 0086 10BD     		pop	{r4, pc}
 252              	.L10:
 253              		.align	2
 254              	.L9:
 255 0088 00000000 		.word	.LANCHOR1
 256 008c 00000000 		.word	.LANCHOR2
 257 0090 00000000 		.word	CyBle_ApplCallback
 258 0094 79020000 		.word	633
 259 0098 00000000 		.word	cyBle_flashStorage
 260 009c 00000000 		.word	.LANCHOR3
 261 00a0 00000000 		.word	CyBle_EventHandler
 262 00a4 00000000 		.word	cyBle_state
 263 00a8 00000000 		.word	cyBle_gattDB
 264              		.cfi_endproc
 265              	.LFE4:
 266              		.size	CyBle_Start, .-CyBle_Start
 267              		.section	.text.CyBle_Stop,"ax",%progbits
 268              		.align	2
 269              		.global	CyBle_Stop
 270              		.code	16
 271              		.thumb_func
 272              		.type	CyBle_Stop, %function
 273              	CyBle_Stop:
 274              	.LFB5:
 497:Generated_Source\PSoC4/BLE.c **** 
 498:Generated_Source\PSoC4/BLE.c **** 
 499:Generated_Source\PSoC4/BLE.c **** /******************************************************************************
 500:Generated_Source\PSoC4/BLE.c **** * Function Name: CyBle_Stop
 501:Generated_Source\PSoC4/BLE.c **** ***************************************************************************//**
 502:Generated_Source\PSoC4/BLE.c **** * 
 503:Generated_Source\PSoC4/BLE.c **** *  This function stops any ongoing operation in the BLE Stack and forces the 
 504:Generated_Source\PSoC4/BLE.c **** *  BLE Stack to shut down. The only function that can be called after calling
 505:Generated_Source\PSoC4/BLE.c **** *  this function is CyBle_Start(). 
ARM GAS  C:\Users\bryan.lee\AppData\Local\Temp\ccDqoJhc.s 			page 15


 506:Generated_Source\PSoC4/BLE.c **** * 
 507:Generated_Source\PSoC4/BLE.c **** * \return
 508:Generated_Source\PSoC4/BLE.c **** *  None
 509:Generated_Source\PSoC4/BLE.c **** * 
 510:Generated_Source\PSoC4/BLE.c **** ******************************************************************************/
 511:Generated_Source\PSoC4/BLE.c **** void CyBle_Stop(void)
 512:Generated_Source\PSoC4/BLE.c **** {
 275              		.loc 1 512 0
 276              		.cfi_startproc
 277              		@ args = 0, pretend = 0, frame = 0
 278              		@ frame_needed = 0, uses_anonymous_args = 0
 279 0000 10B5     		push	{r4, lr}
 280              		.cfi_def_cfa_offset 8
 281              		.cfi_offset 4, -8
 282              		.cfi_offset 14, -4
 513:Generated_Source\PSoC4/BLE.c ****     CyBle_Shutdown();                         /* Stop all ongoing activities */
 283              		.loc 1 513 0
 284 0002 FFF7FEFF 		bl	CyBle_Shutdown
 285              	.LVL15:
 514:Generated_Source\PSoC4/BLE.c ****     CyBle_SetState(CYBLE_STATE_STOPPED);
 286              		.loc 1 514 0
 287 0006 0022     		movs	r2, #0
 288 0008 014B     		ldr	r3, .L12
 289 000a 1A70     		strb	r2, [r3]
 515:Generated_Source\PSoC4/BLE.c ****     #if(CYBLE_SHARING_MODE_EXPORT)
 516:Generated_Source\PSoC4/BLE.c ****         if(cyBle_stackMemoryRam != NULL)
 517:Generated_Source\PSoC4/BLE.c ****         {
 518:Generated_Source\PSoC4/BLE.c ****             free(cyBle_stackMemoryRam);
 519:Generated_Source\PSoC4/BLE.c ****         }
 520:Generated_Source\PSoC4/BLE.c ****     #endif /* CYBLE_SHARING_MODE_EXPORT */
 521:Generated_Source\PSoC4/BLE.c **** }
 290              		.loc 1 521 0
 291              		@ sp needed
 292 000c 10BD     		pop	{r4, pc}
 293              	.L13:
 294 000e C046     		.align	2
 295              	.L12:
 296 0010 00000000 		.word	cyBle_state
 297              		.cfi_endproc
 298              	.LFE5:
 299              		.size	CyBle_Stop, .-CyBle_Stop
 300              		.section	.text.CyBle_StoreBondingData,"ax",%progbits
 301              		.align	2
 302              		.global	CyBle_StoreBondingData
 303              		.code	16
 304              		.thumb_func
 305              		.type	CyBle_StoreBondingData, %function
 306              	CyBle_StoreBondingData:
 307              	.LFB6:
 522:Generated_Source\PSoC4/BLE.c **** 
 523:Generated_Source\PSoC4/BLE.c **** 
 524:Generated_Source\PSoC4/BLE.c **** #if((CYBLE_GAP_ROLE_PERIPHERAL || CYBLE_GAP_ROLE_CENTRAL) && (CYBLE_BONDING_REQUIREMENT == CYBLE_BO
 525:Generated_Source\PSoC4/BLE.c **** 
 526:Generated_Source\PSoC4/BLE.c ****     
 527:Generated_Source\PSoC4/BLE.c **** /******************************************************************************
 528:Generated_Source\PSoC4/BLE.c **** * Function Name: CyBle_StoreBondingData
 529:Generated_Source\PSoC4/BLE.c **** ***************************************************************************//**
ARM GAS  C:\Users\bryan.lee\AppData\Local\Temp\ccDqoJhc.s 			page 16


 530:Generated_Source\PSoC4/BLE.c **** * 
 531:Generated_Source\PSoC4/BLE.c **** *  This function writes the new bonding data from RAM to the dedicated Flash 
 532:Generated_Source\PSoC4/BLE.c **** *  location as defined by the component. It performs data comparing between RAM
 533:Generated_Source\PSoC4/BLE.c **** *  and Flash before writing to Flash. If there is no change between RAM and Flash
 534:Generated_Source\PSoC4/BLE.c **** *  data, then no write is performed. It writes only one flash row in one call.
 535:Generated_Source\PSoC4/BLE.c **** *  Application should keep calling this function till it return CYBLE_ERROR_OK. 
 536:Generated_Source\PSoC4/BLE.c **** *  This function is available only when Bonding requirement is selected in
 537:Generated_Source\PSoC4/BLE.c **** *  Security settings.    
 538:Generated_Source\PSoC4/BLE.c **** * 
 539:Generated_Source\PSoC4/BLE.c **** *  \param isForceWrite:  If value is set to 0, then stack will check if flash write 
 540:Generated_Source\PSoC4/BLE.c **** *                 is permissible. 
 541:Generated_Source\PSoC4/BLE.c **** *  
 542:Generated_Source\PSoC4/BLE.c **** * \return
 543:Generated_Source\PSoC4/BLE.c **** *  Return value is of type CYBLE_API_RESULT_T.
 544:Generated_Source\PSoC4/BLE.c **** *
 545:Generated_Source\PSoC4/BLE.c **** *   Errors codes                         | Description
 546:Generated_Source\PSoC4/BLE.c **** *   ----------------------------------   | ------------------------------------
 547:Generated_Source\PSoC4/BLE.c **** *   CYBLE_ERROR_OK                       | On successful operation
 548:Generated_Source\PSoC4/BLE.c **** *   CYBLE_ERROR_FLASH_WRITE_NOT_PERMITED | Flash Write is not complete
 549:Generated_Source\PSoC4/BLE.c **** *   CYBLE_ERROR_INVALID_PARAMETER        | Invalid input parameter  
 550:Generated_Source\PSoC4/BLE.c **** *   CYBLE_ERROR_FLASH_WRITE              | Error in flash Write	
 551:Generated_Source\PSoC4/BLE.c ****     
 552:Generated_Source\PSoC4/BLE.c **** *  \sideeffect
 553:Generated_Source\PSoC4/BLE.c **** *   For BLE devices with 128K of Flash memory this function will automatically 
 554:Generated_Source\PSoC4/BLE.c **** *   modify the clock settings for the device.
 555:Generated_Source\PSoC4/BLE.c **** *   Writing to flash requires changes to be done to the IMO (set to 48 MHz)
 556:Generated_Source\PSoC4/BLE.c **** *   and HFCLK (source set to IMO) settings. The configuration is restored before
 557:Generated_Source\PSoC4/BLE.c **** *   returning. This will impact the operation of most of the hardware in the
 558:Generated_Source\PSoC4/BLE.c **** *   device.
 559:Generated_Source\PSoC4/BLE.c **** * 
 560:Generated_Source\PSoC4/BLE.c **** *  \globalvars
 561:Generated_Source\PSoC4/BLE.c **** *   The cyBle_pendingFlashWrite variable is used to detect status
 562:Generated_Source\PSoC4/BLE.c **** *   of pending write to flash operation for stack data and CCCD.
 563:Generated_Source\PSoC4/BLE.c **** *   This function automatically clears pending bits after write operation 
 564:Generated_Source\PSoC4/BLE.c **** *   complete.
 565:Generated_Source\PSoC4/BLE.c **** *     
 566:Generated_Source\PSoC4/BLE.c **** ******************************************************************************/
 567:Generated_Source\PSoC4/BLE.c **** CYBLE_API_RESULT_T CyBle_StoreBondingData(uint8 isForceWrite)
 568:Generated_Source\PSoC4/BLE.c **** {
 308              		.loc 1 568 0
 309              		.cfi_startproc
 310              		@ args = 0, pretend = 0, frame = 32
 311              		@ frame_needed = 0, uses_anonymous_args = 0
 312              	.LVL16:
 313 0000 10B5     		push	{r4, lr}
 314              		.cfi_def_cfa_offset 8
 315              		.cfi_offset 4, -8
 316              		.cfi_offset 14, -4
 317 0002 88B0     		sub	sp, sp, #32
 318              		.cfi_def_cfa_offset 40
 319 0004 0400     		movs	r4, r0
 320              	.LVL17:
 569:Generated_Source\PSoC4/BLE.c ****     CYBLE_API_RESULT_T apiResult = CYBLE_ERROR_OK;
 570:Generated_Source\PSoC4/BLE.c ****     
 571:Generated_Source\PSoC4/BLE.c ****     /* Store Stack data */
 572:Generated_Source\PSoC4/BLE.c ****     if((cyBle_pendingFlashWrite & CYBLE_PENDING_STACK_FLASH_WRITE_BIT) != 0u)
 321              		.loc 1 572 0
ARM GAS  C:\Users\bryan.lee\AppData\Local\Temp\ccDqoJhc.s 			page 17


 322 0006 394B     		ldr	r3, .L25
 323 0008 1B78     		ldrb	r3, [r3]
 324 000a DB07     		lsls	r3, r3, #31
 325 000c 0BD5     		bpl	.L23
 573:Generated_Source\PSoC4/BLE.c ****     {
 574:Generated_Source\PSoC4/BLE.c ****         apiResult = CyBle_StoreStackData(isForceWrite);
 326              		.loc 1 574 0
 327 000e FFF7FEFF 		bl	CyBle_StoreStackData
 328              	.LVL18:
 575:Generated_Source\PSoC4/BLE.c ****         if(apiResult == CYBLE_ERROR_OK)
 329              		.loc 1 575 0
 330 0012 0028     		cmp	r0, #0
 331 0014 0AD1     		bne	.L15
 576:Generated_Source\PSoC4/BLE.c ****         {
 577:Generated_Source\PSoC4/BLE.c ****             cyBle_pendingFlashWrite &= (uint8)~CYBLE_PENDING_STACK_FLASH_WRITE_BIT;
 332              		.loc 1 577 0
 333 0016 354A     		ldr	r2, .L25
 334 0018 1378     		ldrb	r3, [r2]
 335 001a 0121     		movs	r1, #1
 336 001c 8B43     		bics	r3, r1
 337 001e 1370     		strb	r3, [r2]
 578:Generated_Source\PSoC4/BLE.c ****             /* Change apiResult if there are more pending data to store */
 579:Generated_Source\PSoC4/BLE.c ****             if((cyBle_pendingFlashWrite & CYBLE_PENDING_CCCD_FLASH_WRITE_BIT) != 0u)
 338              		.loc 1 579 0
 339 0020 9B07     		lsls	r3, r3, #30
 340 0022 02D4     		bmi	.L24
 341 0024 02E0     		b	.L15
 342              	.LVL19:
 343              	.L23:
 569:Generated_Source\PSoC4/BLE.c ****     
 344              		.loc 1 569 0
 345 0026 0020     		movs	r0, #0
 346              	.LVL20:
 347 0028 00E0     		b	.L15
 348              	.LVL21:
 349              	.L24:
 580:Generated_Source\PSoC4/BLE.c ****             {
 581:Generated_Source\PSoC4/BLE.c ****                 apiResult = CYBLE_ERROR_FLASH_WRITE_NOT_PERMITED;
 350              		.loc 1 581 0
 351 002a 2820     		movs	r0, #40
 352              	.LVL22:
 353              	.L15:
 582:Generated_Source\PSoC4/BLE.c ****             }
 583:Generated_Source\PSoC4/BLE.c ****         }
 584:Generated_Source\PSoC4/BLE.c ****     }
 585:Generated_Source\PSoC4/BLE.c **** #if(CYBLE_GATT_DB_CCCD_COUNT != 0u)
 586:Generated_Source\PSoC4/BLE.c ****     /* Store CCCD values */
 587:Generated_Source\PSoC4/BLE.c ****     if( ((apiResult == CYBLE_ERROR_OK) || (isForceWrite != 0u)) && 
 354              		.loc 1 587 0
 355 002c 0028     		cmp	r0, #0
 356 002e 01D0     		beq	.L16
 357              		.loc 1 587 0 is_stmt 0 discriminator 2
 358 0030 002C     		cmp	r4, #0
 359 0032 1DD0     		beq	.L17
 360              	.L16:
 588:Generated_Source\PSoC4/BLE.c ****         ((cyBle_pendingFlashWrite & CYBLE_PENDING_CCCD_FLASH_WRITE_BIT) != 0u) &&
 361              		.loc 1 588 0 is_stmt 1 discriminator 3
ARM GAS  C:\Users\bryan.lee\AppData\Local\Temp\ccDqoJhc.s 			page 18


 362 0034 2D4B     		ldr	r3, .L25
 363 0036 1B78     		ldrb	r3, [r3]
 587:Generated_Source\PSoC4/BLE.c ****         ((cyBle_pendingFlashWrite & CYBLE_PENDING_CCCD_FLASH_WRITE_BIT) != 0u) &&
 364              		.loc 1 587 0 discriminator 3
 365 0038 9B07     		lsls	r3, r3, #30
 366 003a 19D5     		bpl	.L17
 589:Generated_Source\PSoC4/BLE.c ****         (cyBle_connHandle.bdHandle <= CYBLE_GAP_MAX_BONDED_DEVICE))
 367              		.loc 1 589 0
 368 003c 2C4B     		ldr	r3, .L25+4
 369 003e 1B78     		ldrb	r3, [r3]
 588:Generated_Source\PSoC4/BLE.c ****         ((cyBle_pendingFlashWrite & CYBLE_PENDING_CCCD_FLASH_WRITE_BIT) != 0u) &&
 370              		.loc 1 588 0
 371 0040 042B     		cmp	r3, #4
 372 0042 15D8     		bhi	.L17
 590:Generated_Source\PSoC4/BLE.c ****     {
 591:Generated_Source\PSoC4/BLE.c ****         apiResult = CyBle_StoreAppData(cyBle_attValuesCCCD, cyBle_flashStorage.attValuesCCCDFlashMe
 373              		.loc 1 591 0
 374 0044 5A00     		lsls	r2, r3, #1
 375 0046 D318     		adds	r3, r2, r3
 376 0048 5900     		lsls	r1, r3, #1
 377 004a 9E23     		movs	r3, #158
 378 004c 9B00     		lsls	r3, r3, #2
 379 004e 9C46     		mov	ip, r3
 380 0050 6144     		add	r1, r1, ip
 381 0052 284B     		ldr	r3, .L25+8
 382 0054 C918     		adds	r1, r1, r3
 383 0056 0131     		adds	r1, r1, #1
 384 0058 2300     		movs	r3, r4
 385 005a 0622     		movs	r2, #6
 386 005c 2648     		ldr	r0, .L25+12
 387              	.LVL23:
 388 005e FFF7FEFF 		bl	CyBle_StoreAppData
 389              	.LVL24:
 592:Generated_Source\PSoC4/BLE.c ****                         cyBle_connHandle.bdHandle], CYBLE_GATT_DB_CCCD_COUNT, isForceWrite);
 593:Generated_Source\PSoC4/BLE.c ****         if(apiResult == CYBLE_ERROR_OK)
 390              		.loc 1 593 0
 391 0062 0028     		cmp	r0, #0
 392 0064 04D1     		bne	.L17
 594:Generated_Source\PSoC4/BLE.c ****         {
 595:Generated_Source\PSoC4/BLE.c ****             cyBle_pendingFlashWrite &= (uint8)~CYBLE_PENDING_CCCD_FLASH_WRITE_BIT;
 393              		.loc 1 595 0
 394 0066 214A     		ldr	r2, .L25
 395 0068 1378     		ldrb	r3, [r2]
 396 006a 0221     		movs	r1, #2
 397 006c 8B43     		bics	r3, r1
 398 006e 1370     		strb	r3, [r2]
 399              	.LVL25:
 400              	.L17:
 596:Generated_Source\PSoC4/BLE.c ****         }
 597:Generated_Source\PSoC4/BLE.c ****     }
 598:Generated_Source\PSoC4/BLE.c ****     /* Clear requested CCCD values */
 599:Generated_Source\PSoC4/BLE.c ****     if( ((apiResult == CYBLE_ERROR_OK) || (isForceWrite != 0u)) && 
 401              		.loc 1 599 0
 402 0070 0028     		cmp	r0, #0
 403 0072 01D0     		beq	.L18
 404              		.loc 1 599 0 is_stmt 0 discriminator 2
 405 0074 002C     		cmp	r4, #0
ARM GAS  C:\Users\bryan.lee\AppData\Local\Temp\ccDqoJhc.s 			page 19


 406 0076 36D0     		beq	.L19
 407              	.L18:
 600:Generated_Source\PSoC4/BLE.c ****         ((cyBle_pendingFlashWrite & CYBLE_PENDING_CCCD_FLASH_CLEAR_MASK) != 0u) )
 408              		.loc 1 600 0 is_stmt 1 discriminator 3
 409 0078 1C4B     		ldr	r3, .L25
 410 007a 1B78     		ldrb	r3, [r3]
 599:Generated_Source\PSoC4/BLE.c ****         ((cyBle_pendingFlashWrite & CYBLE_PENDING_CCCD_FLASH_CLEAR_MASK) != 0u) )
 411              		.loc 1 599 0 discriminator 3
 412 007c 0C22     		movs	r2, #12
 413 007e 1A42     		tst	r2, r3
 414 0080 31D0     		beq	.L19
 601:Generated_Source\PSoC4/BLE.c ****     {
 602:Generated_Source\PSoC4/BLE.c ****         if((cyBle_pendingFlashWrite & CYBLE_PENDING_CCCD_FLASH_CLEAR_ALL_BIT) != 0u)
 415              		.loc 1 602 0
 416 0082 1B07     		lsls	r3, r3, #28
 417 0084 12D5     		bpl	.L20
 418              	.LBB3:
 603:Generated_Source\PSoC4/BLE.c ****         {
 604:Generated_Source\PSoC4/BLE.c ****             /* Remove cccd values for all bonded devices */
 605:Generated_Source\PSoC4/BLE.c ****             uint8 defaultValuesCCCD[CYBLE_GAP_MAX_BONDED_DEVICE + 1u][CYBLE_GATT_DB_CCCD_COUNT];
 606:Generated_Source\PSoC4/BLE.c ****             
 607:Generated_Source\PSoC4/BLE.c ****             (void)memset(defaultValuesCCCD, 0, sizeof(defaultValuesCCCD));
 419              		.loc 1 607 0
 420 0086 1232     		adds	r2, r2, #18
 421 0088 0021     		movs	r1, #0
 422 008a 6846     		mov	r0, sp
 423              	.LVL26:
 424 008c FFF7FEFF 		bl	memset
 425              	.LVL27:
 608:Generated_Source\PSoC4/BLE.c **** 
 609:Generated_Source\PSoC4/BLE.c ****             apiResult = CyBle_StoreAppData((uint8 *)defaultValuesCCCD, 
 426              		.loc 1 609 0
 427 0090 2300     		movs	r3, r4
 428 0092 1E22     		movs	r2, #30
 429 0094 1949     		ldr	r1, .L25+16
 430 0096 6846     		mov	r0, sp
 431 0098 FFF7FEFF 		bl	CyBle_StoreAppData
 432              	.LVL28:
 610:Generated_Source\PSoC4/BLE.c ****                 (const uint8 *)cyBle_flashStorage.attValuesCCCDFlashMemory, sizeof(defaultValuesCCC
 611:Generated_Source\PSoC4/BLE.c ****             if(apiResult == CYBLE_ERROR_OK)
 433              		.loc 1 611 0
 434 009c 0028     		cmp	r0, #0
 435 009e 22D1     		bne	.L19
 612:Generated_Source\PSoC4/BLE.c ****             {
 613:Generated_Source\PSoC4/BLE.c ****                 cyBle_pendingFlashWrite &= (uint8)~CYBLE_PENDING_CCCD_FLASH_CLEAR_ALL_BIT;
 436              		.loc 1 613 0
 437 00a0 124A     		ldr	r2, .L25
 438 00a2 1378     		ldrb	r3, [r2]
 439 00a4 0821     		movs	r1, #8
 440 00a6 8B43     		bics	r3, r1
 441 00a8 1370     		strb	r3, [r2]
 442 00aa 1CE0     		b	.L19
 443              	.L20:
 444              	.LBE3:
 445              	.LBB4:
 614:Generated_Source\PSoC4/BLE.c ****             }
 615:Generated_Source\PSoC4/BLE.c ****         }
ARM GAS  C:\Users\bryan.lee\AppData\Local\Temp\ccDqoJhc.s 			page 20


 616:Generated_Source\PSoC4/BLE.c ****         else /* Remove cccd values for particular device */
 617:Generated_Source\PSoC4/BLE.c ****         {
 618:Generated_Source\PSoC4/BLE.c ****             uint8 defaultValuesCCCD[CYBLE_GATT_DB_CCCD_COUNT] = {0u};
 446              		.loc 1 618 0
 447 00ac 0622     		movs	r2, #6
 448 00ae 0021     		movs	r1, #0
 449 00b0 6846     		mov	r0, sp
 450              	.LVL29:
 451 00b2 FFF7FEFF 		bl	memset
 452              	.LVL30:
 619:Generated_Source\PSoC4/BLE.c ****             
 620:Generated_Source\PSoC4/BLE.c ****             apiResult = CyBle_StoreAppData(defaultValuesCCCD, cyBle_flashStorage.attValuesCCCDFlash
 453              		.loc 1 620 0
 454 00b6 124B     		ldr	r3, .L25+20
 455 00b8 5B78     		ldrb	r3, [r3, #1]
 456 00ba 5A00     		lsls	r2, r3, #1
 457 00bc D318     		adds	r3, r2, r3
 458 00be 5900     		lsls	r1, r3, #1
 459 00c0 9E23     		movs	r3, #158
 460 00c2 9B00     		lsls	r3, r3, #2
 461 00c4 9C46     		mov	ip, r3
 462 00c6 6144     		add	r1, r1, ip
 463 00c8 0A4B     		ldr	r3, .L25+8
 464 00ca C918     		adds	r1, r1, r3
 465 00cc 0131     		adds	r1, r1, #1
 466 00ce 2300     		movs	r3, r4
 467 00d0 0622     		movs	r2, #6
 468 00d2 6846     		mov	r0, sp
 469 00d4 FFF7FEFF 		bl	CyBle_StoreAppData
 470              	.LVL31:
 621:Generated_Source\PSoC4/BLE.c ****                                     cyBle_pendingFlashClearCccdHandle], CYBLE_GATT_DB_CCCD_COUNT, i
 622:Generated_Source\PSoC4/BLE.c ****             if(apiResult == CYBLE_ERROR_OK)
 471              		.loc 1 622 0
 472 00d8 0028     		cmp	r0, #0
 473 00da 04D1     		bne	.L19
 623:Generated_Source\PSoC4/BLE.c ****             {
 624:Generated_Source\PSoC4/BLE.c ****                 cyBle_pendingFlashWrite &= (uint8)~CYBLE_PENDING_CCCD_FLASH_CLEAR_BIT;
 474              		.loc 1 624 0
 475 00dc 034A     		ldr	r2, .L25
 476 00de 1378     		ldrb	r3, [r2]
 477 00e0 0421     		movs	r1, #4
 478 00e2 8B43     		bics	r3, r1
 479 00e4 1370     		strb	r3, [r2]
 480              	.LVL32:
 481              	.L19:
 482              	.LBE4:
 625:Generated_Source\PSoC4/BLE.c ****             }
 626:Generated_Source\PSoC4/BLE.c ****         }
 627:Generated_Source\PSoC4/BLE.c ****     }
 628:Generated_Source\PSoC4/BLE.c **** #endif /* CYBLE_GATT_DB_CCCD_COUNT != 0u */
 629:Generated_Source\PSoC4/BLE.c ****     return(apiResult);
 630:Generated_Source\PSoC4/BLE.c **** }
 483              		.loc 1 630 0
 484 00e6 08B0     		add	sp, sp, #32
 485              		@ sp needed
 486 00e8 10BD     		pop	{r4, pc}
 487              	.L26:
ARM GAS  C:\Users\bryan.lee\AppData\Local\Temp\ccDqoJhc.s 			page 21


 488 00ea C046     		.align	2
 489              	.L25:
 490 00ec 00000000 		.word	cyBle_pendingFlashWrite
 491 00f0 00000000 		.word	cyBle_connHandle
 492 00f4 00000000 		.word	cyBle_flashStorage
 493 00f8 00000000 		.word	cyBle_attValuesCCCD
 494 00fc 79020000 		.word	cyBle_flashStorage+633
 495 0100 00000000 		.word	.LANCHOR2
 496              		.cfi_endproc
 497              	.LFE6:
 498              		.size	CyBle_StoreBondingData, .-CyBle_StoreBondingData
 499              		.section	.text.CyBle_GapRemoveBondedDevice,"ax",%progbits
 500              		.align	2
 501              		.global	CyBle_GapRemoveBondedDevice
 502              		.code	16
 503              		.thumb_func
 504              		.type	CyBle_GapRemoveBondedDevice, %function
 505              	CyBle_GapRemoveBondedDevice:
 506              	.LFB7:
 631:Generated_Source\PSoC4/BLE.c **** 
 632:Generated_Source\PSoC4/BLE.c **** 
 633:Generated_Source\PSoC4/BLE.c **** /******************************************************************************
 634:Generated_Source\PSoC4/BLE.c **** * Function Name: CyBle_GapRemoveBondedDevice
 635:Generated_Source\PSoC4/BLE.c **** ***************************************************************************//**
 636:Generated_Source\PSoC4/BLE.c **** * 
 637:Generated_Source\PSoC4/BLE.c **** *  This function marks the device untrusted. It removes the bonding information
 638:Generated_Source\PSoC4/BLE.c **** *  of the device including CCCD values. This function removes device from the
 639:Generated_Source\PSoC4/BLE.c **** *  white list also when autopopulate white list with bonded devices option is
 640:Generated_Source\PSoC4/BLE.c **** *  enabled.
 641:Generated_Source\PSoC4/BLE.c **** * 
 642:Generated_Source\PSoC4/BLE.c **** *  This function is available only when Bonding requirement is selected in
 643:Generated_Source\PSoC4/BLE.c **** *  Security settings.    
 644:Generated_Source\PSoC4/BLE.c **** *
 645:Generated_Source\PSoC4/BLE.c **** *  \param bdAddr: Pointer to peer device address, of type CYBLE_GAP_BD_ADDR_T.
 646:Generated_Source\PSoC4/BLE.c **** *                 If device address is set to 0, then all devices shall be
 647:Generated_Source\PSoC4/BLE.c **** *                 removed from trusted list and white list.
 648:Generated_Source\PSoC4/BLE.c **** *
 649:Generated_Source\PSoC4/BLE.c **** * \return
 650:Generated_Source\PSoC4/BLE.c **** *  CYBLE_API_RESULT_T : Return value indicates if the function succeeded or
 651:Generated_Source\PSoC4/BLE.c **** *  failed. Following are the possible error codes.
 652:Generated_Source\PSoC4/BLE.c **** *
 653:Generated_Source\PSoC4/BLE.c **** *   Errors codes                     | Description
 654:Generated_Source\PSoC4/BLE.c **** *   ---------------------------------| ------------------------------------
 655:Generated_Source\PSoC4/BLE.c **** *   CYBLE_ERROR_OK                   | On successful operation.
 656:Generated_Source\PSoC4/BLE.c **** *   CYBLE_ERROR_INVALID_PARAMETER    | On specifying NULL as input parameter for 'bdAddr'.
 657:Generated_Source\PSoC4/BLE.c **** *   CYBLE_ERROR_INVALID_OPERATION    | Whitelist is already in use or there is pending write to fla
 658:Generated_Source\PSoC4/BLE.c **** *   CYBLE_ERROR_NO_DEVICE_ENTITY     | Device does not exist in the bond list.
 659:Generated_Source\PSoC4/BLE.c **** *
 660:Generated_Source\PSoC4/BLE.c **** *  \globalvars
 661:Generated_Source\PSoC4/BLE.c **** *   The bdHandle is set in cyBle_pendingFlashWrite variable to indicate that
 662:Generated_Source\PSoC4/BLE.c **** *   data should be stored to flash by CyBle_StoreBondingData() afterwards. 
 663:Generated_Source\PSoC4/BLE.c **** *     
 664:Generated_Source\PSoC4/BLE.c **** ******************************************************************************/
 665:Generated_Source\PSoC4/BLE.c **** CYBLE_API_RESULT_T CyBle_GapRemoveBondedDevice(CYBLE_GAP_BD_ADDR_T* bdAddr)
 666:Generated_Source\PSoC4/BLE.c **** {
 507              		.loc 1 666 0
 508              		.cfi_startproc
ARM GAS  C:\Users\bryan.lee\AppData\Local\Temp\ccDqoJhc.s 			page 22


 509              		@ args = 0, pretend = 0, frame = 16
 510              		@ frame_needed = 0, uses_anonymous_args = 0
 511              	.LVL33:
 512 0000 30B5     		push	{r4, r5, lr}
 513              		.cfi_def_cfa_offset 12
 514              		.cfi_offset 4, -12
 515              		.cfi_offset 5, -8
 516              		.cfi_offset 14, -4
 517 0002 85B0     		sub	sp, sp, #20
 518              		.cfi_def_cfa_offset 32
 519 0004 0500     		movs	r5, r0
 520              	.LVL34:
 667:Generated_Source\PSoC4/BLE.c ****     CYBLE_API_RESULT_T apiResult = CYBLE_ERROR_OK;
 668:Generated_Source\PSoC4/BLE.c ****     
 669:Generated_Source\PSoC4/BLE.c ****     if(cyBle_pendingFlashWrite == 0u)
 521              		.loc 1 669 0
 522 0006 174B     		ldr	r3, .L33
 523 0008 1C78     		ldrb	r4, [r3]
 524 000a 002C     		cmp	r4, #0
 525 000c 26D1     		bne	.L32
 526              	.LBB5:
 670:Generated_Source\PSoC4/BLE.c ****     {
 671:Generated_Source\PSoC4/BLE.c ****         
 672:Generated_Source\PSoC4/BLE.c ****     #if(CYBLE_GATT_DB_CCCD_COUNT != 0u)
 673:Generated_Source\PSoC4/BLE.c ****         /* Request to clear CCCD values which will be done by CyBle_StoreBondingData() */
 674:Generated_Source\PSoC4/BLE.c ****         uint8 bDevHandle;
 675:Generated_Source\PSoC4/BLE.c ****         CYBLE_GAP_BD_ADDR_T invalidBdAddr = {{0u,0u,0u,0u,0u,0u}, 0u};
 527              		.loc 1 675 0
 528 000e 0722     		movs	r2, #7
 529 0010 0021     		movs	r1, #0
 530 0012 02A8     		add	r0, sp, #8
 531              	.LVL35:
 532 0014 FFF7FEFF 		bl	memset
 533              	.LVL36:
 676:Generated_Source\PSoC4/BLE.c **** 
 677:Generated_Source\PSoC4/BLE.c ****         if(memcmp(((uint8 *) &(bdAddr->bdAddr)), ((uint8 *) &(invalidBdAddr.bdAddr)), CYBLE_GAP_BD_
 534              		.loc 1 677 0
 535 0018 0622     		movs	r2, #6
 536 001a 02A9     		add	r1, sp, #8
 537 001c 2800     		movs	r0, r5
 538 001e FFF7FEFF 		bl	memcmp
 539              	.LVL37:
 540 0022 0028     		cmp	r0, #0
 541 0024 04D1     		bne	.L29
 678:Generated_Source\PSoC4/BLE.c **** 	    {
 679:Generated_Source\PSoC4/BLE.c ****             /* Request to remove all bonded devices by CyBle_StoreBondingData() */
 680:Generated_Source\PSoC4/BLE.c ****             cyBle_pendingFlashWrite |= CYBLE_PENDING_CCCD_FLASH_CLEAR_ALL_BIT;
 542              		.loc 1 680 0
 543 0026 0823     		movs	r3, #8
 544 0028 1C43     		orrs	r4, r3
 545 002a 0E4B     		ldr	r3, .L33
 546 002c 1C70     		strb	r4, [r3]
 547 002e 0FE0     		b	.L30
 548              	.L29:
 681:Generated_Source\PSoC4/BLE.c ****         }
 682:Generated_Source\PSoC4/BLE.c ****         else
 683:Generated_Source\PSoC4/BLE.c ****         {
ARM GAS  C:\Users\bryan.lee\AppData\Local\Temp\ccDqoJhc.s 			page 23


 684:Generated_Source\PSoC4/BLE.c ****             /* Get the BD handle from Address */
 685:Generated_Source\PSoC4/BLE.c ****             apiResult = CyBle_GapGetPeerBdHandle(&bDevHandle, bdAddr);
 549              		.loc 1 685 0
 550 0030 2900     		movs	r1, r5
 551 0032 6B46     		mov	r3, sp
 552 0034 D81D     		adds	r0, r3, #7
 553 0036 FFF7FEFF 		bl	CyBle_GapGetPeerBdHandle
 554              	.LVL38:
 686:Generated_Source\PSoC4/BLE.c ****             if(apiResult == CYBLE_ERROR_OK)
 555              		.loc 1 686 0
 556 003a 0028     		cmp	r0, #0
 557 003c 08D1     		bne	.L30
 687:Generated_Source\PSoC4/BLE.c ****             {
 688:Generated_Source\PSoC4/BLE.c ****                 /* Store BD handle to clear cccd values by CyBle_StoreBondingData() */
 689:Generated_Source\PSoC4/BLE.c ****                 cyBle_pendingFlashWrite |= CYBLE_PENDING_CCCD_FLASH_CLEAR_BIT;
 558              		.loc 1 689 0
 559 003e 094A     		ldr	r2, .L33
 560 0040 1178     		ldrb	r1, [r2]
 561 0042 0423     		movs	r3, #4
 562 0044 0B43     		orrs	r3, r1
 563 0046 1370     		strb	r3, [r2]
 690:Generated_Source\PSoC4/BLE.c ****                 cyBle_pendingFlashClearCccdHandle = bDevHandle;
 564              		.loc 1 690 0
 565 0048 6B46     		mov	r3, sp
 566 004a DA79     		ldrb	r2, [r3, #7]
 567 004c 064B     		ldr	r3, .L33+4
 568 004e 5A70     		strb	r2, [r3, #1]
 569              	.LVL39:
 570              	.L30:
 691:Generated_Source\PSoC4/BLE.c ****             }
 692:Generated_Source\PSoC4/BLE.c ****         }
 693:Generated_Source\PSoC4/BLE.c ****     #endif /* CYBLE_GATT_DB_CCCD_COUNT != 0u */
 694:Generated_Source\PSoC4/BLE.c ****         if(apiResult == CYBLE_ERROR_OK)
 571              		.loc 1 694 0
 572 0050 0028     		cmp	r0, #0
 573 0052 04D1     		bne	.L28
 695:Generated_Source\PSoC4/BLE.c ****         {
 696:Generated_Source\PSoC4/BLE.c ****             apiResult = CyBle_GapRemoveDeviceFromWhiteList(bdAddr);
 574              		.loc 1 696 0
 575 0054 2800     		movs	r0, r5
 576              	.LVL40:
 577 0056 FFF7FEFF 		bl	CyBle_GapRemoveDeviceFromWhiteList
 578              	.LVL41:
 579 005a 00E0     		b	.L28
 580              	.LVL42:
 581              	.L32:
 582              	.LBE5:
 697:Generated_Source\PSoC4/BLE.c ****         }
 698:Generated_Source\PSoC4/BLE.c ****     }
 699:Generated_Source\PSoC4/BLE.c ****     else
 700:Generated_Source\PSoC4/BLE.c ****     {
 701:Generated_Source\PSoC4/BLE.c ****         apiResult = CYBLE_ERROR_INVALID_OPERATION;
 583              		.loc 1 701 0
 584 005c 0220     		movs	r0, #2
 585              	.LVL43:
 586              	.L28:
 702:Generated_Source\PSoC4/BLE.c ****     }
ARM GAS  C:\Users\bryan.lee\AppData\Local\Temp\ccDqoJhc.s 			page 24


 703:Generated_Source\PSoC4/BLE.c ****     
 704:Generated_Source\PSoC4/BLE.c ****     return(apiResult);
 705:Generated_Source\PSoC4/BLE.c **** }
 587              		.loc 1 705 0
 588 005e 05B0     		add	sp, sp, #20
 589              		@ sp needed
 590              	.LVL44:
 591 0060 30BD     		pop	{r4, r5, pc}
 592              	.L34:
 593 0062 C046     		.align	2
 594              	.L33:
 595 0064 00000000 		.word	cyBle_pendingFlashWrite
 596 0068 00000000 		.word	.LANCHOR2
 597              		.cfi_endproc
 598              	.LFE7:
 599              		.size	CyBle_GapRemoveBondedDevice, .-CyBle_GapRemoveBondedDevice
 600              		.section	.text.CyBle_GapcStartScan,"ax",%progbits
 601              		.align	2
 602              		.global	CyBle_GapcStartScan
 603              		.code	16
 604              		.thumb_func
 605              		.type	CyBle_GapcStartScan, %function
 606              	CyBle_GapcStartScan:
 607              	.LFB8:
 706:Generated_Source\PSoC4/BLE.c **** 
 707:Generated_Source\PSoC4/BLE.c **** 
 708:Generated_Source\PSoC4/BLE.c **** #endif /* (CYBLE_GAP_ROLE_PERIPHERAL || CYBLE_GAP_ROLE_CENTRAL) && (CYBLE_BONDING_REQUIREMENT == CY
 709:Generated_Source\PSoC4/BLE.c **** 
 710:Generated_Source\PSoC4/BLE.c **** 
 711:Generated_Source\PSoC4/BLE.c **** #if(CYBLE_GAP_ROLE_PERIPHERAL || CYBLE_GAP_ROLE_BROADCASTER)
 712:Generated_Source\PSoC4/BLE.c **** 
 713:Generated_Source\PSoC4/BLE.c ****     /******************************************************************************
 714:Generated_Source\PSoC4/BLE.c ****     *  Function Name: CyBle_GappStartAdvertisement
 715:Generated_Source\PSoC4/BLE.c ****     ***************************************************************************//**
 716:Generated_Source\PSoC4/BLE.c ****     *     
 717:Generated_Source\PSoC4/BLE.c ****     *  This function is used to start the advertisement using the advertisement data 
 718:Generated_Source\PSoC4/BLE.c ****     *  set in the component customizer's GUI. After invoking this function, the 
 719:Generated_Source\PSoC4/BLE.c ****     *  device will be available for connection by the devices configured for GAP 
 720:Generated_Source\PSoC4/BLE.c ****     *  central role. It is only included if the device is configured for GAP 
 721:Generated_Source\PSoC4/BLE.c ****     *  Peripheral or GAP Peripheral + Central role.
 722:Generated_Source\PSoC4/BLE.c ****     *  
 723:Generated_Source\PSoC4/BLE.c ****     *  On start of advertisement, GAP Peripheral receives the
 724:Generated_Source\PSoC4/BLE.c ****     *  CYBLE_EVT_GAPP_ADVERTISEMENT_START_STOP event. The following events are 
 725:Generated_Source\PSoC4/BLE.c ****     *  possible on invoking this function:
 726:Generated_Source\PSoC4/BLE.c ****     *  
 727:Generated_Source\PSoC4/BLE.c ****     *  * CYBLE_EVT_GAP_DEVICE_CONNECTED - If the device connects to a GAP Central and 
 728:Generated_Source\PSoC4/BLE.c ****     *    Link Layer Privacy is disabled in component customizer.
 729:Generated_Source\PSoC4/BLE.c ****     *  * CYBLE_EVT_GAP_ENHANCE_CONN_COMPLETE - If the device connects to a GAP Central and 
 730:Generated_Source\PSoC4/BLE.c ****     *    Link Layer Privacy is enabled in component customizer.
 731:Generated_Source\PSoC4/BLE.c ****     *  * CYBLE_EVT_TIMEOUT: If no device in GAP Central mode connects to this 
 732:Generated_Source\PSoC4/BLE.c ****     *                       device within the specified timeout limit. Stack 
 733:Generated_Source\PSoC4/BLE.c ****     *                       automatically initiate stop advertising when Slow 
 734:Generated_Source\PSoC4/BLE.c ****     *                       advertising was initiated, or starts Slow advertising
 735:Generated_Source\PSoC4/BLE.c ****     *                       after Fast advertising timeout occur.
 736:Generated_Source\PSoC4/BLE.c ****     *  * CYBLE_EVT_GAPP_ADVERTISEMENT_START_STOP: If device started or stopped
 737:Generated_Source\PSoC4/BLE.c ****     *                                               advertising. Use CyBle_GetState()
 738:Generated_Source\PSoC4/BLE.c ****     *                                               to determine the state. Sequential 
ARM GAS  C:\Users\bryan.lee\AppData\Local\Temp\ccDqoJhc.s 			page 25


 739:Generated_Source\PSoC4/BLE.c ****     *                                               advertising could be started when
 740:Generated_Source\PSoC4/BLE.c ****     *                                               CYBLE_STATE_DISCONNECTED state is
 741:Generated_Source\PSoC4/BLE.c ****     *                                               returned.
 742:Generated_Source\PSoC4/BLE.c ****     * 
 743:Generated_Source\PSoC4/BLE.c ****     *  \param advertisingIntervalType: Fast or slow advertising interval with timings
 744:Generated_Source\PSoC4/BLE.c ****     *                                 entered in Advertising settings section of the
 745:Generated_Source\PSoC4/BLE.c ****     *                                 customizer.
 746:Generated_Source\PSoC4/BLE.c ****     *  * CYBLE_ADVERTISING_FAST   0x00u
 747:Generated_Source\PSoC4/BLE.c ****     *  * CYBLE_ADVERTISING_SLOW   0x01u
 748:Generated_Source\PSoC4/BLE.c ****     *  * CYBLE_ADVERTISING_CUSTOM 0x02u
 749:Generated_Source\PSoC4/BLE.c ****     * 
 750:Generated_Source\PSoC4/BLE.c ****     * \return
 751:Generated_Source\PSoC4/BLE.c ****     *  CYBLE_API_RESULT_T : Return value indicates if the function succeeded or
 752:Generated_Source\PSoC4/BLE.c ****     *  failed. Following are the possible error codes.
 753:Generated_Source\PSoC4/BLE.c ****     * 
 754:Generated_Source\PSoC4/BLE.c ****     *   Errors codes                      |  Description
 755:Generated_Source\PSoC4/BLE.c ****     *   --------------------------------- |  --------------------------------
 756:Generated_Source\PSoC4/BLE.c ****     *   CYBLE_ERROR_OK                    |  On successful operation.
 757:Generated_Source\PSoC4/BLE.c ****     *   CYBLE_ERROR_INVALID_PARAMETER     |  On passing an invalid parameter.
 758:Generated_Source\PSoC4/BLE.c ****     *   CYBLE_ERROR_INVALID_STATE         |  On calling this function not in Disconnected state.
 759:Generated_Source\PSoC4/BLE.c ****     *
 760:Generated_Source\PSoC4/BLE.c ****     * 
 761:Generated_Source\PSoC4/BLE.c ****     *******************************************************************************/
 762:Generated_Source\PSoC4/BLE.c ****     CYBLE_API_RESULT_T CyBle_GappStartAdvertisement(uint8 advertisingIntervalType)
 763:Generated_Source\PSoC4/BLE.c ****     {
 764:Generated_Source\PSoC4/BLE.c ****         CYBLE_API_RESULT_T apiResult;
 765:Generated_Source\PSoC4/BLE.c ****         
 766:Generated_Source\PSoC4/BLE.c ****         if(advertisingIntervalType > CYBLE_ADVERTISING_CUSTOM)
 767:Generated_Source\PSoC4/BLE.c ****         {
 768:Generated_Source\PSoC4/BLE.c ****             apiResult = CYBLE_ERROR_INVALID_PARAMETER;
 769:Generated_Source\PSoC4/BLE.c ****         }
 770:Generated_Source\PSoC4/BLE.c ****         else if((CYBLE_STATE_DISCONNECTED == CyBle_GetState()) && ((cyBle_eventHandlerFlag & CYBLE_
 771:Generated_Source\PSoC4/BLE.c ****         {   
 772:Generated_Source\PSoC4/BLE.c ****             if(advertisingIntervalType == CYBLE_ADVERTISING_FAST)
 773:Generated_Source\PSoC4/BLE.c ****             {
 774:Generated_Source\PSoC4/BLE.c ****                 cyBle_discoveryModeInfo.advTo = CYBLE_FAST_ADV_TIMEOUT;
 775:Generated_Source\PSoC4/BLE.c ****                 cyBle_discoveryModeInfo.advParam->advIntvMin = CYBLE_FAST_ADV_INT_MIN;
 776:Generated_Source\PSoC4/BLE.c ****                 cyBle_discoveryModeInfo.advParam->advIntvMax = CYBLE_FAST_ADV_INT_MAX;
 777:Generated_Source\PSoC4/BLE.c ****             }
 778:Generated_Source\PSoC4/BLE.c ****             else if(advertisingIntervalType == CYBLE_ADVERTISING_SLOW)
 779:Generated_Source\PSoC4/BLE.c ****             {
 780:Generated_Source\PSoC4/BLE.c ****                 cyBle_discoveryModeInfo.advTo = CYBLE_SLOW_ADV_TIMEOUT;
 781:Generated_Source\PSoC4/BLE.c ****                 cyBle_discoveryModeInfo.advParam->advIntvMin = CYBLE_SLOW_ADV_INT_MIN;
 782:Generated_Source\PSoC4/BLE.c ****                 cyBle_discoveryModeInfo.advParam->advIntvMax = CYBLE_SLOW_ADV_INT_MAX;
 783:Generated_Source\PSoC4/BLE.c ****             }       
 784:Generated_Source\PSoC4/BLE.c ****             else /* Do not update advertising intervals */
 785:Generated_Source\PSoC4/BLE.c ****             {
 786:Generated_Source\PSoC4/BLE.c ****             }
 787:Generated_Source\PSoC4/BLE.c ****             cyBle_advertisingIntervalType = advertisingIntervalType;
 788:Generated_Source\PSoC4/BLE.c ****             apiResult = CyBle_GappEnterDiscoveryMode(&cyBle_discoveryModeInfo);
 789:Generated_Source\PSoC4/BLE.c ****         
 790:Generated_Source\PSoC4/BLE.c ****             if(apiResult == CYBLE_ERROR_OK)
 791:Generated_Source\PSoC4/BLE.c ****             {
 792:Generated_Source\PSoC4/BLE.c ****                 cyBle_eventHandlerFlag |= CYBLE_START_FLAG;
 793:Generated_Source\PSoC4/BLE.c ****             }
 794:Generated_Source\PSoC4/BLE.c ****         }
 795:Generated_Source\PSoC4/BLE.c ****         else
ARM GAS  C:\Users\bryan.lee\AppData\Local\Temp\ccDqoJhc.s 			page 26


 796:Generated_Source\PSoC4/BLE.c ****         {
 797:Generated_Source\PSoC4/BLE.c ****             apiResult = CYBLE_ERROR_INVALID_STATE;
 798:Generated_Source\PSoC4/BLE.c ****         }
 799:Generated_Source\PSoC4/BLE.c **** 
 800:Generated_Source\PSoC4/BLE.c ****         return (apiResult);
 801:Generated_Source\PSoC4/BLE.c ****     }
 802:Generated_Source\PSoC4/BLE.c **** 
 803:Generated_Source\PSoC4/BLE.c ****     
 804:Generated_Source\PSoC4/BLE.c ****     /******************************************************************************
 805:Generated_Source\PSoC4/BLE.c ****     * Function Name: CyBle_GappStopAdvertisement
 806:Generated_Source\PSoC4/BLE.c ****     ***************************************************************************//**
 807:Generated_Source\PSoC4/BLE.c ****     * 
 808:Generated_Source\PSoC4/BLE.c ****     *   This function can be used to exit from discovery mode. After the execution 
 809:Generated_Source\PSoC4/BLE.c ****     *   of this function, there will no longer be any advertisements. On stopping 
 810:Generated_Source\PSoC4/BLE.c ****     *   advertising, GAP Peripheral receives CYBLE_EVT_GAPP_ADVERTISEMENT_START_STOP
 811:Generated_Source\PSoC4/BLE.c ****     *   event. It is expected that the application layer tracks the function call 
 812:Generated_Source\PSoC4/BLE.c ****     *   performed before occurrence of this event as this event can occur on making 
 813:Generated_Source\PSoC4/BLE.c ****     *   a call to Cy_BleGappStartAdvertisement(), CyBle_GappEnterDiscoveryMode(), 
 814:Generated_Source\PSoC4/BLE.c ****     *   or CyBle_GappStartAdvertisement() functions as well.
 815:Generated_Source\PSoC4/BLE.c ****     *   
 816:Generated_Source\PSoC4/BLE.c ****     *   The following event occurs on invoking this function:
 817:Generated_Source\PSoC4/BLE.c ****     *   * CYBLE_EVT_GAPP_ADVERTISEMENT_START_STOP
 818:Generated_Source\PSoC4/BLE.c ****     * 
 819:Generated_Source\PSoC4/BLE.c ****     *  \return
 820:Generated_Source\PSoC4/BLE.c ****     *   None
 821:Generated_Source\PSoC4/BLE.c ****     * 
 822:Generated_Source\PSoC4/BLE.c ****     *******************************************************************************/
 823:Generated_Source\PSoC4/BLE.c ****     void CyBle_GappStopAdvertisement(void)
 824:Generated_Source\PSoC4/BLE.c ****     {
 825:Generated_Source\PSoC4/BLE.c ****         CyBle_GappExitDiscoveryMode();
 826:Generated_Source\PSoC4/BLE.c ****         cyBle_eventHandlerFlag |= CYBLE_STOP_FLAG;
 827:Generated_Source\PSoC4/BLE.c ****     }
 828:Generated_Source\PSoC4/BLE.c ****     
 829:Generated_Source\PSoC4/BLE.c ****     
 830:Generated_Source\PSoC4/BLE.c ****     /******************************************************************************
 831:Generated_Source\PSoC4/BLE.c ****     * Function Name: CyBle_ChangeAdDeviceAddress
 832:Generated_Source\PSoC4/BLE.c ****     ***************************************************************************//**
 833:Generated_Source\PSoC4/BLE.c ****     * 
 834:Generated_Source\PSoC4/BLE.c ****     *  This function is used to set the Bluetooth device address into the 
 835:Generated_Source\PSoC4/BLE.c ****     *  advertisement or scan response data structure.
 836:Generated_Source\PSoC4/BLE.c ****     * 
 837:Generated_Source\PSoC4/BLE.c ****     *  \param bdAddr: Bluetooth Device address. The variable is of type CYBLE_GAP_BD_ADDR_T
 838:Generated_Source\PSoC4/BLE.c ****     *  \param dest: 0 - selects advertisement structure, not zero value selects scan 
 839:Generated_Source\PSoC4/BLE.c ****     *               response structure.
 840:Generated_Source\PSoC4/BLE.c ****     * 
 841:Generated_Source\PSoC4/BLE.c ****     * \return
 842:Generated_Source\PSoC4/BLE.c ****     *  None
 843:Generated_Source\PSoC4/BLE.c ****     *  
 844:Generated_Source\PSoC4/BLE.c ****     *******************************************************************************/
 845:Generated_Source\PSoC4/BLE.c ****     void CyBle_ChangeAdDeviceAddress(const CYBLE_GAP_BD_ADDR_T* bdAddr, uint8 dest)
 846:Generated_Source\PSoC4/BLE.c ****     {
 847:Generated_Source\PSoC4/BLE.c ****         uint8 i;
 848:Generated_Source\PSoC4/BLE.c ****         uint8 *destBuffer = NULL;
 849:Generated_Source\PSoC4/BLE.c ****         
 850:Generated_Source\PSoC4/BLE.c ****         if(dest == 0u)      /* Destination - advertising structure */
 851:Generated_Source\PSoC4/BLE.c ****         {
 852:Generated_Source\PSoC4/BLE.c ****             #ifdef CYBLE_ADV_PKT_INDEX_BLUETOOTH_DEVICE_ADDRESS
ARM GAS  C:\Users\bryan.lee\AppData\Local\Temp\ccDqoJhc.s 			page 27


 853:Generated_Source\PSoC4/BLE.c ****                 destBuffer = &cyBle_discoveryData.advData[CYBLE_ADV_PKT_INDEX_BLUETOOTH_DEVICE_ADDR
 854:Generated_Source\PSoC4/BLE.c ****             #endif /* CYBLE_ADV_PKT_INDEX_BLUETOOTH_DEVICE_ADDRESS */
 855:Generated_Source\PSoC4/BLE.c ****         }
 856:Generated_Source\PSoC4/BLE.c ****         else                /* Destination - scan response structure */
 857:Generated_Source\PSoC4/BLE.c ****         {
 858:Generated_Source\PSoC4/BLE.c ****             #ifdef CYBLE_SCN_PKT_INDEX_BLUETOOTH_DEVICE_ADDRESS
 859:Generated_Source\PSoC4/BLE.c ****                 destBuffer = &cyBle_scanRspData.scanRspData[CYBLE_SCN_PKT_INDEX_BLUETOOTH_DEVICE_AD
 860:Generated_Source\PSoC4/BLE.c ****             #endif /* CYBLE_SCN_PKT_INDEX_BLUETOOTH_DEVICE_ADDRESS */    
 861:Generated_Source\PSoC4/BLE.c ****         }
 862:Generated_Source\PSoC4/BLE.c ****         
 863:Generated_Source\PSoC4/BLE.c ****         if(destBuffer != NULL)
 864:Generated_Source\PSoC4/BLE.c ****         {
 865:Generated_Source\PSoC4/BLE.c ****             /* Update Device Address type */
 866:Generated_Source\PSoC4/BLE.c ****             destBuffer[0u] = bdAddr->type;
 867:Generated_Source\PSoC4/BLE.c ****             
 868:Generated_Source\PSoC4/BLE.c ****             for(i = 0u; i < CYBLE_GAP_BD_ADDR_SIZE; i++)
 869:Generated_Source\PSoC4/BLE.c ****             {
 870:Generated_Source\PSoC4/BLE.c ****                 destBuffer[i + 1u] = bdAddr->bdAddr[i];
 871:Generated_Source\PSoC4/BLE.c ****             }
 872:Generated_Source\PSoC4/BLE.c ****         }
 873:Generated_Source\PSoC4/BLE.c ****     }
 874:Generated_Source\PSoC4/BLE.c ****   
 875:Generated_Source\PSoC4/BLE.c **** #endif /* CYBLE_GAP_ROLE_PERIPHERAL || CYBLE_GAP_ROLE_BROADCASTER */
 876:Generated_Source\PSoC4/BLE.c **** 
 877:Generated_Source\PSoC4/BLE.c **** 
 878:Generated_Source\PSoC4/BLE.c **** #if(CYBLE_GAP_ROLE_CENTRAL || CYBLE_GAP_ROLE_OBSERVER)
 879:Generated_Source\PSoC4/BLE.c **** 
 880:Generated_Source\PSoC4/BLE.c ****     /******************************************************************************
 881:Generated_Source\PSoC4/BLE.c ****     * Function Name: CyBle_GapcStartScan
 882:Generated_Source\PSoC4/BLE.c ****     ***************************************************************************//**
 883:Generated_Source\PSoC4/BLE.c ****     * 
 884:Generated_Source\PSoC4/BLE.c ****     *   This function is used for discovering GAP peripheral devices that are 
 885:Generated_Source\PSoC4/BLE.c ****     *   available for connection. It performs the scanning routine using the 
 886:Generated_Source\PSoC4/BLE.c ****     *   parameters entered in the component's customizer.
 887:Generated_Source\PSoC4/BLE.c ****     *   
 888:Generated_Source\PSoC4/BLE.c ****     *   As soon as the discovery operation starts, CYBLE_EVT_GAPC_SCAN_START_STOP 
 889:Generated_Source\PSoC4/BLE.c ****     *   event is generated. The CYBLE_EVT_GAPC_SCAN_PROGRESS_RESULT event is 
 890:Generated_Source\PSoC4/BLE.c ****     *   generated when a GAP peripheral device is located. There are three discovery
 891:Generated_Source\PSoC4/BLE.c ****     *   procedures can be selected in the customizer's GUI:
 892:Generated_Source\PSoC4/BLE.c ****     *   
 893:Generated_Source\PSoC4/BLE.c ****     *   * Observation procedure: A device performing the observer role receives only
 894:Generated_Source\PSoC4/BLE.c ****     *                            advertisement data from devices irrespective of 
 895:Generated_Source\PSoC4/BLE.c ****     *                            their discoverable mode settings. Advertisement 
 896:Generated_Source\PSoC4/BLE.c ****     *                            data received is provided by the event,      
 897:Generated_Source\PSoC4/BLE.c ****     *                            CYBLE_EVT_GAPC_SCAN_PROGRESS_RESULT. This procedure
 898:Generated_Source\PSoC4/BLE.c ****     *                            requires the scanType sub parameter to be passive
 899:Generated_Source\PSoC4/BLE.c ****     *                            scanning. 
 900:Generated_Source\PSoC4/BLE.c ****     *   
 901:Generated_Source\PSoC4/BLE.c ****     *   * Limited Discovery procedure: A device performing the limited discovery
 902:Generated_Source\PSoC4/BLE.c ****     *                                  procedure receives advertisement data and 
 903:Generated_Source\PSoC4/BLE.c ****     *                                  scan# response data from devices in the 
 904:Generated_Source\PSoC4/BLE.c ****     *                                  limited discoverable mode only. Received data
 905:Generated_Source\PSoC4/BLE.c ****     *                                  is provided by the event, 
 906:Generated_Source\PSoC4/BLE.c ****     *                                  CYBLE_EVT_GAPC_SCAN_PROGRESS_RESULT. This 
 907:Generated_Source\PSoC4/BLE.c ****     *                                  procedure requires the scanType sub-parameter 
 908:Generated_Source\PSoC4/BLE.c ****     *                                  to be active scanning.
 909:Generated_Source\PSoC4/BLE.c ****     *   
ARM GAS  C:\Users\bryan.lee\AppData\Local\Temp\ccDqoJhc.s 			page 28


 910:Generated_Source\PSoC4/BLE.c ****     *   * General Discovery procedure: A device performing the general discovery 
 911:Generated_Source\PSoC4/BLE.c ****     *                                  procedure receives the advertisement data and
 912:Generated_Source\PSoC4/BLE.c ****     *                                  scan response data from devices in both 
 913:Generated_Source\PSoC4/BLE.c ****     *                                  limited discoverable mode and the general 
 914:Generated_Source\PSoC4/BLE.c ****     *                                  discoverable mode. Received data is provided
 915:Generated_Source\PSoC4/BLE.c ****     *                                  by the event,
 916:Generated_Source\PSoC4/BLE.c ****     *                                  CYBLE_EVT_GAPC_SCAN_PROGRESS_RESULT. This 
 917:Generated_Source\PSoC4/BLE.c ****     *                                  procedure requires the scanType sub-parameter
 918:Generated_Source\PSoC4/BLE.c ****     *                                  to be active scanning.
 919:Generated_Source\PSoC4/BLE.c ****     *   
 920:Generated_Source\PSoC4/BLE.c ****     *   Every Advertisement / Scan response packet received results in a new event, 
 921:Generated_Source\PSoC4/BLE.c ****     *   CYBLE_EVT_GAPC_SCAN_PROGRESS_RESULT.
 922:Generated_Source\PSoC4/BLE.c ****     *   If 'scanTo' sub-parameter is a non-zero value, then upon commencement of 
 923:Generated_Source\PSoC4/BLE.c ****     *   discovery procedure and elapsed time = 'scanTo', CYBLE_EVT_TIMEOUT event
 924:Generated_Source\PSoC4/BLE.c ****     *   is generated with the event parameter indicating CYBLE_GAP_SCAN_TO.
 925:Generated_Source\PSoC4/BLE.c ****     *   Possible generated events are:
 926:Generated_Source\PSoC4/BLE.c ****     *   * CYBLE_EVT_GAPC_SCAN_START_STOP: If a device started or stopped scanning. 
 927:Generated_Source\PSoC4/BLE.c ****     *                                     Use CyBle_GetState() to determine the 
 928:Generated_Source\PSoC4/BLE.c ****     *                                     state. Sequential scanning could be 
 929:Generated_Source\PSoC4/BLE.c ****     *                                     started when CYBLE_STATE_DISCONNECTED 
 930:Generated_Source\PSoC4/BLE.c ****     *                                     state is returned. 
 931:Generated_Source\PSoC4/BLE.c ****     *   * CYBLE_EVT_GAPC_SCAN_PROGRESS_RESULT 
 932:Generated_Source\PSoC4/BLE.c ****     *   * CYBLE_EVT_TIMEOUT (CYBLE_GAP_SCAN_TO)
 933:Generated_Source\PSoC4/BLE.c ****     * 
 934:Generated_Source\PSoC4/BLE.c ****     *   \param scanningIntervalType:  Fast or slow scanning interval with
 935:Generated_Source\PSoC4/BLE.c ****     *       timings entered in Scan settings section of the customizer.
 936:Generated_Source\PSoC4/BLE.c ****     * 	  * CYBLE_SCANNING_FAST   0x00u
 937:Generated_Source\PSoC4/BLE.c ****     * 	  * CYBLE_SCANNING_SLOW   0x01u
 938:Generated_Source\PSoC4/BLE.c ****     * 	  * CYBLE_SCANNING_CUSTOM 0x02u
 939:Generated_Source\PSoC4/BLE.c ****     * 
 940:Generated_Source\PSoC4/BLE.c ****     * \return
 941:Generated_Source\PSoC4/BLE.c ****     *  CYBLE_API_RESULT_T : Return value indicates if the function succeeded or
 942:Generated_Source\PSoC4/BLE.c ****     *  failed. Following are the possible error codes.
 943:Generated_Source\PSoC4/BLE.c ****     *
 944:Generated_Source\PSoC4/BLE.c ****     *   Errors codes                       | Description
 945:Generated_Source\PSoC4/BLE.c ****     *   ---------------------------------- | -----------------------------------
 946:Generated_Source\PSoC4/BLE.c ****     *   CYBLE_ERROR_OK                     | On successful operation.
 947:Generated_Source\PSoC4/BLE.c ****     *   CYBLE_ERROR_STACK_INTERNAL         | An error occurred in the BLE stack.
 948:Generated_Source\PSoC4/BLE.c ****     *   CYBLE_ERROR_INVALID_PARAMETER      | On passing an invalid parameter.
 949:Generated_Source\PSoC4/BLE.c ****     *  
 950:Generated_Source\PSoC4/BLE.c ****     *******************************************************************************/
 951:Generated_Source\PSoC4/BLE.c ****     CYBLE_API_RESULT_T CyBle_GapcStartScan(uint8 scanningIntervalType)
 952:Generated_Source\PSoC4/BLE.c ****     {
 608              		.loc 1 952 0
 609              		.cfi_startproc
 610              		@ args = 0, pretend = 0, frame = 0
 611              		@ frame_needed = 0, uses_anonymous_args = 0
 612              	.LVL45:
 613 0000 10B5     		push	{r4, lr}
 614              		.cfi_def_cfa_offset 8
 615              		.cfi_offset 4, -8
 616              		.cfi_offset 14, -4
 953:Generated_Source\PSoC4/BLE.c ****         CYBLE_API_RESULT_T apiResult;
 954:Generated_Source\PSoC4/BLE.c **** 
 955:Generated_Source\PSoC4/BLE.c ****         if(scanningIntervalType > CYBLE_SCANNING_CUSTOM)
 617              		.loc 1 955 0
 618 0002 0228     		cmp	r0, #2
ARM GAS  C:\Users\bryan.lee\AppData\Local\Temp\ccDqoJhc.s 			page 29


 619 0004 20D8     		bhi	.L39
 956:Generated_Source\PSoC4/BLE.c ****         {
 957:Generated_Source\PSoC4/BLE.c ****             apiResult = CYBLE_ERROR_INVALID_PARAMETER;
 958:Generated_Source\PSoC4/BLE.c ****         }
 959:Generated_Source\PSoC4/BLE.c ****         else
 960:Generated_Source\PSoC4/BLE.c ****         {
 961:Generated_Source\PSoC4/BLE.c ****             if(scanningIntervalType == CYBLE_SCANNING_FAST)
 620              		.loc 1 961 0
 621 0006 0028     		cmp	r0, #0
 622 0008 06D1     		bne	.L37
 962:Generated_Source\PSoC4/BLE.c ****             {
 963:Generated_Source\PSoC4/BLE.c ****                 cyBle_discoveryInfo.scanTo = CYBLE_FAST_SCAN_TIMEOUT;
 623              		.loc 1 963 0
 624 000a 104B     		ldr	r3, .L40
 625 000c 1E22     		movs	r2, #30
 626 000e 1A81     		strh	r2, [r3, #8]
 964:Generated_Source\PSoC4/BLE.c ****                 cyBle_discoveryInfo.scanIntv = CYBLE_FAST_SCAN_INTERVAL;
 627              		.loc 1 964 0
 628 0010 1232     		adds	r2, r2, #18
 629 0012 5A80     		strh	r2, [r3, #2]
 965:Generated_Source\PSoC4/BLE.c ****                 cyBle_discoveryInfo.scanWindow = CYBLE_FAST_SCAN_WINDOW;
 630              		.loc 1 965 0
 631 0014 9A80     		strh	r2, [r3, #4]
 632 0016 09E0     		b	.L38
 633              	.L37:
 966:Generated_Source\PSoC4/BLE.c ****             }
 967:Generated_Source\PSoC4/BLE.c ****             else if(scanningIntervalType == CYBLE_SCANNING_SLOW)
 634              		.loc 1 967 0
 635 0018 0128     		cmp	r0, #1
 636 001a 07D1     		bne	.L38
 968:Generated_Source\PSoC4/BLE.c ****             {
 969:Generated_Source\PSoC4/BLE.c ****                 cyBle_discoveryInfo.scanTo = CYBLE_SLOW_SCAN_TIMEOUT;
 637              		.loc 1 969 0
 638 001c 0B4B     		ldr	r3, .L40
 639 001e 9622     		movs	r2, #150
 640 0020 1A81     		strh	r2, [r3, #8]
 970:Generated_Source\PSoC4/BLE.c ****                 cyBle_discoveryInfo.scanIntv = CYBLE_SLOW_SCAN_INTERVAL;
 641              		.loc 1 970 0
 642 0022 8022     		movs	r2, #128
 643 0024 1201     		lsls	r2, r2, #4
 644 0026 5A80     		strh	r2, [r3, #2]
 971:Generated_Source\PSoC4/BLE.c ****                 cyBle_discoveryInfo.scanWindow = CYBLE_SLOW_SCAN_WINDOW;
 645              		.loc 1 971 0
 646 0028 F83A     		subs	r2, r2, #248
 647 002a 9A80     		strh	r2, [r3, #4]
 648              	.L38:
 972:Generated_Source\PSoC4/BLE.c ****             }       
 973:Generated_Source\PSoC4/BLE.c ****             else /* Do not update scanning intervals */
 974:Generated_Source\PSoC4/BLE.c ****             {
 975:Generated_Source\PSoC4/BLE.c ****             }
 976:Generated_Source\PSoC4/BLE.c ****             
 977:Generated_Source\PSoC4/BLE.c ****             cyBle_scanningIntervalType = scanningIntervalType;
 649              		.loc 1 977 0
 650 002c 084B     		ldr	r3, .L40+4
 651 002e 1870     		strb	r0, [r3]
 978:Generated_Source\PSoC4/BLE.c ****             apiResult = CyBle_GapcStartDiscovery(&cyBle_discoveryInfo);
 652              		.loc 1 978 0
ARM GAS  C:\Users\bryan.lee\AppData\Local\Temp\ccDqoJhc.s 			page 30


 653 0030 0648     		ldr	r0, .L40
 654              	.LVL46:
 655 0032 FFF7FEFF 		bl	CyBle_GapcStartDiscovery
 656              	.LVL47:
 979:Generated_Source\PSoC4/BLE.c ****         
 980:Generated_Source\PSoC4/BLE.c ****             if(apiResult == CYBLE_ERROR_OK)
 657              		.loc 1 980 0
 658 0036 0028     		cmp	r0, #0
 659 0038 07D1     		bne	.L36
 981:Generated_Source\PSoC4/BLE.c ****             {
 982:Generated_Source\PSoC4/BLE.c ****                 cyBle_eventHandlerFlag |= CYBLE_START_FLAG;
 660              		.loc 1 982 0
 661 003a 064A     		ldr	r2, .L40+8
 662 003c 1178     		ldrb	r1, [r2]
 663 003e 0423     		movs	r3, #4
 664 0040 0B43     		orrs	r3, r1
 665 0042 DBB2     		uxtb	r3, r3
 666 0044 1370     		strb	r3, [r2]
 667 0046 00E0     		b	.L36
 668              	.LVL48:
 669              	.L39:
 957:Generated_Source\PSoC4/BLE.c ****         }
 670              		.loc 1 957 0
 671 0048 0120     		movs	r0, #1
 672              	.LVL49:
 673              	.L36:
 983:Generated_Source\PSoC4/BLE.c ****             }
 984:Generated_Source\PSoC4/BLE.c ****         }
 985:Generated_Source\PSoC4/BLE.c ****        
 986:Generated_Source\PSoC4/BLE.c ****         return (apiResult);
 987:Generated_Source\PSoC4/BLE.c ****     }
 674              		.loc 1 987 0
 675              		@ sp needed
 676 004a 10BD     		pop	{r4, pc}
 677              	.L41:
 678              		.align	2
 679              	.L40:
 680 004c 00000000 		.word	.LANCHOR0
 681 0050 00000000 		.word	cyBle_scanningIntervalType
 682 0054 00000000 		.word	cyBle_eventHandlerFlag
 683              		.cfi_endproc
 684              	.LFE8:
 685              		.size	CyBle_GapcStartScan, .-CyBle_GapcStartScan
 686              		.section	.text.CyBle_GapcStopScan,"ax",%progbits
 687              		.align	2
 688              		.global	CyBle_GapcStopScan
 689              		.code	16
 690              		.thumb_func
 691              		.type	CyBle_GapcStopScan, %function
 692              	CyBle_GapcStopScan:
 693              	.LFB9:
 988:Generated_Source\PSoC4/BLE.c ****     
 989:Generated_Source\PSoC4/BLE.c ****     
 990:Generated_Source\PSoC4/BLE.c ****     /******************************************************************************
 991:Generated_Source\PSoC4/BLE.c ****     * Function Name: CyBle_GapcStopScan
 992:Generated_Source\PSoC4/BLE.c ****     ***************************************************************************//**
 993:Generated_Source\PSoC4/BLE.c ****     * 
ARM GAS  C:\Users\bryan.lee\AppData\Local\Temp\ccDqoJhc.s 			page 31


 994:Generated_Source\PSoC4/BLE.c ****     *   This function used to stop the discovery of devices. On stopping discovery
 995:Generated_Source\PSoC4/BLE.c ****     *   operation, CYBLE_EVT_GAPC_SCAN_START_STOP event is generated. Application
 996:Generated_Source\PSoC4/BLE.c ****     *   layer needs to keep track of the function call made before receiving this
 997:Generated_Source\PSoC4/BLE.c ****     *   event to associate this event with either the start or stop discovery
 998:Generated_Source\PSoC4/BLE.c ****     *   function.
 999:Generated_Source\PSoC4/BLE.c ****     * 
1000:Generated_Source\PSoC4/BLE.c ****     *   Possible events generated are:
1001:Generated_Source\PSoC4/BLE.c ****     *    * CYBLE_EVT_GAPC_SCAN_START_STOP
1002:Generated_Source\PSoC4/BLE.c ****     * 
1003:Generated_Source\PSoC4/BLE.c ****     *  \return
1004:Generated_Source\PSoC4/BLE.c ****     *   None
1005:Generated_Source\PSoC4/BLE.c ****     * 
1006:Generated_Source\PSoC4/BLE.c ****     *******************************************************************************/
1007:Generated_Source\PSoC4/BLE.c ****     void CyBle_GapcStopScan(void)
1008:Generated_Source\PSoC4/BLE.c ****     {
 694              		.loc 1 1008 0
 695              		.cfi_startproc
 696              		@ args = 0, pretend = 0, frame = 0
 697              		@ frame_needed = 0, uses_anonymous_args = 0
 698 0000 10B5     		push	{r4, lr}
 699              		.cfi_def_cfa_offset 8
 700              		.cfi_offset 4, -8
 701              		.cfi_offset 14, -4
1009:Generated_Source\PSoC4/BLE.c ****         CyBle_GapcStopDiscovery();
 702              		.loc 1 1009 0
 703 0002 FFF7FEFF 		bl	CyBle_GapcStopDiscovery
 704              	.LVL50:
1010:Generated_Source\PSoC4/BLE.c ****         
1011:Generated_Source\PSoC4/BLE.c ****         cyBle_eventHandlerFlag |= CYBLE_STOP_FLAG;
 705              		.loc 1 1011 0
 706 0006 034A     		ldr	r2, .L43
 707 0008 1178     		ldrb	r1, [r2]
 708 000a 0823     		movs	r3, #8
 709 000c 0B43     		orrs	r3, r1
 710 000e DBB2     		uxtb	r3, r3
 711 0010 1370     		strb	r3, [r2]
1012:Generated_Source\PSoC4/BLE.c ****     }
 712              		.loc 1 1012 0
 713              		@ sp needed
 714 0012 10BD     		pop	{r4, pc}
 715              	.L44:
 716              		.align	2
 717              	.L43:
 718 0014 00000000 		.word	cyBle_eventHandlerFlag
 719              		.cfi_endproc
 720              	.LFE9:
 721              		.size	CyBle_GapcStopScan, .-CyBle_GapcStopScan
 722              		.section	.text.CyBle_GapcConnectDevice,"ax",%progbits
 723              		.align	2
 724              		.global	CyBle_GapcConnectDevice
 725              		.code	16
 726              		.thumb_func
 727              		.type	CyBle_GapcConnectDevice, %function
 728              	CyBle_GapcConnectDevice:
 729              	.LFB10:
1013:Generated_Source\PSoC4/BLE.c **** 
1014:Generated_Source\PSoC4/BLE.c ****     
ARM GAS  C:\Users\bryan.lee\AppData\Local\Temp\ccDqoJhc.s 			page 32


1015:Generated_Source\PSoC4/BLE.c **** #endif /* CYBLE_GAP_ROLE_CENTRAL || CYBLE_GAP_ROLE_OBSERVER */
1016:Generated_Source\PSoC4/BLE.c **** 
1017:Generated_Source\PSoC4/BLE.c **** 
1018:Generated_Source\PSoC4/BLE.c **** #if(CYBLE_GAP_ROLE_CENTRAL)
1019:Generated_Source\PSoC4/BLE.c **** 
1020:Generated_Source\PSoC4/BLE.c ****     /******************************************************************************
1021:Generated_Source\PSoC4/BLE.c ****     * Function Name: CyBle_GapcConnectDevice
1022:Generated_Source\PSoC4/BLE.c ****     ***************************************************************************//**
1023:Generated_Source\PSoC4/BLE.c ****     * 
1024:Generated_Source\PSoC4/BLE.c ****     *  This function is used to send a connection request to the remote device with
1025:Generated_Source\PSoC4/BLE.c ****     *  the connection parameters set in the component customizer. This function needs
1026:Generated_Source\PSoC4/BLE.c ****     *  to be called only once after the target device is discovered by 
1027:Generated_Source\PSoC4/BLE.c ****     *  CyBle_GapcStartScan() and further scanning has stopped. Scanning is 
1028:Generated_Source\PSoC4/BLE.c ****     *  successfully stopped on invoking CyBle_GapcStopScan() and then receiving the
1029:Generated_Source\PSoC4/BLE.c ****     *  event CYBLE_EVT_GAPC_SCAN_START_STOP with sub-parameter 'success' = 0x01u.
1030:Generated_Source\PSoC4/BLE.c ****     *  
1031:Generated_Source\PSoC4/BLE.c ****     *  On successful connection, the following events are generated at the GAP 
1032:Generated_Source\PSoC4/BLE.c ****     *  Central device (as well as the GAP Peripheral device), in the following order.
1033:Generated_Source\PSoC4/BLE.c ****     *  * CYBLE_EVT_GATT_CONNECT_IND
1034:Generated_Source\PSoC4/BLE.c ****     *  * CYBLE_EVT_GAP_DEVICE_CONNECTED - If the device connects to a GAP Central and 
1035:Generated_Source\PSoC4/BLE.c ****     *    Link Layer Privacy is disabled in component customizer.
1036:Generated_Source\PSoC4/BLE.c ****     *  * CYBLE_EVT_GAP_ENHANCE_CONN_COMPLETE - If the device connects to a GAP Central and 
1037:Generated_Source\PSoC4/BLE.c ****     *    Link Layer Privacy is enabled in component customizer.
1038:Generated_Source\PSoC4/BLE.c ****     *  * CYBLE_EVT_GAP_DEVICE_CONNECTED
1039:Generated_Source\PSoC4/BLE.c ****     *  
1040:Generated_Source\PSoC4/BLE.c ****     *  A procedure is considered to have timed out if a connection response packet is 
1041:Generated_Source\PSoC4/BLE.c ****     *  not received within time set by cyBle_connectingTimeout global variable
1042:Generated_Source\PSoC4/BLE.c ****     *  (30 seconds by default). CYBLE_EVT_TIMEOUT event with CYBLE_GENERIC_TO parameter
1043:Generated_Source\PSoC4/BLE.c ****     *  will indicate about connection procedure timeout. Connection will automatically
1044:Generated_Source\PSoC4/BLE.c ****     *  be canceled and state will be changed to CYBLE_STATE_DISCONNECTED.
1045:Generated_Source\PSoC4/BLE.c ****     * 
1046:Generated_Source\PSoC4/BLE.c ****     *  \param address: The device address of the remote device to connect to. 
1047:Generated_Source\PSoC4/BLE.c ****     *  
1048:Generated_Source\PSoC4/BLE.c ****     * \return
1049:Generated_Source\PSoC4/BLE.c ****     *  CYBLE_API_RESULT_T : Return value indicates if the function succeeded or 
1050:Generated_Source\PSoC4/BLE.c ****     *  failed. Following are the possible error codes.
1051:Generated_Source\PSoC4/BLE.c ****     *
1052:Generated_Source\PSoC4/BLE.c ****     *   Errors codes                       | Description
1053:Generated_Source\PSoC4/BLE.c ****     *   ------------                       | -----------
1054:Generated_Source\PSoC4/BLE.c ****     *   CYBLE_ERROR_OK                     | On successful operation.
1055:Generated_Source\PSoC4/BLE.c ****     *   CYBLE_ERROR_STACK_INTERNAL         | On error occurred in the BLE stack.
1056:Generated_Source\PSoC4/BLE.c ****     *   CYBLE_ERROR_INVALID_PARAMETER      | On passing an invalid parameter.
1057:Generated_Source\PSoC4/BLE.c ****     *   CYBLE_ERROR_INVALID_STATE          | On calling this function not in Disconnected state.
1058:Generated_Source\PSoC4/BLE.c ****     *  
1059:Generated_Source\PSoC4/BLE.c ****     ******************************************************************************/
1060:Generated_Source\PSoC4/BLE.c ****     CYBLE_API_RESULT_T CyBle_GapcConnectDevice(const CYBLE_GAP_BD_ADDR_T * address)
1061:Generated_Source\PSoC4/BLE.c ****     {
 730              		.loc 1 1061 0
 731              		.cfi_startproc
 732              		@ args = 0, pretend = 0, frame = 0
 733              		@ frame_needed = 0, uses_anonymous_args = 0
 734              	.LVL51:
 735 0000 10B5     		push	{r4, lr}
 736              		.cfi_def_cfa_offset 8
 737              		.cfi_offset 4, -8
 738              		.cfi_offset 14, -4
1062:Generated_Source\PSoC4/BLE.c ****         CYBLE_API_RESULT_T apiResult;
ARM GAS  C:\Users\bryan.lee\AppData\Local\Temp\ccDqoJhc.s 			page 33


1063:Generated_Source\PSoC4/BLE.c ****         uint8 i;
1064:Generated_Source\PSoC4/BLE.c **** 
1065:Generated_Source\PSoC4/BLE.c ****         if(CyBle_GetState() != CYBLE_STATE_DISCONNECTED)
 739              		.loc 1 1065 0
 740 0002 134B     		ldr	r3, .L51
 741 0004 1B78     		ldrb	r3, [r3]
 742 0006 052B     		cmp	r3, #5
 743 0008 1CD1     		bne	.L49
1066:Generated_Source\PSoC4/BLE.c ****         {
1067:Generated_Source\PSoC4/BLE.c ****             apiResult = CYBLE_ERROR_INVALID_STATE;
1068:Generated_Source\PSoC4/BLE.c ****         }
1069:Generated_Source\PSoC4/BLE.c ****         else if(address == NULL)
 744              		.loc 1 1069 0
 745 000a 0028     		cmp	r0, #0
 746 000c 1DD0     		beq	.L50
 747 000e 0023     		movs	r3, #0
 748 0010 05E0     		b	.L47
 749              	.LVL52:
 750              	.L48:
1070:Generated_Source\PSoC4/BLE.c ****         {
1071:Generated_Source\PSoC4/BLE.c ****             apiResult = CYBLE_ERROR_INVALID_PARAMETER;
1072:Generated_Source\PSoC4/BLE.c ****         }
1073:Generated_Source\PSoC4/BLE.c ****         else
1074:Generated_Source\PSoC4/BLE.c ****         {
1075:Generated_Source\PSoC4/BLE.c ****             for(i = 0u; i < CYBLE_GAP_BD_ADDR_SIZE; i++)
1076:Generated_Source\PSoC4/BLE.c ****             {
1077:Generated_Source\PSoC4/BLE.c ****                 cyBle_connectionParameters.peerBdAddr[i] = address->bdAddr[i];
 751              		.loc 1 1077 0 discriminator 3
 752 0012 C15C     		ldrb	r1, [r0, r3]
 753 0014 0F4A     		ldr	r2, .L51+4
 754 0016 D218     		adds	r2, r2, r3
 755 0018 5171     		strb	r1, [r2, #5]
1075:Generated_Source\PSoC4/BLE.c ****             {
 756              		.loc 1 1075 0 discriminator 3
 757 001a 0133     		adds	r3, r3, #1
 758              	.LVL53:
 759 001c DBB2     		uxtb	r3, r3
 760              	.LVL54:
 761              	.L47:
1075:Generated_Source\PSoC4/BLE.c ****             {
 762              		.loc 1 1075 0 is_stmt 0 discriminator 1
 763 001e 052B     		cmp	r3, #5
 764 0020 F7D9     		bls	.L48
1078:Generated_Source\PSoC4/BLE.c ****             }
1079:Generated_Source\PSoC4/BLE.c ****             cyBle_connectionParameters.peerAddrType = address -> type;
 765              		.loc 1 1079 0 is_stmt 1
 766 0022 8379     		ldrb	r3, [r0, #6]
 767              	.LVL55:
 768 0024 0B48     		ldr	r0, .L51+4
 769              	.LVL56:
 770 0026 C372     		strb	r3, [r0, #11]
1080:Generated_Source\PSoC4/BLE.c ****             apiResult = CyBle_GapcInitConnection(&cyBle_connectionParameters);
 771              		.loc 1 1080 0
 772 0028 FFF7FEFF 		bl	CyBle_GapcInitConnection
 773              	.LVL57:
 774 002c 041E     		subs	r4, r0, #0
 775              	.LVL58:
ARM GAS  C:\Users\bryan.lee\AppData\Local\Temp\ccDqoJhc.s 			page 34


1081:Generated_Source\PSoC4/BLE.c ****             
1082:Generated_Source\PSoC4/BLE.c ****             if(apiResult == CYBLE_ERROR_OK)
 776              		.loc 1 1082 0
 777 002e 0DD1     		bne	.L46
1083:Generated_Source\PSoC4/BLE.c ****             {
1084:Generated_Source\PSoC4/BLE.c ****                 CyBle_SetState(CYBLE_STATE_CONNECTING);
 778              		.loc 1 1084 0
 779 0030 0422     		movs	r2, #4
 780 0032 074B     		ldr	r3, .L51
 781 0034 1A70     		strb	r2, [r3]
1085:Generated_Source\PSoC4/BLE.c ****                 if(cyBle_connectingTimeout != 0u)
 782              		.loc 1 1085 0
 783 0036 084B     		ldr	r3, .L51+8
 784 0038 1888     		ldrh	r0, [r3]
 785              	.LVL59:
 786 003a 0028     		cmp	r0, #0
 787 003c 06D0     		beq	.L46
1086:Generated_Source\PSoC4/BLE.c ****                 {
1087:Generated_Source\PSoC4/BLE.c ****                     (void)CyBle_StartTimer(cyBle_connectingTimeout);
 788              		.loc 1 1087 0
 789 003e FFF7FEFF 		bl	CyBle_StartTimer
 790              	.LVL60:
 791 0042 03E0     		b	.L46
 792              	.LVL61:
 793              	.L49:
1067:Generated_Source\PSoC4/BLE.c ****         }
 794              		.loc 1 1067 0
 795 0044 0424     		movs	r4, #4
 796 0046 FF34     		adds	r4, r4, #255
 797 0048 00E0     		b	.L46
 798              	.L50:
1071:Generated_Source\PSoC4/BLE.c ****         }
 799              		.loc 1 1071 0
 800 004a 0124     		movs	r4, #1
 801              	.LVL62:
 802              	.L46:
1088:Generated_Source\PSoC4/BLE.c ****                 }
1089:Generated_Source\PSoC4/BLE.c ****             }
1090:Generated_Source\PSoC4/BLE.c ****         }
1091:Generated_Source\PSoC4/BLE.c ****         return (apiResult);
1092:Generated_Source\PSoC4/BLE.c ****     }
 803              		.loc 1 1092 0
 804 004c 2000     		movs	r0, r4
 805              		@ sp needed
 806              	.LVL63:
 807 004e 10BD     		pop	{r4, pc}
 808              	.L52:
 809              		.align	2
 810              	.L51:
 811 0050 00000000 		.word	cyBle_state
 812 0054 00000000 		.word	cyBle_connectionParameters
 813 0058 00000000 		.word	cyBle_connectingTimeout
 814              		.cfi_endproc
 815              	.LFE10:
 816              		.size	CyBle_GapcConnectDevice, .-CyBle_GapcConnectDevice
 817              		.section	.text.CyBle_GapcCancelDeviceConnection,"ax",%progbits
 818              		.align	2
ARM GAS  C:\Users\bryan.lee\AppData\Local\Temp\ccDqoJhc.s 			page 35


 819              		.global	CyBle_GapcCancelDeviceConnection
 820              		.code	16
 821              		.thumb_func
 822              		.type	CyBle_GapcCancelDeviceConnection, %function
 823              	CyBle_GapcCancelDeviceConnection:
 824              	.LFB11:
1093:Generated_Source\PSoC4/BLE.c ****     
1094:Generated_Source\PSoC4/BLE.c **** 
1095:Generated_Source\PSoC4/BLE.c ****     /******************************************************************************
1096:Generated_Source\PSoC4/BLE.c ****     * Function Name: CyBle_GapcCancelDeviceConnection
1097:Generated_Source\PSoC4/BLE.c ****     ***************************************************************************//**
1098:Generated_Source\PSoC4/BLE.c ****     * 
1099:Generated_Source\PSoC4/BLE.c ****     *  This function cancels a previously initiated connection with the remote 
1100:Generated_Source\PSoC4/BLE.c ****     *  device. It is a blocking function. No event is generated on calling this 
1101:Generated_Source\PSoC4/BLE.c ****     *  function. If the devices are already connected then this function should not
1102:Generated_Source\PSoC4/BLE.c ****     *  be used. If you intend to disconnect from an existing connection, the function
1103:Generated_Source\PSoC4/BLE.c ****     *  CyBle_GapDisconnect() should be used.
1104:Generated_Source\PSoC4/BLE.c ****     * 
1105:Generated_Source\PSoC4/BLE.c ****     * \return
1106:Generated_Source\PSoC4/BLE.c ****     *  CYBLE_API_RESULT_T : Return value indicates if the function succeeded or 
1107:Generated_Source\PSoC4/BLE.c ****     *  failed. Following are the possible error codes.
1108:Generated_Source\PSoC4/BLE.c ****     *
1109:Generated_Source\PSoC4/BLE.c ****     *   Errors codes                       | Description
1110:Generated_Source\PSoC4/BLE.c ****     *   ---------------------------------- | --------------------------------------
1111:Generated_Source\PSoC4/BLE.c ****     *   CYBLE_ERROR_OK                     | On successful operation.
1112:Generated_Source\PSoC4/BLE.c ****     *   CYBLE_ERROR_STACK_INTERNAL         | An error occurred in the BLE stack.
1113:Generated_Source\PSoC4/BLE.c ****     *   CYBLE_ERROR_INVALID_STATE          | On calling this function not in Connecting state.
1114:Generated_Source\PSoC4/BLE.c ****     *  
1115:Generated_Source\PSoC4/BLE.c ****     *******************************************************************************/
1116:Generated_Source\PSoC4/BLE.c ****     CYBLE_API_RESULT_T CyBle_GapcCancelDeviceConnection(void)
1117:Generated_Source\PSoC4/BLE.c ****     {
 825              		.loc 1 1117 0
 826              		.cfi_startproc
 827              		@ args = 0, pretend = 0, frame = 0
 828              		@ frame_needed = 0, uses_anonymous_args = 0
 829 0000 10B5     		push	{r4, lr}
 830              		.cfi_def_cfa_offset 8
 831              		.cfi_offset 4, -8
 832              		.cfi_offset 14, -4
1118:Generated_Source\PSoC4/BLE.c ****         CYBLE_API_RESULT_T apiResult;
1119:Generated_Source\PSoC4/BLE.c ****         
1120:Generated_Source\PSoC4/BLE.c ****         if(CyBle_GetState() != CYBLE_STATE_CONNECTING)
 833              		.loc 1 1120 0
 834 0002 0B4B     		ldr	r3, .L57
 835 0004 1B78     		ldrb	r3, [r3]
 836 0006 042B     		cmp	r3, #4
 837 0008 0ED1     		bne	.L56
1121:Generated_Source\PSoC4/BLE.c ****         {
1122:Generated_Source\PSoC4/BLE.c ****             apiResult = CYBLE_ERROR_INVALID_STATE;
1123:Generated_Source\PSoC4/BLE.c ****         }
1124:Generated_Source\PSoC4/BLE.c ****         else 
1125:Generated_Source\PSoC4/BLE.c ****         {
1126:Generated_Source\PSoC4/BLE.c ****             apiResult = CyBle_GapcCancelConnection();
 838              		.loc 1 1126 0
 839 000a FFF7FEFF 		bl	CyBle_GapcCancelConnection
 840              	.LVL64:
 841 000e 0400     		movs	r4, r0
ARM GAS  C:\Users\bryan.lee\AppData\Local\Temp\ccDqoJhc.s 			page 36


 842              	.LVL65:
1127:Generated_Source\PSoC4/BLE.c ****             
1128:Generated_Source\PSoC4/BLE.c ****             if(cyBle_connectingTimeout != 0u)
 843              		.loc 1 1128 0
 844 0010 084B     		ldr	r3, .L57+4
 845 0012 1B88     		ldrh	r3, [r3]
 846 0014 002B     		cmp	r3, #0
 847 0016 01D0     		beq	.L55
1129:Generated_Source\PSoC4/BLE.c ****             {
1130:Generated_Source\PSoC4/BLE.c ****                 (void)CyBle_StopTimer();
 848              		.loc 1 1130 0
 849 0018 FFF7FEFF 		bl	CyBle_StopTimer
 850              	.LVL66:
 851              	.L55:
1131:Generated_Source\PSoC4/BLE.c ****             }
1132:Generated_Source\PSoC4/BLE.c **** 
1133:Generated_Source\PSoC4/BLE.c ****             if(apiResult == CYBLE_ERROR_OK)
 852              		.loc 1 1133 0
 853 001c 002C     		cmp	r4, #0
 854 001e 05D1     		bne	.L54
1134:Generated_Source\PSoC4/BLE.c ****             {
1135:Generated_Source\PSoC4/BLE.c ****                 CyBle_SetState(CYBLE_STATE_DISCONNECTED);
 855              		.loc 1 1135 0
 856 0020 0522     		movs	r2, #5
 857 0022 034B     		ldr	r3, .L57
 858 0024 1A70     		strb	r2, [r3]
 859 0026 01E0     		b	.L54
 860              	.LVL67:
 861              	.L56:
1122:Generated_Source\PSoC4/BLE.c ****         }
 862              		.loc 1 1122 0
 863 0028 0424     		movs	r4, #4
 864 002a FF34     		adds	r4, r4, #255
 865              	.L54:
 866              	.LVL68:
1136:Generated_Source\PSoC4/BLE.c ****             }
1137:Generated_Source\PSoC4/BLE.c ****         }
1138:Generated_Source\PSoC4/BLE.c ****         return (apiResult);
1139:Generated_Source\PSoC4/BLE.c ****     }    
 867              		.loc 1 1139 0
 868 002c 2000     		movs	r0, r4
 869              		@ sp needed
 870              	.LVL69:
 871 002e 10BD     		pop	{r4, pc}
 872              	.L58:
 873              		.align	2
 874              	.L57:
 875 0030 00000000 		.word	cyBle_state
 876 0034 00000000 		.word	cyBle_connectingTimeout
 877              		.cfi_endproc
 878              	.LFE11:
 879              		.size	CyBle_GapcCancelDeviceConnection, .-CyBle_GapcCancelDeviceConnection
 880              		.section	.text.CyBle_GapSetLocalName,"ax",%progbits
 881              		.align	2
 882              		.global	CyBle_GapSetLocalName
 883              		.code	16
 884              		.thumb_func
ARM GAS  C:\Users\bryan.lee\AppData\Local\Temp\ccDqoJhc.s 			page 37


 885              		.type	CyBle_GapSetLocalName, %function
 886              	CyBle_GapSetLocalName:
 887              	.LFB12:
1140:Generated_Source\PSoC4/BLE.c **** 
1141:Generated_Source\PSoC4/BLE.c ****     
1142:Generated_Source\PSoC4/BLE.c **** #endif /* CYBLE_GAP_ROLE_CENTRAL */
1143:Generated_Source\PSoC4/BLE.c **** 
1144:Generated_Source\PSoC4/BLE.c **** 
1145:Generated_Source\PSoC4/BLE.c **** #if(CYBLE_GATT_ROLE_SERVER)
1146:Generated_Source\PSoC4/BLE.c **** 
1147:Generated_Source\PSoC4/BLE.c **** #if(CYBLE_GAP_ROLE_PERIPHERAL)
1148:Generated_Source\PSoC4/BLE.c **** 
1149:Generated_Source\PSoC4/BLE.c ****         /******************************************************************************
1150:Generated_Source\PSoC4/BLE.c ****         * Function Name: CyBle_ChangeAdLocalName
1151:Generated_Source\PSoC4/BLE.c ****         ***************************************************************************//**
1152:Generated_Source\PSoC4/BLE.c ****         *  This function is used to set the local device name in the advertisement or 
1153:Generated_Source\PSoC4/BLE.c ****         *  scan response data structure.
1154:Generated_Source\PSoC4/BLE.c ****         * 
1155:Generated_Source\PSoC4/BLE.c ****         *  \param name: The local device name string to be set in advertisement data 
1156:Generated_Source\PSoC4/BLE.c ****         *            structure.
1157:Generated_Source\PSoC4/BLE.c ****         *  \param dest: 0 - advertisement structure, not zero value selects scan response
1158:Generated_Source\PSoC4/BLE.c ****         *              structure.
1159:Generated_Source\PSoC4/BLE.c ****         * 
1160:Generated_Source\PSoC4/BLE.c ****         * \return
1161:Generated_Source\PSoC4/BLE.c ****         *  None
1162:Generated_Source\PSoC4/BLE.c ****         *  
1163:Generated_Source\PSoC4/BLE.c ****         *******************************************************************************/
1164:Generated_Source\PSoC4/BLE.c ****         static void CyBle_ChangeAdLocalName(const char8 name[], uint8 dest)
1165:Generated_Source\PSoC4/BLE.c ****         {
1166:Generated_Source\PSoC4/BLE.c ****             uint8 i;
1167:Generated_Source\PSoC4/BLE.c ****             uint8 flag = 0u;
1168:Generated_Source\PSoC4/BLE.c ****             uint8 adLength = 0u;
1169:Generated_Source\PSoC4/BLE.c ****             uint8 byteCounter = 0u;
1170:Generated_Source\PSoC4/BLE.c ****             uint8 *destBuffer;
1171:Generated_Source\PSoC4/BLE.c ****             uint8 maxLength;
1172:Generated_Source\PSoC4/BLE.c ****             
1173:Generated_Source\PSoC4/BLE.c ****             if(dest == 0u)      /* Destination - advertising structure */
1174:Generated_Source\PSoC4/BLE.c ****             {
1175:Generated_Source\PSoC4/BLE.c ****                 destBuffer = cyBle_discoveryData.advData;
1176:Generated_Source\PSoC4/BLE.c ****                 maxLength = cyBle_discoveryData.advDataLen;
1177:Generated_Source\PSoC4/BLE.c ****             }
1178:Generated_Source\PSoC4/BLE.c ****             else                /* Destination - scan response structure */
1179:Generated_Source\PSoC4/BLE.c ****             {
1180:Generated_Source\PSoC4/BLE.c ****                 destBuffer = cyBle_scanRspData.scanRspData;
1181:Generated_Source\PSoC4/BLE.c ****                 maxLength = cyBle_scanRspData.scanRspDataLen;
1182:Generated_Source\PSoC4/BLE.c ****             }
1183:Generated_Source\PSoC4/BLE.c ****             
1184:Generated_Source\PSoC4/BLE.c ****             while((byteCounter < maxLength) && (flag == 0u))
1185:Generated_Source\PSoC4/BLE.c ****             {
1186:Generated_Source\PSoC4/BLE.c ****                 adLength = destBuffer[byteCounter];
1187:Generated_Source\PSoC4/BLE.c ****                 
1188:Generated_Source\PSoC4/BLE.c ****                 if(0u != adLength)
1189:Generated_Source\PSoC4/BLE.c ****                 {
1190:Generated_Source\PSoC4/BLE.c ****                     /* Increment byte counter so it can point to AD type */
1191:Generated_Source\PSoC4/BLE.c ****                     byteCounter++;
1192:Generated_Source\PSoC4/BLE.c ****                     
1193:Generated_Source\PSoC4/BLE.c ****                     if((destBuffer[byteCounter] == CYBLE_SHORT_LOCAL_NAME) || 
ARM GAS  C:\Users\bryan.lee\AppData\Local\Temp\ccDqoJhc.s 			page 38


1194:Generated_Source\PSoC4/BLE.c ****                        (destBuffer[byteCounter] == CYBLE_COMPLETE_LOCAL_NAME))
1195:Generated_Source\PSoC4/BLE.c ****                     {
1196:Generated_Source\PSoC4/BLE.c ****                         /* Start of the Local Name AD type was fount. Set flag and exit the loop. *
1197:Generated_Source\PSoC4/BLE.c ****                         flag = 1u;
1198:Generated_Source\PSoC4/BLE.c ****                     }
1199:Generated_Source\PSoC4/BLE.c ****                     else
1200:Generated_Source\PSoC4/BLE.c ****                     {
1201:Generated_Source\PSoC4/BLE.c ****                         byteCounter += adLength;
1202:Generated_Source\PSoC4/BLE.c ****                     }
1203:Generated_Source\PSoC4/BLE.c ****                 }
1204:Generated_Source\PSoC4/BLE.c ****                 else
1205:Generated_Source\PSoC4/BLE.c ****                 {
1206:Generated_Source\PSoC4/BLE.c ****                     /* The end of advertisement data structure was encountered though exit the loop
1207:Generated_Source\PSoC4/BLE.c ****                     break;
1208:Generated_Source\PSoC4/BLE.c ****                 }
1209:Generated_Source\PSoC4/BLE.c ****             }
1210:Generated_Source\PSoC4/BLE.c ****             
1211:Generated_Source\PSoC4/BLE.c ****             if(0u != flag)
1212:Generated_Source\PSoC4/BLE.c ****             {
1213:Generated_Source\PSoC4/BLE.c ****                 /* Reuse "adLength" to hold location of the last character of local name in 
1214:Generated_Source\PSoC4/BLE.c ****                    AD structure. */
1215:Generated_Source\PSoC4/BLE.c ****                 adLength += byteCounter;
1216:Generated_Source\PSoC4/BLE.c ****                 
1217:Generated_Source\PSoC4/BLE.c ****                 /* Increment byte counter to point to start of the local Name string */
1218:Generated_Source\PSoC4/BLE.c ****                 byteCounter++;
1219:Generated_Source\PSoC4/BLE.c ****                 
1220:Generated_Source\PSoC4/BLE.c ****                 for(i = byteCounter; ((i < (adLength)) && (CYBLE_NULL_CHARCTER != name[i - byteCoun
1221:Generated_Source\PSoC4/BLE.c ****                 {
1222:Generated_Source\PSoC4/BLE.c ****                     destBuffer[i] = (uint8)name[i - byteCounter];
1223:Generated_Source\PSoC4/BLE.c ****                 }
1224:Generated_Source\PSoC4/BLE.c ****                 
1225:Generated_Source\PSoC4/BLE.c ****                 /* This loop handles the case when new local name is shorted than old one.
1226:Generated_Source\PSoC4/BLE.c ****                    In this case all remaining characters should be null characters. */
1227:Generated_Source\PSoC4/BLE.c ****                 while(adLength > i)
1228:Generated_Source\PSoC4/BLE.c ****                 {
1229:Generated_Source\PSoC4/BLE.c ****                     /* Terminate string */
1230:Generated_Source\PSoC4/BLE.c ****                     destBuffer[i] = (uint8)CYBLE_NULL_CHARCTER;
1231:Generated_Source\PSoC4/BLE.c ****                     i++;
1232:Generated_Source\PSoC4/BLE.c ****                 }
1233:Generated_Source\PSoC4/BLE.c ****             }
1234:Generated_Source\PSoC4/BLE.c ****         }
1235:Generated_Source\PSoC4/BLE.c ****         
1236:Generated_Source\PSoC4/BLE.c **** #endif /* (CYBLE_GAP_ROLE_PERIPHERAL) */  
1237:Generated_Source\PSoC4/BLE.c ****     
1238:Generated_Source\PSoC4/BLE.c ****     
1239:Generated_Source\PSoC4/BLE.c ****     /******************************************************************************
1240:Generated_Source\PSoC4/BLE.c ****     * Function Name: CyBle_GapSetLocalName
1241:Generated_Source\PSoC4/BLE.c ****     ***************************************************************************//**
1242:Generated_Source\PSoC4/BLE.c ****     *  This function is used to set the local device name - a Characteristic of the 
1243:Generated_Source\PSoC4/BLE.c ****     *  GAP Service. If the characteristic length entered in the component customizer
1244:Generated_Source\PSoC4/BLE.c ****     *  is shorter than the string specified by the "name" parameter, the local device
1245:Generated_Source\PSoC4/BLE.c ****     *  name will be cut to the length specified in the customizer.
1246:Generated_Source\PSoC4/BLE.c ****     * 
1247:Generated_Source\PSoC4/BLE.c ****     *  \param name: The local device name string. The name string to be written as
1248:Generated_Source\PSoC4/BLE.c ****     *              the local device name. It represents a UTF-8 encoded User
1249:Generated_Source\PSoC4/BLE.c ****     *              Friendly Descriptive Name for the device. The length of the local
1250:Generated_Source\PSoC4/BLE.c ****     *              device string is entered into the component customizer and it can
ARM GAS  C:\Users\bryan.lee\AppData\Local\Temp\ccDqoJhc.s 			page 39


1251:Generated_Source\PSoC4/BLE.c ****     *              be set to a value from 0 to 248 bytes. If the name contained in
1252:Generated_Source\PSoC4/BLE.c ****     *              the parameter is shorter than the length from the customizer, the
1253:Generated_Source\PSoC4/BLE.c ****     *              end of the name is indicated by a NULL octet (0x00).
1254:Generated_Source\PSoC4/BLE.c ****     * 
1255:Generated_Source\PSoC4/BLE.c ****     * \return
1256:Generated_Source\PSoC4/BLE.c ****     *  CYBLE_API_RESULT_T : Return value indicates if the function succeeded or 
1257:Generated_Source\PSoC4/BLE.c ****     *  failed. Following are the possible error codes.
1258:Generated_Source\PSoC4/BLE.c ****     *
1259:Generated_Source\PSoC4/BLE.c ****     *   Errors codes                       | Description
1260:Generated_Source\PSoC4/BLE.c ****     *   ------------                       | -----------
1261:Generated_Source\PSoC4/BLE.c ****     *   CYBLE_ERROR_OK                     | Function completed successfully.
1262:Generated_Source\PSoC4/BLE.c ****     *   CYBLE_ERROR_INVALID_PARAMETER      | On specifying NULL as input parameter
1263:Generated_Source\PSoC4/BLE.c ****     *  
1264:Generated_Source\PSoC4/BLE.c ****     *******************************************************************************/
1265:Generated_Source\PSoC4/BLE.c ****     CYBLE_API_RESULT_T CyBle_GapSetLocalName(const char8 name[])
1266:Generated_Source\PSoC4/BLE.c ****     {
 888              		.loc 1 1266 0
 889              		.cfi_startproc
 890              		@ args = 0, pretend = 0, frame = 0
 891              		@ frame_needed = 0, uses_anonymous_args = 0
 892              	.LVL70:
 893 0000 30B5     		push	{r4, r5, lr}
 894              		.cfi_def_cfa_offset 12
 895              		.cfi_offset 4, -12
 896              		.cfi_offset 5, -8
 897              		.cfi_offset 14, -4
 898              	.LVL71:
1267:Generated_Source\PSoC4/BLE.c ****         CYBLE_API_RESULT_T apiResult = CYBLE_ERROR_OK;
1268:Generated_Source\PSoC4/BLE.c ****         uint8 i;
1269:Generated_Source\PSoC4/BLE.c ****         char8 *ptr;
1270:Generated_Source\PSoC4/BLE.c ****         uint8 charLen;
1271:Generated_Source\PSoC4/BLE.c **** 
1272:Generated_Source\PSoC4/BLE.c ****         if(NULL != name)
 899              		.loc 1 1272 0
 900 0002 0028     		cmp	r0, #0
 901 0004 1ED0     		beq	.L64
1273:Generated_Source\PSoC4/BLE.c ****         {
1274:Generated_Source\PSoC4/BLE.c ****             /* Get the pointer to the Device Name characteristic  */
1275:Generated_Source\PSoC4/BLE.c ****             ptr = (char8 *) CYBLE_GATT_DB_ATTR_GET_ATTR_GEN_PTR(cyBle_gaps.deviceNameCharHandle);
 902              		.loc 1 1275 0
 903 0006 114B     		ldr	r3, .L66
 904 0008 5B88     		ldrh	r3, [r3, #2]
 905 000a 013B     		subs	r3, r3, #1
 906 000c 104D     		ldr	r5, .L66+4
 907 000e 9A00     		lsls	r2, r3, #2
 908 0010 D418     		adds	r4, r2, r3
 909 0012 A100     		lsls	r1, r4, #2
 910 0014 6918     		adds	r1, r5, r1
 911 0016 0969     		ldr	r1, [r1, #16]
 912 0018 4C68     		ldr	r4, [r1, #4]
 913              	.LVL72:
1276:Generated_Source\PSoC4/BLE.c **** 
1277:Generated_Source\PSoC4/BLE.c ****             /* First need to get the maximum length of the characteristic data in the GATT
1278:Generated_Source\PSoC4/BLE.c ****                 database to make sure there is enough place for the data. The length
1279:Generated_Source\PSoC4/BLE.c ****                 can't be longer than 248, so only the LSB of 16 bit of length is to
1280:Generated_Source\PSoC4/BLE.c ****                 be used. */
1281:Generated_Source\PSoC4/BLE.c ****             charLen = (uint8)CYBLE_GATT_DB_ATTR_GET_ATTR_GEN_MAX_LEN(cyBle_gaps.deviceNameCharHandl
ARM GAS  C:\Users\bryan.lee\AppData\Local\Temp\ccDqoJhc.s 			page 40


 914              		.loc 1 1281 0
 915 001a D318     		adds	r3, r2, r3
 916 001c 9A00     		lsls	r2, r3, #2
 917 001e AA18     		adds	r2, r5, r2
 918 0020 117B     		ldrb	r1, [r2, #12]
 919              	.LVL73:
1282:Generated_Source\PSoC4/BLE.c **** 
1283:Generated_Source\PSoC4/BLE.c ****             /* Copy name into characteristic */
1284:Generated_Source\PSoC4/BLE.c ****             for(i = 0u; ((i < charLen) && (CYBLE_NULL_CHARCTER != name[i])); i++)
 920              		.loc 1 1284 0
 921 0022 0023     		movs	r3, #0
 922 0024 02E0     		b	.L61
 923              	.LVL74:
 924              	.L63:
1285:Generated_Source\PSoC4/BLE.c ****             {
1286:Generated_Source\PSoC4/BLE.c ****                 ptr[i] = name[i];
 925              		.loc 1 1286 0 discriminator 4
 926 0026 E254     		strb	r2, [r4, r3]
1284:Generated_Source\PSoC4/BLE.c ****             {
 927              		.loc 1 1284 0 discriminator 4
 928 0028 0133     		adds	r3, r3, #1
 929              	.LVL75:
 930 002a DBB2     		uxtb	r3, r3
 931              	.LVL76:
 932              	.L61:
1284:Generated_Source\PSoC4/BLE.c ****             {
 933              		.loc 1 1284 0 is_stmt 0 discriminator 1
 934 002c 8B42     		cmp	r3, r1
 935 002e 02D2     		bcs	.L62
1284:Generated_Source\PSoC4/BLE.c ****             {
 936              		.loc 1 1284 0 discriminator 3
 937 0030 C25C     		ldrb	r2, [r0, r3]
 938 0032 002A     		cmp	r2, #0
 939 0034 F7D1     		bne	.L63
 940              	.L62:
1287:Generated_Source\PSoC4/BLE.c ****             }
1288:Generated_Source\PSoC4/BLE.c **** 
1289:Generated_Source\PSoC4/BLE.c ****             if(i < charLen)
 941              		.loc 1 1289 0 is_stmt 1
 942 0036 8B42     		cmp	r3, r1
 943 0038 06D2     		bcs	.L65
1290:Generated_Source\PSoC4/BLE.c ****             {
1291:Generated_Source\PSoC4/BLE.c ****                 /* Terminate string */
1292:Generated_Source\PSoC4/BLE.c ****                 ptr[i] = CYBLE_NULL_CHARCTER;
 944              		.loc 1 1292 0
 945 003a E318     		adds	r3, r4, r3
 946              	.LVL77:
 947 003c 0022     		movs	r2, #0
 948 003e 1A70     		strb	r2, [r3]
1267:Generated_Source\PSoC4/BLE.c ****         uint8 i;
 949              		.loc 1 1267 0
 950 0040 0020     		movs	r0, #0
 951              	.LVL78:
 952 0042 02E0     		b	.L60
 953              	.LVL79:
 954              	.L64:
1293:Generated_Source\PSoC4/BLE.c ****             }
ARM GAS  C:\Users\bryan.lee\AppData\Local\Temp\ccDqoJhc.s 			page 41


1294:Generated_Source\PSoC4/BLE.c ****             
1295:Generated_Source\PSoC4/BLE.c ****             /* Set new actual length */
1296:Generated_Source\PSoC4/BLE.c ****             
1297:Generated_Source\PSoC4/BLE.c ****             /* Update device name in advertising and scan response structure */
1298:Generated_Source\PSoC4/BLE.c ****             #if(CYBLE_GAP_ROLE_PERIPHERAL)
1299:Generated_Source\PSoC4/BLE.c ****                 CyBle_ChangeAdLocalName(name, 0u);
1300:Generated_Source\PSoC4/BLE.c ****                 CyBle_ChangeAdLocalName(name, 1u);
1301:Generated_Source\PSoC4/BLE.c ****             #endif /* (CYBLE_GAP_ROLE_PERIPHERAL) */
1302:Generated_Source\PSoC4/BLE.c ****         }
1303:Generated_Source\PSoC4/BLE.c ****         else
1304:Generated_Source\PSoC4/BLE.c ****         {
1305:Generated_Source\PSoC4/BLE.c ****             apiResult = CYBLE_ERROR_INVALID_PARAMETER;
 955              		.loc 1 1305 0
 956 0044 0120     		movs	r0, #1
 957              	.LVL80:
 958 0046 00E0     		b	.L60
 959              	.LVL81:
 960              	.L65:
1267:Generated_Source\PSoC4/BLE.c ****         uint8 i;
 961              		.loc 1 1267 0
 962 0048 0020     		movs	r0, #0
 963              	.LVL82:
 964              	.L60:
1306:Generated_Source\PSoC4/BLE.c ****         }
1307:Generated_Source\PSoC4/BLE.c ****         
1308:Generated_Source\PSoC4/BLE.c ****         return(apiResult);
1309:Generated_Source\PSoC4/BLE.c ****     }
 965              		.loc 1 1309 0
 966              		@ sp needed
 967 004a 30BD     		pop	{r4, r5, pc}
 968              	.L67:
 969              		.align	2
 970              	.L66:
 971 004c 00000000 		.word	cyBle_gaps
 972 0050 00000000 		.word	cyBle_gattDB
 973              		.cfi_endproc
 974              	.LFE12:
 975              		.size	CyBle_GapSetLocalName, .-CyBle_GapSetLocalName
 976              		.section	.text.CyBle_GapGetLocalName,"ax",%progbits
 977              		.align	2
 978              		.global	CyBle_GapGetLocalName
 979              		.code	16
 980              		.thumb_func
 981              		.type	CyBle_GapGetLocalName, %function
 982              	CyBle_GapGetLocalName:
 983              	.LFB13:
1310:Generated_Source\PSoC4/BLE.c **** 
1311:Generated_Source\PSoC4/BLE.c **** 
1312:Generated_Source\PSoC4/BLE.c ****     /******************************************************************************
1313:Generated_Source\PSoC4/BLE.c ****     * Function Name: CyBle_GapGetLocalName
1314:Generated_Source\PSoC4/BLE.c ****     ***************************************************************************//**
1315:Generated_Source\PSoC4/BLE.c ****     *  
1316:Generated_Source\PSoC4/BLE.c ****     *  This function is used to read the local device name - a Characteristic of the 
1317:Generated_Source\PSoC4/BLE.c ****     *  GAP Service.
1318:Generated_Source\PSoC4/BLE.c ****     * 
1319:Generated_Source\PSoC4/BLE.c ****     * \param name: The local device name string. Used to read the local name to the
1320:Generated_Source\PSoC4/BLE.c ****     *             given string array. It represents a UTF-8 encoded User Friendly 
ARM GAS  C:\Users\bryan.lee\AppData\Local\Temp\ccDqoJhc.s 			page 42


1321:Generated_Source\PSoC4/BLE.c ****     *             Descriptive Name for the device. The length of the local device
1322:Generated_Source\PSoC4/BLE.c ****     *             string is entered into the component customizer and it can be set
1323:Generated_Source\PSoC4/BLE.c ****     *             to a value from 0 to 248 bytes. If the name contained in the
1324:Generated_Source\PSoC4/BLE.c ****     *             parameter is shorter than the length from the customizer, the end
1325:Generated_Source\PSoC4/BLE.c ****     *             of the name is indicated by a NULL octet (0x00).
1326:Generated_Source\PSoC4/BLE.c ****     * 
1327:Generated_Source\PSoC4/BLE.c ****     * \return
1328:Generated_Source\PSoC4/BLE.c ****     *  CYBLE_API_RESULT_T : Return value indicates if the function succeeded or 
1329:Generated_Source\PSoC4/BLE.c ****     *  failed. Following are the possible error codes.
1330:Generated_Source\PSoC4/BLE.c ****     *
1331:Generated_Source\PSoC4/BLE.c ****     *   Errors codes                       | Description
1332:Generated_Source\PSoC4/BLE.c ****     *   ------------                       | -----------
1333:Generated_Source\PSoC4/BLE.c ****     *   CYBLE_ERROR_OK                     | Function completed successfully.
1334:Generated_Source\PSoC4/BLE.c ****     *   CYBLE_ERROR_INVALID_PARAMETER      | On specifying NULL as input parameter
1335:Generated_Source\PSoC4/BLE.c ****     *
1336:Generated_Source\PSoC4/BLE.c ****     *******************************************************************************/
1337:Generated_Source\PSoC4/BLE.c ****     CYBLE_API_RESULT_T CyBle_GapGetLocalName(char8 name[])
1338:Generated_Source\PSoC4/BLE.c ****     {
 984              		.loc 1 1338 0
 985              		.cfi_startproc
 986              		@ args = 0, pretend = 0, frame = 0
 987              		@ frame_needed = 0, uses_anonymous_args = 0
 988              	.LVL83:
 989 0000 10B5     		push	{r4, lr}
 990              		.cfi_def_cfa_offset 8
 991              		.cfi_offset 4, -8
 992              		.cfi_offset 14, -4
 993              	.LVL84:
1339:Generated_Source\PSoC4/BLE.c ****         CYBLE_API_RESULT_T apiResult = CYBLE_ERROR_OK;
1340:Generated_Source\PSoC4/BLE.c ****         uint8 charLen;
1341:Generated_Source\PSoC4/BLE.c ****         uint8 i;
1342:Generated_Source\PSoC4/BLE.c ****         char8 *ptr;
1343:Generated_Source\PSoC4/BLE.c **** 
1344:Generated_Source\PSoC4/BLE.c ****         if(NULL != name)
 994              		.loc 1 1344 0
 995 0002 0028     		cmp	r0, #0
 996 0004 19D0     		beq	.L73
1345:Generated_Source\PSoC4/BLE.c ****         {
1346:Generated_Source\PSoC4/BLE.c ****             /* Get the pointer to the Device Name characteristic  */
1347:Generated_Source\PSoC4/BLE.c ****             ptr = (char8 *) CYBLE_GATT_DB_ATTR_GET_ATTR_GEN_PTR(cyBle_gaps.deviceNameCharHandle);
 997              		.loc 1 1347 0
 998 0006 0E4B     		ldr	r3, .L74
 999 0008 5B88     		ldrh	r3, [r3, #2]
 1000 000a 013B     		subs	r3, r3, #1
 1001 000c 9A00     		lsls	r2, r3, #2
 1002 000e D318     		adds	r3, r2, r3
 1003 0010 9A00     		lsls	r2, r3, #2
 1004 0012 0C4B     		ldr	r3, .L74+4
 1005 0014 9A18     		adds	r2, r3, r2
 1006 0016 1369     		ldr	r3, [r2, #16]
 1007 0018 5C68     		ldr	r4, [r3, #4]
 1008              	.LVL85:
1348:Generated_Source\PSoC4/BLE.c **** 
1349:Generated_Source\PSoC4/BLE.c ****             /* First need to get the length of the characteristic data in the GATT
1350:Generated_Source\PSoC4/BLE.c ****                 database to make sure there is enough place for the data. The length
1351:Generated_Source\PSoC4/BLE.c ****                 can't be longer than 248, so only the LSB of 16 bit of length is to
1352:Generated_Source\PSoC4/BLE.c ****                 be used. */
ARM GAS  C:\Users\bryan.lee\AppData\Local\Temp\ccDqoJhc.s 			page 43


1353:Generated_Source\PSoC4/BLE.c ****             charLen = (uint8)CYBLE_GATT_DB_ATTR_GET_ATTR_GEN_LEN(cyBle_gaps.deviceNameCharHandle);
 1009              		.loc 1 1353 0
 1010 001a 1978     		ldrb	r1, [r3]
 1011              	.LVL86:
1354:Generated_Source\PSoC4/BLE.c **** 
1355:Generated_Source\PSoC4/BLE.c ****             /* Copy name from characteristic */
1356:Generated_Source\PSoC4/BLE.c ****             for(i = 0u; ((i < charLen) && (CYBLE_NULL_CHARCTER != ptr[i])); i++)
 1012              		.loc 1 1356 0
 1013 001c 0023     		movs	r3, #0
 1014 001e 02E0     		b	.L70
 1015              	.LVL87:
 1016              	.L72:
1357:Generated_Source\PSoC4/BLE.c ****             {
1358:Generated_Source\PSoC4/BLE.c ****                 name[i] = ptr[i];
 1017              		.loc 1 1358 0 discriminator 4
 1018 0020 C254     		strb	r2, [r0, r3]
1356:Generated_Source\PSoC4/BLE.c ****             {
 1019              		.loc 1 1356 0 discriminator 4
 1020 0022 0133     		adds	r3, r3, #1
 1021              	.LVL88:
 1022 0024 DBB2     		uxtb	r3, r3
 1023              	.LVL89:
 1024              	.L70:
1356:Generated_Source\PSoC4/BLE.c ****             {
 1025              		.loc 1 1356 0 is_stmt 0 discriminator 1
 1026 0026 8B42     		cmp	r3, r1
 1027 0028 02D2     		bcs	.L71
1356:Generated_Source\PSoC4/BLE.c ****             {
 1028              		.loc 1 1356 0 discriminator 3
 1029 002a E25C     		ldrb	r2, [r4, r3]
 1030 002c 002A     		cmp	r2, #0
 1031 002e F7D1     		bne	.L72
 1032              	.L71:
1359:Generated_Source\PSoC4/BLE.c ****             }
1360:Generated_Source\PSoC4/BLE.c **** 
1361:Generated_Source\PSoC4/BLE.c ****             /* Terminate string */
1362:Generated_Source\PSoC4/BLE.c ****             name[i] = CYBLE_NULL_CHARCTER;
 1033              		.loc 1 1362 0 is_stmt 1
 1034 0030 C318     		adds	r3, r0, r3
 1035              	.LVL90:
 1036 0032 0022     		movs	r2, #0
 1037 0034 1A70     		strb	r2, [r3]
1339:Generated_Source\PSoC4/BLE.c ****         uint8 charLen;
 1038              		.loc 1 1339 0
 1039 0036 0020     		movs	r0, #0
 1040              	.LVL91:
 1041 0038 00E0     		b	.L69
 1042              	.LVL92:
 1043              	.L73:
1363:Generated_Source\PSoC4/BLE.c ****         }
1364:Generated_Source\PSoC4/BLE.c ****         else
1365:Generated_Source\PSoC4/BLE.c ****         {
1366:Generated_Source\PSoC4/BLE.c ****             apiResult = CYBLE_ERROR_INVALID_PARAMETER;
 1044              		.loc 1 1366 0
 1045 003a 0120     		movs	r0, #1
 1046              	.LVL93:
 1047              	.L69:
ARM GAS  C:\Users\bryan.lee\AppData\Local\Temp\ccDqoJhc.s 			page 44


1367:Generated_Source\PSoC4/BLE.c ****         }
1368:Generated_Source\PSoC4/BLE.c ****         
1369:Generated_Source\PSoC4/BLE.c ****         return(apiResult);
1370:Generated_Source\PSoC4/BLE.c ****     }
 1048              		.loc 1 1370 0
 1049              		@ sp needed
 1050 003c 10BD     		pop	{r4, pc}
 1051              	.L75:
 1052 003e C046     		.align	2
 1053              	.L74:
 1054 0040 00000000 		.word	cyBle_gaps
 1055 0044 00000000 		.word	cyBle_gattDB
 1056              		.cfi_endproc
 1057              	.LFE13:
 1058              		.size	CyBle_GapGetLocalName, .-CyBle_GapGetLocalName
 1059              		.section	.text.CyBle_Get16ByPtr,"ax",%progbits
 1060              		.align	2
 1061              		.global	CyBle_Get16ByPtr
 1062              		.code	16
 1063              		.thumb_func
 1064              		.type	CyBle_Get16ByPtr, %function
 1065              	CyBle_Get16ByPtr:
 1066              	.LFB14:
1371:Generated_Source\PSoC4/BLE.c **** 
1372:Generated_Source\PSoC4/BLE.c **** #endif /* (CYBLE_GATT_ROLE_SERVER) */
1373:Generated_Source\PSoC4/BLE.c **** 
1374:Generated_Source\PSoC4/BLE.c **** 
1375:Generated_Source\PSoC4/BLE.c **** /******************************************************************************
1376:Generated_Source\PSoC4/BLE.c **** * Function Name: CyBle_Get16ByPtr
1377:Generated_Source\PSoC4/BLE.c **** ***************************************************************************//**
1378:Generated_Source\PSoC4/BLE.c **** * 
1379:Generated_Source\PSoC4/BLE.c **** *  Returns the two-bytes value by using a pointer to the LSB.
1380:Generated_Source\PSoC4/BLE.c **** * 
1381:Generated_Source\PSoC4/BLE.c **** *  \param ptr: Pointer to the LSB of two-bytes data (little endian).
1382:Generated_Source\PSoC4/BLE.c **** * 
1383:Generated_Source\PSoC4/BLE.c **** *  \return
1384:Generated_Source\PSoC4/BLE.c **** *  uint16: Two-bytes data.
1385:Generated_Source\PSoC4/BLE.c **** * 
1386:Generated_Source\PSoC4/BLE.c **** ******************************************************************************/
1387:Generated_Source\PSoC4/BLE.c **** uint16 CyBle_Get16ByPtr(const uint8 ptr[])
1388:Generated_Source\PSoC4/BLE.c **** {
 1067              		.loc 1 1388 0
 1068              		.cfi_startproc
 1069              		@ args = 0, pretend = 0, frame = 0
 1070              		@ frame_needed = 0, uses_anonymous_args = 0
 1071              		@ link register save eliminated.
 1072              	.LVL94:
1389:Generated_Source\PSoC4/BLE.c ****     return ((uint16) ptr[0u] | ((uint16) (((uint16) ptr[1u]) << 8u)));
 1073              		.loc 1 1389 0
 1074 0000 0378     		ldrb	r3, [r0]
 1075 0002 4078     		ldrb	r0, [r0, #1]
 1076              	.LVL95:
 1077 0004 0002     		lsls	r0, r0, #8
 1078 0006 1843     		orrs	r0, r3
1390:Generated_Source\PSoC4/BLE.c **** }
 1079              		.loc 1 1390 0
 1080              		@ sp needed
ARM GAS  C:\Users\bryan.lee\AppData\Local\Temp\ccDqoJhc.s 			page 45


 1081 0008 7047     		bx	lr
 1082              		.cfi_endproc
 1083              	.LFE14:
 1084              		.size	CyBle_Get16ByPtr, .-CyBle_Get16ByPtr
 1085 000a C046     		.section	.text.CyBle_Set16ByPtr,"ax",%progbits
 1086              		.align	2
 1087              		.global	CyBle_Set16ByPtr
 1088              		.code	16
 1089              		.thumb_func
 1090              		.type	CyBle_Set16ByPtr, %function
 1091              	CyBle_Set16ByPtr:
 1092              	.LFB15:
1391:Generated_Source\PSoC4/BLE.c **** 
1392:Generated_Source\PSoC4/BLE.c **** 
1393:Generated_Source\PSoC4/BLE.c **** /******************************************************************************
1394:Generated_Source\PSoC4/BLE.c **** * Function Name: CyBle_Set16ByPtr
1395:Generated_Source\PSoC4/BLE.c **** ***************************************************************************//**
1396:Generated_Source\PSoC4/BLE.c **** * 
1397:Generated_Source\PSoC4/BLE.c **** *  Sets the two-bytes value by using a pointer to the LSB.
1398:Generated_Source\PSoC4/BLE.c **** * 
1399:Generated_Source\PSoC4/BLE.c **** *  \param ptr:    Pointer to the LSB of two-bytes data (little endian).
1400:Generated_Source\PSoC4/BLE.c **** *  \param value:  Two-bytes data to be written.
1401:Generated_Source\PSoC4/BLE.c **** * 
1402:Generated_Source\PSoC4/BLE.c **** *  \return
1403:Generated_Source\PSoC4/BLE.c **** *  None
1404:Generated_Source\PSoC4/BLE.c **** * 
1405:Generated_Source\PSoC4/BLE.c **** ******************************************************************************/
1406:Generated_Source\PSoC4/BLE.c **** void CyBle_Set16ByPtr(uint8 ptr[], uint16 value)
1407:Generated_Source\PSoC4/BLE.c **** {
 1093              		.loc 1 1407 0
 1094              		.cfi_startproc
 1095              		@ args = 0, pretend = 0, frame = 0
 1096              		@ frame_needed = 0, uses_anonymous_args = 0
 1097              		@ link register save eliminated.
 1098              	.LVL96:
1408:Generated_Source\PSoC4/BLE.c ****     ptr[0u] = (uint8) value;
 1099              		.loc 1 1408 0
 1100 0000 0170     		strb	r1, [r0]
1409:Generated_Source\PSoC4/BLE.c ****     ptr[1u] = (uint8) (value >> 8u);
 1101              		.loc 1 1409 0
 1102 0002 090A     		lsrs	r1, r1, #8
 1103              	.LVL97:
 1104 0004 4170     		strb	r1, [r0, #1]
1410:Generated_Source\PSoC4/BLE.c **** }
 1105              		.loc 1 1410 0
 1106              		@ sp needed
 1107 0006 7047     		bx	lr
 1108              		.cfi_endproc
 1109              	.LFE15:
 1110              		.size	CyBle_Set16ByPtr, .-CyBle_Set16ByPtr
 1111              		.global	cyBle_sflashDeviceAddress
 1112              		.global	cyBle_deviceAddress
 1113              		.comm	CyBle_ApplCallback,4,4
 1114              		.comm	cyBle_pendingFlashWrite,1,1
 1115              		.comm	cyBle_peerBonding,1,1
 1116              		.global	cyBle_discoveryInfo
 1117              		.comm	cyBle_connectingTimeout,2,2
ARM GAS  C:\Users\bryan.lee\AppData\Local\Temp\ccDqoJhc.s 			page 46


 1118              		.comm	cyBle_connectionParameters,26,4
 1119              		.global	cyBle_stackMemoryRam
 1120              		.global	cyBle_initVar
 1121              		.section	.rodata
 1122              		.align	2
 1123              		.set	.LANCHOR1,. + 0
 1124              	.LC0:
 1125 0000 2400     		.short	36
 1126 0002 03       		.byte	3
 1127 0003 00       		.space	1
 1128 0004 3000     		.short	48
 1129 0006 01       		.byte	1
 1130 0007 00       		.space	1
 1131 0008 2800     		.short	40
 1132 000a 02       		.byte	2
 1133 000b 00       		.space	1
 1134 000c 2400     		.short	36
 1135 000e 01       		.byte	1
 1136 000f 00       		.space	1
 1137 0010 2400     		.short	36
 1138 0012 01       		.byte	1
 1139 0013 00       		.space	1
 1140              		.data
 1141              		.align	2
 1142              		.set	.LANCHOR0,. + 0
 1143              		.type	cyBle_discoveryInfo, %object
 1144              		.size	cyBle_discoveryInfo, 12
 1145              	cyBle_discoveryInfo:
 1146 0000 02       		.byte	2
 1147 0001 01       		.byte	1
 1148 0002 3000     		.short	48
 1149 0004 3000     		.short	48
 1150 0006 00       		.byte	0
 1151 0007 00       		.byte	0
 1152 0008 1E00     		.short	30
 1153 000a 00       		.byte	0
 1154 000b 00       		.space	1
 1155              		.type	cyBle_sflashDeviceAddress, %object
 1156              		.size	cyBle_sflashDeviceAddress, 4
 1157              	cyBle_sflashDeviceAddress:
 1158 000c 00F2FF0F 		.word	268431872
 1159              		.type	cyBle_deviceAddress, %object
 1160              		.size	cyBle_deviceAddress, 7
 1161              	cyBle_deviceAddress:
 1162 0010 00       		.byte	0
 1163 0011 00       		.byte	0
 1164 0012 00       		.byte	0
 1165 0013 50       		.byte	80
 1166 0014 A0       		.byte	-96
 1167 0015 00       		.byte	0
 1168 0016 00       		.byte	0
 1169              		.section	.noinit,"aw",%progbits
 1170              		.align	3
 1171              		.set	.LANCHOR3,. + 0
 1172              		.type	cyBle_stackMemoryRam, %object
 1173              		.size	cyBle_stackMemoryRam, 2784
 1174              	cyBle_stackMemoryRam:
ARM GAS  C:\Users\bryan.lee\AppData\Local\Temp\ccDqoJhc.s 			page 47


 1175 0000 00000000 		.space	2784
 1175      00000000 
 1175      00000000 
 1175      00000000 
 1175      00000000 
 1176              		.bss
 1177              		.set	.LANCHOR2,. + 0
 1178              		.type	cyBle_initVar, %object
 1179              		.size	cyBle_initVar, 1
 1180              	cyBle_initVar:
 1181 0000 00       		.space	1
 1182              		.type	cyBle_pendingFlashClearCccdHandle, %object
 1183              		.size	cyBle_pendingFlashClearCccdHandle, 1
 1184              	cyBle_pendingFlashClearCccdHandle:
 1185 0001 00       		.space	1
 1186              		.text
 1187              	.Letext0:
 1188              		.file 2 "Generated_Source\\PSoC4\\cytypes.h"
 1189              		.file 3 "Generated_Source\\PSoC4\\BLE_Stack.h"
 1190              		.file 4 "Generated_Source\\PSoC4\\BLE_StackGap.h"
 1191              		.file 5 "Generated_Source\\PSoC4\\BLE_StackGatt.h"
 1192              		.file 6 "Generated_Source\\PSoC4\\BLE_StackGattDb.h"
 1193              		.file 7 "Generated_Source\\PSoC4\\BLE.h"
 1194              		.file 8 "Generated_Source\\PSoC4\\BLE_gatt.h"
 1195              		.file 9 "Generated_Source\\PSoC4\\BLE_ans.h"
 1196              		.file 10 "Generated_Source\\PSoC4\\BLE_eventHandler.h"
 1197              		.file 11 "Generated_Source\\PSoC4\\BLE_StackHostMain.h"
 1198              		.file 12 "c:\\program files (x86)\\cypress\\psoc creator\\4.2\\psoc creator\\import\\gnu\\arm\\5.4