ARM GAS  C:\Users\bryan.lee\AppData\Local\Temp\ccDnhgKc.s 			page 1


   1              		.syntax unified
   2              		.cpu cortex-m0
   3              		.fpu softvfp
   4              		.eabi_attribute 20, 1
   5              		.eabi_attribute 21, 1
   6              		.eabi_attribute 23, 3
   7              		.eabi_attribute 24, 1
   8              		.eabi_attribute 25, 1
   9              		.eabi_attribute 26, 1
  10              		.eabi_attribute 30, 1
  11              		.eabi_attribute 34, 0
  12              		.eabi_attribute 18, 4
  13              		.thumb
  14              		.syntax unified
  15              		.file	"main.c"
  16              		.text
  17              	.Ltext0:
  18              		.cfi_sections	.debug_frame
  19              		.section	.text.StackEventHandler,"ax",%progbits
  20              		.align	2
  21              		.global	StackEventHandler
  22              		.code	16
  23              		.thumb_func
  24              		.type	StackEventHandler, %function
  25              	StackEventHandler:
  26              	.LFB37:
  27              		.file 1 "main.c"
   1:main.c        **** /* ========================================
   2:main.c        ****  *
   3:main.c        ****  * Copyright YOUR COMPANY, THE YEAR
   4:main.c        ****  * All Rights Reserved
   5:main.c        ****  * UNPUBLISHED, LICENSED SOFTWARE.
   6:main.c        ****  *
   7:main.c        ****  * CONFIDENTIAL AND PROPRIETARY INFORMATION
   8:main.c        ****  * WHICH IS THE PROPERTY OF your company.
   9:main.c        ****  *
  10:main.c        ****  * ========================================
  11:main.c        **** */
  12:main.c        **** #include <project.h>
  13:main.c        **** 
  14:main.c        **** void StackEventHandler( uint32 eventCode, void *eventParam );
  15:main.c        **** CY_ISR(Timer_Int_Handler)
  16:main.c        **** {
  17:main.c        ****     Timer_ClearInterrupt(Timer_INTR_MASK_TC);
  18:main.c        **** }
  19:main.c        **** 
  20:main.c        **** int main (void)
  21:main.c        **** {
  22:main.c        ****     CyGlobalIntEnable;   /* Enable global interrupts */
  23:main.c        ****     
  24:main.c        ****     UART_Start();
  25:main.c        ****     Timer_Int_StartEx(Timer_Int_Handler);
  26:main.c        ****     /* Place your initialization/startup code here (e.g. MyInst_Start()) */
  27:main.c        **** 
  28:main.c        ****     CyBle_Start( StackEventHandler );
  29:main.c        ****     
  30:main.c        ****     for(;;)
ARM GAS  C:\Users\bryan.lee\AppData\Local\Temp\ccDnhgKc.s 			page 2


  31:main.c        ****     {
  32:main.c        ****         CyDelay(5000);
  33:main.c        ****         UART_UartPutString("Sleeping...\r\n");
  34:main.c        ****         Timer_Start();
  35:main.c        ****         
  36:main.c        ****         CySysPmSleep();
  37:main.c        ****         /* Place your application code here */
  38:main.c        ****         CyBle_ProcessEvents();
  39:main.c        ****         
  40:main.c        ****     }
  41:main.c        **** }
  42:main.c        **** 
  43:main.c        **** void StackEventHandler( uint32 eventCode, void *eventParam )
  44:main.c        **** {
  28              		.loc 1 44 0
  29              		.cfi_startproc
  30              		@ args = 0, pretend = 0, frame = 0
  31              		@ frame_needed = 0, uses_anonymous_args = 0
  32              		@ link register save eliminated.
  33              	.LVL0:
  45:main.c        ****     switch( eventCode )
  46:main.c        ****     {
  47:main.c        ****         /* Generic events */
  48:main.c        **** 
  49:main.c        ****         case CYBLE_EVT_HOST_INVALID:
  50:main.c        ****         break;
  51:main.c        **** 
  52:main.c        ****         case CYBLE_EVT_STACK_ON:
  53:main.c        ****             /* CyBle_GappStartAdvertisement( CYBLE_ADVERTISING_FAST ); */
  54:main.c        ****         break;
  55:main.c        **** 
  56:main.c        ****         case CYBLE_EVT_TIMEOUT:
  57:main.c        ****         break;
  58:main.c        **** 
  59:main.c        ****         case CYBLE_EVT_HARDWARE_ERROR:
  60:main.c        ****         break;
  61:main.c        **** 
  62:main.c        ****         case CYBLE_EVT_HCI_STATUS:
  63:main.c        ****         break;
  64:main.c        **** 
  65:main.c        ****         case CYBLE_EVT_STACK_BUSY_STATUS:
  66:main.c        ****         break;
  67:main.c        **** 
  68:main.c        ****         case CYBLE_EVT_PENDING_FLASH_WRITE:
  69:main.c        ****         break;
  70:main.c        **** 
  71:main.c        **** 
  72:main.c        ****         /* GAP events */
  73:main.c        **** 
  74:main.c        ****         case CYBLE_EVT_GAP_AUTH_REQ:
  75:main.c        ****         break;
  76:main.c        **** 
  77:main.c        ****         case CYBLE_EVT_GAP_PASSKEY_ENTRY_REQUEST:
  78:main.c        ****         break;
  79:main.c        **** 
  80:main.c        ****         case CYBLE_EVT_GAP_PASSKEY_DISPLAY_REQUEST:
  81:main.c        ****         break;
ARM GAS  C:\Users\bryan.lee\AppData\Local\Temp\ccDnhgKc.s 			page 3


  82:main.c        **** 
  83:main.c        ****         case CYBLE_EVT_GAP_AUTH_COMPLETE:
  84:main.c        ****         break;
  85:main.c        **** 
  86:main.c        ****         case CYBLE_EVT_GAP_AUTH_FAILED:
  87:main.c        ****         break;
  88:main.c        **** 
  89:main.c        ****         case CYBLE_EVT_GAP_DEVICE_CONNECTED:
  90:main.c        ****         break;
  91:main.c        **** 
  92:main.c        ****         case CYBLE_EVT_GAP_DEVICE_DISCONNECTED:
  93:main.c        ****             /* CyBle_GappStartAdvertisement(CYBLE_ADVERTISING_FAST); */
  94:main.c        ****         break;
  95:main.c        **** 
  96:main.c        ****         case CYBLE_EVT_GAP_ENCRYPT_CHANGE:
  97:main.c        ****         break;
  98:main.c        **** 
  99:main.c        ****         case CYBLE_EVT_GAP_CONNECTION_UPDATE_COMPLETE:
 100:main.c        ****         break;
 101:main.c        **** 
 102:main.c        ****         case CYBLE_EVT_GAP_KEYINFO_EXCHNGE_CMPLT:
 103:main.c        ****         break;
 104:main.c        **** 
 105:main.c        **** 
 106:main.c        ****         /* GAP Peripheral events */
 107:main.c        **** 
 108:main.c        ****         case CYBLE_EVT_GAPP_ADVERTISEMENT_START_STOP:
 109:main.c        ****         break;
 110:main.c        **** 
 111:main.c        **** 
 112:main.c        ****         /* GAP Central events */
 113:main.c        **** 
 114:main.c        ****         case CYBLE_EVT_GAPC_SCAN_PROGRESS_RESULT:
 115:main.c        ****         break;
 116:main.c        **** 
 117:main.c        ****         case CYBLE_EVT_GAPC_SCAN_START_STOP:
 118:main.c        ****         break;
 119:main.c        **** 
 120:main.c        **** 
 121:main.c        ****         /* GATT events */
 122:main.c        **** 
 123:main.c        ****         case CYBLE_EVT_GATT_CONNECT_IND:
 124:main.c        ****         break;
 125:main.c        **** 
 126:main.c        ****         case CYBLE_EVT_GATT_DISCONNECT_IND:
 127:main.c        ****         break;
 128:main.c        **** 
 129:main.c        **** 
 130:main.c        ****         /* GATT Client events (CYBLE_EVENT_T) */
 131:main.c        **** 
 132:main.c        ****         case CYBLE_EVT_GATTC_ERROR_RSP:
 133:main.c        ****         break;
 134:main.c        **** 
 135:main.c        ****         case CYBLE_EVT_GATTC_XCHNG_MTU_RSP:
 136:main.c        ****         break;
 137:main.c        **** 
 138:main.c        ****         case CYBLE_EVT_GATTC_READ_BY_GROUP_TYPE_RSP:
ARM GAS  C:\Users\bryan.lee\AppData\Local\Temp\ccDnhgKc.s 			page 4


 139:main.c        ****         break;
 140:main.c        **** 
 141:main.c        ****         case CYBLE_EVT_GATTC_READ_BY_TYPE_RSP:
 142:main.c        ****         break;
 143:main.c        **** 
 144:main.c        ****         case CYBLE_EVT_GATTC_FIND_INFO_RSP:
 145:main.c        ****         break;
 146:main.c        **** 
 147:main.c        ****         case CYBLE_EVT_GATTC_FIND_BY_TYPE_VALUE_RSP:
 148:main.c        ****         break;
 149:main.c        **** 
 150:main.c        ****         case CYBLE_EVT_GATTC_READ_RSP:
 151:main.c        ****         break;
 152:main.c        **** 
 153:main.c        ****         case CYBLE_EVT_GATTC_READ_BLOB_RSP:
 154:main.c        ****         break;
 155:main.c        **** 
 156:main.c        ****         case CYBLE_EVT_GATTC_READ_MULTI_RSP:
 157:main.c        ****         break;
 158:main.c        **** 
 159:main.c        ****         case CYBLE_EVT_GATTC_WRITE_RSP:
 160:main.c        ****         break;
 161:main.c        **** 
 162:main.c        ****         case CYBLE_EVT_GATTC_EXEC_WRITE_RSP:
 163:main.c        ****         break;
 164:main.c        **** 
 165:main.c        ****         case CYBLE_EVT_GATTC_HANDLE_VALUE_NTF:
 166:main.c        ****         break;
 167:main.c        **** 
 168:main.c        ****         case CYBLE_EVT_GATTC_HANDLE_VALUE_IND:
 169:main.c        ****         break;
 170:main.c        **** 
 171:main.c        **** 
 172:main.c        ****         /* GATT Client events (CYBLE_EVT_T) */
 173:main.c        **** 
 174:main.c        ****         case CYBLE_EVT_GATTC_INDICATION:
 175:main.c        ****         break;
 176:main.c        **** 
 177:main.c        ****         case CYBLE_EVT_GATTC_SRVC_DISCOVERY_FAILED:
 178:main.c        ****         break;
 179:main.c        **** 
 180:main.c        ****         case CYBLE_EVT_GATTC_INCL_DISCOVERY_FAILED:
 181:main.c        ****         break;
 182:main.c        **** 
 183:main.c        ****         case CYBLE_EVT_GATTC_CHAR_DISCOVERY_FAILED:
 184:main.c        ****         break;
 185:main.c        **** 
 186:main.c        ****         case CYBLE_EVT_GATTC_DESCR_DISCOVERY_FAILED:
 187:main.c        ****         break;
 188:main.c        **** 
 189:main.c        ****         case CYBLE_EVT_GATTC_SRVC_DUPLICATION:
 190:main.c        ****         break;
 191:main.c        **** 
 192:main.c        ****         case CYBLE_EVT_GATTC_CHAR_DUPLICATION:
 193:main.c        ****         break;
 194:main.c        **** 
 195:main.c        ****         case CYBLE_EVT_GATTC_DESCR_DUPLICATION:
ARM GAS  C:\Users\bryan.lee\AppData\Local\Temp\ccDnhgKc.s 			page 5


 196:main.c        ****         break;
 197:main.c        **** 
 198:main.c        ****         case CYBLE_EVT_GATTC_SRVC_DISCOVERY_COMPLETE:
 199:main.c        ****         break;
 200:main.c        **** 
 201:main.c        ****         case CYBLE_EVT_GATTC_INCL_DISCOVERY_COMPLETE:
 202:main.c        ****         break;
 203:main.c        **** 
 204:main.c        ****         case CYBLE_EVT_GATTC_CHAR_DISCOVERY_COMPLETE:
 205:main.c        ****         break;
 206:main.c        **** 
 207:main.c        ****         case CYBLE_EVT_GATTC_DISCOVERY_COMPLETE:
 208:main.c        ****         break;
 209:main.c        **** 
 210:main.c        **** 
 211:main.c        ****         /* GATT Server events (CYBLE_EVENT_T) */
 212:main.c        **** 
 213:main.c        ****         case CYBLE_EVT_GATTS_XCNHG_MTU_REQ:
 214:main.c        ****         break;
 215:main.c        **** 
 216:main.c        ****         case CYBLE_EVT_GATTS_WRITE_REQ:
 217:main.c        ****         break;
 218:main.c        **** 
 219:main.c        ****         case CYBLE_EVT_GATTS_WRITE_CMD_REQ:
 220:main.c        ****         break;
 221:main.c        **** 
 222:main.c        ****         case CYBLE_EVT_GATTS_PREP_WRITE_REQ:
 223:main.c        ****         break;
 224:main.c        **** 
 225:main.c        ****         case CYBLE_EVT_GATTS_EXEC_WRITE_REQ:
 226:main.c        ****         break;
 227:main.c        **** 
 228:main.c        ****         case CYBLE_EVT_GATTS_HANDLE_VALUE_CNF:
 229:main.c        ****         break;
 230:main.c        **** 
 231:main.c        ****         case CYBLE_EVT_GATTS_DATA_SIGNED_CMD_REQ:
 232:main.c        ****         break;
 233:main.c        **** 
 234:main.c        **** 
 235:main.c        ****         /* GATT Server events (CYBLE_EVT_T) */
 236:main.c        **** 
 237:main.c        ****         case CYBLE_EVT_GATTS_INDICATION_ENABLED:
 238:main.c        ****         break;
 239:main.c        **** 
 240:main.c        ****         case CYBLE_EVT_GATTS_INDICATION_DISABLED:
 241:main.c        ****         break;
 242:main.c        **** 
 243:main.c        **** 
 244:main.c        ****         /* L2CAP events */
 245:main.c        **** 
 246:main.c        ****         case CYBLE_EVT_L2CAP_CONN_PARAM_UPDATE_REQ:
 247:main.c        ****         break;
 248:main.c        **** 
 249:main.c        ****         case CYBLE_EVT_L2CAP_CONN_PARAM_UPDATE_RSP:
 250:main.c        ****         break;
 251:main.c        **** 
 252:main.c        ****         case CYBLE_EVT_L2CAP_COMMAND_REJ:
ARM GAS  C:\Users\bryan.lee\AppData\Local\Temp\ccDnhgKc.s 			page 6


 253:main.c        ****         break;
 254:main.c        **** 
 255:main.c        ****         case CYBLE_EVT_L2CAP_CBFC_CONN_IND:
 256:main.c        ****         break;
 257:main.c        **** 
 258:main.c        ****         case CYBLE_EVT_L2CAP_CBFC_CONN_CNF:
 259:main.c        ****         break;
 260:main.c        **** 
 261:main.c        ****         case CYBLE_EVT_L2CAP_CBFC_DISCONN_IND:
 262:main.c        ****         break;
 263:main.c        **** 
 264:main.c        ****         case CYBLE_EVT_L2CAP_CBFC_DISCONN_CNF:
 265:main.c        ****         break;
 266:main.c        **** 
 267:main.c        ****         case CYBLE_EVT_L2CAP_CBFC_DATA_READ:
 268:main.c        ****         break;
 269:main.c        **** 
 270:main.c        ****         case CYBLE_EVT_L2CAP_CBFC_RX_CREDIT_IND:
 271:main.c        ****         break;
 272:main.c        **** 
 273:main.c        ****         case CYBLE_EVT_L2CAP_CBFC_TX_CREDIT_IND:
 274:main.c        ****         break;
 275:main.c        **** 
 276:main.c        ****         case CYBLE_EVT_L2CAP_CBFC_DATA_WRITE_IND:
 277:main.c        ****         break;
 278:main.c        **** 
 279:main.c        **** 
 280:main.c        ****         /* default catch-all case */
 281:main.c        **** 
 282:main.c        ****         default:
 283:main.c        ****         break;
 284:main.c        ****     }
 285:main.c        **** }
  34              		.loc 1 285 0
  35              		@ sp needed
  36 0000 7047     		bx	lr
  37              		.cfi_endproc
  38              	.LFE37:
  39              		.size	StackEventHandler, .-StackEventHandler
  40 0002 C046     		.section	.text.Timer_Int_Handler,"ax",%progbits
  41              		.align	2
  42              		.global	Timer_Int_Handler
  43              		.code	16
  44              		.thumb_func
  45              		.type	Timer_Int_Handler, %function
  46              	Timer_Int_Handler:
  47              	.LFB35:
  16:main.c        ****     Timer_ClearInterrupt(Timer_INTR_MASK_TC);
  48              		.loc 1 16 0
  49              		.cfi_startproc
  50              		@ args = 0, pretend = 0, frame = 0
  51              		@ frame_needed = 0, uses_anonymous_args = 0
  52 0000 10B5     		push	{r4, lr}
  53              		.cfi_def_cfa_offset 8
  54              		.cfi_offset 4, -8
  55              		.cfi_offset 14, -4
  17:main.c        **** }
ARM GAS  C:\Users\bryan.lee\AppData\Local\Temp\ccDnhgKc.s 			page 7


  56              		.loc 1 17 0
  57 0002 0120     		movs	r0, #1
  58 0004 FFF7FEFF 		bl	Timer_ClearInterrupt
  59              	.LVL1:
  18:main.c        **** 
  60              		.loc 1 18 0
  61              		@ sp needed
  62 0008 10BD     		pop	{r4, pc}
  63              		.cfi_endproc
  64              	.LFE35:
  65              		.size	Timer_Int_Handler, .-Timer_Int_Handler
  66 000a C046     		.section	.text.main,"ax",%progbits
  67              		.align	2
  68              		.global	main
  69              		.code	16
  70              		.thumb_func
  71              		.type	main, %function
  72              	main:
  73              	.LFB36:
  21:main.c        ****     CyGlobalIntEnable;   /* Enable global interrupts */
  74              		.loc 1 21 0
  75              		.cfi_startproc
  76              		@ Volatile: function does not return.
  77              		@ args = 0, pretend = 0, frame = 0
  78              		@ frame_needed = 0, uses_anonymous_args = 0
  79 0000 10B5     		push	{r4, lr}
  80              		.cfi_def_cfa_offset 8
  81              		.cfi_offset 4, -8
  82              		.cfi_offset 14, -4
  22:main.c        ****     
  83              		.loc 1 22 0
  84              		.syntax divided
  85              	@ 22 "main.c" 1
  86 0002 62B6     		CPSIE   i
  87              	@ 0 "" 2
  24:main.c        ****     Timer_Int_StartEx(Timer_Int_Handler);
  88              		.loc 1 24 0
  89              		.thumb
  90              		.syntax unified
  91 0004 FFF7FEFF 		bl	UART_Start
  92              	.LVL2:
  25:main.c        ****     /* Place your initialization/startup code here (e.g. MyInst_Start()) */
  93              		.loc 1 25 0
  94 0008 0948     		ldr	r0, .L5
  95 000a FFF7FEFF 		bl	Timer_Int_StartEx
  96              	.LVL3:
  28:main.c        ****     
  97              		.loc 1 28 0
  98 000e 0948     		ldr	r0, .L5+4
  99 0010 FFF7FEFF 		bl	CyBle_Start
 100              	.LVL4:
 101              	.L4:
  32:main.c        ****         UART_UartPutString("Sleeping...\r\n");
 102              		.loc 1 32 0 discriminator 1
 103 0014 0848     		ldr	r0, .L5+8
 104 0016 FFF7FEFF 		bl	CyDelay
 105              	.LVL5:
ARM GAS  C:\Users\bryan.lee\AppData\Local\Temp\ccDnhgKc.s 			page 8


  33:main.c        ****         Timer_Start();
 106              		.loc 1 33 0 discriminator 1
 107 001a 0848     		ldr	r0, .L5+12
 108 001c FFF7FEFF 		bl	UART_UartPutString
 109              	.LVL6:
  34:main.c        ****         
 110              		.loc 1 34 0 discriminator 1
 111 0020 FFF7FEFF 		bl	Timer_Start
 112              	.LVL7:
  36:main.c        ****         /* Place your application code here */
 113              		.loc 1 36 0 discriminator 1
 114 0024 FFF7FEFF 		bl	CySysPmSleep
 115              	.LVL8:
  38:main.c        ****         
 116              		.loc 1 38 0 discriminator 1
 117 0028 FFF7FEFF 		bl	CyBle_ProcessEvents
 118              	.LVL9:
 119 002c F2E7     		b	.L4
 120              	.L6:
 121 002e C046     		.align	2
 122              	.L5:
 123 0030 00000000 		.word	Timer_Int_Handler
 124 0034 00000000 		.word	StackEventHandler
 125 0038 88130000 		.word	5000
 126 003c 00000000 		.word	.LC2
 127              		.cfi_endproc
 128              	.LFE36:
 129              		.size	main, .-main
 130              		.section	.rodata.str1.4,"aMS",%progbits,1
 131              		.align	2
 132              	.LC2:
 133 0000 536C6565 		.ascii	"Sleeping...\015\012\000"
 133      70696E67 
 133      2E2E2E0D 
 133      0A00
 134              		.text
 135              	.Letext0:
 136              		.file 2 "Generated_Source\\PSoC4/BLE_Stack.h"
 137              		.file 3 "Generated_Source\\PSoC4/BLE_eventHandler.h"
 138              		.file 4 "Generated_Source\\PSoC4/Timer.h"
 139              		.file 5 "Generated_Source\\PSoC4/UART.h"
 140              		.file 6 "Generated_Source\\PSoC4/Timer_Int.h"
 141              		.file 7 "Generated_Source\\PSoC4/BLE.h"
 142              		.file 8 "Generated_Source\\PSoC4/CyLib.h"
 143              		.file 9 "Generated_Source\\PSoC4/UART_SPI_UART.h"
 144              		.file 10 "Generated_Source\\PSoC4/cyPm.h"
 145              		.file 11 "Generated_Source\\PSoC4/cytypes.h"